ARM GAS  C:\Users\gjl\AppData\Local\Temp\ccUCbfjV.s 			page 1


   1              		.syntax unified
   2              		.cpu cortex-m0
   3              		.fpu softvfp
   4              		.eabi_attribute 20, 1
   5              		.eabi_attribute 21, 1
   6              		.eabi_attribute 23, 3
   7              		.eabi_attribute 24, 1
   8              		.eabi_attribute 25, 1
   9              		.eabi_attribute 26, 1
  10              		.eabi_attribute 30, 4
  11              		.eabi_attribute 34, 0
  12              		.eabi_attribute 18, 4
  13              		.thumb
  14              		.syntax unified
  15              		.file	"A0.c"
  16              		.text
  17              	.Ltext0:
  18              		.section	.gnu.lto_.profile.b55f49b,"",%progbits
  19 0000 789C6361 		.ascii	"x\234ca`d`a`\000\222J2\000\000\312\000I"
  19      60646061 
  19      6000924A 
  19      320000CA 
  19      0049
  20              		.text
  21              		.section	.gnu.lto_.icf.b55f49b,"",%progbits
  22 0000 789C6361 		.ascii	"x\234ca`d\000\0015\006\004`c84\341\315\014>\306_\227"
  22      60640001 
  22      35060460 
  22      633834E1 
  22      CD0C3EC6 
  23 0016 669D6261 		.ascii	"f\235ba\372zq\356\022>\346W\247f\267p\261<oZ\272\231"
  23      FA7A71EE 
  23      123EE657 
  23      A766B770 
  23      B13C6F5A 
  24 002c 87F5FDB6 		.ascii	"\207\365\375\266\267\353x\031\000l\014\022e"
  24      B7EB7819 
  24      006C0C12 
  24      65
  25              		.text
  26              		.section	.gnu.lto_.jmpfuncs.b55f49b,"",%progbits
  27 0000 789C45C9 		.ascii	"x\234E\311\261\001\000 \010\300\260\026\320+\374\225"
  27      B1010020 
  27      08C0B016 
  27      D02BFC95 
  28 0010 D795C90C 		.ascii	"\327\225\311\014]Z\3108|\033\265\235\004$Thv\257\367"
  28      5D5AC838 
  28      7C1BB59D 
  28      04245468 
  28      76AFF7
  29 0023 2E215502 		.ascii	".!U\002@"
  29      40
  30              		.text
  31              		.section	.gnu.lto_.inline.b55f49b,"",%progbits
  32 0000 789C658C 		.ascii	"x\234e\214\313\015\2000\014C\2354M\213\204\004\033t"
  32      CB0D8030 
  32      0C439D34 
ARM GAS  C:\Users\gjl\AppData\Local\Temp\ccUCbfjV.s 			page 2


  32      4D8B8404 
  32      1B74
  33 0012 0346E89A 		.ascii	"\003F\350\232\\;\012#0\012#\220H(\010\341\203\017\317"
  33      5C3B0A23 
  33      300A2390 
  33      482808E1 
  33      830FCF
  34 0025 1F01C1B5 		.ascii	"\037\001\301\265\343\225\002E\211P-\342zt\350h\354\201"
  34      E3950245 
  34      89502DE2 
  34      7A74E868 
  34      EC81
  35 0037 A1F2F014 		.ascii	"\241\362\360\024\234\317E<dd!\260\214\026\375\364G\202"
  35      9CCF453C 
  35      646421B0 
  35      8C16FDF4 
  35      4782
  36 0049 A91263B5 		.ascii	"\251\022c\265\013r\223\357\217\331\354\265\014\315\266"
  36      0B7293EF 
  36      8FD9ECB5 
  36      0CCDB6
  37 0058 D46B8B25 		.ascii	"\324k\213%n2B\016g"
  37      6E32420E 
  37      67
  38              		.text
  39              		.section	.gnu.lto_.pureconst.b55f49b,"",%progbits
  40 0000 789C6361 		.ascii	"x\234ca`d\340e```c\220b\224b\222b\226b\221b\225\002"
  40      6064E065 
  40      60606063 
  40      90629462 
  40      92629662 
  41 0018 00059500 		.ascii	"\000\005\225\000\304"
  41      C4
  42              		.text
  43              		.section	.gnu.lto_A0_SetDriveMode.b55f49b,"",%progbits
  44 0000 789C7D50 		.ascii	"x\234}P\317+DQ\024>\337\275o\336\214\204\255\362\212"
  44      CF2B4451 
  44      143EDFBD 
  44      6FDE8C84 
  44      ADF28A
  45 0013 B2908D14 		.ascii	"\262\220\215\024\377\200,le\266#\211\267djb\355\316"
  45      FF802C6C 
  45      65B62389 
  45      B7646A62 
  45      EDCE
  46 0025 CC7B91D5 		.ascii	"\314{\221\325H\224\244\331\220\337$Ev\323\210\345\330"
  46      4894A4D9 
  46      90DF2445 
  46      76D388E5 
  46      D8
  47 0036 C852B278 		.ascii	"\310R\262x\312j\374\252Ix\316\231g\355\324\371qO\337"
  47      CA6AFCAA 
  47      4978CE99 
  47      67EDD4F9 
  47      714FDF
  48 0049 F79D73AE 		.ascii	"\367\235s\256E \261uN\235\234\333\330\241\011\252P!"
  48      4520B175 
ARM GAS  C:\Users\gjl\AppData\Local\Temp\ccUCbfjV.s 			page 3


  48      4E9D9CDB 
  48      D8A109AA 
  48      5021
  49 005b CA261420 		.ascii	"\312&\024 \205I\200\346\024\346\360\241\276\025\312"
  49      854980E6 
  49      14E6F0A1 
  49      BE15CA
  50 006a F3C185EA 		.ascii	"\363\301\205\352\3366l\017~0\2345~\253\257\211BUW\""
  50      DE366C0F 
  50      7E309C35 
  50      7EABAF89 
  50      42555722 
  51 007e 6CA39B51 		.ascii	"l\243\233Qo\247[\313\215\272\035\304\365K\245z\337\334"
  51      6FA75BCB 
  51      8DBA1DC4 
  51      F54BA57A 
  51      DFDC
  52 0090 B5654CCE 		.ascii	"\265eL\316\230\245Q\243}\015\354@3\003}\016z\035\342"
  52      98A551A3 
  52      7D0DEC40 
  52      33037D0E 
  52      7A1DE2
  53 00a3 0661175D 		.ascii	"\006a\027]\002~<\371Yi\262=\221\357\210D\261\007[\326"
  53      027E3CF9 
  53      5969B23D 
  53      91EF8844 
  53      B1075BD6 
  54 00b7 3C1E2999 		.ascii	"<\036)\2310\314\233\322\251}uf'\024\323\224\226`A\310"
  54      30CC9BD2 
  54      A97D7566 
  54      2714D394 
  54      966041C8 
  55 00cb 31296D09 		.ascii	"1)m\011DUv\331\374E)\311:@\371s\361n\315\026\251\274"
  55      445576D9 
  55      FC4529C9 
  55      3A40F973 
  55      F16ECD16 
  56 00e1 962B56FD 		.ascii	"\226+V\375\362M\374]\371Z\327W<\277\314>\251\350\271"
  56      F24DFC5D 
  56      F95AD757 
  56      3CBFCC3E 
  56      A9E8B9
  57 00f4 E0158CC5 		.ascii	"\340\025\214\305\255B\355\304XEld=\370\332\302\001\034"
  57      AD42EDC4 
  57      58456C64 
  57      3DF8DAC2 
  57      011C
  58 0106 ECC3E175 		.ascii	"\354\303\341u\016Q\004\005\310\177\375\311\351H\361"
  58      0E510405 
  58      C87FFDC9 
  58      E948F1
  59 0115 D6DBBC6F 		.ascii	"\326\333\274o\020\011\205Z\030\206-8bt\200\334k<\202"
  59      1009855A 
  59      18862D38 
  59      627480DC 
  59      6B3C82
  60 0128 C5F2DA12 		.ascii	"\305\362\332\022Z\355\217\0261c\334*\257BZ\377\315<"
ARM GAS  C:\Users\gjl\AppData\Local\Temp\ccUCbfjV.s 			page 4


  60      5AED8F16 
  60      3163DC2A 
  60      AF425AFF 
  60      CD3C
  61 013a E6994CA1 		.ascii	"\346\231L\241g\344J\347\327J\340\365\337\256*\310\201"
  61      67E44AE7 
  61      D74AE0F5 
  61      DFAE2AC8 
  61      81
  62 014b 7CAE33E4 		.ascii	"|\2563\344N\273\231\361\031wr,\231\236\315L\270\251"
  62      4EBB99F1 
  62      1977722C 
  62      999ECD4C 
  62      B8A9
  63 015d E1647AB0 		.ascii	"\341dz\260?5\320\3333A\326Tz\322\375\005f]\220p"
  63      3F35D0DB 
  63      3341D654 
  63      7AD2FD05 
  63      665D9070 
  64              		.text
  65              		.section	.gnu.lto_A0_Write.b55f49b,"",%progbits
  66 0000 789C5551 		.ascii	"x\234UQ=k\024Q\024\275\347\275\371X\262\354/pI\322,"
  66      3D6B1451 
  66      14BDE7BD 
  66      F958B2EC 
  66      2F7049D2 
  67 0015 21296441 		.ascii	"!)dA++\305\"m0`\265\020\226d\272\305\300\222\244\315"
  67      2B2BC522 
  67      6D3060B5 
  67      109664BA 
  67      C5C092A4 
  68 002a DBAF2C68 		.ascii	"\333\257,h\023\013c\021L\012\221\304\370\021WH@\260"
  68      130B6311 
  68      4C0A91C4 
  68      F8115748 
  68      40B0
  69 003c 18A74991 		.ascii	"\030\247I\221\260b\264\210\030E\003\256\250\205\253"
  69      B062B488 
  69      184503AE 
  69      A885AB
  70 004b 24287E64 		.ascii	"$(~d\275w^\223\275\314\233\367\346\3149g\316\275\343"
  70      BD775E93 
  70      BDCC9BF7 
  70      E6CC3967 
  70      CEBDE3
  71 005e 1048EABC 		.ascii	"\020H\352\274\"\032\342\375\024/h\202\232o\022\225\022"
  71      221AE2FD 
  71      142F6882 
  71      9A6F1295 
  71      12
  72 006f 0A908349 		.ascii	"\012\220\203I\200f\025fq\244\376)D\365\326\0235\270"
  72      80661566 
  72      71A4FE29 
  72      44F5D613 
  72      35B8
  73 0081 62B8DE7F 		.ascii	"b\270\336\177\374\2315\253!j\232\250\243b'\302\012\006"
  73      FC9935AB 
ARM GAS  C:\Users\gjl\AppData\Local\Temp\ccUCbfjV.s 			page 5


  73      216A9AA8 
  73      A36227C2 
  73      0A06
  74 0093 99F5E969 		.ascii	"\231\365\351i\375\025t\037\210\317s\321Q;9p\307\230"
  74      FD15741F 
  74      88CF73D1 
  74      513B3970 
  74      C798
  75 00a5 B2316F72 		.ascii	"\2621orF\3274\260\012\315\012\234I#\233&\006\010w1 "
  75      46D734B0 
  75      0ACD0A9C 
  75      49239B26 
  75      06087731 
  76 00ba E4CFD1B5 		.ascii	"\344\317\321\265\202\316\304\272\255\315\353\035dn\213"
  76      82CEC4BA 
  76      ADCDEB1D 
  76      646E8B
  77 00c9 2E7CB995 		.ascii	".|\271\225\272i\302R\277h\327Nj\245\230{\3208\276\221"
  77      BA69C252 
  77      BF68D74E 
  77      6AA5987B 
  77      D038BE91 
  78 00dd F2AA92AA 		.ascii	"\362\252\222\252\037\367\220\261yp\037\036w\010A\326"
  78      1FF790B1 
  78      79701F1E 
  78      770841D6 
  79 00ed 2F85A6D3 		.ascii	"/\205\246\323\251\230\360\205\377l\317\357Q\374U\245"
  79      A998F085 
  79      FF6CCFEF 
  79      51FC55A5 
  80 00fd F9A61D92 		.ascii	"\371\246\035\222\327.$\201'\200\037\003\011!\020\265"
  80      D72E2481 
  80      27801F03 
  80      092110B5 
  81 010d 79C910BE 		.ascii	"y\311\020\276+%\273n!\372}\265\2714#\326\025-\003Y\250"
  81      2B25BB6E 
  81      21FA7DB5 
  81      B93423D6 
  81      152D0359 
  82 0122 45CFFD43 		.ascii	"E\317\375CU\323N\234\372O\363\360[\322>\232\352\274"
  82      55D34E9C 
  82      FA4FF3F0 
  82      5BD23E9A 
  82      EABC
  83 0134 71185ADC 		.ascii	"q\030Z\334\330|\233Z\306\255R\225G\345\342!\322x\000"
  83      D87C9B5A 
  83      C6AD5295 
  83      47E5E221 
  83      D27800
  84 0147 8E8E752C 		.ascii	"\216\216u,\203Z(\377\250\357+k\250\331\223\221\312\337"
  84      835A28FF 
  84      A8EF2B6B 
  84      A8D99391 
  84      CADF
  85 0159 B97D58C4 		.ascii	"\271}X\304a\220=\366\276\356n\307\266\032\307\300#\226"
  85      61903DF6 
  85      BEEE6EC7 
ARM GAS  C:\Users\gjl\AppData\Local\Temp\ccUCbfjV.s 			page 6


  85      B61AC7C0 
  85      2396
  86 016b 1F20D648 		.ascii	"\037 \326HVfY\321n\257\025\361\345\262h\243\276\323"
  86      566659D1 
  86      6EAF15F1 
  86      E5B268A3 
  86      BED3
  87 017d E81111B8 		.ascii	"\350\021\021\270\032\254a\322/\317R\374\330\332\353"
  87      1AAC61D2 
  87      2FCF52FC 
  87      D8DAEB
  88 018c B6F16D9A 		.ascii	"\266\361m\232wK\347,)a\241h\341CJ\200\256^J\306$\273"
  88      774BE72C 
  88      2961A168 
  88      E1434A80 
  88      AE5E4AC6 
  89 01a2 DB79CCED 		.ascii	"\333y\314\355\260\206\276\240\034\276\036\026A\374{"
  89      B086BEA0 
  89      1CBE1E16 
  89      41FC7B
  90 01b1 DA0A323A 		.ascii	"\332\0122:\036dz8\270\022\024\363S\301\304\330\350\344"
  90      1E647A38 
  90      B81214F3 
  90      53C1C4D8 
  90      E8E4
  91 01c3 74713CC8 		.ascii	"tq<\310\215\214N^<\233\273\220==N\356L\2760\035\270"
  91      8D8C4E5E 
  91      3C9BBB90 
  91      3D3D4EEE 
  91      4CBE301D 
  92 01d8 13C5CBF9 		.ascii	"\023\305\313\371\302\177\320r\305F"
  92      C27FD072 
  92      C546
  93              		.text
  94              		.section	.gnu.lto_A0_Read.b55f49b,"",%progbits
  95 0000 789C2D4E 		.ascii	"x\234-N1H\003A\020\334\271{cx\260\027|\3046\215\004"
  95      31480341 
  95      10DCB97B 
  95      6378B017 
  95      7CC4368D 
  96 0015 B4B1140B 		.ascii	"\264\261\024\013[1\235\004D\342\267\006\202\326\271"
  96      5B319D04 
  96      44E2B706 
  96      82D6B9
  97 0024 E4FF0988 		.ascii	"\344\377\011\210E\032\015\026\222\316$\032\220 \246"
  97      451A0D16 
  97      92CE241A 
  97      9020A6
  98 0033 B0903795 		.ascii	"\260\2207\225\240\230\316N\020\221\024VQ\024A\324w\327"
  98      A098CE4E 
  98      10911456 
  98      511441D4 
  98      77D7
  99 0045 77E1D8DD 		.ascii	"w\341\330\335\271\331\231\261\010$5\316m\222\373\004"
  99      B9D999B1 
  99      082435CE 
  99      6D92FB04 
ARM GAS  C:\Users\gjl\AppData\Local\Temp\ccUCbfjV.s 			page 7


 100 0055 3F6882AA 		.ascii	"?h\202\252\336\022\225\222\012\220\301$AE\205\"\336"
 100      DE129592 
 100      0A90C124 
 100      41458522 
 100      DE
 101 0066 D5B7C2F5 		.ascii	"\325\267\302\365\307\325\216\235j\030S6\017\301\341"
 101      C7D58E9D 
 101      6A185336 
 101      0FC1E1
 102 0075 5CAD1922 		.ascii	"\\\255\031\"\320D\221\"\3148H;\"\321@\212\230\372\330"
 102      D0449122 
 102      CC38483B 
 102      22D1408A 
 102      98FAD8
 103 0088 F9D91D4B 		.ascii	"\371\331\035K\370\206kJ\010\374\323DB,O\226C\023E\236"
 103      F8866B4A 
 103      08FCD344 
 103      422C4F96 
 103      4313459E 
 104 009c 094FEDCB 		.ascii	"\011O\355\313\256=\242(\320\354\033he\221\210\321\220"
 104      AE3DA228 
 104      D0EC1B68 
 104      659188D1 
 104      90
 105 00ad C962FDA2 		.ascii	"\311b\375\242\224t=@\357s\373\256\265\"\367\236\226"
 105      94743D40 
 105      EF73FBAE 
 105      B522F79E 
 105      96
 106 00be 187B41AF 		.ascii	"\030{A\257?\372\246\002\255!V\347\265\356\205\216W\337"
 106      3FFAA602 
 106      AD2156E7 
 106      B5EE858E 
 106      57DF
 107 00d0 AF1A8BA1 		.ascii	"\257\032\213\241\376\375\376\320\256\343\240\344s@\013"
 107      FEFDFED0 
 107      AEE3A0E4 
 107      73400B
 108 00df 4770D002 		.ascii	"Gp\320\002\307\3031\352\240\001\312\257\225'\304\202"
 108      C7C331EA 
 108      A001CAAF 
 108      9527C482 
 109 00ef 9A3519F1 		.ascii	"\2325\031\361\276\022\361n1\304\012g\225\233\216-\242"
 109      BE12F16E 
 109      31C40A67 
 109      959B8E2D 
 109      A2
 110 0100 04A0CDB7 		.ascii	"\004\240\315\267\317P\377\004\372\013\011\011\307Q\235"
 110      CF50FF04 
 110      FA0B0909 
 110      C7519D
 111 010f 4577C32D 		.ascii	"Ew\303-\254m\272\353\253\231\374V!\347f\2272\371\205"
 111      AC6DBAEB 
 111      AB99FC56 
 111      21E76697 
 111      32F985
 112 0122 D9EC7C7A 		.ascii	"\331\354|z:G\277\236]f5"
ARM GAS  C:\Users\gjl\AppData\Local\Temp\ccUCbfjV.s 			page 8


 112      3A47BF9E 
 112      5D6635
 113              		.text
 114              		.section	.gnu.lto_A0_ReadDataReg.b55f49b,"",%progbits
 115 0000 789C2D4E 		.ascii	"x\234-N\277K\202Q\024\275\347\275/\023?\334\203>\242"
 115      BF4B8251 
 115      14BDE7BD 
 115      2F133FDC 
 115      833EA2
 116 0013 D525845A 		.ascii	"\325%\204Z\032\243\2415r\013!\302\2765Aj\366\351\347"
 116      1AA3A135 
 116      720B21C2 
 116      BE35416A 
 116      F6E9E7
 117 0026 43880697 		.ascii	"C\210\006\227j\220r\324J\010\011\233\277\234\202\302"
 117      6A9072D4 
 117      4A08099B 
 117      BF9C82C2 
 118 0036 FE822022 		.ascii	"\376\202 \"\034Z\372\201\025\364\313\356\315.<\356\275"
 118      1C5AFA81 
 118      15F4CBEE 
 118      CD2E3CEE 
 118      BD
 119 0047 E79D7BCE 		.ascii	"\347\235{\316q\010$5\306m\202\3738?h\202\252t\211\012"
 119      71082435 
 119      C66D82FB 
 119      383F6882 
 119      AA74890A 
 120 005b 5105C860 		.ascii	"Q\005\310`\242\240\274B\036\257\352[\341\362\375b;\226"
 120      A2A0BC42 
 120      1EAFEA5B 
 120      E1F2FD62 
 120      3B96
 121 006d A81B5334 		.ascii	"\250\033S4\267\366tv\257\021\302j\242\201\"L{Hz\"QG"
 121      B7F67476 
 121      AF11C26A 
 121      A281224C 
 121      7B487A22 
 122 0083 82987AD7 		.ascii	"\202\230z\327\372\331\211GJ\206kR\010\374\323@D,O\226"
 122      FAD98947 
 122      4A866B52 
 122      08FCD340 
 122      442C4F96 
 123 0097 42331804 		.ascii	"B3\030\004&\254\272\347\007\356\210\"\253\331\327j\345"
 123      26ACBAE7 
 123      07EE8822 
 123      ABD9D76A 
 123      E5
 124 00a8 9088D113 		.ascii	"\220\210\321\023\223\305\372Y)\351\272\207\316\307\326"
 124      93C5FA59 
 124      29E9BA87 
 124      CEC7D6
 125 00b7 5B7359EE 		.ascii	"[sY\356\003-1vm\347z\264\257\254\326\020\253\317n\377"
 125      032D3176 
 125      6DE77AB4 
 125      AFACD610 
 125      ABCF6EFF 
ARM GAS  C:\Users\gjl\AppData\Local\Temp\ccUCbfjV.s 			page 9


 126 00cb D11DAEA6 		.ascii	"\321\035\256\246T1\016C\325\366\331M\274\206\375B\211"
 126      54310E43 
 126      D5F6D94D 
 126      BC86FD42 
 126      89
 127 00dc 033A3882 		.ascii	"\003:8\202\207Cp<\034\243\006\352\241\370R\276\307P"
 127      8743703C 
 127      1CA306EA 
 127      A1F852BE 
 127      C750
 128 00ee 50B32623 		.ascii	"P\263&#\301Wd\270;\014\261B\273|\325\212\211(\001h\362"
 128      C15764B8 
 128      3B0CB142 
 128      BB7CD58A 
 128      89280168 
 129 0103 ED03D43F 		.ascii	"\355\003\324?\201\376BB\302qTo\301_\367s\253\033\376"
 129      81FE4242 
 129      C271546F 
 129      C15FF773 
 129      AB1BFE
 130 0116 DA4A2ABB 		.ascii	"\332J*\273\231\313\370\351\305Tv~&=\227\234\312\320"
 130      99CBF8E9 
 130      C554767E 
 130      263D979C 
 130      CAD0
 131 0128 2F00ED66 		.ascii	"/\000\355f\323"
 131      D3
 132              		.text
 133              		.section	.gnu.lto_A0_SetInterruptMode.b55f49b,"",%progbits
 134 0000 789C6D51 		.ascii	"x\234mQ\317k\023A\024~of\223\335$\355\326\273\001s)"
 134      CF6B1341 
 134      147E6F66 
 134      93DD24ED 
 134      D6BB0173 
 135 0015 B10745A1 		.ascii	"\261\007E\241\377\200\366\340M\212\275\026\244\264Q"
 135      FF80F6E0 
 135      4D8ABD16 
 135      A4B451
 136 0024 72309118 		.ascii	"r0\221\030\317\235d7)\024\221\322b\300b((K\252U\373"
 136      CF9D6437 
 136      291491D2 
 136      62C06228 
 136      284BAA55 
 137 0039 D38239AD 		.ascii	"\323\2029\255\001\361`U\252\026QA\264j\012\305CZ+\226"
 137      01F16055 
 137      AA165141 
 137      B46A0AC5 
 137      435A2B96 
 138 004d A28DEFED 		.ascii	"\242\215\357\355\346Rp`w\346}|\3377\337{\243\001\002"
 138      E6527060 
 138      77E67D7C 
 138      DF37DF7B 
 138      A30102
 139 0060 AF8A00E8 		.ascii	"\257\212\000\350\246\3750}(\001\305\330K\200\234!\020"
 139      A6FD307D 
 139      2801C5D8 
 139      4B809C21 
ARM GAS  C:\Users\gjl\AppData\Local\Temp\ccUCbfjV.s 			page 10


 139      10
 140 0071 F9A00C84 		.ascii	"\371\240\014\204a\201\303\370K\374\025X\033\251?\026"
 140      6181C3F8 
 140      4BFC1558 
 140      1BA93F16 
 141 0081 5D1545EB 		.ascii	"]\025E\353\363\367\215\223j\332\305\202\004h\012\317"
 141      F3F78D93 
 141      6ADAC582 
 141      04680ACF 
 142 0091 09B0825D 		.ascii	"\011\260\202]\304z\332\374\355v\354\210\202Dd\321\353"
 142      C47ADAFC 
 142      ED76EC88 
 142      824464D1 
 142      EB
 143 00a2 C64A39C2 		.ascii	"\306J9\302\245\300CTNn:%S\036A\240\363\306\322\355w"
 143      A5C04354 
 143      4E6E3A25 
 143      531E41A0 
 143      F3C6D2ED 
 144 00b7 E1B8A354 		.ascii	"\341\270\243T^\251\211\001\025(H\211\367P\222\037\336"
 144      5EA98901 
 144      15284889 
 144      F750921F 
 144      DE
 145 00c8 C5284E63 		.ascii	"\305(Nc\024\010\002\234\3018\261\177.:\023\021y\324"
 145      1408029C 
 145      C138B17F 
 145      2E3A1311 
 145      79D4
 146 00da 536E5B8E 		.ascii	"Sn[\216\325\326R\256\265\224\367\377\243|\200q\246\257"
 146      D5D652AE 
 146      B594F7FF 
 146      A37C8071 
 146      A6AF
 147 00ec DA73B7A4 		.ascii	"\332s\267\244\037I\243r\353\305\344W\323\217\024\243"
 147      1F49A372 
 147      EBC5E457 
 147      D38F14A3 
 148 00fc 72C65973 		.ascii	"r\306Ys\204<\346\031\217\276\037_h\357\274\303\306\356"
 148      843CE619 
 148      8FBE1F5F 
 148      68EFBCC3 
 148      C6EE
 149 010e 9BEBE64D 		.ascii	"\233\353\346M\345\332\261\202\324p\3167\237%\363\207"
 149      E5DAB182 
 149      D470CE37 
 149      9F25F387 
 150 011e 64CE8BD8 		.ascii	"d\316\213\330\353\363\3737\332\2036\017$\206\363\330"
 150      EBF3FB37 
 150      DA83360F 
 150      2486F3D8 
 151 012e E98F0217 		.ascii	"\351\217\002\0270H\303EFf\317\271\252\331\264\224\273"
 151      3048C345 
 151      4666CFB9 
 151      AAD9B494 
 151      BB
 152 013f 6A3EF960 		.ascii	"j>\371`\266\011\212\025\240\024\324\221\306\307\000"
ARM GAS  C:\Users\gjl\AppData\Local\Temp\ccUCbfjV.s 			page 11


 152      B6098A15 
 152      A014D491 
 152      C6C700
 153 014e FF82C04C 		.ascii	"\377\202\300L\0359\255A@0\304h\230\177\000\015r\344"
 153      1D39AD41 
 153      4030C468 
 153      987F000D 
 153      72E4
 154 0160 97D81282 		.ascii	"\227\330\022\202wY\307\332\336\350\247j/_bI\036p\251"
 154      7759C7DA 
 154      DEE8A76A 
 154      2F5F6249 
 154      1E70A9
 155 0173 507BA573 		.ascii	"P{\245s7\272\327A\331~v\332\257\256\331c\212\333}\376"
 155      37BAD741 
 155      D97E76DA 
 155      AFAED963 
 155      8ADB7DFE 
 156 0187 7679CF9C 		.ascii	"vy\317\234\302r\316\246\3472p\211zX\344\036\360\021"
 156      C272CEA6 
 156      E7327089 
 156      7A58E41E 
 156      F011
 157 0199 4E21D431 		.ascii	"N!\3241\277=\262\243\371~\232ES#d\277\370M\372H\200"
 157      BF3DB2A3 
 157      F97E9A45 
 157      532364BF 
 157      F84DFA48 
 158 01ae 4042AC3F 		.ascii	"@B\254?\305\037\350#|-\341\260\216\302\353\224\262\023"
 158      C51FE823 
 158      7C2DE1B0 
 158      8EC2EB94 
 158      B213
 159 01c0 E873EAD5 		.ascii	"\350s\352\325j\213e\220\223%u\317^\367\241\020\241L"
 159      6A8B6590 
 159      932575CF 
 159      5EF7A110 
 159      A14C
 160 01d2 DB2DAEB4 		.ascii	"\333-\256\264\314\303\236[\210\300Z\351K\007c\007\342"
 160      CCC39E5B 
 160      88C05AE9 
 160      4B076307 
 160      E2
 161 01e3 E6948A1C 		.ascii	"\346\224\212\034L\274L\211I\006\233\230w?\236e\201\367"
 161      4CBC4C89 
 161      49069B98 
 161      773F9E65 
 161      81F7
 162 01f5 140D813C 		.ascii	"\024\015\201<\034\032U\364L\"\225\310\014d\023C\347"
 162      1C1A55F4 
 162      4C2295C8 
 162      0C641343 
 162      E7
 163 0206 FBD25733 		.ascii	"\373\322W3\203\211\376\336\276tOw\377\251\023\307\007"
 163      8389FEDE 
 163      BE744F77 
 163      FFA913C7 
ARM GAS  C:\Users\gjl\AppData\Local\Temp\ccUCbfjV.s 			page 12


 163      07
 164 0217 C1B89CBE 		.ascii	"\301\270\234\276\222\314&\323)\355Rz(\241'S\331L\317"
 164      92CC26D3 
 164      29ED527A 
 164      28A12753 
 164      D94CCF
 165 022a 858BFF00 		.ascii	"\205\213\377\000>\231\353`"
 165      3E99EB60 
 166              		.text
 167              		.section	.gnu.lto_A0_ClearInterrupt.b55f49b,"",%progbits
 168 0000 789C5590 		.ascii	"x\234U\220\315+DQ\030\306\337\347\234;\014\371\370\003"
 168      CD2B4451 
 168      18C6DFE7 
 168      9C3B0CF9 
 168      F803
 169 0012 4CB1B190 		.ascii	"L\261\261\220\222b\303N\026\2662[\245\211\273\022\212"
 169      9262C34E 
 169      16B6325B 
 169      A589BB12 
 169      8A
 170 0023 B1E5CCC7 		.ascii	"\261\345\314\307ERfc\224\022\245\214o)l4uM\212\010\361"
 170      45526663 
 170      9412A58C 
 170      6F296C34 
 170      754D8A08 
 171 0038 1788B250 		.ascii	"\027\210\262P\012\371(_\343}\347Zp\352v\316y\356\373"
 171      0AF9285F 
 171      E37DE75A 
 171      70EA76CE 
 171      79EEFB
 172 004b FCCEF3BE 		.ascii	"\374\316\363\276\026\201d\355\362V\315{\031\177\320"
 172      168164ED 
 172      F256CD7B 
 172      197FD0
 173 005a 04953823 		.ascii	"\004\2258#\212\370\025 \007\343\007\015+\014\343E})"
 173      8AF81520 
 173      07E3070D 
 173      2B0CE345 
 173      7D29
 174 006c 9CBC1D4D 		.ascii	"\234\274\035M\024V\245\214\211\232+\347\255az\311\205"
 174      1456A58C 
 174      899A2BE7 
 174      AD617AC9 
 174      85
 175 007d A389B28A 		.ascii	"\243\211\262\212P\027@m@\020)T\021\227\336l|\244\212"
 175      5017406D 
 175      40102954 
 175      1197DE6C 
 175      7CA48A
 176 0090 7539E47C 		.ascii	"u9\344|\272x\277\203\312\005\261\271\351\311\242i\343"
 176      BA78BF83 
 176      CA05B1B9 
 176      E9C9A269 
 176      E3
 177 00a1 462AD887 		.ascii	"F*\330\207%\350\277V\222\332\353\255\357\251\342\274"
 177      25E8BF56 
 177      92DAEBAD 
ARM GAS  C:\Users\gjl\AppData\Local\Temp\ccUCbfjV.s 			page 13


 177      EFA9E2BC 
 178 00b1 B8E15581 		.ascii	"\270\341U\201eT\012\234\251+\310\343\234\020e\263\315"
 178      65540A9C 
 178      A92BC8E3 
 178      9C1065B3 
 178      CD
 179 00c2 35D96CCC 		.ascii	"5\331l\314\270{\245\373\227\245\371\212\034\315\271"
 179      B87BA5FB 
 179      97A5F98A 
 179      1CCDB9
 180 00d1 1DAD2C92 		.ascii	"\035\255,\222\337>\271\023=\260M\032xTJv}\213\314\373"
 180      DF3EB913 
 180      3DB04D1A 
 180      78544A76 
 180      7D8BCCFB 
 181 00e5 F86B7A48 		.ascii	"\370kzHH1-\315$\235\314y\376\263r\264\316\205\234\371"
 181      48312DCD 
 181      249DCC79 
 181      FEB372B4 
 181      CE859CF9 
 182 00f9 981F8377 		.ascii	"\230\037\203wM\304\023\306b\3119N\235\024\314a6\022"
 182      4DC413C6 
 182      62C9394E 
 182      9D14CC61 
 182      3612
 183 010b E7362DAC 		.ascii	"\3476-\254!\200UpR\254c\016t\213\350\323\350\247\362"
 183      21805570 
 183      52AC630E 
 183      748BE8D3 
 183      E8A7F2
 184 011e 809A99AC 		.ascii	"\200\232\231\254\304>G\016\340)\026\213\314\330>8\034"
 184      C43E470E 
 184      E029168B 
 184      CCD83E38 
 184      1C
 185 012f F10B9607 		.ascii	"\361\013\226\007\212\015v_#g\221\250\\\344Q\276\323"
 185      8A0D765F 
 185      236791A8 
 185      5CE451BE 
 185      D3
 186 0140 8D9EC9E7 		.ascii	"\215\236\311\347I\231d\016\362/B\304\030\337\377\024"
 186      4999640E 
 186      F22F42C4 
 186      18DFFF14 
 187 0150 9B9C822D 		.ascii	"\233\234\202-t\207\250{1Y\362\373\254\314\361AA\232"
 187      7487A87B 
 187      3159F2FB 
 187      ACCCF141 
 187      419A
 188 0162 E611045A 		.ascii	"\346\021\004Z\354^\273?\024\266\273:\202}\203\375\235"
 188      EC5EBB3F 
 188      14B6BB3A 
 188      827D83FD 
 188      9D
 189 0173 767B6BB0 		.ascii	"v{k\260\257\271\276\275\251\266\246\223\212zB\003\335"
 189      AFB9BEBD 
 189      A9B6A693 
ARM GAS  C:\Users\gjl\AppData\Local\Temp\ccUCbfjV.s 			page 14


 189      8A7A4203 
 189      DD
 190 0184 7657301C 		.ascii	"vW0\034\012\017\016\374\000{\373\235\240"
 190      0A0F0EFC 
 190      007BFB9D 
 190      A0
 191              		.text
 192              		.section	.gnu.lto_.symbol_nodes.b55f49b,"",%progbits
 193 0000 789C6361 		.ascii	"x\234ca`d\310`\000\002&\206z\006\206\011\347\030@\324"
 193      6064C860 
 193      00022686 
 193      7A068609 
 193      E71840D4 
 194 0014 AE0645A0 		.ascii	"\256\006E\240\000c=#\252\000S=\023\252\000s=3\252\000"
 194      00633D23 
 194      AA00533D 
 194      13AA0073 
 194      3D33AA00 
 195 0028 4B3D0BAA 		.ascii	"K=\013\252\000k=+\212\000\003\000\305\333\026\342"
 195      006B3D2B 
 195      8A000300 
 195      C5DB16E2 
 196              		.text
 197              		.section	.gnu.lto_.refs.b55f49b,"",%progbits
 198 0000 789C6361 		.ascii	"x\234ca`\004B \000\000\0009\000\007"
 198      60044220 
 198      00000039 
 198      0007
 199              		.text
 200              		.section	.gnu.lto_.decls.b55f49b,"",%progbits
 201 0000 789C8D54 		.ascii	"x\234\215TmL[e\024~\317\275\267\245\\\240L\\\014\211"
 201      6D4C5B65 
 201      147ECFBD 
 201      B7A55CA0 
 201      4C5C0C89 
 202 0014 FD81FBD1 		.ascii	"\375\201\373\321\022\177\020\030\306\370\307\304\205"
 202      127F1018 
 202      C6F8C7C4 
 202      85
 203 0021 C569E257 		.ascii	"\305i\342WF\234\177\226\314\016n&\311\002\263\026\223"
 203      469C7F96 
 203      CC0E6E26 
 203      C902B316 
 203      93
 204 0032 FD7BDDD8 		.ascii	"\375{\335\330G\226\230\200\3426\034\313\330\210Z\276"
 204      47969880 
 204      E2361CCB 
 204      D8885ABE 
 205 0042 C66759DB 		.ascii	"\306gY\333)\3556\250\225\301V\300h\3102!Abdf\253n\311"
 205      29ED36A8 
 205      95C156C0 
 205      68C83221 
 205      41626466 
 206 0059 64CB56CF 		.ascii	"d\313V\317\373\276\367\366\336i1\274\351y?\317y\316"
 206      FBBEF7F6 
 206      DE6931BC 
 206      E9793FCF 
ARM GAS  C:\Users\gjl\AppData\Local\Temp\ccUCbfjV.s 			page 15


 206      79CE
 207 006b 739E7B52 		.ascii	"s\236{R\205\000aC\261\023\022\306\265\003\217i\0349"
 207      85006143 
 207      B11312C6 
 207      B5038F69 
 207      1C39
 208 007d B8DF41CC 		.ascii	"\270\337A\314\201\317d\030-\210\026B\213\240\215\243"
 208      81CF6418 
 208      2D881642 
 208      8BA08DA3 
 209 008d C5C97F07 		.ascii	"\305\311\177\007\363\263\351\361\347\321<h\263hI\375"
 209      F3B3E9F1 
 209      E7D13C68 
 209      B36849FD 
 210 009d 1D749F7F 		.ascii	"\035t\237\177\217\240\236\307\032\347\312\022\033\314"
 210      8FA09EC7 
 210      1AE7CA12 
 210      1BCC
 211 00ab 121BD273 		.ascii	"\022\033\322s\376_\\(K\\d\035q\221,q\254\366\\\235k"
 211      FE5F5C28 
 211      4B5C641D 
 211      71912C71 
 211      ACF65C9D 
 212 00c0 11DA46B4 		.ascii	"\021\332F\264(\332\224\216\343\316\2023\236\005'\276"
 212      28DA948E 
 212      E3CE8233 
 212      9E0527BE 
 213 00d0 8EFCD934 		.ascii	"\216\374\3314~$A\262)~\301q\003\346A\002\375#\022\000"
 213      7E2441B2 
 213      297EC171 
 213      03E64102 
 213      FD231200 
 214 00e4 31033722 		.ascii	"1\0037\"\214\037q#\361\231d\2562\013a3\021\376\374\316"
 214      8C1F7123 
 214      F19964AE 
 214      320B6133 
 214      11FEFCCE 
 215 00f8 04E33F63 		.ascii	"\004\343?cM\033\203\203\230\350\240\007A\206\201\210"
 215      4D1B8383 
 215      98E8A007 
 215      41868188 
 216 0108 12EF9281 		.ascii	"\022\357\222\201*\026\311\014\260\340\011\272\026N\360"
 216      2A16C90C 
 216      B0E009BA 
 216      164EF0
 217 0117 644D6014 		.ascii	"dM`\024\375\351\\\3331\220\261b\334/\254\006^-\353\245"
 217      FDE95CDB 
 217      3190B162 
 217      DC2FAC06 
 217      5E2DEBA5 
 218 012b 389A2995 		.ascii	"8\232)\225\2367\225\351?\364k\227\343\236\004.\025\322"
 218      9E3795E9 
 218      3FF46B97 
 218      E39E042E 
 218      15D2
 219 013d C0CE7F84 		.ascii	"\300\316\177\204W\013\304\231=\267\265,=\316\223\237"
 219      570BC499 
ARM GAS  C:\Users\gjl\AppData\Local\Temp\ccUCbfjV.s 			page 16


 219      3DB7B52C 
 219      3DCE939F 
 220 014d 657B696E 		.ascii	"e{in\251\347w\005J\325\257\031\314\342\347]/\207)\335"
 220      A9E77705 
 220      4AD5AF19 
 220      CCE2E75D 
 220      2F8729DD 
 221 0161 00E74185 		.ascii	"\000\347A\205^\220\241\013\312Xr\227\212\363QJ\017\320"
 221      5E90A10B 
 221      CA587297 
 221      8AF3514A 
 221      0FD0
 222 0173 D4396A2F 		.ascii	"\3249j/&P\351\202r\027\201>(e\230\314\013z\300\005\335"
 222      2650E982 
 222      7217813E 
 222      286598CC 
 222      0B7AC005 
 223 0188 E062F8CB 		.ascii	"\340b\370\313'\316\334\262+\022\0062\234\335\012\273"
 223      27CEDCB2 
 223      2B120632 
 223      9CDD0ABB 
 224 0198 9B48DF8F 		.ascii	"\233H\337\217\025\"\205\"\025$<\316\246\246N\347\341"
 224      15228522 
 224      15243CCE 
 224      A6A64EE7 
 224      E1
 225 01a9 71A30A1B 		.ascii	"q\243\012\033\360x\255u~\026\212\2173\016\364 -\221"
 225      F078AD75 
 225      7E168A8F 
 225      330EF420 
 225      2D91
 226 01bb 60C73330 		.ascii	"`\30730\210\200\003\010H`\010\212q\356\007ETw\371\247"
 226      88800308 
 226      4860088A 
 226      71EE0745 
 226      5477F9A7 
 227 01cf 533F3B37 		.ascii	"S?;7u\320\216\001\272x\342\360\033g;\017\323$\306\275"
 227      75D08E01 
 227      BA78E2F0 
 227      1B673B0F 
 227      D324C6BD 
 228 01e3 C21D2160 		.ascii	"\302\035!`\322\306-[\276\201\033(\3460l\302\330O\306"
 228      D2C62D5B 
 228      BE811B28 
 228      E6306CC2 
 228      D84FC6
 229 01f6 7E5C2990 		.ascii	"~\\)\220\337\3472$F\026\036\253\002'\026=\"\267\321"
 229      DFE73224 
 229      46161EAB 
 229      0227163D 
 229      22B7D1
 230 0209 D8018491 		.ascii	"\330\001\204\2218\312\210\2112bE\011r\224\225T T(\327"
 230      38CA8889 
 230      32624509 
 230      72949554 
 230      205428D7 
 231 021d 7194D3CD 		.ascii	"q\224\323\315\235\335yV\352\254f\223\373\005\316}\267"
ARM GAS  C:\Users\gjl\AppData\Local\Temp\ccUCbfjV.s 			page 17


 231      9DDD7956 
 231      EAAC6693 
 231      FB05CE7D 
 231      B7
 232 022e 4E7DE8CE 		.ascii	"N}\350\316g7s\365\224\203\223fJ\364\202Q3\345\2505e"
 232      673773F5 
 232      94839366 
 232      4AF48251 
 232      33E5A835 
 233 0243 88A7BCFF 		.ascii	"\210\247\274\377\367X\213,\177\310S\266/7\3376PN^\315"
 233      F7588B2C 
 233      7FC853B6 
 233      2F37DF36 
 233      504E5ECD 
 234 0257 17D5738C 		.ascii	"\027\325s\214\260\211\021\266bD8\306\027G\036NH2\005"
 234      B08911B6 
 234      624438C6 
 234      17471E4E 
 234      483205
 235 026a 0EF2D583 		.ascii	"\016\362\325\203\207)\031\277\200\033{$-[\232\304-\232"
 235      872919BF 
 235      801B7B24 
 235      2D5B9AC4 
 235      2D9A
 236 027c 2470363E 		.ascii	"$p6>\254\312\255\334Yjo\275\324g\007\265\224\367\000"
 236      ACCAADDC 
 236      596A6FBD 
 236      D46707B5 
 236      94F700
 237 028f 96A9069C 		.ascii	"\226\251\006\234$S$\304\260\015\334z\033|\207\227\337"
 237      245324C4 
 237      B00DDC7A 
 237      1B7C8797 
 237      DF
 238 02a0 E2A5DE4F 		.ascii	"\342\245\336O}\242\237\242\250\311\230\311\315\255\012"
 238      7DA29FA2 
 238      A8C998C9 
 238      CDAD0A
 239 02af 398ECFDD 		.ascii	"9\216\317\335[\005\336(\321L\243\234\273s\267\305\221"
 239      5B05DE28 
 239      D14CA39C 
 239      BB73B7C5 
 239      91
 240 02c0 B9BB04FC 		.ascii	"\271\273\004\374\262{e5j_\263?\256p\215/\033\375\221"
 240      B27B6535 
 240      6A5FB33F 
 240      AE708D2F 
 240      1BFD91
 241 02d3 9A8FCC14 		.ascii	"\232\217\314\024\030\375\021\177{i\210\322C\030\247"
 241      18FD117F 
 241      7B6988D2 
 241      4318A7
 242 02e2 303FB868 		.ascii	"0?\270h\262\270hUh\234+4\364``\321!\237\022\012\365"
 242      B2B86855 
 242      689C2B34 
 242      F46060D1 
 242      219F120A 
ARM GAS  C:\Users\gjl\AppData\Local\Temp\ccUCbfjV.s 			page 18


 243 02f7 276F4F2B 		.ascii	"'oO+\272\314\341\353O~\254\011\023f\302\012\023\347"
 243      BACCE1EB 
 243      4F7EAC09 
 243      1366C20A 
 243      13E7
 244 0309 30334D03 		.ascii	"03M\003\355\262hv\005\217\177N\177\271\344\024\315^"
 244      EDB26876 
 244      058F7F4E 
 244      7FB9E414 
 244      CD5E
 245 031b 82C79B89 		.ascii	"\202\307\233\211\256\036\366\352a\312\247\323\205\026"
 245      AE1EF6EA 
 245      61CAA7D3 
 245      8516
 246 0329 ED3D42FB 		.ascii	"\355=B\373\311\205\345\277r\345>\241\375h\347\231\273"
 246      C985E5BF 
 246      72E53EA1 
 246      FD68E799 
 246      BB
 247 033a 3643FBE6 		.ascii	"6C\373\346\203\264(\201\332'\260\370\357\231\366\323"
 247      83B42881 
 247      DA27B0F8 
 247      EF99F6D3 
 248 034a A8BD47D7 		.ascii	"\250\275G\327~\022/\1770\265\037\024\332O\241\214WM"
 248      7E122F7F 
 248      30B51F14 
 248      DA4FA18C 
 248      574D
 249 035c BA1E5DFB 		.ascii	"\272\036]\373Ho\377IY=\312\364\\\027(\013\371\205\266"
 249      486FFF49 
 249      593DCAF4 
 249      5C17280B 
 249      F985B6
 250 036f DBE41141 		.ascii	"\333\344\021A+\034\272\325\353\024\264\262 \314\254"
 250      2B1CBAD5 
 250      EB14B4B2 
 250      20CCAC
 251 037e 452BF6E8 		.ascii	"E+\366\350\267\327\232(\366`\022i]7i]\003\235\327hb"
 251      B7D79A28 
 251      F6601269 
 251      5D37695D 
 251      039DD768 
 252 0393 2698937F 		.ascii	"&\230\223\177\314,\226{\032\300\004f!\237\377+\262\265"
 252      CC2C967B 
 252      1AC00466 
 252      219FFF2B 
 252      B2B5
 253 03a5 704BF9AE 		.ascii	"pK\371\256j\315\277\325W\367\261\366fC\255\346\330\366"
 253      6ACDBFD5 
 253      57F7B1F6 
 253      6643ADE6 
 253      D8F6
 254 03b7 D6BB2555 		.ascii	"\326\273%U\025\025\304\326XW\357\177\351\271mZ\275\346"
 254      1515C4D6 
 254      5857EF7F 
 254      E9B96D5A 
 254      BDE6
ARM GAS  C:\Users\gjl\AppData\Local\Temp\ccUCbfjV.s 			page 19


 255 03c9 F3FAB5DA 		.ascii	"\363\372\265\332]\325\015\215\276\032m\347;\325\015"
 255      5DD50D8D 
 255      BE1A6DE7 
 255      3BD50D
 256 03d8 552FECAC 		.ascii	"U/\354\254\331\357\337\277O\373\250\354\003\342Z\303"
 256      D9EFDFBF 
 256      4FFBA8EC 
 256      03E25AC3 
 257 03e8 634B7959 		.ascii	"cKyY\015q \372{\276:\277\226\203\233\355\232\267\326"
 257      0D7120FA 
 257      7BBE3ABF 
 257      96839BED 
 257      9AB7D6
 258 03fb A9AF5BBD 		.ascii	"\251\257[\275~\357vm\317\323\"\373\353\365~\315\347"
 258      7EEF766D 
 258      CFD322FB 
 258      EBF57ECD 
 258      E7
 259 040c 6BDCE767 		.ascii	"k\334\347g\014\354,q\305\213O\341S\325^\315\353\313"
 259      0CEC2C71 
 259      C58B4FE1 
 259      53D55ECD 
 259      EBCB
 260 041e 3CF287CA 		.ascii	"<\362\207\312\3156\237\266\247r\363?\211\271\015\343"
 260      CD369FB6 
 260      A772F33F 
 260      89B90DE3 
 261              		.text
 262              		.section	.gnu.lto_.symtab.b55f49b,"",%progbits
 263 0000 41305F53 		.ascii	"A0_SetDriveMode\000"
 263      65744472 
 263      6976654D 
 263      6F646500 
 264 0010 00       		.ascii	"\000"
 265 0011 00       		.ascii	"\000"
 266 0012 00       		.ascii	"\000"
 267 0013 00000000 		.ascii	"\000\000\000\000\000\000\000\000"
 267      00000000 
 268 001b B3000000 		.ascii	"\263\000\000\000"
 269 001f 41305F57 		.ascii	"A0_Write\000"
 269      72697465 
 269      00
 270 0028 00       		.ascii	"\000"
 271 0029 00       		.ascii	"\000"
 272 002a 00       		.ascii	"\000"
 273 002b 00000000 		.ascii	"\000\000\000\000\000\000\000\000"
 273      00000000 
 274 0033 B5000000 		.ascii	"\265\000\000\000"
 275 0037 41305F52 		.ascii	"A0_Read\000"
 275      65616400 
 276 003f 00       		.ascii	"\000"
 277 0040 00       		.ascii	"\000"
 278 0041 00       		.ascii	"\000"
 279 0042 00000000 		.ascii	"\000\000\000\000\000\000\000\000"
 279      00000000 
 280 004a B8000000 		.ascii	"\270\000\000\000"
 281 004e 41305F52 		.ascii	"A0_ReadDataReg\000"
ARM GAS  C:\Users\gjl\AppData\Local\Temp\ccUCbfjV.s 			page 20


 281      65616444 
 281      61746152 
 281      656700
 282 005d 00       		.ascii	"\000"
 283 005e 00       		.ascii	"\000"
 284 005f 00       		.ascii	"\000"
 285 0060 00000000 		.ascii	"\000\000\000\000\000\000\000\000"
 285      00000000 
 286 0068 BA000000 		.ascii	"\272\000\000\000"
 287 006c 41305F53 		.ascii	"A0_SetInterruptMode\000"
 287      6574496E 
 287      74657272 
 287      7570744D 
 287      6F646500 
 288 0080 00       		.ascii	"\000"
 289 0081 00       		.ascii	"\000"
 290 0082 00       		.ascii	"\000"
 291 0083 00000000 		.ascii	"\000\000\000\000\000\000\000\000"
 291      00000000 
 292 008b C4000000 		.ascii	"\304\000\000\000"
 293 008f 41305F43 		.ascii	"A0_ClearInterrupt\000"
 293      6C656172 
 293      496E7465 
 293      72727570 
 293      7400
 294 00a1 00       		.ascii	"\000"
 295 00a2 00       		.ascii	"\000"
 296 00a3 00       		.ascii	"\000"
 297 00a4 00000000 		.ascii	"\000\000\000\000\000\000\000\000"
 297      00000000 
 298 00ac C6000000 		.ascii	"\306\000\000\000"
 299              		.text
 300              		.section	.gnu.lto_.opts,"",%progbits
 301 0000 272D666D 		.ascii	"'-fmath-errno' '-fsigned-zeros' '-ftrapping-math' '"
 301      6174682D 
 301      6572726E 
 301      6F272027 
 301      2D667369 
 302 0033 2D666E6F 		.ascii	"-fno-trapv' '-fno-openmp' '-fno-openacc' '-mcpu=cor"
 302      2D747261 
 302      70762720 
 302      272D666E 
 302      6F2D6F70 
 303 0066 7465782D 		.ascii	"tex-m0' '-mthumb' '-g' '-Os' '-ffunction-sections' "
 303      6D302720 
 303      272D6D74 
 303      68756D62 
 303      2720272D 
 304 0099 272D6666 		.ascii	"'-ffat-lto-objects' '-flto'\000"
 304      61742D6C 
 304      746F2D6F 
 304      626A6563 
 304      74732720 
 305              		.text
 306              		.cfi_sections	.debug_frame
 307              		.section	.text.A0_SetDriveMode,"ax",%progbits
 308              		.align	1
ARM GAS  C:\Users\gjl\AppData\Local\Temp\ccUCbfjV.s 			page 21


 309              		.global	A0_SetDriveMode
 310              		.code	16
 311              		.thumb_func
 312              		.type	A0_SetDriveMode, %function
 313              	A0_SetDriveMode:
 314              	.LFB0:
 315              		.file 1 "Generated_Source\\PSoC4\\A0.c"
   1:Generated_Source\PSoC4/A0.c **** /*******************************************************************************
   2:Generated_Source\PSoC4/A0.c **** * File Name: A0.c  
   3:Generated_Source\PSoC4/A0.c **** * Version 2.20
   4:Generated_Source\PSoC4/A0.c **** *
   5:Generated_Source\PSoC4/A0.c **** * Description:
   6:Generated_Source\PSoC4/A0.c **** *  This file contains API to enable firmware control of a Pins component.
   7:Generated_Source\PSoC4/A0.c **** *
   8:Generated_Source\PSoC4/A0.c **** ********************************************************************************
   9:Generated_Source\PSoC4/A0.c **** * Copyright 2008-2015, Cypress Semiconductor Corporation.  All rights reserved.
  10:Generated_Source\PSoC4/A0.c **** * You may use this file only in accordance with the license, terms, conditions, 
  11:Generated_Source\PSoC4/A0.c **** * disclaimers, and limitations in the end user license agreement accompanying 
  12:Generated_Source\PSoC4/A0.c **** * the software package with which this file was provided.
  13:Generated_Source\PSoC4/A0.c **** *******************************************************************************/
  14:Generated_Source\PSoC4/A0.c **** 
  15:Generated_Source\PSoC4/A0.c **** #include "cytypes.h"
  16:Generated_Source\PSoC4/A0.c **** #include "A0.h"
  17:Generated_Source\PSoC4/A0.c **** 
  18:Generated_Source\PSoC4/A0.c **** 
  19:Generated_Source\PSoC4/A0.c **** #if defined(A0__PC)
  20:Generated_Source\PSoC4/A0.c ****     #define A0_SetP4PinDriveMode(shift, mode)  \
  21:Generated_Source\PSoC4/A0.c ****     do { \
  22:Generated_Source\PSoC4/A0.c ****         A0_PC =   (A0_PC & \
  23:Generated_Source\PSoC4/A0.c ****                                 (uint32)(~(uint32)(A0_DRIVE_MODE_IND_MASK << \
  24:Generated_Source\PSoC4/A0.c ****                                 (A0_DRIVE_MODE_BITS * (shift))))) | \
  25:Generated_Source\PSoC4/A0.c ****                                 (uint32)((uint32)(mode) << \
  26:Generated_Source\PSoC4/A0.c ****                                 (A0_DRIVE_MODE_BITS * (shift))); \
  27:Generated_Source\PSoC4/A0.c ****     } while (0)
  28:Generated_Source\PSoC4/A0.c **** #else
  29:Generated_Source\PSoC4/A0.c ****     #if (CY_PSOC4_4200L)
  30:Generated_Source\PSoC4/A0.c ****         #define A0_SetP4PinDriveMode(shift, mode)  \
  31:Generated_Source\PSoC4/A0.c ****         do { \
  32:Generated_Source\PSoC4/A0.c ****             A0_USBIO_CTRL_REG = (A0_USBIO_CTRL_REG & \
  33:Generated_Source\PSoC4/A0.c ****                                     (uint32)(~(uint32)(A0_DRIVE_MODE_IND_MASK << \
  34:Generated_Source\PSoC4/A0.c ****                                     (A0_DRIVE_MODE_BITS * (shift))))) | \
  35:Generated_Source\PSoC4/A0.c ****                                     (uint32)((uint32)(mode) << \
  36:Generated_Source\PSoC4/A0.c ****                                     (A0_DRIVE_MODE_BITS * (shift))); \
  37:Generated_Source\PSoC4/A0.c ****         } while (0)
  38:Generated_Source\PSoC4/A0.c ****     #endif
  39:Generated_Source\PSoC4/A0.c **** #endif
  40:Generated_Source\PSoC4/A0.c ****   
  41:Generated_Source\PSoC4/A0.c **** 
  42:Generated_Source\PSoC4/A0.c **** #if defined(A0__PC) || (CY_PSOC4_4200L) 
  43:Generated_Source\PSoC4/A0.c ****     /*******************************************************************************
  44:Generated_Source\PSoC4/A0.c ****     * Function Name: A0_SetDriveMode
  45:Generated_Source\PSoC4/A0.c ****     ****************************************************************************//**
  46:Generated_Source\PSoC4/A0.c ****     *
  47:Generated_Source\PSoC4/A0.c ****     * \brief Sets the drive mode for each of the Pins component's pins.
  48:Generated_Source\PSoC4/A0.c ****     * 
  49:Generated_Source\PSoC4/A0.c ****     * <b>Note</b> This affects all pins in the Pins component instance. Use the
  50:Generated_Source\PSoC4/A0.c ****     * Per-Pin APIs if you wish to control individual pin's drive modes.
ARM GAS  C:\Users\gjl\AppData\Local\Temp\ccUCbfjV.s 			page 22


  51:Generated_Source\PSoC4/A0.c ****     *
  52:Generated_Source\PSoC4/A0.c ****     * <b>Note</b> USBIOs have limited drive functionality. Refer to the Drive Mode
  53:Generated_Source\PSoC4/A0.c ****     * parameter for more information.
  54:Generated_Source\PSoC4/A0.c ****     *
  55:Generated_Source\PSoC4/A0.c ****     * \param mode
  56:Generated_Source\PSoC4/A0.c ****     *  Mode for the selected signals. Valid options are documented in 
  57:Generated_Source\PSoC4/A0.c ****     *  \ref driveMode.
  58:Generated_Source\PSoC4/A0.c ****     *
  59:Generated_Source\PSoC4/A0.c ****     * \return
  60:Generated_Source\PSoC4/A0.c ****     *  None
  61:Generated_Source\PSoC4/A0.c ****     *
  62:Generated_Source\PSoC4/A0.c ****     * \sideeffect
  63:Generated_Source\PSoC4/A0.c ****     *  If you use read-modify-write operations that are not atomic, the ISR can
  64:Generated_Source\PSoC4/A0.c ****     *  cause corruption of this function. An ISR that interrupts this function 
  65:Generated_Source\PSoC4/A0.c ****     *  and performs writes to the Pins component Drive Mode registers can cause 
  66:Generated_Source\PSoC4/A0.c ****     *  corrupted port data. To avoid this issue, you should either use the Per-Pin
  67:Generated_Source\PSoC4/A0.c ****     *  APIs (primary method) or disable interrupts around this function.
  68:Generated_Source\PSoC4/A0.c ****     *
  69:Generated_Source\PSoC4/A0.c ****     * \funcusage
  70:Generated_Source\PSoC4/A0.c ****     *  \snippet A0_SUT.c usage_A0_SetDriveMode
  71:Generated_Source\PSoC4/A0.c ****     *******************************************************************************/
  72:Generated_Source\PSoC4/A0.c ****     void A0_SetDriveMode(uint8 mode)
  73:Generated_Source\PSoC4/A0.c ****     {
 316              		.loc 1 73 0
 317              		.cfi_startproc
 318              		@ args = 0, pretend = 0, frame = 0
 319              		@ frame_needed = 0, uses_anonymous_args = 0
 320              		@ link register save eliminated.
 321              	.LVL0:
  74:Generated_Source\PSoC4/A0.c **** 		A0_SetP4PinDriveMode(A0__0__SHIFT, mode);
 322              		.loc 1 74 0
 323 0000 0721     		movs	r1, #7
 324 0002 034A     		ldr	r2, .L2
  75:Generated_Source\PSoC4/A0.c ****     }
 325              		.loc 1 75 0
 326              		@ sp needed
  74:Generated_Source\PSoC4/A0.c **** 		A0_SetP4PinDriveMode(A0__0__SHIFT, mode);
 327              		.loc 1 74 0
 328 0004 1368     		ldr	r3, [r2]
 329 0006 8B43     		bics	r3, r1
 330 0008 1843     		orrs	r0, r3
 331              	.LVL1:
 332 000a 1060     		str	r0, [r2]
 333              		.loc 1 75 0
 334 000c 7047     		bx	lr
 335              	.L3:
 336 000e C046     		.align	2
 337              	.L2:
 338 0010 08020440 		.word	1074004488
 339              		.cfi_endproc
 340              	.LFE0:
 341              		.size	A0_SetDriveMode, .-A0_SetDriveMode
 342              		.section	.text.A0_Write,"ax",%progbits
 343              		.align	1
 344              		.global	A0_Write
 345              		.code	16
 346              		.thumb_func
ARM GAS  C:\Users\gjl\AppData\Local\Temp\ccUCbfjV.s 			page 23


 347              		.type	A0_Write, %function
 348              	A0_Write:
 349              	.LFB1:
  76:Generated_Source\PSoC4/A0.c **** #endif
  77:Generated_Source\PSoC4/A0.c **** 
  78:Generated_Source\PSoC4/A0.c **** 
  79:Generated_Source\PSoC4/A0.c **** /*******************************************************************************
  80:Generated_Source\PSoC4/A0.c **** * Function Name: A0_Write
  81:Generated_Source\PSoC4/A0.c **** ****************************************************************************//**
  82:Generated_Source\PSoC4/A0.c **** *
  83:Generated_Source\PSoC4/A0.c **** * \brief Writes the value to the physical port (data output register), masking
  84:Generated_Source\PSoC4/A0.c **** *  and shifting the bits appropriately. 
  85:Generated_Source\PSoC4/A0.c **** *
  86:Generated_Source\PSoC4/A0.c **** * The data output register controls the signal applied to the physical pin in 
  87:Generated_Source\PSoC4/A0.c **** * conjunction with the drive mode parameter. This function avoids changing 
  88:Generated_Source\PSoC4/A0.c **** * other bits in the port by using the appropriate method (read-modify-write or
  89:Generated_Source\PSoC4/A0.c **** * bit banding).
  90:Generated_Source\PSoC4/A0.c **** *
  91:Generated_Source\PSoC4/A0.c **** * <b>Note</b> This function should not be used on a hardware digital output pin 
  92:Generated_Source\PSoC4/A0.c **** * as it is driven by the hardware signal attached to it.
  93:Generated_Source\PSoC4/A0.c **** *
  94:Generated_Source\PSoC4/A0.c **** * \param value
  95:Generated_Source\PSoC4/A0.c **** *  Value to write to the component instance.
  96:Generated_Source\PSoC4/A0.c **** *
  97:Generated_Source\PSoC4/A0.c **** * \return 
  98:Generated_Source\PSoC4/A0.c **** *  None 
  99:Generated_Source\PSoC4/A0.c **** *
 100:Generated_Source\PSoC4/A0.c **** * \sideeffect
 101:Generated_Source\PSoC4/A0.c **** *  If you use read-modify-write operations that are not atomic; the Interrupt 
 102:Generated_Source\PSoC4/A0.c **** *  Service Routines (ISR) can cause corruption of this function. An ISR that 
 103:Generated_Source\PSoC4/A0.c **** *  interrupts this function and performs writes to the Pins component data 
 104:Generated_Source\PSoC4/A0.c **** *  register can cause corrupted port data. To avoid this issue, you should 
 105:Generated_Source\PSoC4/A0.c **** *  either use the Per-Pin APIs (primary method) or disable interrupts around 
 106:Generated_Source\PSoC4/A0.c **** *  this function.
 107:Generated_Source\PSoC4/A0.c **** *
 108:Generated_Source\PSoC4/A0.c **** * \funcusage
 109:Generated_Source\PSoC4/A0.c **** *  \snippet A0_SUT.c usage_A0_Write
 110:Generated_Source\PSoC4/A0.c **** *******************************************************************************/
 111:Generated_Source\PSoC4/A0.c **** void A0_Write(uint8 value)
 112:Generated_Source\PSoC4/A0.c **** {
 350              		.loc 1 112 0
 351              		.cfi_startproc
 352              		@ args = 0, pretend = 0, frame = 0
 353              		@ frame_needed = 0, uses_anonymous_args = 0
 354              		@ link register save eliminated.
 355              	.LVL2:
 113:Generated_Source\PSoC4/A0.c ****     uint8 drVal = (uint8)(A0_DR & (uint8)(~A0_MASK));
 356              		.loc 1 113 0
 357 0000 0123     		movs	r3, #1
 358 0002 0449     		ldr	r1, .L5
 114:Generated_Source\PSoC4/A0.c ****     drVal = (drVal | ((uint8)(value << A0_SHIFT) & A0_MASK));
 115:Generated_Source\PSoC4/A0.c ****     A0_DR = (uint32)drVal;
 116:Generated_Source\PSoC4/A0.c **** }
 359              		.loc 1 116 0
 360              		@ sp needed
 113:Generated_Source\PSoC4/A0.c ****     uint8 drVal = (uint8)(A0_DR & (uint8)(~A0_MASK));
 361              		.loc 1 113 0
ARM GAS  C:\Users\gjl\AppData\Local\Temp\ccUCbfjV.s 			page 24


 362 0004 0A68     		ldr	r2, [r1]
 363 0006 9A43     		bics	r2, r3
 364 0008 D2B2     		uxtb	r2, r2
 365              	.LVL3:
 115:Generated_Source\PSoC4/A0.c **** }
 366              		.loc 1 115 0
 367 000a 0340     		ands	r3, r0
 368 000c 1343     		orrs	r3, r2
 369 000e 0B60     		str	r3, [r1]
 370              		.loc 1 116 0
 371 0010 7047     		bx	lr
 372              	.L6:
 373 0012 C046     		.align	2
 374              	.L5:
 375 0014 00020440 		.word	1074004480
 376              		.cfi_endproc
 377              	.LFE1:
 378              		.size	A0_Write, .-A0_Write
 379              		.section	.text.A0_Read,"ax",%progbits
 380              		.align	1
 381              		.global	A0_Read
 382              		.code	16
 383              		.thumb_func
 384              		.type	A0_Read, %function
 385              	A0_Read:
 386              	.LFB2:
 117:Generated_Source\PSoC4/A0.c **** 
 118:Generated_Source\PSoC4/A0.c **** 
 119:Generated_Source\PSoC4/A0.c **** /*******************************************************************************
 120:Generated_Source\PSoC4/A0.c **** * Function Name: A0_Read
 121:Generated_Source\PSoC4/A0.c **** ****************************************************************************//**
 122:Generated_Source\PSoC4/A0.c **** *
 123:Generated_Source\PSoC4/A0.c **** * \brief Reads the associated physical port (pin status register) and masks 
 124:Generated_Source\PSoC4/A0.c **** *  the required bits according to the width and bit position of the component
 125:Generated_Source\PSoC4/A0.c **** *  instance. 
 126:Generated_Source\PSoC4/A0.c **** *
 127:Generated_Source\PSoC4/A0.c **** * The pin's status register returns the current logic level present on the 
 128:Generated_Source\PSoC4/A0.c **** * physical pin.
 129:Generated_Source\PSoC4/A0.c **** *
 130:Generated_Source\PSoC4/A0.c **** * \return 
 131:Generated_Source\PSoC4/A0.c **** *  The current value for the pins in the component as a right justified number.
 132:Generated_Source\PSoC4/A0.c **** *
 133:Generated_Source\PSoC4/A0.c **** * \funcusage
 134:Generated_Source\PSoC4/A0.c **** *  \snippet A0_SUT.c usage_A0_Read  
 135:Generated_Source\PSoC4/A0.c **** *******************************************************************************/
 136:Generated_Source\PSoC4/A0.c **** uint8 A0_Read(void)
 137:Generated_Source\PSoC4/A0.c **** {
 387              		.loc 1 137 0
 388              		.cfi_startproc
 389              		@ args = 0, pretend = 0, frame = 0
 390              		@ frame_needed = 0, uses_anonymous_args = 0
 391              		@ link register save eliminated.
 138:Generated_Source\PSoC4/A0.c ****     return (uint8)((A0_PS & A0_MASK) >> A0_SHIFT);
 392              		.loc 1 138 0
 393 0000 024B     		ldr	r3, .L8
 139:Generated_Source\PSoC4/A0.c **** }
 394              		.loc 1 139 0
ARM GAS  C:\Users\gjl\AppData\Local\Temp\ccUCbfjV.s 			page 25


 395              		@ sp needed
 138:Generated_Source\PSoC4/A0.c ****     return (uint8)((A0_PS & A0_MASK) >> A0_SHIFT);
 396              		.loc 1 138 0
 397 0002 1868     		ldr	r0, [r3]
 398 0004 0123     		movs	r3, #1
 399 0006 1840     		ands	r0, r3
 400              		.loc 1 139 0
 401 0008 7047     		bx	lr
 402              	.L9:
 403 000a C046     		.align	2
 404              	.L8:
 405 000c 04020440 		.word	1074004484
 406              		.cfi_endproc
 407              	.LFE2:
 408              		.size	A0_Read, .-A0_Read
 409              		.section	.text.A0_ReadDataReg,"ax",%progbits
 410              		.align	1
 411              		.global	A0_ReadDataReg
 412              		.code	16
 413              		.thumb_func
 414              		.type	A0_ReadDataReg, %function
 415              	A0_ReadDataReg:
 416              	.LFB3:
 140:Generated_Source\PSoC4/A0.c **** 
 141:Generated_Source\PSoC4/A0.c **** 
 142:Generated_Source\PSoC4/A0.c **** /*******************************************************************************
 143:Generated_Source\PSoC4/A0.c **** * Function Name: A0_ReadDataReg
 144:Generated_Source\PSoC4/A0.c **** ****************************************************************************//**
 145:Generated_Source\PSoC4/A0.c **** *
 146:Generated_Source\PSoC4/A0.c **** * \brief Reads the associated physical port's data output register and masks 
 147:Generated_Source\PSoC4/A0.c **** *  the correct bits according to the width and bit position of the component 
 148:Generated_Source\PSoC4/A0.c **** *  instance. 
 149:Generated_Source\PSoC4/A0.c **** *
 150:Generated_Source\PSoC4/A0.c **** * The data output register controls the signal applied to the physical pin in 
 151:Generated_Source\PSoC4/A0.c **** * conjunction with the drive mode parameter. This is not the same as the 
 152:Generated_Source\PSoC4/A0.c **** * preferred A0_Read() API because the 
 153:Generated_Source\PSoC4/A0.c **** * A0_ReadDataReg() reads the data register instead of the status 
 154:Generated_Source\PSoC4/A0.c **** * register. For output pins this is a useful function to determine the value 
 155:Generated_Source\PSoC4/A0.c **** * just written to the pin.
 156:Generated_Source\PSoC4/A0.c **** *
 157:Generated_Source\PSoC4/A0.c **** * \return 
 158:Generated_Source\PSoC4/A0.c **** *  The current value of the data register masked and shifted into a right 
 159:Generated_Source\PSoC4/A0.c **** *  justified number for the component instance.
 160:Generated_Source\PSoC4/A0.c **** *
 161:Generated_Source\PSoC4/A0.c **** * \funcusage
 162:Generated_Source\PSoC4/A0.c **** *  \snippet A0_SUT.c usage_A0_ReadDataReg 
 163:Generated_Source\PSoC4/A0.c **** *******************************************************************************/
 164:Generated_Source\PSoC4/A0.c **** uint8 A0_ReadDataReg(void)
 165:Generated_Source\PSoC4/A0.c **** {
 417              		.loc 1 165 0
 418              		.cfi_startproc
 419              		@ args = 0, pretend = 0, frame = 0
 420              		@ frame_needed = 0, uses_anonymous_args = 0
 421              		@ link register save eliminated.
 166:Generated_Source\PSoC4/A0.c ****     return (uint8)((A0_DR & A0_MASK) >> A0_SHIFT);
 422              		.loc 1 166 0
 423 0000 024B     		ldr	r3, .L11
ARM GAS  C:\Users\gjl\AppData\Local\Temp\ccUCbfjV.s 			page 26


 167:Generated_Source\PSoC4/A0.c **** }
 424              		.loc 1 167 0
 425              		@ sp needed
 166:Generated_Source\PSoC4/A0.c ****     return (uint8)((A0_DR & A0_MASK) >> A0_SHIFT);
 426              		.loc 1 166 0
 427 0002 1868     		ldr	r0, [r3]
 428 0004 0123     		movs	r3, #1
 429 0006 1840     		ands	r0, r3
 430              		.loc 1 167 0
 431 0008 7047     		bx	lr
 432              	.L12:
 433 000a C046     		.align	2
 434              	.L11:
 435 000c 00020440 		.word	1074004480
 436              		.cfi_endproc
 437              	.LFE3:
 438              		.size	A0_ReadDataReg, .-A0_ReadDataReg
 439              		.section	.text.A0_SetInterruptMode,"ax",%progbits
 440              		.align	1
 441              		.global	A0_SetInterruptMode
 442              		.code	16
 443              		.thumb_func
 444              		.type	A0_SetInterruptMode, %function
 445              	A0_SetInterruptMode:
 446              	.LFB4:
 168:Generated_Source\PSoC4/A0.c **** 
 169:Generated_Source\PSoC4/A0.c **** 
 170:Generated_Source\PSoC4/A0.c **** /*******************************************************************************
 171:Generated_Source\PSoC4/A0.c **** * Function Name: A0_SetInterruptMode
 172:Generated_Source\PSoC4/A0.c **** ****************************************************************************//**
 173:Generated_Source\PSoC4/A0.c **** *
 174:Generated_Source\PSoC4/A0.c **** * \brief Configures the interrupt mode for each of the Pins component's
 175:Generated_Source\PSoC4/A0.c **** *  pins. Alternatively you may set the interrupt mode for all the pins
 176:Generated_Source\PSoC4/A0.c **** *  specified in the Pins component.
 177:Generated_Source\PSoC4/A0.c **** *
 178:Generated_Source\PSoC4/A0.c **** *  <b>Note</b> The interrupt is port-wide and therefore any enabled pin
 179:Generated_Source\PSoC4/A0.c **** *  interrupt may trigger it.
 180:Generated_Source\PSoC4/A0.c **** *
 181:Generated_Source\PSoC4/A0.c **** * \param position
 182:Generated_Source\PSoC4/A0.c **** *  The pin position as listed in the Pins component. You may OR these to be 
 183:Generated_Source\PSoC4/A0.c **** *  able to configure the interrupt mode of multiple pins within a Pins 
 184:Generated_Source\PSoC4/A0.c **** *  component. Or you may use A0_INTR_ALL to configure the
 185:Generated_Source\PSoC4/A0.c **** *  interrupt mode of all the pins in the Pins component.       
 186:Generated_Source\PSoC4/A0.c **** *  - A0_0_INTR       (First pin in the list)
 187:Generated_Source\PSoC4/A0.c **** *  - A0_1_INTR       (Second pin in the list)
 188:Generated_Source\PSoC4/A0.c **** *  - ...
 189:Generated_Source\PSoC4/A0.c **** *  - A0_INTR_ALL     (All pins in Pins component)
 190:Generated_Source\PSoC4/A0.c **** *
 191:Generated_Source\PSoC4/A0.c **** * \param mode
 192:Generated_Source\PSoC4/A0.c **** *  Interrupt mode for the selected pins. Valid options are documented in
 193:Generated_Source\PSoC4/A0.c **** *  \ref intrMode.
 194:Generated_Source\PSoC4/A0.c **** *
 195:Generated_Source\PSoC4/A0.c **** * \return 
 196:Generated_Source\PSoC4/A0.c **** *  None
 197:Generated_Source\PSoC4/A0.c **** *  
 198:Generated_Source\PSoC4/A0.c **** * \sideeffect
 199:Generated_Source\PSoC4/A0.c **** *  It is recommended that the interrupt be disabled before calling this 
ARM GAS  C:\Users\gjl\AppData\Local\Temp\ccUCbfjV.s 			page 27


 200:Generated_Source\PSoC4/A0.c **** *  function to avoid unintended interrupt requests. Note that the interrupt
 201:Generated_Source\PSoC4/A0.c **** *  type is port wide, and therefore will trigger for any enabled pin on the 
 202:Generated_Source\PSoC4/A0.c **** *  port.
 203:Generated_Source\PSoC4/A0.c **** *
 204:Generated_Source\PSoC4/A0.c **** * \funcusage
 205:Generated_Source\PSoC4/A0.c **** *  \snippet A0_SUT.c usage_A0_SetInterruptMode
 206:Generated_Source\PSoC4/A0.c **** *******************************************************************************/
 207:Generated_Source\PSoC4/A0.c **** void A0_SetInterruptMode(uint16 position, uint16 mode)
 208:Generated_Source\PSoC4/A0.c **** {
 447              		.loc 1 208 0
 448              		.cfi_startproc
 449              		@ args = 0, pretend = 0, frame = 0
 450              		@ frame_needed = 0, uses_anonymous_args = 0
 451              		@ link register save eliminated.
 452              	.LVL4:
 209:Generated_Source\PSoC4/A0.c ****     uint32 intrCfg;
 210:Generated_Source\PSoC4/A0.c ****     
 211:Generated_Source\PSoC4/A0.c ****     intrCfg =  A0_INTCFG & (uint32)(~(uint32)position);
 453              		.loc 1 211 0
 454 0000 034A     		ldr	r2, .L14
 212:Generated_Source\PSoC4/A0.c ****     A0_INTCFG = intrCfg | ((uint32)position & (uint32)mode);
 213:Generated_Source\PSoC4/A0.c **** }
 455              		.loc 1 213 0
 456              		@ sp needed
 211:Generated_Source\PSoC4/A0.c ****     A0_INTCFG = intrCfg | ((uint32)position & (uint32)mode);
 457              		.loc 1 211 0
 458 0002 1368     		ldr	r3, [r2]
 459              	.LVL5:
 212:Generated_Source\PSoC4/A0.c ****     A0_INTCFG = intrCfg | ((uint32)position & (uint32)mode);
 460              		.loc 1 212 0
 461 0004 8343     		bics	r3, r0
 462              	.LVL6:
 463 0006 0840     		ands	r0, r1
 464              	.LVL7:
 465 0008 1843     		orrs	r0, r3
 466 000a 1060     		str	r0, [r2]
 467              		.loc 1 213 0
 468 000c 7047     		bx	lr
 469              	.L15:
 470 000e C046     		.align	2
 471              	.L14:
 472 0010 0C020440 		.word	1074004492
 473              		.cfi_endproc
 474              	.LFE4:
 475              		.size	A0_SetInterruptMode, .-A0_SetInterruptMode
 476              		.section	.text.A0_ClearInterrupt,"ax",%progbits
 477              		.align	1
 478              		.global	A0_ClearInterrupt
 479              		.code	16
 480              		.thumb_func
 481              		.type	A0_ClearInterrupt, %function
 482              	A0_ClearInterrupt:
 483              	.LFB5:
 214:Generated_Source\PSoC4/A0.c **** 
 215:Generated_Source\PSoC4/A0.c **** 
 216:Generated_Source\PSoC4/A0.c **** /*******************************************************************************
 217:Generated_Source\PSoC4/A0.c **** * Function Name: A0_ClearInterrupt
ARM GAS  C:\Users\gjl\AppData\Local\Temp\ccUCbfjV.s 			page 28


 218:Generated_Source\PSoC4/A0.c **** ****************************************************************************//**
 219:Generated_Source\PSoC4/A0.c **** *
 220:Generated_Source\PSoC4/A0.c **** * \brief Clears any active interrupts attached with the component and returns 
 221:Generated_Source\PSoC4/A0.c **** *  the value of the interrupt status register allowing determination of which
 222:Generated_Source\PSoC4/A0.c **** *  pins generated an interrupt event.
 223:Generated_Source\PSoC4/A0.c **** *
 224:Generated_Source\PSoC4/A0.c **** * \return 
 225:Generated_Source\PSoC4/A0.c **** *  The right-shifted current value of the interrupt status register. Each pin 
 226:Generated_Source\PSoC4/A0.c **** *  has one bit set if it generated an interrupt event. For example, bit 0 is 
 227:Generated_Source\PSoC4/A0.c **** *  for pin 0 and bit 1 is for pin 1 of the Pins component.
 228:Generated_Source\PSoC4/A0.c **** *  
 229:Generated_Source\PSoC4/A0.c **** * \sideeffect
 230:Generated_Source\PSoC4/A0.c **** *  Clears all bits of the physical port's interrupt status register, not just
 231:Generated_Source\PSoC4/A0.c **** *  those associated with the Pins component.
 232:Generated_Source\PSoC4/A0.c **** *
 233:Generated_Source\PSoC4/A0.c **** * \funcusage
 234:Generated_Source\PSoC4/A0.c **** *  \snippet A0_SUT.c usage_A0_ClearInterrupt
 235:Generated_Source\PSoC4/A0.c **** *******************************************************************************/
 236:Generated_Source\PSoC4/A0.c **** uint8 A0_ClearInterrupt(void)
 237:Generated_Source\PSoC4/A0.c **** {
 484              		.loc 1 237 0
 485              		.cfi_startproc
 486              		@ args = 0, pretend = 0, frame = 0
 487              		@ frame_needed = 0, uses_anonymous_args = 0
 488              		@ link register save eliminated.
 238:Generated_Source\PSoC4/A0.c **** 	uint8 maskedStatus = (uint8)(A0_INTSTAT & A0_MASK);
 489              		.loc 1 238 0
 490 0000 0123     		movs	r3, #1
 491 0002 024A     		ldr	r2, .L17
 239:Generated_Source\PSoC4/A0.c **** 	A0_INTSTAT = maskedStatus;
 240:Generated_Source\PSoC4/A0.c ****     return maskedStatus >> A0_SHIFT;
 241:Generated_Source\PSoC4/A0.c **** }
 492              		.loc 1 241 0
 493              		@ sp needed
 238:Generated_Source\PSoC4/A0.c **** 	uint8 maskedStatus = (uint8)(A0_INTSTAT & A0_MASK);
 494              		.loc 1 238 0
 495 0004 1068     		ldr	r0, [r2]
 496 0006 1840     		ands	r0, r3
 497              	.LVL8:
 239:Generated_Source\PSoC4/A0.c **** 	A0_INTSTAT = maskedStatus;
 498              		.loc 1 239 0
 499 0008 1060     		str	r0, [r2]
 500              		.loc 1 241 0
 501 000a 7047     		bx	lr
 502              	.L18:
 503              		.align	2
 504              	.L17:
 505 000c 10020440 		.word	1074004496
 506              		.cfi_endproc
 507              	.LFE5:
 508              		.size	A0_ClearInterrupt, .-A0_ClearInterrupt
 509              		.text
 510              	.Letext0:
 511              		.file 2 "Generated_Source\\PSoC4\\cytypes.h"