ARM GAS  C:\Users\gjl\AppData\Local\Temp\ccPnexNF.s 			page 1


   1              		.syntax unified
   2              		.cpu cortex-m0
   3              		.fpu softvfp
   4              		.eabi_attribute 20, 1
   5              		.eabi_attribute 21, 1
   6              		.eabi_attribute 23, 3
   7              		.eabi_attribute 24, 1
   8              		.eabi_attribute 25, 1
   9              		.eabi_attribute 26, 1
  10              		.eabi_attribute 30, 4
  11              		.eabi_attribute 34, 0
  12              		.eabi_attribute 18, 4
  13              		.thumb
  14              		.syntax unified
  15              		.file	"A1.c"
  16              		.text
  17              	.Ltext0:
  18              		.section	.gnu.lto_.profile.1a3ffbf,"",%progbits
  19 0000 789C6361 		.ascii	"x\234ca`d`a`\000\222\352\212\000\000\331\000S"
  19      60646061 
  19      600092EA 
  19      8A0000D9 
  19      0053
  20              		.text
  21              		.section	.gnu.lto_.icf.1a3ffbf,"",%progbits
  22 0000 789C6361 		.ascii	"x\234ca`d\000\0015\006\004`ch\330\273f/\013\343\335"
  22      60640001 
  22      35060460 
  22      6368D8BB 
  22      662F0BE3 
  23 0015 D62F0759 		.ascii	"\326/\007Y\230\036\367\035\336\313\315\274\254o\322"
  23      981EF71D 
  23      DECBCDBC 
  23      AC6FD2
  24 0024 0B0E96E7 		.ascii	"\013\016\226\347MK7\363\260\266w\277\375\314\307\000"
  24      4D4B37F3 
  24      B0B677BF 
  24      FDCCC700 
  25 0034 00580C11 		.ascii	"\000X\014\021\205"
  25      85
  26              		.text
  27              		.section	.gnu.lto_.jmpfuncs.1a3ffbf,"",%progbits
  28 0000 789C45C9 		.ascii	"x\234E\311\261\001\000 \010\300\260\026\320+\374\225"
  28      B1010020 
  28      08C0B016 
  28      D02BFC95 
  29 0010 D795C90C 		.ascii	"\327\225\311\014]Z\3108|\033\265\235\004$Thv\257\367"
  29      5D5AC838 
  29      7C1BB59D 
  29      04245468 
  29      76AFF7
  30 0023 2E215502 		.ascii	".!U\002@"
  30      40
  31              		.text
  32              		.section	.gnu.lto_.inline.1a3ffbf,"",%progbits
  33 0000 789C658D 		.ascii	"x\234e\215\311\015\2000\014\004\327\216\343\030\011"
  33      C90D8030 
ARM GAS  C:\Users\gjl\AppData\Local\Temp\ccPnexNF.s 			page 2


  33      0C04D78E 
  33      E31809
  34 000f 093A4807 		.ascii	"\011:H\007\224@\245<R\012%P\012%`\203\004B\231\307>"
  34      9440A53C 
  34      520A2550 
  34      0A256083 
  34      044299C7 
  35 0024 767C0808 		.ascii	"v|\010\010\301\206\017\005\254\020\301\\%\333Wh\253"
  35      C1860F05 
  35      AC10C15C 
  35      25DB5768 
  35      AB
  36 0035 0C3E2609 		.ascii	"\014>&\011K\030\254\223\322\352-\031\232\011\254\347"
  36      4B18AC93 
  36      D2EA2D19 
  36      9A09ACE7 
  37 0045 F2F44EEA 		.ascii	"\362\364N\352+\211\023\214\331OP\204\374\237x\2141\226"
  37      2B89138C 
  37      D94F5084 
  37      FC9F788C 
  37      3196
  38 0057 51D4375F 		.ascii	"Q\3247_\031\\\353\300\017\342"
  38      195CEBC0 
  38      0FE2
  39              		.text
  40              		.section	.gnu.lto_.pureconst.1a3ffbf,"",%progbits
  41 0000 789C6361 		.ascii	"x\234ca`d\340e```c\220b\224b\222b\226b\221b\225\002"
  41      6064E065 
  41      60606063 
  41      90629462 
  41      92629662 
  42 0018 00059500 		.ascii	"\000\005\225\000\304"
  42      C4
  43              		.text
  44              		.section	.gnu.lto_A1_SetDriveMode.1a3ffbf,"",%progbits
  45 0000 789C7D51 		.ascii	"x\234}Q=K\003A\020\235\267{\271(~\265\202\007\012\026"
  45      3D4B0341 
  45      109DB77B 
  45      B9287EB5 
  45      82070A16 
  46 0014 62238AFE 		.ascii	"b#\212\376\001\261\260\015\332*\"z\245\006Dk7\271\034"
  46      01B1B00D 
  46      DA2A227A 
  46      A506446B 
  46      37B91C
  47 0027 8A554414 		.ascii	"\212UD\024,\304J\342w\"\202\037]\210\250\235v\226\""
  47      2CC44AE2 
  47      7722821F 
  47      5D88A89D 
  47      769622
  48 003a 162758C5 		.ascii	"\026'X\305/\020Q\317\231Kj\027vf\356\361\336\343\355"
  48      2F1051CF 
  48      994B6A17 
  48      7666EEF1 
  48      DEE3ED
  49 004d 9C452039 		.ascii	"\234E 9\027\334\332\271\267\360\205&\250\354\015Q\252"
  49      17DCDAB9 
ARM GAS  C:\Users\gjl\AppData\Local\Temp\ccPnexNF.s 			page 3


  49      B7F08526 
  49      A8EC0D51 
  49      AA
  50 005e 46013298 		.ascii	"F\0012\230\032\320\274\302<>\324\217Bi!8W\2359\303\347"
  50      1AD0BCC2 
  50      3C3ED48F 
  50      42692138 
  50      579D39C3 
  51 0073 C10F1229 		.ascii	"\301\017\022)\3437\373\232(T\221\023!\207Nf\275\035"
  51      E337FB9A 
  51      28549113 
  51      21874E66 
  51      BD1D
  52 0085 6FADD4E9 		.ascii	"o\255\324\351V\020\317/7\345\373\306\216-c\322\306,"
  52      5610CF2F 
  52      37E5FBC6 
  52      8E2D63D2 
  52      C62C
  53 0097 8F1AED6B 		.ascii	"\217\032\355k`\033\232\025\350u\320\355\020\003\204"
  53      601B9A15 
  53      E875D0ED 
  53      100384
  54 00a6 1D7408F9 		.ascii	"\035t\010\371\361\350w\265\301\316\210}[\305\024\273"
  54      F1E877B5 
  54      C1CE887D 
  54      5BC514BB 
  55 00b6 B025667E 		.ascii	"\260%f~\250h\302\3203\305c\373\362\304\256U,SZ\212\005"
  55      A868C2D0 
  55      33C563FB 
  55      F2C4AE55 
  55      2C535A8A 
  56 00cb 11C764B4 		.ascii	"\021\307d\264\245\304\245\020\225\371J\374\027\245\244"
  56      A5C4A510 
  56      95F94AFC 
  56      17A5A4
  57 00da EB00A5AF 		.ascii	"\353\000\245\257\245\273u[\374<-OY\363K\267\361w\345"
  57      A5BB755B 
  57      FC3C2D4F 
  57      59F34BB7 
  57      F177E5
  58 00ed 6B1DE53C 		.ascii	"k\035\345<\275H=\251\312\347b&k,\206\262\237G\306\332"
  58      BD483DA9 
  58      CAE76226 
  58      6B2C86B2 
  58      9F47C6DA 
  59 0101 C4462A03 		.ascii	"\304F*\003_[\330\207\203=8\234\351\000\233\240\000\336"
  59      5F5BD887 
  59      833D389C 
  59      E9009BA0 
  59      00DE
  60 0113 77D54E57 		.ascii	"w\325NW\034\237\316v\267\353\304B\341:\014\303&\034"
  60      1C9FCE76 
  60      B7EBC442 
  60      E13A0CC3 
  60      261C
  61 0125 323B40FA 		.ascii	"2;@\3725^\241\305<m\211\254\\\225\011$;}-\344\352E\026"
  61      355EA1C5 
ARM GAS  C:\Users\gjl\AppData\Local\Temp\ccPnexNF.s 			page 4


  61      3C6D89AC 
  61      5C950924 
  61      3B7D2DE4 
  62 013c 83463E92 		.ascii	"\203F>\222x\237UJ<2\267\031*\255A\240\377b\0258\026"
  62      789F554A 
  62      3C32B719 
  62      2AAD41A0 
  62      FF621538 
  63 0151 4BE819E9 		.ascii	"K\350\031\351\342\351\225\022z\364W\312\012\262\003"
  63      E2E99512 
  63      7AF457CA 
  63      0AB203
  64 0160 DE8833E8 		.ascii	"\336\2103\350N\2733\343\263\356\344\330prnf\302\035"
  64      4EBB33E3 
  64      B3EEE4D8 
  64      70726E66 
  64      C21D
  65 0172 490C2707 		.ascii	"I\014'\007\372F\372{\272&\310\232JN\272\177QI\233\253"
  65      FA46FA7B 
  65      BA26C89A 
  65      4A4EBA7F 
  65      51499BAB 
  66              		.text
  67              		.section	.gnu.lto_A1_Write.1a3ffbf,"",%progbits
  68 0000 789C5551 		.ascii	"x\234UQKk\023Q\030\375\316\275\363\2521\277\300\200"
  68      4B6B1351 
  68      18FDCEBD 
  68      F3AA31BF 
  68      C080
  69 0012 DD845217 		.ascii	"\335\204R\027R\321\225;q\321\255Xp\025\224\320\316\312"
  69      52D1953B 
  69      71D1AD58 
  69      701594D0 
  69      CECA
  70 0024 6021D86E 		.ascii	"`!\330n{\363\206\252P\027\326E1Y\210\264\365U\353\243"
  70      7BF386AA 
  70      5017D645 
  70      315988B4 
  70      F555EBA3 
  71 0038 2074310E 		.ascii	" t1\016BVFD\021\305*Z0\242\033\243\244(\332\032\277"
  71      42564644 
  71      11C52A5A 
  71      30A21BA3 
  71      A428DA1A 
  72 004d 6F66D35C 		.ascii	"of\323\\\346>\346\3149\347\236\357\033\213@2\316*\242"
  72      E63EE6CC 
  72      39E79EEF 
  72      1B8B4032 
  72      CE2AA2
  73 0060 03BCEFE3 		.ascii	"\003\274\357\343\011MPs-\242\202\247\0009\030\0174\243"
  73      094D5073 
  73      2DA282A7 
  73      0039180F 
  73      34A3
  74 0072 30832DB5 		.ascii	"0\203-\265\243\020\326\332\217\325\360\242\341\361\361"
  74      A310D6DA 
  74      8FD5F0A2 
ARM GAS  C:\Users\gjl\AppData\Local\Temp\ccPnexNF.s 			page 5


  74      E1F1F1
  75 0081 F3AF11B3 		.ascii	"\363\257\021\263\024\240\242\211z*r\",b\230Y_\326k\257"
  75      14A0A289 
  75      7A2A7222 
  75      2C629859 
  75      5FD66BAF 
  76 0095 A0F783F8 		.ascii	"\240\367\203\370\\\015\267:\211\241\033\306\024\215"
  76      5C0DB73A 
  76      89A11BC6 
  76      148D
  77 00a3 799731BA 		.ascii	"y\2271\272\242\201%hV\340p\012#)b\200\260\214!!\177"
  77      A2812568 
  77      56E0700A 
  77      23296280 
  77      B08C2121 
  78 00b8 0D2FE474 		.ascii	"\015/\344t:\3225\327.\367\220\276.\272\340e3y\325\004"
  78      3AD235D7 
  78      2EF790BE 
  78      2EBAE065 
  78      3379D504 
  79 00cc 8541D1DE 		.ascii	"\205A\321\336\334\255\225\301\334\315\325\177W\222N"
  79      DCAD95C1 
  79      DCCDD57F 
  79      57924E
  80 00db 59520DE2 		.ascii	"YR\015\342\026\322q\036\334\206\303\025B\220\225\223"
  80      16D2711E 
  80      DC86C315 
  80      42909593 
  81 00eb 81E9F54A 		.ascii	"\201\351\365J&x\341>y\343&\024\337\2524/\332\"\371l"
  81      2678E13E 
  81      79E32614 
  81      DFAA342F 
  81      DA22F96C 
  82 00ff 43123802 		.ascii	"C\0228\002\270\262x\021: ,\242\016O\351\304\017\245"
  82      B8B27811 
  82      3A202CA2 
  82      0E4FE9C4 
  82      0FA5
  83 0111 64D76D84 		.ascii	"d\327m\204\177f[\365i\361/i\351\312|%|\356vUE[Q\364"
  83      7F665BF5 
  83      69F12F69 
  83      E9CA7C25 
  83      7CEE7655 
  84 0129 BFADEEF7 		.ascii	"\277\255\356\367D\374j\312s\306bh\341\321\332\373d\003"
  84      44FC6ACA 
  84      73C66268 
  84      E1D1DAFB 
  84      6403
  85 013b D70A65EE 		.ascii	"\327\012e\356\227\215\273H\341\0168?V\320\000\265Q\374"
  85      978DBB48 
  85      E10E383F 
  85      56D000B5 
  85      51FC
  86 014d 59DB50B1 		.ascii	"Y\333P\261\241fOFJ\333\325\015\304\210\305 {\\\352\316"
  86      A1664F46 
  86      4ADBD50D 
  86      C488C520 
ARM GAS  C:\Users\gjl\AppData\Local\Temp\ccPnexNF.s 			page 6


  86      7B5CEACE 
  87 0161 3EDB2BB6 		.ascii	">\333+\266\032;\300=\226o\"\322HVf\211\250S}]?\035\253"
  87      1A3BC03D 
  87      966F22D2 
  87      48566689 
  87      A8537D5D 
  88 0178 F8B159F5 		.ascii	"\370\261Y\365\360i\263\352\211\312\001\260\312\242>"
  88      F069B3EA 
  88      89CA01B0 
  88      CAA23E
  89 0187 6B97794C 		.ascii	"k\227yLZo\\\\\336#$\260\343\375\230\364\333\211)^\024"
  89      5A6F5C5C 
  89      DE2324B0 
  89      E3FD98F4 
  89      DB89295E 
  90 019c C0EDBFCC 		.ascii	"\300\355\277\314\2133\177\250\037\215I\0031\024\316"
  90      8B337FA8 
  90      1F8D4903 
  90      3114CE
  91 01ab 7F4A0AD0 		.ascii	"\177J\012\320Wq\301\230D\177\321\017\270h\326\3207\024"
  91      5771C198 
  91      447FD10F 
  91      B868D6D0 
  91      3714
  92 01bd 83B7A322 		.ascii	"\203\267\243\"\210\376dGA\032\314\355N\215\372\347\374"
  92      88FE6447 
  92      411ACCED 
  92      4E8DFAE7 
  92      FC
  93 01ce 7CF6BC3F 		.ascii	"|\366\274?qflr*?\356gN\214M\036?\2229v\350\3408\331"
  93      71666C72 
  93      2A3FEE67 
  93      4E8C4D1E 
  93      3F923976 
  94 01e6 D3D9DC94 		.ascii	"\323\331\334\224oO\344Oes\377\001q$\321\355"
  94      6F4FE44F 
  94      6573FF01 
  94      7124D1ED 
  95              		.text
  96              		.section	.gnu.lto_A1_Read.1a3ffbf,"",%progbits
  97 0000 789C4D8F 		.ascii	"x\234M\217\275K\003A\020\305\347\355^\342q\340_\340"
  97      BD4B0341 
  97      10C5E7ED 
  97      5EE271E0 
  97      5FE0
  98 0012 21B66944 		.ascii	"!\266iD\321\306JD\320VL'\001\221x\255\201\240u6\271"
  98      D1C64A44 
  98      D0564C27 
  98      019178AD 
  98      81A07536 
  99 0027 BB086291 		.ascii	"\273\010b\221F\203\205\2443\037*\"J\012\013\211AP\020"
  99      468385A4 
  99      331F2A22 
  99      4A0A0B89 
  99      415010
 100 003a 4C672788 		.ascii	"Lg'\210H\012\253\030\"\202\250\347l\316\302\205\235"
 100      480AAB18 
ARM GAS  C:\Users\gjl\AppData\Local\Temp\ccPnexNF.s 			page 7


 100      2282A8E7 
 100      6CCEC285 
 100      9D
 101 004b D99DF9ED 		.ascii	"\331\235\371\355{\263\006\201\364\232\3464\314y\210"
 101      7BB30681 
 101      F49AE634 
 101      CC7988
 102 005a 37244114 		.ascii	"7$A\024\356\211\262\246\000\364A\231\240\214@\006\357"
 102      EE89B2A6 
 102      00F44199 
 102      A08C4006 
 102      EF
 103 006b E25BE0EE 		.ascii	"\342[\340\356\343v\333\212\225\225\312\251'\377`\252"
 103      E376DB8A 
 103      9595CAA9 
 103      27FF60AA 
 104 007b 5869C097 		.ascii	"Xi\300\227D\201 L\330\030\263\265D\0311b\364\371\364"
 104      4481204C 
 104      D818B3B5 
 104      44193162 
 104      F4F9F4
 105 008e 676730EA 		.ascii	"gg0\352)^#\032\340N\005Qmy\262\330PA\340\252\306\231"
 105      295E231A 
 105      E04E0551 
 105      6D79B2D8 
 105      5041E0AA 
 106 00a4 7555B7B8 		.ascii	"uU\267\270\344K\366\345`\350\020!\255H\035~\241\375"
 106      E44BF6E5 
 106      60E81021 
 106      AD481D7E 
 106      A1FD
 107 00b6 DF84D059 		.ascii	"\337\204\320Y\266\321\374\334z\250.i\021WJ6\330\365"
 107      B6D1FCDC 
 107      7AA82E69 
 107      11574A36 
 107      D8F5
 108 00c8 9BAD819E 		.ascii	"\233\255\201\236\360\245\200\366\273(\326/ex\365\274"
 108      F0A580F6 
 108      BB28D62F 
 108      6578F5BC 
 109 00d8 8232B8D4 		.ascii	"\2022\270\324z\334\353X%\354g=\236R\242\006\033U\360"
 109      7ADCEB58 
 109      25EC673D 
 109      9E52A206 
 109      1B55F0
 110 00eb 8C384409 		.ascii	"\2148D\011\324\206\333\235#W\"\224;\277\276\311\233"
 110      D486DB9D 
 110      23572294 
 110      3BBFBEC9 
 110      9B
 111 00fc FABD01E0 		.ascii	"\372\275\001\340\2101\356\177\345{Fhh0\367\037b\006"
 111      8831EE7F 
 111      E57B4668 
 111      6830F71F 
 111      6206
 112 010e C77D28D7 		.ascii	"\307}(\327\335|A\010E\230\243W\210\277\033\365\277\001"
 112      DD7C4108 
ARM GAS  C:\Users\gjl\AppData\Local\Temp\ccPnexNF.s 			page 8


 112      4598A357 
 112      88BF1BF5 
 112      BF01
 113 0120 3D3E7FC6 		.ascii	"=>\177\306\236w\326\234\364\312\272\263\272\034Om\244"
 113      9E77D69C 
 113      F4CABAB3 
 113      BA1C4F6D 
 113      A4
 114 0131 934E6221 		.ascii	"\223Nb!\236\232\235L\314\214\217&\351\027/\351r<"
 114      9E9A9D4C 
 114      CC8C8F26 
 114      E9172FE9 
 114      723C
 115              		.text
 116              		.section	.gnu.lto_A1_ReadDataReg.1a3ffbf,"",%progbits
 117 0000 789C4D8F 		.ascii	"x\234M\217=K\003A\020\206\347\335\275\304`\310/\360"
 117      3D4B0341 
 117      1086E7DD 
 117      BDC460C8 
 117      2FF0
 118 0012 10DB34A2 		.ascii	"\020\3334\242hc%\"h+\246\223\200H\274\326@\320:\233"
 118      68632522 
 118      682BA693 
 118      8048BCD6 
 118      40D03A9B 
 119 0026 5C2E8258 		.ascii	"\\.\202X\244Q\213\240)\0235\"\342G\035\203\240 \304"
 119      A4518BA0 
 119      29133522 
 119      E2471D83 
 119      A020C4
 120 0039 5F208848 		.ascii	"_ \210H\012\0335D\005\277\342L\316\302\205\235\331\235"
 120      0A1B3544 
 120      05BFE24C 
 120      CEC2859D 
 120      D99D
 121 004b 79F67D67 		.ascii	"y\366}g-\002\311\032\347\324\317\271\21774A\025\032"
 121      2D02C91A 
 121      E7D4CFB9 
 121      8F373441 
 121      151A
 122 005d 44999002 		.ascii	"D\231\220\002\344`B\240\264B\032\257\352[\341\372\375"
 122      E46042A0 
 122      B4421AAF 
 122      EA5BE1FA 
 122      FD
 123 006e 6ABD375A 		.ascii	"j\2757Z6&k\356\274\343\261\255J\015\236&\352(\302\210"
 123      36266BEE 
 123      BCE3B1AD 
 123      4A0D9E26 
 123      EA28C288 
 124 0082 8D215B24 		.ascii	"\215![$\312\210\022\243\367G?\033\221`\316\360\032\020"
 124      CA8812A3 
 124      F7473F1B 
 124      9160CEF0 
 124      1A10
 125 0094 803B1504 		.ascii	"\200;\025\004\305\362p\266f:\035\327\324\212\341\363"
 125      C5F270B6 
ARM GAS  C:\Users\gjl\AppData\Local\Temp\ccPnexNF.s 			page 9


 125      663A1DD7 
 125      D48AE1F3 
 126 00a4 9D30973C 		.ascii	"\2350\227<\315\276\034,\011\001\022Ez\346\027\342\377"
 126      CDBE1C2C 
 126      09011245 
 126      7AE617E2 
 126      FF
 127 00b5 A29464DD 		.ascii	"\242\224d\335D\375c\355\255:'\"\256\326l\260\351\325"
 127      44FD63ED 
 127      AD3A2722 
 127      AED66CB0 
 127      E9D5
 128 00c7 6F7ADACA 		.ascii	"oz\332\312\323\012\342\367\331h?\205\375\253\311\025"
 128      D30AE2F7 
 128      D9683F85 
 128      FDABC915 
 129 00d7 8CC5A5E2 		.ascii	"\214\305\245\342\351\331m\244\204\355L\216\247\324\330"
 129      E9D96DA4 
 129      84ED4C8E 
 129      A7D4D8
 130 00e6 838D5DF0 		.ascii	"\203\215]\360\214\330G\011\324\204\333\232\"W\303\227"
 130      8CD84709 
 130      D484DB9A 
 130      2257C397 
 131 00f6 3BB9B8CC 		.ascii	";\271\270\314\207\344\275\005\240\312\030\367\277\362"
 131      87E4BD05 
 131      A0CA18F7 
 131      BFF2
 132 0104 6DCB37B4 		.ascii	"m\3137\264\230\373\0171\203\203.\224m\255>\300\207\002"
 132      98FB0F31 
 132      83832E94 
 132      6DAD3EC0 
 132      8702
 133 0116 CCD123D4 		.ascii	"\314\321#\324\337\215\272\337\200\214\317\237\261\247"
 133      DF8DBADF 
 133      808CCF9F 
 133      B1A7
 134 0124 9D2527B5 		.ascii	"\235%'\265\260\354,\316\307\222+\251\204\023\237\211"
 134      B0EC2CCE 
 134      C7922BA9 
 134      84139F89 
 135 0134 252747E3 		.ascii	"%'G\343\023\303\203\011\372\005\246\301r\332"
 135      13C38309 
 135      FA05A6C1 
 135      72DA
 136              		.text
 137              		.section	.gnu.lto_A1_SetInterruptMode.1a3ffbf,"",%progbits
 138 0000 789C6D51 		.ascii	"x\234mQ\317k\023A\024~of\223\335$\355\326\273\001s)"
 138      CF6B1341 
 138      147E6F66 
 138      93DD24ED 
 138      D6BB0173 
 139 0015 B1078542 		.ascii	"\261\007\205B\377\001\333\2037)\366Z\220\322F\311\301"
 139      FF01DB83 
 139      3729F65A 
 139      90D246C9 
 139      C1
ARM GAS  C:\Users\gjl\AppData\Local\Temp\ccPnexNF.s 			page 10


 140 0026 44623C77 		.ascii	"Db<w\222\335\244PD\212\305\200\305PP\226T\253\366\247"
 140      92DDA450 
 140      448AC580 
 140      C5505096 
 140      54ABF6A7 
 141 003a 05735A03 		.ascii	"\005sZ\003\342\301\252T-\242\202h\325\024J\017i\255"
 141      E2C1AA54 
 141      2DA28268 
 141      D5144A0F 
 141      69AD
 142 004c 28451BDF 		.ascii	"(E\033\337\333\315\245\340\300\356\314\373\370\276o"
 142      DBCDA5E0 
 142      C0EECCFB 
 142      F8BE6F
 143 005b BEF74603 		.ascii	"\276\367F\003\004^\025\001\320C\373Q\372P\002\212\211"
 143      045E1501 
 143      D043FB51 
 143      FA50028A 
 143      89
 144 006c 97003943 		.ascii	"\227\0009C \362A\031\010\243\002G\361\247\370+\2606"
 144      20F24119 
 144      08A30247 
 144      F1A7F82B 
 144      B036
 145 007e 567F2CBA 		.ascii	"V\177,\272*\212\326\347\357\233\335j\306\305\202\004"
 145      2A8AD6E7 
 145      EF9BDD6A 
 145      C6C58204 
 146 008e 680ACF09 		.ascii	"h\012\317\011\260\202]\304z\332\374\345v\354\211\202"
 146      B0825DC4 
 146      7ADAFCE5 
 146      76EC8982 
 147 009e 4464D1EB 		.ascii	"Dd\321\353\306j9\302\245\300#TNm9%S\036C\240\363\346"
 147      C66A39C2 
 147      A5C02354 
 147      4E6D3925 
 147      531E43A0 
 148 00b4 F2ED77E1 		.ascii	"\362\355w\341\270\243T^\251\311!\025(H\211\367P\222"
 148      B8A3545E 
 148      A9C92115 
 148      284889F7 
 148      5092
 149 00c6 1FDEC528 		.ascii	"\037\336\305(\316`\024\010\002\234\3058\261\177,9\223"
 149      CE601408 
 149      029CC538 
 149      B17F2C39 
 149      93
 150 00d7 1179DC53 		.ascii	"\021y\334S\356Z\216\325\326R\256\267\224\367\377\243"
 150      EE5A8ED5 
 150      D652AEB7 
 150      94F7FFA3 
 151 00e7 7C8071A6 		.ascii	"|\200q\246\257\331\363\267\244\037I\243r\347\305\324"
 151      AFD9F3B7 
 151      A41F49A3 
 151      72E7C5D4 
 152 00f7 57D38F14 		.ascii	"W\323\217\024\243r\326Yw\204<\341\031\217\277\277\276"
 152      A372D659 
ARM GAS  C:\Users\gjl\AppData\Local\Temp\ccPnexNF.s 			page 11


 152      77843CE1 
 152      198FBFBF 
 152      BE
 153 0108 D8DE7987 		.ascii	"\330\336y\207\215\3357\327\314\233\312\265c\005\251"
 153      8DDD37D7 
 153      CC9BCAB5 
 153      6305A9
 154 0117 E1BC6F3E 		.ascii	"\341\274o>G\346\017\311\234\027\2617\026\016n\264\007"
 154      47E60FC9 
 154      9C17B137 
 154      160E6EB4 
 154      07
 155 0128 6D1E480C 		.ascii	"m\036H\014\027\260\323\037\005.b\220\206\213\214\314"
 155      17B0D31F 
 155      052E6290 
 155      868B8CCC 
 156 0138 9D7555B3 		.ascii	"\235uU\263i)w\315|\362\301l\023\024+@)\250#\215\217"
 156      692977CD 
 156      7CF2C16C 
 156      13142B40 
 156      29A8238D 
 157 014d 01FE0581 		.ascii	"\001\376\005\201\231:rZ\203\200`\210\3210\377\000\032"
 157      993A725A 
 157      83806088 
 157      D130FF00 
 157      1A
 158 015e E4C82FB1 		.ascii	"\344\310/\261#\004\357\262\216\265\375\361O\325~\276"
 158      2304EFB2 
 158      8EB5FDF1 
 158      4FD57EBE 
 159 016e C4923CE0 		.ascii	"\304\222<\340R\241\366J\347nt\257\203\262\375\254\327"
 159      52A1F64A 
 159      E76E74AF 
 159      83B2FDAC 
 159      D7
 160 017f AFAEDA13 		.ascii	"\257\256\332\023\212\333}\376ve\337\234\306r\316\246"
 160      8ADB7DFE 
 160      7665DF9C 
 160      C672CEA6 
 161 018f E7327099 		.ascii	"\3472p\231zX\342\036\360\021N#\3241\277;\266\247\371"
 161      7A58E21E 
 161      F0114E23 
 161      D431BF3B 
 161      B6A7F9
 162 01a2 7E9A4553 		.ascii	"~\232ES#\344\240\370M\372H\200@B\254?\305m\364\021\276"
 162      23E4A0F8 
 162      4DFA4880 
 162      4042AC3F 
 162      C56DF411 
 163 01b7 9670D840 		.ascii	"\226p\330@\341uJ\331\011\3649\365j\265\3052\310\311"
 163      E1754AD9 
 163      09F439F5 
 163      6AB5C532 
 163      C8C9
 164 01c9 92BA67AF 		.ascii	"\222\272g\257\373P\210P\246\375.\256\266\314\303\236"
 164      FB508850 
 164      A6FD2EAE 
ARM GAS  C:\Users\gjl\AppData\Local\Temp\ccPnexNF.s 			page 12


 164      B6CCC39E 
 165 01d9 5B88C05A 		.ascii	"[\210\300Z\351K\007c\207\342\346\224\212\034N\274B\211"
 165      E94B0763 
 165      87E2E694 
 165      8A1C4EBC 
 165      4289
 166 01eb 49065B98 		.ascii	"I\006[\230w?\236a\201\367\024\015\201<\034\032U\364"
 166      773F9E61 
 166      81F7140D 
 166      813C1C1A 
 166      55F4
 167 01fd 742295C8 		.ascii	"t\"\225\310\014e\023#\347\006\322W2\303\211\301\376"
 167      0C651323 
 167      E706D257 
 167      32C389C1 
 167      FE
 168 020e 81745FCF 		.ascii	"\201t_\317\340\251\356\223\303`\\J_Nf\223\351\224v1"
 168      E0A9EE93 
 168      C3605C4A 
 168      5F4E6693 
 168      E9947631 
 169 0222 3D92D093 		.ascii	"=\222\320\223\251l\246\357\374\205\177>\263\353a"
 169      A96CA6EF 
 169      FC857F3E 
 169      B3EB61
 170              		.text
 171              		.section	.gnu.lto_A1_ClearInterrupt.1a3ffbf,"",%progbits
 172 0000 789C5590 		.ascii	"x\234U\220\315K[A\024\305\357\231y1\261(\371\003\032"
 172      CD4B5B41 
 172      14C5EF99 
 172      7931B128 
 172      F9031A
 173 0013 68362E44 		.ascii	"h6.D(\025]Xw\322\205[1\333@\011\346\255J\015h\334\326"
 173      28155D58 
 173      77D2855B 
 173      31DB4009 
 173      E6AD4A0D 
 174 002a 89C98B22 		.ascii	"\211\311\213\"\202\3314\001A\"\024\232\370\321\330B"
 174      82D93401 
 174      4122149A 
 174      F8D1D842 
 175 003a BB2A91D7 		.ascii	"\273*\221\327\220~\240\264\005\367\205\242\340B\020"
 175      907EA0B4 
 175      05F785A2 
 175      E04210
 176 0049 54AC01BF 		.ascii	"T\254\001\277\342\275y]\350\300cf\316\273\3477\347^"
 176      E2BD795D 
 176      E8C06366 
 176      CEBBE737 
 176      E75E
 177 005b 8B40B2FE 		.ascii	"\213@\262\376\360\326\303\373C\376\240\011*\367\213"
 177      F0D6C3FB 
 177      43FEA009 
 177      2AF78B
 178 006a 28155080 		.ascii	"(\025P\200\034L\0004\2550\215\177\352Za\247\361c\341"
 178      1C4C0034 
 178      AD308D7F 
ARM GAS  C:\Users\gjl\AppData\Local\Temp\ccPnexNF.s 			page 13


 178      EA5A61A7 
 178      F163E1
 179 007d 4177C998 		.ascii	"Aw\311\230\031\363\327i<-\224]8\232\250\251\010}!<\011"
 179      19F3D769 
 179      3C2D945D 
 179      389AA8A9 
 179      087D213C 
 180 0092 09A2846E 		.ascii	"\011\242\204n\342\322\375\312e\251S?\202\234\177\276"
 180      E2D2FDCA 
 180      65A9533F 
 180      829C7FBE 
 181 00a2 3DFA84AE 		.ascii	"=\372\204\2567bs\253\213\035\005\343\246\302\354C\031"
 181      376273AB 
 181      8B1D05E3 
 181      A6C2EC43 
 181      19
 182 00b3 FAAE95A4 		.ascii	"\372\256\225\244v\357\303\315\353\316\266\214\341\025"
 182      76EFC3CD 
 182      EBCEB68C 
 182      E115
 183 00c1 C62ABA04 		.ascii	"\306*\272\004\316\3245\264qN\210\2629\352\232f3m\334"
 183      CED435B4 
 183      714E88B2 
 183      39EA9A66 
 183      336DDC
 184 00d4 CFC12FBB 		.ascii	"\317\301/\273\301\200\"GsnG+\213\344\267O\356~\222\\"
 184      C1802247 
 184      736E472B 
 184      8BE4B74F 
 184      EE7E925C 
 185 00e8 74CC5EE9 		.ascii	"t\314^\351\342D)\331\365\001j\027\363\347\325W\202K"
 185      E24429D9 
 185      F5016A17 
 185      F3E7D557 
 185      824B
 186 00fa 6BE928EF 		.ascii	"k\351(\357\324~\373\317\224\243u+\351\322\345\312\034"
 186      D47EFBCF 
 186      94A3752B 
 186      E9D2E5CA 
 186      1C
 187 010b BC6B2E93 		.ascii	"\274k.\2233\026K\316vi\247\275\210\345T\206{\265\260"
 187      33164BCE 
 187      7669A7BD 
 187      88E55486 
 187      7BB5B0
 188 011e 8110D6C1 		.ascii	"\201\020\326\301q\361\016E\320\001fNg\257\224\007\324"
 188      71F10E45 
 188      D001664E 
 188      67AF9407 
 188      D4
 189 012f CC64257D 		.ascii	"\314d%}\225\255\303S,\026\231\361\265\331p\203\202U"
 189      95ADC353 
 189      2C1699F1 
 189      B5D97083 
 189      8255
 190 0141 50A8B07B 		.ascii	"P\250\260{\017-\213\344\345\"\217rS\035\364L>O\252\345"
 190      0F2D8BE4 
ARM GAS  C:\Users\gjl\AppData\Local\Temp\ccPnexNF.s 			page 14


 190      E5228F72 
 190      531DF44C 
 190      3E4FAAE5 
 191 0155 5B907B11 		.ascii	"[\220{\021R\306\370\356\247\330\344\024l\221gO\263\337"
 191      52C6F8EE 
 191      A7D8E414 
 191      6C91674F 
 191      B3DF
 192 0167 B6063C84 		.ascii	"\266\006<\204\237\021l\374X\377\236\015\310\273>\000"
 192      9F116CFC 
 192      58FF9E0D 
 192      C8BB3E00 
 193 0177 EFB9FE10 		.ascii	"\357\271\376\020\377\243\372\2515\036\310XxH\241a{\334"
 193      FFA3FAA9 
 193      351EC858 
 193      7848A161 
 193      7BDC
 194 0189 9E8825ED 		.ascii	"\236\210%\355\370\363Hbjb\314\216\216D\022\317\372\243"
 194      F8F34862 
 194      6A62CC8E 
 194      8E4412CF 
 194      FAA3
 195 019b 43BD8FC7 		.ascii	"C\275\217\307\250\343el\362\205\035\217$c\311\251\311"
 195      A8E3656C 
 195      F2851D8F 
 195      2463C9A9 
 195      C9
 196 01ac 5B08A6A8 		.ascii	"[\010\246\250\362"
 196      F2
 197              		.text
 198              		.section	.gnu.lto_.symbol_nodes.1a3ffbf,"",%progbits
 199 0000 789C6361 		.ascii	"x\234ca`d\310`\000\002&\206z\006\206\011\347\030@\324"
 199      6064C860 
 199      00022686 
 199      7A068609 
 199      E71840D4 
 200 0014 AE0645A0 		.ascii	"\256\006E\240\000c=#\252\000S=\023\252\000s=3\252\000"
 200      00633D23 
 200      AA00533D 
 200      13AA0073 
 200      3D33AA00 
 201 0028 4B3D0BAA 		.ascii	"K=\013\252\000k=+\212\000\003\000\305\333\026\342"
 201      006B3D2B 
 201      8A000300 
 201      C5DB16E2 
 202              		.text
 203              		.section	.gnu.lto_.refs.1a3ffbf,"",%progbits
 204 0000 789C6361 		.ascii	"x\234ca`\004B \000\000\0009\000\007"
 204      60044220 
 204      00000039 
 204      0007
 205              		.text
 206              		.section	.gnu.lto_.decls.1a3ffbf,"",%progbits
 207 0000 789C8D54 		.ascii	"x\234\215T]L\034U\024\276gfv\330\016\010\025\033C\342"
 207      5D4C1C55 
 207      14BE6766 
 207      76D80E08 
ARM GAS  C:\Users\gjl\AppData\Local\Temp\ccPnexNF.s 			page 15


 207      151B43E2 
 208 0014 3E601F76 		.ascii	">`\037v\211\017\244[L\343\213\211\015\215\325D\255)"
 208      890FA45B 
 208      4CE38B89 
 208      0D8DD544 
 208      AD29
 209 0026 115F9AD4 		.ascii	"\021_\232\324-L*\211\201\272.&}\273\026Z[}\241\221\320"
 209      2D4C2A89 
 209      81BA2E26 
 209      7DBB165A 
 209      5B7DA191 
 210 003b A2D44289 		.ascii	"\242\324B\211\010\313R\226\362\323\335\355\317.\025"
 210      08CB5296 
 210      F2D3DDED 
 210      CF2E15
 211 004a 56A4D002 		.ascii	"V\244\320\002M5M\325\022\327\306h\033K\205\244\241\006"
 211      4D354DD5 
 211      12D7C668 
 211      1B4B85A4 
 211      A106
 212 005c D773EF9D 		.ascii	"\327s\357\235\331\231\326%r\263\347\376\236\363\235"
 212      D999D625 
 212      72B3E7FE 
 212      9EF39D
 213 006b EF7C73B2 		.ascii	"\357|s\262\012\001\302\206\244\022\022\3055\204\307"
 213      0A01C286 
 213      A41212C5 
 213      3584C7
 214 007a 348E1CDC 		.ascii	"4\216\034\334W\022k\3403\031D\033F\213\240\305\320\306"
 214      57126BE0 
 214      3319441B 
 214      468BA0C5 
 214      D0C6
 215 008c D092E4BF 		.ascii	"\320\222\344\277c\320\360g\361\247\321<hsh3h;\014\037"
 215      63D0F067 
 215      F1A7D13C 
 215      68736833 
 215      683B0C1F 
 216 00a0 30FC1E1F 		.ascii	"0\374\036\037\014?\347\261X\327*\361\303Y\342\0317\307"
 216      0C3FE7B1 
 216      58D72AF1 
 216      C359E219 
 216      37C7
 217 00b2 FFE48D64 		.ascii	"\377\344\215d\211\213\255!.\226%\216i\260\316\340[\210"
 217      898BAD21 
 217      2E96258E 
 217      69B0CEE0 
 217      5B88
 218 00c4 B6012D8E 		.ascii	"\266\001-\2166e\340\270mX&\316X\026\034\246\243\272"
 218      3665E0B8 
 218      6D5826CE 
 218      58161CA6 
 218      A3BA
 219 00d6 869AB3E9 		.ascii	"\206\232\263\351\275\"\301Lc\362\254\363&\334\000\011"
 219      BD22C14C 
 219      63F2ACF3 
 219      26DC0009 
ARM GAS  C:\Users\gjl\AppData\Local\Temp\ccPnexNF.s 			page 16


 220 00e6 8C0F4A00 		.ascii	"\214\017J\000\304\014\334\2100~\304\215\304g\222\271"
 220      C40CDC88 
 220      307EC48D 
 220      C46792B9 
 221 00f6 CA2C84CD 		.ascii	"\312,\204\315D\370\363;\013\214\377\3145m\016\016b\241"
 221      44F8F33B 
 221      0B8CFFCC 
 221      356D0E0E 
 221      62A1
 222 0108 83110419 		.ascii	"\203\021\004\031\006\"J\274K&\252X$+\300\206'\350\332"
 222      06224ABC 
 222      4B26AA58 
 222      242BC086 
 222      27E8DA
 223 011b 38C1A335 		.ascii	"8\301\2435\201Y\364\275\366T\213$c\305\270\277\265\334"
 223      8159F4BD 
 223      F6548B24 
 223      63C5B8BF 
 223      B5DC
 224 012d FD726988 		.ascii	"\375ri\210\342h\242Tz\316R\246\377\340\257=\316%\011"
 224      E268A254 
 224      7ACE52A6 
 224      FFE0AF3D 
 224      CE2509
 225 0140 5C1AA481 		.ascii	"\\\032\244\201\235\357F\227\237\020g\366\334z4\365O"
 225      9DEF4697 
 225      9F1067F6 
 225      DC7A34F5 
 225      4F
 226 0151 AEFC0CDB 		.ascii	"\256\374\014\333K\327R\275\277+P\242u1\230\371\317z"
 226      4BD752BD 
 226      BF2B50A2 
 226      753198F9 
 226      CF7A
 227 0163 5E8C52BA 		.ascii	"^\214R\272\036N\203\006!\220\241\007JYr\227\206\363"
 227      1E4E8306 
 227      2190A107 
 227      4A597297 
 227      86F3
 228 0175 614A0FD0 		.ascii	"aJ\017\320\205ST-\"P\346\202M.\002}P\3020\231\027\364"
 228      8553542D 
 228      2250E682 
 228      4D2E027D 
 228      50C23099 
 229 018b 820B82E0 		.ascii	"\202\013\202\340b\370\267\217\235\274\243*\022\0062"
 229      62F8B78F 
 229      9DBCA32A 
 229      120632
 230 019a 9C3D0ABB 		.ascii	"\234=\012\273\033O?H\024 \205B\015$<\316-L\235\310\305"
 230      1B4F3F48 
 230      14208542 
 230      0D243CCE 
 230      2D4C9DC8 
 231 01af E3060DD6 		.ascii	"\343\006\015\326\343\361J\363\2159(ja\034h\003-\226"
 231      E3F14AF3 
 231      8D39286A 
 231      611C6803 
ARM GAS  C:\Users\gjl\AppData\Local\Temp\ccPnexNF.s 			page 17


 231      2D96
 232 01c1 A0F26918 		.ascii	"\240\362i\030@\3000\002\0228\003E8\367\203\"\252\353"
 232      40C03002 
 232      12380345 
 232      38F78322 
 232      AAEB
 233 01d3 8AB4DC87 		.ascii	"\212\264\334\207\215\355\264=L\347\217\035z\255\243"
 233      8DEDB43D 
 233      4CE78F1D 
 233      7AADA3
 234 01e2 F3109DC1 		.ascii	"\363\020\235\301\270\227\270#t[\264q\313\226\257\341"
 234      B897B823 
 234      745BB471 
 234      CB96AFE1 
 235 01f2 268A3908 		.ascii	"&\2129\010\0331v\364BC{\236\374\016\227\341\313#w+\005"
 235      1B3176F4 
 235      42437B9E 
 235      FC0E97E1 
 235      CB23772B 
 236 0207 4C22FEB1 		.ascii	"L\"\376\261\334J\023\007\020E\342 C\026\310\220\035"
 236      DC4A1307 
 236      1045E220 
 236      4316C890 
 236      1D
 237 0218 6498835C 		.ascii	"d\230\203\\\014w\374\240\3105\034\344DSg0\327\316\234"
 237      0C77FCA0 
 237      C8351CE4 
 237      44536730 
 237      D7CE9C
 238 022b 956C513F 		.ascii	"\225lQ?\313\251\3571\230?\270\376\351G\006\363\304\300"
 238      CBA9EF31 
 238      983FB8FE 
 238      E94706F3 
 238      C4C0
 239 023d A49512BD 		.ascii	"\244\225\022\275`\304J9bO\031\341)\277\017/\005e\371"
 239      60C44A39 
 239      624F19E1 
 239      29BF0F2F 
 239      0565F9
 240 0250 7D9EF27C 		.ascii	"}\236\362|zZ1@\216_\316\023\265s\210\250\005\021\265"
 240      7A5A3140 
 240      8E5FCE13 
 240      B57388A8 
 240      0511B5
 241 0263 43C438C4 		.ascii	"C\3048\304/\223\211\207\252L\201c|\365\360\357\005\031"
 241      2F938987 
 241      AA4C8163 
 241      7CF5F0EF 
 241      0519
 242 0275 F5776387 		.ascii	"\365wc\207\244e[\213\270E\213tw$\0075\271\231;Km\315"
 242      A4655B8B 
 242      B8458B74 
 242      77240735 
 242      B9993B4B 
 243 028b A37D2A68 		.ascii	"\243}*h%\274\003\260J\255;\237dj\204\0046\201\333h\202"
 243      25BC03B0 
 243      4AAD3B9F 
ARM GAS  C:\Users\gjl\AppData\Local\Temp\ccPnexNF.s 			page 18


 243      646A8404 
 243      3681DB68 
 244 02a0 0B78791E 		.ascii	"\013xy\036/\215n\352\023\335\024GI.Z\334\334\232P\243"
 244      2F8D6EEA 
 244      13DD1447 
 244      492E5ADC 
 244      DC9A50A3 
 245 02b4 E5DAD232 		.ascii	"\345\332\3222\3606\211g\332\344\324\275\305\243\316"
 245      F0368967 
 245      DAE4D4BD 
 245      C5A3CE
 246 02c3 CCDD28F0 		.ascii	"\314\335(\360\313\340\037\313qu\325\356\370\206K|\311"
 246      CBE01FCB 
 246      7175D5EE 
 246      F8864B7C 
 246      C9
 247 02d4 EC8E23B3 		.ascii	"\354\216#\263]+\016\263;\222;Rg(=\210q\012\363\203s"
 247      5D2B0EB3 
 247      3B923B52 
 247      67283D88 
 247      710AF383 
 248 02e9 168B7376 		.ascii	"\026\213sv\205\306\270B\213\363\177\376(\311_\010\205"
 248      85C6B842 
 248      8BF37FFE 
 248      28C95F08 
 248      85
 249 02fa C683BDAD 		.ascii	"\306\203\275\255\252!s\364\352\243\337j\334\202\031"
 249      AA2173F4 
 249      EAA3DF6A 
 249      DC8219
 250 0309 B7C32439 		.ascii	"\267\303$9\314lc\270M\026\255\256\340\361\376\364\347"
 250      CC6C63B8 
 250      4D16ADAE 
 250      E0F1FEF4 
 250      E7
 251 031a A97CD1EA 		.ascii	"\251|\321\352\305x\374i\242\247\227\275z\230\362\351"
 251      C578FC69 
 251      A2A797BD 
 251      7A98F2E9 
 252 032a 74814D7B 		.ascii	"t\201M{\217\320~\362\326\355\277\326\311}B\373\221\316"
 252      8FD07EF2 
 252      D6EDBFD6 
 252      C97D42FB 
 252      91CE
 253 033c 938B0E53 		.ascii	"\223\213\016S\373\246\006Z8\201\332O`\361\3372\355\247"
 253      FBA6065A 
 253      3881DA4F 
 253      60F1DF32 
 253      EDA7
 254 034e 517B8FA1 		.ascii	"Q{\217\241\375$^~gi? \264\237B\031/[t=\206\366\261P"
 254      FD245E7E 
 254      67693F20 
 254      B49F4219 
 254      2F5B743D 
 255 0366 FF71593B 		.ascii	"\377qY;\314\364\\\023(\013\371\231\2669\344!A+\032\271"
 255      CCF45C13 
 255      280BF999 
ARM GAS  C:\Users\gjl\AppData\Local\Temp\ccPnexNF.s 			page 19


 255      B639E421 
 255      412B1AB9 
 256 037a 13CA17B4 		.ascii	"\023\312\027\264\262 \314\256F+\261\362\333+\215\024"
 256      B220CCAE 
 256      462BB1F2 
 256      DB2B8D14 
 257 038a 7B700669 		.ascii	"{p\006i]\265h]\001\203\327\310\304\354pN\336'V\261\334"
 257      5DB5685D 
 257      0183D7C8 
 257      C4EC704E 
 257      DE2756B1 
 258 039f D3042630 		.ascii	"\323\004&0\007y\374?\221\255\005[\275\273+\364\3006"
 258      0779FC3F 
 258      91AD055B 
 258      BDBB2BF4 
 258      C036
 259 03b1 7FCD87FA 		.ascii	"\177\315\207\372\353u\325\272s\373\033o\025\227{\275"
 259      EB75D5BA 
 259      73FB1B6F 
 259      15977BBD 
 260 03c1 C4515F53 		.ascii	"\304Q_S\033x\341\331\355z\255\356\367\005\364\352\335"
 260      1B78E1D9 
 260      ED7AADEE 
 260      F705F4EA 
 260      DD
 261 03d2 1575F5FE 		.ascii	"\025u\365\376*}\327\233\025u\345\317\357\252\332\037"
 261      2A7DD79B 
 261      1575E5CF 
 261      EFAADA1F 
 262 03e2 D8BF4FFF 		.ascii	"\330\277O\377\240\364]\342Z\305c\253\267\264\2128\021"
 262      A0F45DE2 
 262      5AC563AB 
 262      B7B48A38 
 262      11
 263 03f3 FD6D7F4D 		.ascii	"\375m\177M@\317\301\315N\335W\235o\254\333|\001\337"
 263      40CFC1CD 
 263      4EDD579D 
 263      6FACDB7C 
 263      01DF
 264 0405 4E7DEF53 		.ascii	"N}\357S\"\373\253\265\001\335\357\257\337\027`\014T"
 264      22FBABB5 
 264      01DDEFAF 
 264      DF17600C 
 264      54
 265 0416 96D8BBE5 		.ascii	"\226\330\273\345I|*\177O\367\3713\217\374\241l\263\303"
 265      497C2A7F 
 265      4FF7F933 
 265      8FFCA16C 
 265      B3C3
 266 0428 AFEF2DDB 		.ascii	"\257\357-\333\374/x0\015\027"
 266      FC2F7830 
 266      0D17
 267              		.text
 268              		.section	.gnu.lto_.symtab.1a3ffbf,"",%progbits
 269 0000 41315F53 		.ascii	"A1_SetDriveMode\000"
 269      65744472 
 269      6976654D 
ARM GAS  C:\Users\gjl\AppData\Local\Temp\ccPnexNF.s 			page 20


 269      6F646500 
 270 0010 00       		.ascii	"\000"
 271 0011 00       		.ascii	"\000"
 272 0012 00       		.ascii	"\000"
 273 0013 00000000 		.ascii	"\000\000\000\000\000\000\000\000"
 273      00000000 
 274 001b B3000000 		.ascii	"\263\000\000\000"
 275 001f 41315F57 		.ascii	"A1_Write\000"
 275      72697465 
 275      00
 276 0028 00       		.ascii	"\000"
 277 0029 00       		.ascii	"\000"
 278 002a 00       		.ascii	"\000"
 279 002b 00000000 		.ascii	"\000\000\000\000\000\000\000\000"
 279      00000000 
 280 0033 B5000000 		.ascii	"\265\000\000\000"
 281 0037 41315F52 		.ascii	"A1_Read\000"
 281      65616400 
 282 003f 00       		.ascii	"\000"
 283 0040 00       		.ascii	"\000"
 284 0041 00       		.ascii	"\000"
 285 0042 00000000 		.ascii	"\000\000\000\000\000\000\000\000"
 285      00000000 
 286 004a B8000000 		.ascii	"\270\000\000\000"
 287 004e 41315F52 		.ascii	"A1_ReadDataReg\000"
 287      65616444 
 287      61746152 
 287      656700
 288 005d 00       		.ascii	"\000"
 289 005e 00       		.ascii	"\000"
 290 005f 00       		.ascii	"\000"
 291 0060 00000000 		.ascii	"\000\000\000\000\000\000\000\000"
 291      00000000 
 292 0068 BA000000 		.ascii	"\272\000\000\000"
 293 006c 41315F53 		.ascii	"A1_SetInterruptMode\000"
 293      6574496E 
 293      74657272 
 293      7570744D 
 293      6F646500 
 294 0080 00       		.ascii	"\000"
 295 0081 00       		.ascii	"\000"
 296 0082 00       		.ascii	"\000"
 297 0083 00000000 		.ascii	"\000\000\000\000\000\000\000\000"
 297      00000000 
 298 008b C4000000 		.ascii	"\304\000\000\000"
 299 008f 41315F43 		.ascii	"A1_ClearInterrupt\000"
 299      6C656172 
 299      496E7465 
 299      72727570 
 299      7400
 300 00a1 00       		.ascii	"\000"
 301 00a2 00       		.ascii	"\000"
 302 00a3 00       		.ascii	"\000"
 303 00a4 00000000 		.ascii	"\000\000\000\000\000\000\000\000"
 303      00000000 
 304 00ac C6000000 		.ascii	"\306\000\000\000"
 305              		.text
ARM GAS  C:\Users\gjl\AppData\Local\Temp\ccPnexNF.s 			page 21


 306              		.section	.gnu.lto_.opts,"",%progbits
 307 0000 272D666D 		.ascii	"'-fmath-errno' '-fsigned-zeros' '-ftrapping-math' '"
 307      6174682D 
 307      6572726E 
 307      6F272027 
 307      2D667369 
 308 0033 2D666E6F 		.ascii	"-fno-trapv' '-fno-openmp' '-fno-openacc' '-mcpu=cor"
 308      2D747261 
 308      70762720 
 308      272D666E 
 308      6F2D6F70 
 309 0066 7465782D 		.ascii	"tex-m0' '-mthumb' '-g' '-Os' '-ffunction-sections' "
 309      6D302720 
 309      272D6D74 
 309      68756D62 
 309      2720272D 
 310 0099 272D6666 		.ascii	"'-ffat-lto-objects' '-flto'\000"
 310      61742D6C 
 310      746F2D6F 
 310      626A6563 
 310      74732720 
 311              		.text
 312              		.cfi_sections	.debug_frame
 313              		.section	.text.A1_SetDriveMode,"ax",%progbits
 314              		.align	1
 315              		.global	A1_SetDriveMode
 316              		.code	16
 317              		.thumb_func
 318              		.type	A1_SetDriveMode, %function
 319              	A1_SetDriveMode:
 320              	.LFB0:
 321              		.file 1 "Generated_Source\\PSoC4\\A1.c"
   1:Generated_Source\PSoC4/A1.c **** /*******************************************************************************
   2:Generated_Source\PSoC4/A1.c **** * File Name: A1.c  
   3:Generated_Source\PSoC4/A1.c **** * Version 2.20
   4:Generated_Source\PSoC4/A1.c **** *
   5:Generated_Source\PSoC4/A1.c **** * Description:
   6:Generated_Source\PSoC4/A1.c **** *  This file contains API to enable firmware control of a Pins component.
   7:Generated_Source\PSoC4/A1.c **** *
   8:Generated_Source\PSoC4/A1.c **** ********************************************************************************
   9:Generated_Source\PSoC4/A1.c **** * Copyright 2008-2015, Cypress Semiconductor Corporation.  All rights reserved.
  10:Generated_Source\PSoC4/A1.c **** * You may use this file only in accordance with the license, terms, conditions, 
  11:Generated_Source\PSoC4/A1.c **** * disclaimers, and limitations in the end user license agreement accompanying 
  12:Generated_Source\PSoC4/A1.c **** * the software package with which this file was provided.
  13:Generated_Source\PSoC4/A1.c **** *******************************************************************************/
  14:Generated_Source\PSoC4/A1.c **** 
  15:Generated_Source\PSoC4/A1.c **** #include "cytypes.h"
  16:Generated_Source\PSoC4/A1.c **** #include "A1.h"
  17:Generated_Source\PSoC4/A1.c **** 
  18:Generated_Source\PSoC4/A1.c **** 
  19:Generated_Source\PSoC4/A1.c **** #if defined(A1__PC)
  20:Generated_Source\PSoC4/A1.c ****     #define A1_SetP4PinDriveMode(shift, mode)  \
  21:Generated_Source\PSoC4/A1.c ****     do { \
  22:Generated_Source\PSoC4/A1.c ****         A1_PC =   (A1_PC & \
  23:Generated_Source\PSoC4/A1.c ****                                 (uint32)(~(uint32)(A1_DRIVE_MODE_IND_MASK << \
  24:Generated_Source\PSoC4/A1.c ****                                 (A1_DRIVE_MODE_BITS * (shift))))) | \
  25:Generated_Source\PSoC4/A1.c ****                                 (uint32)((uint32)(mode) << \
ARM GAS  C:\Users\gjl\AppData\Local\Temp\ccPnexNF.s 			page 22


  26:Generated_Source\PSoC4/A1.c ****                                 (A1_DRIVE_MODE_BITS * (shift))); \
  27:Generated_Source\PSoC4/A1.c ****     } while (0)
  28:Generated_Source\PSoC4/A1.c **** #else
  29:Generated_Source\PSoC4/A1.c ****     #if (CY_PSOC4_4200L)
  30:Generated_Source\PSoC4/A1.c ****         #define A1_SetP4PinDriveMode(shift, mode)  \
  31:Generated_Source\PSoC4/A1.c ****         do { \
  32:Generated_Source\PSoC4/A1.c ****             A1_USBIO_CTRL_REG = (A1_USBIO_CTRL_REG & \
  33:Generated_Source\PSoC4/A1.c ****                                     (uint32)(~(uint32)(A1_DRIVE_MODE_IND_MASK << \
  34:Generated_Source\PSoC4/A1.c ****                                     (A1_DRIVE_MODE_BITS * (shift))))) | \
  35:Generated_Source\PSoC4/A1.c ****                                     (uint32)((uint32)(mode) << \
  36:Generated_Source\PSoC4/A1.c ****                                     (A1_DRIVE_MODE_BITS * (shift))); \
  37:Generated_Source\PSoC4/A1.c ****         } while (0)
  38:Generated_Source\PSoC4/A1.c ****     #endif
  39:Generated_Source\PSoC4/A1.c **** #endif
  40:Generated_Source\PSoC4/A1.c ****   
  41:Generated_Source\PSoC4/A1.c **** 
  42:Generated_Source\PSoC4/A1.c **** #if defined(A1__PC) || (CY_PSOC4_4200L) 
  43:Generated_Source\PSoC4/A1.c ****     /*******************************************************************************
  44:Generated_Source\PSoC4/A1.c ****     * Function Name: A1_SetDriveMode
  45:Generated_Source\PSoC4/A1.c ****     ****************************************************************************//**
  46:Generated_Source\PSoC4/A1.c ****     *
  47:Generated_Source\PSoC4/A1.c ****     * \brief Sets the drive mode for each of the Pins component's pins.
  48:Generated_Source\PSoC4/A1.c ****     * 
  49:Generated_Source\PSoC4/A1.c ****     * <b>Note</b> This affects all pins in the Pins component instance. Use the
  50:Generated_Source\PSoC4/A1.c ****     * Per-Pin APIs if you wish to control individual pin's drive modes.
  51:Generated_Source\PSoC4/A1.c ****     *
  52:Generated_Source\PSoC4/A1.c ****     * <b>Note</b> USBIOs have limited drive functionality. Refer to the Drive Mode
  53:Generated_Source\PSoC4/A1.c ****     * parameter for more information.
  54:Generated_Source\PSoC4/A1.c ****     *
  55:Generated_Source\PSoC4/A1.c ****     * \param mode
  56:Generated_Source\PSoC4/A1.c ****     *  Mode for the selected signals. Valid options are documented in 
  57:Generated_Source\PSoC4/A1.c ****     *  \ref driveMode.
  58:Generated_Source\PSoC4/A1.c ****     *
  59:Generated_Source\PSoC4/A1.c ****     * \return
  60:Generated_Source\PSoC4/A1.c ****     *  None
  61:Generated_Source\PSoC4/A1.c ****     *
  62:Generated_Source\PSoC4/A1.c ****     * \sideeffect
  63:Generated_Source\PSoC4/A1.c ****     *  If you use read-modify-write operations that are not atomic, the ISR can
  64:Generated_Source\PSoC4/A1.c ****     *  cause corruption of this function. An ISR that interrupts this function 
  65:Generated_Source\PSoC4/A1.c ****     *  and performs writes to the Pins component Drive Mode registers can cause 
  66:Generated_Source\PSoC4/A1.c ****     *  corrupted port data. To avoid this issue, you should either use the Per-Pin
  67:Generated_Source\PSoC4/A1.c ****     *  APIs (primary method) or disable interrupts around this function.
  68:Generated_Source\PSoC4/A1.c ****     *
  69:Generated_Source\PSoC4/A1.c ****     * \funcusage
  70:Generated_Source\PSoC4/A1.c ****     *  \snippet A1_SUT.c usage_A1_SetDriveMode
  71:Generated_Source\PSoC4/A1.c ****     *******************************************************************************/
  72:Generated_Source\PSoC4/A1.c ****     void A1_SetDriveMode(uint8 mode)
  73:Generated_Source\PSoC4/A1.c ****     {
 322              		.loc 1 73 0
 323              		.cfi_startproc
 324              		@ args = 0, pretend = 0, frame = 0
 325              		@ frame_needed = 0, uses_anonymous_args = 0
 326              		@ link register save eliminated.
 327              	.LVL0:
  74:Generated_Source\PSoC4/A1.c **** 		A1_SetP4PinDriveMode(A1__0__SHIFT, mode);
 328              		.loc 1 74 0
 329 0000 3821     		movs	r1, #56
ARM GAS  C:\Users\gjl\AppData\Local\Temp\ccPnexNF.s 			page 23


 330 0002 034A     		ldr	r2, .L2
 331 0004 C000     		lsls	r0, r0, #3
 332              	.LVL1:
 333 0006 1368     		ldr	r3, [r2]
  75:Generated_Source\PSoC4/A1.c ****     }
 334              		.loc 1 75 0
 335              		@ sp needed
  74:Generated_Source\PSoC4/A1.c **** 		A1_SetP4PinDriveMode(A1__0__SHIFT, mode);
 336              		.loc 1 74 0
 337 0008 8B43     		bics	r3, r1
 338 000a 1843     		orrs	r0, r3
 339 000c 1060     		str	r0, [r2]
 340              		.loc 1 75 0
 341 000e 7047     		bx	lr
 342              	.L3:
 343              		.align	2
 344              	.L2:
 345 0010 08020440 		.word	1074004488
 346              		.cfi_endproc
 347              	.LFE0:
 348              		.size	A1_SetDriveMode, .-A1_SetDriveMode
 349              		.section	.text.A1_Write,"ax",%progbits
 350              		.align	1
 351              		.global	A1_Write
 352              		.code	16
 353              		.thumb_func
 354              		.type	A1_Write, %function
 355              	A1_Write:
 356              	.LFB1:
  76:Generated_Source\PSoC4/A1.c **** #endif
  77:Generated_Source\PSoC4/A1.c **** 
  78:Generated_Source\PSoC4/A1.c **** 
  79:Generated_Source\PSoC4/A1.c **** /*******************************************************************************
  80:Generated_Source\PSoC4/A1.c **** * Function Name: A1_Write
  81:Generated_Source\PSoC4/A1.c **** ****************************************************************************//**
  82:Generated_Source\PSoC4/A1.c **** *
  83:Generated_Source\PSoC4/A1.c **** * \brief Writes the value to the physical port (data output register), masking
  84:Generated_Source\PSoC4/A1.c **** *  and shifting the bits appropriately. 
  85:Generated_Source\PSoC4/A1.c **** *
  86:Generated_Source\PSoC4/A1.c **** * The data output register controls the signal applied to the physical pin in 
  87:Generated_Source\PSoC4/A1.c **** * conjunction with the drive mode parameter. This function avoids changing 
  88:Generated_Source\PSoC4/A1.c **** * other bits in the port by using the appropriate method (read-modify-write or
  89:Generated_Source\PSoC4/A1.c **** * bit banding).
  90:Generated_Source\PSoC4/A1.c **** *
  91:Generated_Source\PSoC4/A1.c **** * <b>Note</b> This function should not be used on a hardware digital output pin 
  92:Generated_Source\PSoC4/A1.c **** * as it is driven by the hardware signal attached to it.
  93:Generated_Source\PSoC4/A1.c **** *
  94:Generated_Source\PSoC4/A1.c **** * \param value
  95:Generated_Source\PSoC4/A1.c **** *  Value to write to the component instance.
  96:Generated_Source\PSoC4/A1.c **** *
  97:Generated_Source\PSoC4/A1.c **** * \return 
  98:Generated_Source\PSoC4/A1.c **** *  None 
  99:Generated_Source\PSoC4/A1.c **** *
 100:Generated_Source\PSoC4/A1.c **** * \sideeffect
 101:Generated_Source\PSoC4/A1.c **** *  If you use read-modify-write operations that are not atomic; the Interrupt 
 102:Generated_Source\PSoC4/A1.c **** *  Service Routines (ISR) can cause corruption of this function. An ISR that 
 103:Generated_Source\PSoC4/A1.c **** *  interrupts this function and performs writes to the Pins component data 
ARM GAS  C:\Users\gjl\AppData\Local\Temp\ccPnexNF.s 			page 24


 104:Generated_Source\PSoC4/A1.c **** *  register can cause corrupted port data. To avoid this issue, you should 
 105:Generated_Source\PSoC4/A1.c **** *  either use the Per-Pin APIs (primary method) or disable interrupts around 
 106:Generated_Source\PSoC4/A1.c **** *  this function.
 107:Generated_Source\PSoC4/A1.c **** *
 108:Generated_Source\PSoC4/A1.c **** * \funcusage
 109:Generated_Source\PSoC4/A1.c **** *  \snippet A1_SUT.c usage_A1_Write
 110:Generated_Source\PSoC4/A1.c **** *******************************************************************************/
 111:Generated_Source\PSoC4/A1.c **** void A1_Write(uint8 value)
 112:Generated_Source\PSoC4/A1.c **** {
 357              		.loc 1 112 0
 358              		.cfi_startproc
 359              		@ args = 0, pretend = 0, frame = 0
 360              		@ frame_needed = 0, uses_anonymous_args = 0
 361              		@ link register save eliminated.
 362              	.LVL2:
 113:Generated_Source\PSoC4/A1.c ****     uint8 drVal = (uint8)(A1_DR & (uint8)(~A1_MASK));
 363              		.loc 1 113 0
 364 0000 0223     		movs	r3, #2
 365 0002 0449     		ldr	r1, .L5
 114:Generated_Source\PSoC4/A1.c ****     drVal = (drVal | ((uint8)(value << A1_SHIFT) & A1_MASK));
 115:Generated_Source\PSoC4/A1.c ****     A1_DR = (uint32)drVal;
 366              		.loc 1 115 0
 367 0004 4000     		lsls	r0, r0, #1
 368              	.LVL3:
 113:Generated_Source\PSoC4/A1.c ****     uint8 drVal = (uint8)(A1_DR & (uint8)(~A1_MASK));
 369              		.loc 1 113 0
 370 0006 0A68     		ldr	r2, [r1]
 116:Generated_Source\PSoC4/A1.c **** }
 371              		.loc 1 116 0
 372              		@ sp needed
 113:Generated_Source\PSoC4/A1.c ****     uint8 drVal = (uint8)(A1_DR & (uint8)(~A1_MASK));
 373              		.loc 1 113 0
 374 0008 9A43     		bics	r2, r3
 375 000a D2B2     		uxtb	r2, r2
 115:Generated_Source\PSoC4/A1.c **** }
 376              		.loc 1 115 0
 377 000c 0340     		ands	r3, r0
 378 000e 1343     		orrs	r3, r2
 379 0010 0B60     		str	r3, [r1]
 380              		.loc 1 116 0
 381 0012 7047     		bx	lr
 382              	.L6:
 383              		.align	2
 384              	.L5:
 385 0014 00020440 		.word	1074004480
 386              		.cfi_endproc
 387              	.LFE1:
 388              		.size	A1_Write, .-A1_Write
 389              		.section	.text.A1_Read,"ax",%progbits
 390              		.align	1
 391              		.global	A1_Read
 392              		.code	16
 393              		.thumb_func
 394              		.type	A1_Read, %function
 395              	A1_Read:
 396              	.LFB2:
 117:Generated_Source\PSoC4/A1.c **** 
ARM GAS  C:\Users\gjl\AppData\Local\Temp\ccPnexNF.s 			page 25


 118:Generated_Source\PSoC4/A1.c **** 
 119:Generated_Source\PSoC4/A1.c **** /*******************************************************************************
 120:Generated_Source\PSoC4/A1.c **** * Function Name: A1_Read
 121:Generated_Source\PSoC4/A1.c **** ****************************************************************************//**
 122:Generated_Source\PSoC4/A1.c **** *
 123:Generated_Source\PSoC4/A1.c **** * \brief Reads the associated physical port (pin status register) and masks 
 124:Generated_Source\PSoC4/A1.c **** *  the required bits according to the width and bit position of the component
 125:Generated_Source\PSoC4/A1.c **** *  instance. 
 126:Generated_Source\PSoC4/A1.c **** *
 127:Generated_Source\PSoC4/A1.c **** * The pin's status register returns the current logic level present on the 
 128:Generated_Source\PSoC4/A1.c **** * physical pin.
 129:Generated_Source\PSoC4/A1.c **** *
 130:Generated_Source\PSoC4/A1.c **** * \return 
 131:Generated_Source\PSoC4/A1.c **** *  The current value for the pins in the component as a right justified number.
 132:Generated_Source\PSoC4/A1.c **** *
 133:Generated_Source\PSoC4/A1.c **** * \funcusage
 134:Generated_Source\PSoC4/A1.c **** *  \snippet A1_SUT.c usage_A1_Read  
 135:Generated_Source\PSoC4/A1.c **** *******************************************************************************/
 136:Generated_Source\PSoC4/A1.c **** uint8 A1_Read(void)
 137:Generated_Source\PSoC4/A1.c **** {
 397              		.loc 1 137 0
 398              		.cfi_startproc
 399              		@ args = 0, pretend = 0, frame = 0
 400              		@ frame_needed = 0, uses_anonymous_args = 0
 401              		@ link register save eliminated.
 138:Generated_Source\PSoC4/A1.c ****     return (uint8)((A1_PS & A1_MASK) >> A1_SHIFT);
 402              		.loc 1 138 0
 403 0000 024B     		ldr	r3, .L8
 139:Generated_Source\PSoC4/A1.c **** }
 404              		.loc 1 139 0
 405              		@ sp needed
 138:Generated_Source\PSoC4/A1.c ****     return (uint8)((A1_PS & A1_MASK) >> A1_SHIFT);
 406              		.loc 1 138 0
 407 0002 1868     		ldr	r0, [r3]
 408 0004 8007     		lsls	r0, r0, #30
 409 0006 C00F     		lsrs	r0, r0, #31
 410              		.loc 1 139 0
 411 0008 7047     		bx	lr
 412              	.L9:
 413 000a C046     		.align	2
 414              	.L8:
 415 000c 04020440 		.word	1074004484
 416              		.cfi_endproc
 417              	.LFE2:
 418              		.size	A1_Read, .-A1_Read
 419              		.section	.text.A1_ReadDataReg,"ax",%progbits
 420              		.align	1
 421              		.global	A1_ReadDataReg
 422              		.code	16
 423              		.thumb_func
 424              		.type	A1_ReadDataReg, %function
 425              	A1_ReadDataReg:
 426              	.LFB3:
 140:Generated_Source\PSoC4/A1.c **** 
 141:Generated_Source\PSoC4/A1.c **** 
 142:Generated_Source\PSoC4/A1.c **** /*******************************************************************************
 143:Generated_Source\PSoC4/A1.c **** * Function Name: A1_ReadDataReg
ARM GAS  C:\Users\gjl\AppData\Local\Temp\ccPnexNF.s 			page 26


 144:Generated_Source\PSoC4/A1.c **** ****************************************************************************//**
 145:Generated_Source\PSoC4/A1.c **** *
 146:Generated_Source\PSoC4/A1.c **** * \brief Reads the associated physical port's data output register and masks 
 147:Generated_Source\PSoC4/A1.c **** *  the correct bits according to the width and bit position of the component 
 148:Generated_Source\PSoC4/A1.c **** *  instance. 
 149:Generated_Source\PSoC4/A1.c **** *
 150:Generated_Source\PSoC4/A1.c **** * The data output register controls the signal applied to the physical pin in 
 151:Generated_Source\PSoC4/A1.c **** * conjunction with the drive mode parameter. This is not the same as the 
 152:Generated_Source\PSoC4/A1.c **** * preferred A1_Read() API because the 
 153:Generated_Source\PSoC4/A1.c **** * A1_ReadDataReg() reads the data register instead of the status 
 154:Generated_Source\PSoC4/A1.c **** * register. For output pins this is a useful function to determine the value 
 155:Generated_Source\PSoC4/A1.c **** * just written to the pin.
 156:Generated_Source\PSoC4/A1.c **** *
 157:Generated_Source\PSoC4/A1.c **** * \return 
 158:Generated_Source\PSoC4/A1.c **** *  The current value of the data register masked and shifted into a right 
 159:Generated_Source\PSoC4/A1.c **** *  justified number for the component instance.
 160:Generated_Source\PSoC4/A1.c **** *
 161:Generated_Source\PSoC4/A1.c **** * \funcusage
 162:Generated_Source\PSoC4/A1.c **** *  \snippet A1_SUT.c usage_A1_ReadDataReg 
 163:Generated_Source\PSoC4/A1.c **** *******************************************************************************/
 164:Generated_Source\PSoC4/A1.c **** uint8 A1_ReadDataReg(void)
 165:Generated_Source\PSoC4/A1.c **** {
 427              		.loc 1 165 0
 428              		.cfi_startproc
 429              		@ args = 0, pretend = 0, frame = 0
 430              		@ frame_needed = 0, uses_anonymous_args = 0
 431              		@ link register save eliminated.
 166:Generated_Source\PSoC4/A1.c ****     return (uint8)((A1_DR & A1_MASK) >> A1_SHIFT);
 432              		.loc 1 166 0
 433 0000 024B     		ldr	r3, .L11
 167:Generated_Source\PSoC4/A1.c **** }
 434              		.loc 1 167 0
 435              		@ sp needed
 166:Generated_Source\PSoC4/A1.c ****     return (uint8)((A1_DR & A1_MASK) >> A1_SHIFT);
 436              		.loc 1 166 0
 437 0002 1868     		ldr	r0, [r3]
 438 0004 8007     		lsls	r0, r0, #30
 439 0006 C00F     		lsrs	r0, r0, #31
 440              		.loc 1 167 0
 441 0008 7047     		bx	lr
 442              	.L12:
 443 000a C046     		.align	2
 444              	.L11:
 445 000c 00020440 		.word	1074004480
 446              		.cfi_endproc
 447              	.LFE3:
 448              		.size	A1_ReadDataReg, .-A1_ReadDataReg
 449              		.section	.text.A1_SetInterruptMode,"ax",%progbits
 450              		.align	1
 451              		.global	A1_SetInterruptMode
 452              		.code	16
 453              		.thumb_func
 454              		.type	A1_SetInterruptMode, %function
 455              	A1_SetInterruptMode:
 456              	.LFB4:
 168:Generated_Source\PSoC4/A1.c **** 
 169:Generated_Source\PSoC4/A1.c **** 
ARM GAS  C:\Users\gjl\AppData\Local\Temp\ccPnexNF.s 			page 27


 170:Generated_Source\PSoC4/A1.c **** /*******************************************************************************
 171:Generated_Source\PSoC4/A1.c **** * Function Name: A1_SetInterruptMode
 172:Generated_Source\PSoC4/A1.c **** ****************************************************************************//**
 173:Generated_Source\PSoC4/A1.c **** *
 174:Generated_Source\PSoC4/A1.c **** * \brief Configures the interrupt mode for each of the Pins component's
 175:Generated_Source\PSoC4/A1.c **** *  pins. Alternatively you may set the interrupt mode for all the pins
 176:Generated_Source\PSoC4/A1.c **** *  specified in the Pins component.
 177:Generated_Source\PSoC4/A1.c **** *
 178:Generated_Source\PSoC4/A1.c **** *  <b>Note</b> The interrupt is port-wide and therefore any enabled pin
 179:Generated_Source\PSoC4/A1.c **** *  interrupt may trigger it.
 180:Generated_Source\PSoC4/A1.c **** *
 181:Generated_Source\PSoC4/A1.c **** * \param position
 182:Generated_Source\PSoC4/A1.c **** *  The pin position as listed in the Pins component. You may OR these to be 
 183:Generated_Source\PSoC4/A1.c **** *  able to configure the interrupt mode of multiple pins within a Pins 
 184:Generated_Source\PSoC4/A1.c **** *  component. Or you may use A1_INTR_ALL to configure the
 185:Generated_Source\PSoC4/A1.c **** *  interrupt mode of all the pins in the Pins component.       
 186:Generated_Source\PSoC4/A1.c **** *  - A1_0_INTR       (First pin in the list)
 187:Generated_Source\PSoC4/A1.c **** *  - A1_1_INTR       (Second pin in the list)
 188:Generated_Source\PSoC4/A1.c **** *  - ...
 189:Generated_Source\PSoC4/A1.c **** *  - A1_INTR_ALL     (All pins in Pins component)
 190:Generated_Source\PSoC4/A1.c **** *
 191:Generated_Source\PSoC4/A1.c **** * \param mode
 192:Generated_Source\PSoC4/A1.c **** *  Interrupt mode for the selected pins. Valid options are documented in
 193:Generated_Source\PSoC4/A1.c **** *  \ref intrMode.
 194:Generated_Source\PSoC4/A1.c **** *
 195:Generated_Source\PSoC4/A1.c **** * \return 
 196:Generated_Source\PSoC4/A1.c **** *  None
 197:Generated_Source\PSoC4/A1.c **** *  
 198:Generated_Source\PSoC4/A1.c **** * \sideeffect
 199:Generated_Source\PSoC4/A1.c **** *  It is recommended that the interrupt be disabled before calling this 
 200:Generated_Source\PSoC4/A1.c **** *  function to avoid unintended interrupt requests. Note that the interrupt
 201:Generated_Source\PSoC4/A1.c **** *  type is port wide, and therefore will trigger for any enabled pin on the 
 202:Generated_Source\PSoC4/A1.c **** *  port.
 203:Generated_Source\PSoC4/A1.c **** *
 204:Generated_Source\PSoC4/A1.c **** * \funcusage
 205:Generated_Source\PSoC4/A1.c **** *  \snippet A1_SUT.c usage_A1_SetInterruptMode
 206:Generated_Source\PSoC4/A1.c **** *******************************************************************************/
 207:Generated_Source\PSoC4/A1.c **** void A1_SetInterruptMode(uint16 position, uint16 mode)
 208:Generated_Source\PSoC4/A1.c **** {
 457              		.loc 1 208 0
 458              		.cfi_startproc
 459              		@ args = 0, pretend = 0, frame = 0
 460              		@ frame_needed = 0, uses_anonymous_args = 0
 461              		@ link register save eliminated.
 462              	.LVL4:
 209:Generated_Source\PSoC4/A1.c ****     uint32 intrCfg;
 210:Generated_Source\PSoC4/A1.c ****     
 211:Generated_Source\PSoC4/A1.c ****     intrCfg =  A1_INTCFG & (uint32)(~(uint32)position);
 463              		.loc 1 211 0
 464 0000 034A     		ldr	r2, .L14
 212:Generated_Source\PSoC4/A1.c ****     A1_INTCFG = intrCfg | ((uint32)position & (uint32)mode);
 213:Generated_Source\PSoC4/A1.c **** }
 465              		.loc 1 213 0
 466              		@ sp needed
 211:Generated_Source\PSoC4/A1.c ****     A1_INTCFG = intrCfg | ((uint32)position & (uint32)mode);
 467              		.loc 1 211 0
 468 0002 1368     		ldr	r3, [r2]
ARM GAS  C:\Users\gjl\AppData\Local\Temp\ccPnexNF.s 			page 28


 469              	.LVL5:
 212:Generated_Source\PSoC4/A1.c ****     A1_INTCFG = intrCfg | ((uint32)position & (uint32)mode);
 470              		.loc 1 212 0
 471 0004 8343     		bics	r3, r0
 472              	.LVL6:
 473 0006 0840     		ands	r0, r1
 474              	.LVL7:
 475 0008 1843     		orrs	r0, r3
 476 000a 1060     		str	r0, [r2]
 477              		.loc 1 213 0
 478 000c 7047     		bx	lr
 479              	.L15:
 480 000e C046     		.align	2
 481              	.L14:
 482 0010 0C020440 		.word	1074004492
 483              		.cfi_endproc
 484              	.LFE4:
 485              		.size	A1_SetInterruptMode, .-A1_SetInterruptMode
 486              		.section	.text.A1_ClearInterrupt,"ax",%progbits
 487              		.align	1
 488              		.global	A1_ClearInterrupt
 489              		.code	16
 490              		.thumb_func
 491              		.type	A1_ClearInterrupt, %function
 492              	A1_ClearInterrupt:
 493              	.LFB5:
 214:Generated_Source\PSoC4/A1.c **** 
 215:Generated_Source\PSoC4/A1.c **** 
 216:Generated_Source\PSoC4/A1.c **** /*******************************************************************************
 217:Generated_Source\PSoC4/A1.c **** * Function Name: A1_ClearInterrupt
 218:Generated_Source\PSoC4/A1.c **** ****************************************************************************//**
 219:Generated_Source\PSoC4/A1.c **** *
 220:Generated_Source\PSoC4/A1.c **** * \brief Clears any active interrupts attached with the component and returns 
 221:Generated_Source\PSoC4/A1.c **** *  the value of the interrupt status register allowing determination of which
 222:Generated_Source\PSoC4/A1.c **** *  pins generated an interrupt event.
 223:Generated_Source\PSoC4/A1.c **** *
 224:Generated_Source\PSoC4/A1.c **** * \return 
 225:Generated_Source\PSoC4/A1.c **** *  The right-shifted current value of the interrupt status register. Each pin 
 226:Generated_Source\PSoC4/A1.c **** *  has one bit set if it generated an interrupt event. For example, bit 0 is 
 227:Generated_Source\PSoC4/A1.c **** *  for pin 0 and bit 1 is for pin 1 of the Pins component.
 228:Generated_Source\PSoC4/A1.c **** *  
 229:Generated_Source\PSoC4/A1.c **** * \sideeffect
 230:Generated_Source\PSoC4/A1.c **** *  Clears all bits of the physical port's interrupt status register, not just
 231:Generated_Source\PSoC4/A1.c **** *  those associated with the Pins component.
 232:Generated_Source\PSoC4/A1.c **** *
 233:Generated_Source\PSoC4/A1.c **** * \funcusage
 234:Generated_Source\PSoC4/A1.c **** *  \snippet A1_SUT.c usage_A1_ClearInterrupt
 235:Generated_Source\PSoC4/A1.c **** *******************************************************************************/
 236:Generated_Source\PSoC4/A1.c **** uint8 A1_ClearInterrupt(void)
 237:Generated_Source\PSoC4/A1.c **** {
 494              		.loc 1 237 0
 495              		.cfi_startproc
 496              		@ args = 0, pretend = 0, frame = 0
 497              		@ frame_needed = 0, uses_anonymous_args = 0
 498              		@ link register save eliminated.
 238:Generated_Source\PSoC4/A1.c **** 	uint8 maskedStatus = (uint8)(A1_INTSTAT & A1_MASK);
 499              		.loc 1 238 0
ARM GAS  C:\Users\gjl\AppData\Local\Temp\ccPnexNF.s 			page 29


 500 0000 0223     		movs	r3, #2
 501 0002 034A     		ldr	r2, .L17
 239:Generated_Source\PSoC4/A1.c **** 	A1_INTSTAT = maskedStatus;
 240:Generated_Source\PSoC4/A1.c ****     return maskedStatus >> A1_SHIFT;
 241:Generated_Source\PSoC4/A1.c **** }
 502              		.loc 1 241 0
 503              		@ sp needed
 238:Generated_Source\PSoC4/A1.c **** 	uint8 maskedStatus = (uint8)(A1_INTSTAT & A1_MASK);
 504              		.loc 1 238 0
 505 0004 1068     		ldr	r0, [r2]
 506 0006 1840     		ands	r0, r3
 507              	.LVL8:
 239:Generated_Source\PSoC4/A1.c **** 	A1_INTSTAT = maskedStatus;
 508              		.loc 1 239 0
 509 0008 1060     		str	r0, [r2]
 240:Generated_Source\PSoC4/A1.c **** }
 510              		.loc 1 240 0
 511 000a 4008     		lsrs	r0, r0, #1
 512              	.LVL9:
 513 000c C0B2     		uxtb	r0, r0
 514              		.loc 1 241 0
 515 000e 7047     		bx	lr
 516              	.L18:
 517              		.align	2
 518              	.L17:
 519 0010 10020440 		.word	1074004496
 520              		.cfi_endproc
 521              	.LFE5:
 522              		.size	A1_ClearInterrupt, .-A1_ClearInterrupt
 523              		.text
 524              	.Letext0:
 525              		.file 2 "Generated_Source\\PSoC4\\cytypes.h"