ARM GAS  C:\Users\gjl\AppData\Local\Temp\ccR9n7T5.s 			page 1


   1              		.syntax unified
   2              		.cpu cortex-m0
   3              		.fpu softvfp
   4              		.eabi_attribute 20, 1
   5              		.eabi_attribute 21, 1
   6              		.eabi_attribute 23, 3
   7              		.eabi_attribute 24, 1
   8              		.eabi_attribute 25, 1
   9              		.eabi_attribute 26, 1
  10              		.eabi_attribute 30, 4
  11              		.eabi_attribute 34, 0
  12              		.eabi_attribute 18, 4
  13              		.thumb
  14              		.syntax unified
  15              		.file	"A2.c"
  16              		.text
  17              	.Ltext0:
  18              		.section	.gnu.lto_.profile.50a2d9ca,"",%progbits
  19 0000 789C6361 		.ascii	"x\234ca`d`a`\000\222\352\212\000\000\331\000S"
  19      60646061 
  19      600092EA 
  19      8A0000D9 
  19      0053
  20              		.text
  21              		.section	.gnu.lto_.icf.50a2d9ca,"",%progbits
  22 0000 789C6361 		.ascii	"x\234ca`d\000\0015\006\004`c8\373\343\356)v\306i\233"
  22      60640001 
  22      35060460 
  22      6338FBE3 
  22      EE2976C6 
  23 0016 FE3E6266 		.ascii	"\376>bf:\275v\345:N\346\177[_\036\342`y\336\264t3\017"
  23      3ABD76E5 
  23      3A4EE67F 
  23      5B5F1EE2 
  23      6079DEB4 
  24 002d EB8B1F2B 		.ascii	"\353\213\037+\377\3613\000\000\201\005\023\177"
  24      FFF13300 
  24      00810513 
  24      7F
  25              		.text
  26              		.section	.gnu.lto_.jmpfuncs.50a2d9ca,"",%progbits
  27 0000 789C45C9 		.ascii	"x\234E\311\261\001\000 \010\300\260\026\320+\374\225"
  27      B1010020 
  27      08C0B016 
  27      D02BFC95 
  28 0010 D795C90C 		.ascii	"\327\225\311\014]Z\3108|\033\265\235\004$Thv\257\367"
  28      5D5AC838 
  28      7C1BB59D 
  28      04245468 
  28      76AFF7
  29 0023 2E215502 		.ascii	".!U\002@"
  29      40
  30              		.text
  31              		.section	.gnu.lto_.inline.50a2d9ca,"",%progbits
  32 0000 789C658D 		.ascii	"x\234e\215\311\015\2000\014\004\327\216\343\030\011"
  32      C90D8030 
  32      0C04D78E 
ARM GAS  C:\Users\gjl\AppData\Local\Temp\ccR9n7T5.s 			page 2


  32      E31809
  33 000f 093A4807 		.ascii	"\011:H\007\224@\245<R\012%P\012%`\203\004B\231\307>"
  33      9440A53C 
  33      520A2550 
  33      0A256083 
  33      044299C7 
  34 0024 767C0808 		.ascii	"v|\010\010\301\206\017\005\254\020\301\\%\333Wh\253"
  34      C1860F05 
  34      AC10C15C 
  34      25DB5768 
  34      AB
  35 0035 0C3E2609 		.ascii	"\014>&\011K\030\254\223\322\352-\031\232\011\254\347"
  35      4B18AC93 
  35      D2EA2D19 
  35      9A09ACE7 
  36 0045 F2F44EEA 		.ascii	"\362\364N\352+\211\023\214\331OP\204\374\237x\2141\226"
  36      2B89138C 
  36      D94F5084 
  36      FC9F788C 
  36      3196
  37 0057 51D4375F 		.ascii	"Q\3247_\031\\\353\300\017\342"
  37      195CEBC0 
  37      0FE2
  38              		.text
  39              		.section	.gnu.lto_.pureconst.50a2d9ca,"",%progbits
  40 0000 789C6361 		.ascii	"x\234ca`d\340e```c\220b\224b\222b\226b\221b\225\002"
  40      6064E065 
  40      60606063 
  40      90629462 
  40      92629662 
  41 0018 00059500 		.ascii	"\000\005\225\000\304"
  41      C4
  42              		.text
  43              		.section	.gnu.lto_A2_SetDriveMode.50a2d9ca,"",%progbits
  44 0000 789C7D51 		.ascii	"x\234}QMk\023Q\024\275\347\275\311LE\214[\241\003\025"
  44      4D6B1351 
  44      14BDE7BD 
  44      C94C458C 
  44      5BA10315 
  45 0014 5C946C44 		.ascii	"\\\224lD\264\177@\\\270-\3156\"%\231\245\006\212\256"
  45      B47F405C 
  45      B82DCD36 
  45      222599A5 
  45      068AAE
  46 0027 FB2693A1 		.ascii	"\373&\223\241\245\253\210\030p!]\205\324\217\030C\300"
  46      A5AB8818 
  46      70215D85 
  46      D48F1843 
  46      C0
  47 0038 A0501AA6 		.ascii	"\240P\032\246\3502\272r#\224\"2\202\253\251\037\020"
  47      E832BA72 
  47      23942232 
  47      82ABA91F 
  47      10
  48 0049 DAB4E3BD 		.ascii	"\332\264\343\275\223\254}\360\356\275\357p\316\341\274"
  48      93AC7DF0 
  48      EEBDEF70 
ARM GAS  C:\Users\gjl\AppData\Local\Temp\ccR9n7T5.s 			page 3


  48      CEE1BC
  49 0058 F72C02C9 		.ascii	"\367,\002\311\332\347v\205\373<oh\202j\214\210\3749"
  49      DAE77685 
  49      FB3C6F68 
  49      826A8C88 
  49      FC39
  50 006a 05C860E6 		.ascii	"\005\310`\346@\353\012\353\370\253N\025\242\215\370"
  50      40EB0AEB 
  50      F8AB4E15 
  50      A28DF8
  51 0079 9D2AB40D 		.ascii	"\235*\264\015\257\3030^\366Mx)\324D\251\312\234\010"
  51      AFC3305E 
  51      F64D7829 
  51      D444A9CA 
  51      9C08
  52 008b 6D1498F5 		.ascii	"m\024\230\365\273\337z|^/\200x>\032%\007\371\305\226"
  52      BBDF7A7C 
  52      5E2F8078 
  52      3E1A2507 
  52      F9C596
  53 009e 3135631E 		.ascii	"15c\036\3351:\324\300\0164+p\303\3055\227\030 <\307"
  53      DD313AD4 
  53      C00E342B 
  53      70C3C535 
  53      9718203C 
  54 00b3 A290BFF5 		.ascii	"\242\220\277\365\316\236\\\260\353b\177yj\212\027\260"
  54      CE9E5CB0 
  54      EB627F79 
  54      6A8A17B0 
  55 00c3 25667765 		.ascii	"%fweh\32240\303\276\375\341\255}N\261Li)\026D\234\223"
  55      68D23430 
  55      C3BEFDE1 
  55      AD7D4EB1 
  55      4C692916 
  56 00da D196E248 		.ascii	"\321\226\342H!JxK\374#\245\244\353\030\321\361\326\227"
  56      214A784B 
  56      FC23A5A4 
  56      EB18D1F1 
  56      D697
  57 00ec A7B6F805 		.ascii	"\247\266\370\005Z\256\322\014\243O\316\037\025j\235"
  57      5AAED20C 
  57      A34FCE1F 
  57      156A9D
  58 00fb E51CECFB 		.ascii	"\345\034\354\373?\324\364\270Yo\030\213\241\306\270"
  58      3FD4F4B8 
  58      596F188B 
  58      A1C6B8
  59 010a 67AC6D3C 		.ascii	"g\254m<\363\353\010\265\205Wp\361\022.g\352`\033\024"
  59      F3EB08B5 
  59      855770F1 
  59      122E67EA 
  59      601B14
  60 011d 2398CCEC 		.ascii	"#\230\314\354\364\324\261\363\371\353.\304Bao\222\246"
  60      F4D4B1F3 
  60      F9EB2EC4 
  60      42616F92 
  60      A6
ARM GAS  C:\Users\gjl\AppData\Local\Temp\ccR9n7T5.s 			page 4


  61 012e 17F19AD9 		.ascii	"\027\361\232\3311j\277\234)-\027hKd\311L&\020\313\276"
  61      316ABF9C 
  61      292D1768 
  61      4B64C94C 
  61      2610CBBE 
  62 0142 9F74DEE7 		.ascii	"\237t\336\347E\226\343\253v3I0\236Q\234\314\334f(jB"
  62      4596E3AB 
  62      76334930 
  62      9E519CCC 
  62      DC66286A 
  63 0157 A0FFC57A 		.ascii	"\240\377\305z\303\261XB?Q\033\016>*\241g\277\222(\310"
  63      C3B15842 
  63      3F511B0E 
  63      3E2AA167 
  63      BF9228C8 
  64 016b 1BF08BB8 		.ascii	"\033\360\213\270\267\275\373\336\332\352\003\257r\267"
  64      B7BDFBDE 
  64      DAEA03AF 
  64      72B7
  65 0179 587DB856 		.ascii	"X}\270V\366J\313\305\352\255\245\322\315\353W\313d\335"
  65      F64ACBC5 
  65      EAADA5D2 
  65      CDEB57CB 
  65      64DD
  66 018b AB56BC7F 		.ascii	"\253V\274\177\177\224\233\373"
  66      7F949BFB 
  67              		.text
  68              		.section	.gnu.lto_A2_Write.50a2d9ca,"",%progbits
  69 0000 789C5551 		.ascii	"x\234UQ=k\024Q\024\275\347\275\371\212\313\342\017p"
  69      3D6B1451 
  69      14BDE7BD 
  69      F98ACBE2 
  69      0F70
  70 0012 21699610 		.ascii	"!i\226\020\013\011je'\026i\305@\252EY\222\251\\\014"
  70      0B096A65 
  70      271669C5 
  70      40AA4559 
  70      92A95C0C 
  71 0026 2C266DDE 		.ascii	",&m\336~\203\202$\205\261\0207E\220\304\317\230\210"
  71      7E838224 
  71      85B11037 
  71      4590C4CF 
  71      9888
  72 0038 01C56232 		.ascii	"\001\305b2 \351VD\021\305(1\340\2126n$!b\242\343\275"
  72      20E95644 
  72      11C52831 
  72      E08A366E 
  72      242162A2 
  73 004e 338DFB98 		.ascii	"3\215\373\230\3671g\3169\357\334;\026\201d\\TDGy?\302"
  73      F73167CE 
  73      39EFDC3B 
  73      1681645C 
  73      54444779 
  74 0064 139AA0A6 		.ascii	"\023\232\240\246[D%O\001r0\036hJa\012\273\352\217B\330"
  74      5B44254F 
  74      0172301E 
  74      684A610A 
ARM GAS  C:\Users\gjl\AppData\Local\Temp\ccR9n7T5.s 			page 5


  74      BBEA8F42 
  75 0079 683F5503 		.ascii	"h?U\003\013\206\307\346\227\275A\263\030\240\246\211"
  75      0B86C7E6 
  75      97BD41B3 
  75      18A0A689 
  76 0089 22153B11 		.ascii	"\"\025;\021\0260\300\254\257\317\033o\240{A|\256\207"
  76      1630C0AC 
  76      AFCF1B6F 
  76      A07B417C 
  76      AE87
  77 009b BB9D54FF 		.ascii	"\273\235T\377mc\312\306|\310\031]\323\300\"4+p\"\203"
  77      6D63CAC6 
  77      7CC8195D 
  77      D3C02234 
  77      2B702283 
  78 00af C10C3140 		.ascii	"\301\0141@\270\203~!\177\013\257\026t6\326\255\257\316"
  78      B8837E21 
  78      7F0BAF16 
  78      7436D6AD 
  78      AFCE
  79 00c1 44C8CE8B 		.ascii	"D\310\316\213.x\275\236\276a\202R\237h\357\376\257\225"
  79      2E78BD9E 
  79      BE618252 
  79      9F68EFFE 
  79      AF95
  80 00d3 C1DCADE5 		.ascii	"\301\334\255\345\277\327\323NUR\365\341\036\262I\036"
  80      BFD7D34E 
  80      5552F5E1 
  80      1EB2491E 
  81 00e3 DC87C315 		.ascii	"\334\207\303\025B\220\245s\201\211\242\212\011^\271"
  81      4290A573 
  81      8189A28A 
  81      095EB9
  82 00f2 6BEFDC94 		.ascii	"k\357\334\224\342[\225\346E[$\237mH\002G\000W\026/F"
  82      E25B95E6 
  82      455B249F 
  82      6D480247 
  82      0057162F 
  83 0107 7B8445D4 		.ascii	"{\204E\324\341)\235\330VJv\335F\370\373J\2539)\376\025"
  83      E1299DD8 
  83      564A76DD 
  83      46F8FB4A 
  83      AB3929FE 
  84 011c 2D5D99AD 		.ascii	"-]\231\255\205/\335\035U\323V\034}\277\265\363#\225"
  84      852FDD1D 
  84      55D3561C 
  84      7DBFB5F3 
  84      2395
  85 012e BC9AEAB4 		.ascii	"\274\232\352\264\261\030\272\371d\365cz\016\267JU\356"
  85      B118BAF9 
  85      64F5637A 
  85      0EB74A55 
  85      EE
  86 013f 978D87C8 		.ascii	"\227\215\207\310\340\0018?\2260\007j\243\374\263\261"
  86      E001383F 
  86      9630076A 
  86      A3FCB3B1 
ARM GAS  C:\Users\gjl\AppData\Local\Temp\ccR9n7T5.s 			page 6


  87 014f A11243CD 		.ascii	"\241\022C\315\236\214T\016\352\033H\020\213A\3668\270"
  87      9E8C540E 
  87      EA1B4810 
  87      8B41F638 
  87      B8
  88 0160 36FFEC90 		.ascii	"6\377\354\220\330j\354\003\217X\276\205X#Y\231%\242"
  88      D86AEC03 
  88      8F58BE85 
  88      58235999 
  88      25A2
  89 0172 4EFD6DF3 		.ascii	"N\375m\363|\242\342\307f\325\213h/8,*\207\311\313,\352"
  89      7CA2E2C7 
  89      66D58B68 
  89      2F382C2A 
  89      87C9CB2C 
  90 0187 B27699C7 		.ascii	"\262v\231\307\244\265\315\225\35581`a%!\375r\022\212"
  90      A4B5CD95 
  90      ED383160 
  90      612521FD 
  90      72128A
  91 019a 170770BB 		.ascii	"\027\007p\273/\363\222\314\237\232\247\022RO\002\205"
  91      2FF392CC 
  91      9F9AA712 
  91      524F0285 
  92 01aa B39FD302 		.ascii	"\263\237\323\002tU\\2&\325]\364c.\2325\364\035\345\340"
  92      74555C32 
  92      26D55DF4 
  92      632E9A35 
  92      F41DE5E0 
  93 01be FD9008E2 		.ascii	"\375\220\010\342?\331Q\220\006s\2733C\376%\277\230\277"
  93      3FD95190 
  93      0673BB33 
  93      43FE25BF 
  93      98BF
  94 01d0 EC8F5D18 		.ascii	"\354\217]\030\036\237(\216\372\271\263\303\343gN\346"
  94      1E9F288E 
  94      FAB9B3C3 
  94      E3674EE6 
  95 01e0 4E1F3F36 		.ascii	"N\037?6J\366d\2760\341\333c\305\221|\341\037\243\276"
  95      4AF664BE 
  95      30E1DB63 
  95      C5917CE1 
  95      1FA3BE
  96 01f3 D36E     		.ascii	"\323n"
  97              		.text
  98              		.section	.gnu.lto_A2_Read.50a2d9ca,"",%progbits
  99 0000 789C258F 		.ascii	"x\234%\217=K\003A\020\206\347\335\275\304p \376\000"
  99      3D4B0341 
  99      1086E7DD 
  99      BDC47020 
  99      FE00
 100 0012 0FB14D23 		.ascii	"\017\261M#\2426V\"\202\266b:\011\210\304k\015\004\255"
 100      A2365622 
 100      82B6623A 
 100      0988C46B 
 100      0D04AD
 101 0025 B3C9DD45 		.ascii	"\263\311\335E\020\2134\032,$\235I\374@DIa!gP\024\004"
ARM GAS  C:\Users\gjl\AppData\Local\Temp\ccR9n7T5.s 			page 7


 101      108B341A 
 101      2C249D49 
 101      FC404449 
 101      61216750 
 102 003b D3D90922 		.ascii	"\323\331\011\"\222\302*\206H@\324s67\260;;;\317\314"
 102      92C22A86 
 102      4840D473 
 102      3637B03B 
 102      3B3BCFCC 
 103 004f 3B631048 		.ascii	";c\020H\333\014\273\021\366\303| \011\242\370D\224\213"
 103      DB0CBB11 
 103      F6C37C20 
 103      09A2F844 
 103      948B
 104 0061 09403F54 		.ascii	"\011@?T\014\224\025\310\342K\374\012<\366\036v\314x"
 104      0C9415C8 
 104      E24BFC0A 
 104      3CF61E76 
 104      CC78
 105 0073 45A9BC7A 		.ascii	"E\251\274z\365\016\247KU\037\236$\012\004a\322\302\270"
 105      F50EA74B 
 105      551F9E24 
 105      0A0461D2 
 105      C2B8
 106 0085 A55B5410 		.ascii	"\245[T\020'F\337\316\377v\007\243\256b\033\325\000g"
 106      2746DFCE 
 106      FF7607A3 
 106      AE621BD5 
 106      0067
 107 0097 AA886AC9 		.ascii	"\252\210j\311\263%_\005\201\243\374\013\363\246n\362"
 107      B3255F05 
 107      81A3FC0B 
 107      F3A66EF2 
 108 00a7 97275997 		.ascii	"\227'Y\227/C_\021\322\035\251\315\025Z\377S\010\355"
 108      2F435F11 
 108      D21DA9CD 
 108      155AFF53 
 108      08ED
 109 00b9 650B8DEF 		.ascii	"e\013\215\357\355\347\332\262n\342H\311\002{^\2439\320"
 109      EDE7DAB2 
 109      6EE248C9 
 109      027B5EA3 
 109      39D0
 110 00cb 159E14D0 		.ascii	"\025\236\024\320zW\245\372\265\014C\327-*\203\277\232"
 110      7A57A5FA 
 110      B50C43D7 
 110      2D2A83BF 
 110      9A
 111 00dc 2FFB6DB3 		.ascii	"/\373m\263\214\203\234\313SJ\034\301B\015<#\216Q\006"
 111      8C839CCB 
 111      534A1CC1 
 111      420D3C23 
 111      8E5106
 112 00ef B5E074E6 		.ascii	"\265\340t\346\311\221\010\333\335\005=\177H\327\033"
 112      C99108DB 
 112      DD053D7F 
 112      48D71B
ARM GAS  C:\Users\gjl\AppData\Local\Temp\ccR9n7T5.s 			page 8


 113 00fe 1038618C 		.ascii	"\0208a\214\363?\205\256\021\012\032\3141ty{_\210i\010"
 113      F33F85AE 
 113      110A1ACC 
 113      3174797B 
 113      5F886908 
 114 0112 6CA77D28 		.ascii	"l\247}(\337\331zG\010E\230\243\017.\017#\352\257\001"
 114      DFD97A47 
 114      084598A3 
 114      0F2E0F23 
 114      EAAF01
 115 0125 3D3E2F63 		.ascii	"=>/c-\330\353vfu\303^[I\24473);\271\230H\317M%g'\306"
 115      2DD8EB76 
 115      6675C35E 
 115      5B49A437 
 115      33293BB9 
 116 0141 52F40F8B 		.ascii	"R\364\017\213Cr\373"
 116      4372FB
 117              		.text
 118              		.section	.gnu.lto_A2_ReadDataReg.50a2d9ca,"",%progbits
 119 0000 789C258F 		.ascii	"x\234%\217=K\003A\020\206\347\335\275\304`\010\376\000"
 119      3D4B0341 
 119      1086E7DD 
 119      BDC46008 
 119      FE00
 120 0012 0FB14D23 		.ascii	"\017\261M#\2426V\"\202\266b:\011\210\304k\015\004\255"
 120      A2365622 
 120      82B6623A 
 120      0988C46B 
 120      0D04AD
 121 0025 B3C9E522 		.ascii	"\263\311\345\"\210E\032\265\010\2322\211FD\374\250\317"
 121      88451AB5 
 121      089A3289 
 121      4644FCA8 
 121      CF
 122 0036 A02808F1 		.ascii	"\240(\010\361\027\010\"\222\302F\015\247\001\277\316"
 122      17082292 
 122      C2460DA7 
 122      01BFCE
 123 0045 D9DCC0EE 		.ascii	"\331\334\300\356\354\354<3\357\214A mS\354\206\330\017"
 123      ECEC3C33 
 123      EF8C4120 
 123      6D53EC86 
 123      D80F
 124 0057 F2812488 		.ascii	"\362\201$\210R\213(\027\021\200~\250\010(+\220\305\207"
 124      528B2817 
 124      11807EA8 
 124      08282B90 
 124      C587
 125 0069 F815B8EB 		.ascii	"\370\025\270\353\336n\365\307\253J\345\325\243s:\271"
 125      DE6EF5C7 
 125      AB4AE5D5 
 125      A3733AB9 
 126 0079 5B73E148 		.ascii	"[s\341H\"_\020\306M\214\232\272E\025qb\364\351\344o"
 126      225F10C6 
 126      4D8C9ABA 
 126      45157162 
 126      F4E9E46F 
ARM GAS  C:\Users\gjl\AppData\Local\Temp\ccR9n7T5.s 			page 9


 127 008d 3B162E28 		.ascii	";\026.(\266a\015p\246\206\260\226<^p\225\357\333\312"
 127      B6610D70 
 127      A686B096 
 127      3C5E7095 
 127      EFDBCA
 128 00a0 2D472FF7 		.ascii	"-G/\367\243\374\345H\326\345\313\320W\210tGz\343\012"
 128      A3FCE548 
 128      D6E5CBD0 
 128      57887447 
 128      7AE30A
 129 00b3 ADFF2E84 		.ascii	"\255\377.\204\366\262\215\346\327\346gcQ7\261\245d\201"
 129      F6B28DE6 
 129      D7E66763 
 129      5137B1A5 
 129      6481
 130 00c5 1DA779DF 		.ascii	"\035\247y\337\347\011G\012h\275\357\226\367\032\015"
 130      E709470A 
 130      68BDEF96 
 130      F71A0D
 131 00d4 42552829 		.ascii	"BU()\203\277\312\347\027\017\261\012\366r\005\236R\342"
 131      83BFCAE7 
 131      170FB10A 
 131      F672059E 
 131      52E2
 132 00e6 0026EAE0 		.ascii	"\000&\352\340\031q\210\012\250\015\2733K\266D\320\356"
 132      1971880A 
 132      A80DBB33 
 132      4BB644D0 
 132      EE
 133 00f7 DAEFBA03 		.ascii	"\332\357\272\003\272\336\200@\2031\316\377\024=#\020"
 133      BADE8040 
 133      8331CEFF 
 133      143D2310 
 134 0107 349863E8 		.ascii	"4\230c\350\354\352\246\030\321\020\330\216zP\276\263"
 134      ECEAA618 
 134      D110D88E 
 134      7A50BEB3 
 135 0117 F18C000A 		.ascii	"\361\214\000\0121G/\\\036D\324[\003z|^\306\234\263V"
 135      31472F5C 
 135      1E44D45B 
 135      037A7C5E 
 135      C69CB356 
 136 012b ADCCF29A 		.ascii	"\255\314\362\232\265\262\224H\257gRVr>\221\236\231H"
 136      B5B29448 
 136      AF675256 
 136      723E919E 
 136      9948
 137 013d 4E8F8DA4 		.ascii	"N\217\215\244\350\037\002*s\231"
 137      E81F022A 
 137      7399
 138              		.text
 139              		.section	.gnu.lto_A2_SetInterruptMode.50a2d9ca,"",%progbits
 140 0000 789C6D51 		.ascii	"x\234mQ\317k\023A\024~of\223\335$\355\326\273\001s)"
 140      CF6B1341 
 140      147E6F66 
 140      93DD24ED 
 140      D6BB0173 
ARM GAS  C:\Users\gjl\AppData\Local\Temp\ccR9n7T5.s 			page 10


 141 0015 B10705A5 		.ascii	"\261\007\005\245\377\200\366\340M\212\275\026\244\264"
 141      FF80F6E0 
 141      4D8ABD16 
 141      A4B4
 142 0023 51723091 		.ascii	"Qr0\221\030\317\235d7)\024\221\322b\300b((K\252U\373"
 142      18CF9D64 
 142      37291491 
 142      D262C062 
 142      28284BAA 
 143 0039 D38239AD 		.ascii	"\323\2029\255\001\361`U\252\026QA\264j\012\305CZ+\226"
 143      01F16055 
 143      AA165141 
 143      B46A0AC5 
 143      435A2B96 
 144 004d A28DEFED 		.ascii	"\242\215\357\355\346Rp`w\346}|\3377\337{\243\001\002"
 144      E6527060 
 144      77E67D7C 
 144      DF37DF7B 
 144      A30102
 145 0060 AF8A00E8 		.ascii	"\257\212\000\350\246\3750}(\001\305\330K\200\234!\020"
 145      A6FD307D 
 145      2801C5D8 
 145      4B809C21 
 145      10
 146 0071 F9A00C84 		.ascii	"\371\240\014\204a\201\303\370K\374\025X\033\251?\026"
 146      6181C3F8 
 146      4BFC1558 
 146      1BA93F16 
 147 0081 5D1545EB 		.ascii	"]\025E\353\363\367\215\023j\332\305\202\004h\012\317"
 147      F3F78D13 
 147      6ADAC582 
 147      04680ACF 
 148 0091 09B0825D 		.ascii	"\011\260\202]\304z\332\374\355v\354\210\202Dd\321\353"
 148      C47ADAFC 
 148      ED76EC88 
 148      824464D1 
 148      EB
 149 00a2 C64A39C2 		.ascii	"\306J9\302\245\300CTNn:%S\036A\240\363\306\322\355w"
 149      A5C04354 
 149      4E6E3A25 
 149      531E41A0 
 149      F3C6D2ED 
 150 00b7 E1B8A354 		.ascii	"\341\270\243T^\251\211\001\025(H\211\367P\222\037\336"
 150      5EA98901 
 150      15284889 
 150      F750921F 
 150      DE
 151 00c8 C5284E63 		.ascii	"\305(Nc\024\010\002\234\3018\261\177.:\023\021y\324"
 151      1408029C 
 151      C138B17F 
 151      2E3A1311 
 151      79D4
 152 00da 536E5B8E 		.ascii	"Sn[\216\325\326R\256\265\224\367\377\243|\200q\246\257"
 152      D5D652AE 
 152      B594F7FF 
 152      A37C8071 
 152      A6AF
ARM GAS  C:\Users\gjl\AppData\Local\Temp\ccR9n7T5.s 			page 11


 153 00ec DA73B7A4 		.ascii	"\332s\267\244\037I\243r\353\305\344W\323\217\024\243"
 153      1F49A372 
 153      EBC5E457 
 153      D38F14A3 
 154 00fc 72C65973 		.ascii	"r\306Ys\204<\346\031\217\276\037_h\357\274\303\306\356"
 154      843CE619 
 154      8FBE1F5F 
 154      68EFBCC3 
 154      C6EE
 155 010e 9BEBE64D 		.ascii	"\233\353\346M\345\332\261\202\324p\3167\237%\363\207"
 155      E5DAB182 
 155      D470CE37 
 155      9F25F387 
 156 011e 64CE8BD8 		.ascii	"d\316\213\330\353\363\3737\332\2036\017$\206\363\330"
 156      EBF3FB37 
 156      DA83360F 
 156      2486F3D8 
 157 012e E98F0217 		.ascii	"\351\217\002\0270H\303EFf\317\271\252\331\264\224\273"
 157      3048C345 
 157      4666CFB9 
 157      AAD9B494 
 157      BB
 158 013f 6A3EF960 		.ascii	"j>\371`\266\011\212\025\240\024\324\221\306\307\000"
 158      B6098A15 
 158      A014D491 
 158      C6C700
 159 014e FF82C04C 		.ascii	"\377\202\300L\0359\255A@0\304h\230\177\000\015r\344"
 159      1D39AD41 
 159      4030C468 
 159      987F000D 
 159      72E4
 160 0160 97D81282 		.ascii	"\227\330\022\202wY\307\332\336\350\247j/_bI\036p\251"
 160      7759C7DA 
 160      DEE8A76A 
 160      2F5F6249 
 160      1E70A9
 161 0173 507BA573 		.ascii	"P{\245s7\272\327A\331~v\332\257\256\331c\212\333}\376"
 161      37BAD741 
 161      D97E76DA 
 161      AFAED963 
 161      8ADB7DFE 
 162 0187 7679CF9C 		.ascii	"vy\317\234\302r\316\246\3472p\211zX\344\036\360\021"
 162      C272CEA6 
 162      E7327089 
 162      7A58E41E 
 162      F011
 163 0199 4E21D431 		.ascii	"N!\3241\277=\262\243\371~\232ES#d\277\370M\372H\200"
 163      BF3DB2A3 
 163      F97E9A45 
 163      532364BF 
 163      F84DFA48 
 164 01ae 4042AC3F 		.ascii	"@B\254?\305\037\350#|-\341\260\216\302\353\224\262\023"
 164      C51FE823 
 164      7C2DE1B0 
 164      8EC2EB94 
 164      B213
 165 01c0 E873EAD5 		.ascii	"\350s\352\325j\213e\220\223%u\317^\367\241\020\241L"
ARM GAS  C:\Users\gjl\AppData\Local\Temp\ccR9n7T5.s 			page 12


 165      6A8B6590 
 165      932575CF 
 165      5EF7A110 
 165      A14C
 166 01d2 DB2DAEB4 		.ascii	"\333-\256\264\314\303\236[\210\300Z\351K\007c\007\342"
 166      CCC39E5B 
 166      88C05AE9 
 166      4B076307 
 166      E2
 167 01e3 E6948A1C 		.ascii	"\346\224\212\034L\274L\211I\006\233\230w?\236e\201\367"
 167      4CBC4C89 
 167      49069B98 
 167      773F9E65 
 167      81F7
 168 01f5 140D813C 		.ascii	"\024\015\201<\034\032U\364L\"\225\310\014d\023C\347"
 168      1C1A55F4 
 168      4C2295C8 
 168      0C641343 
 168      E7
 169 0206 FBD25733 		.ascii	"\373\322W3\203\211\376\336\276tOw\377\251\223\307\007"
 169      8389FEDE 
 169      BE744F77 
 169      FFA993C7 
 169      07
 170 0217 C1B89CBE 		.ascii	"\301\270\234\276\222\314&\323)\355Rz(\241'S\331L\317"
 170      92CC26D3 
 170      29ED527A 
 170      28A12753 
 170      D94CCF
 171 022a 858BFF00 		.ascii	"\205\213\377\000>\315\353b"
 171      3ECDEB62 
 172              		.text
 173              		.section	.gnu.lto_A2_ClearInterrupt.50a2d9ca,"",%progbits
 174 0000 789C5590 		.ascii	"x\234U\220\315K[Q\020\305\347\334\373b\242(\371\003"
 174      CD4B5B51 
 174      10C5E7DC 
 174      FB62A228 
 174      F903
 175 0012 1AD04D16 		.ascii	"\032\320M\026\241P\304\272\260\356\244\213n\213\331"
 175      A150C4BA 
 175      B0EEA48B 
 175      6E8BD9
 176 0021 0A25C4B7 		.ascii	"\012%\304\267\2226\220\304\255\336\230<\025)\230M\015"
 176      923690C4 
 176      ADDE983C 
 176      1529984D 
 176      0D
 177 0032 944A8442 		.ascii	"\224J\204B\223\266~.\272*\221\327\320\0261\250\330\275"
 177      93B67E2E 
 177      BA2A91D7 
 177      D01631A8 
 177      D8BD
 178 0044 200A2E04 		.ascii	" \012.\004A\305\032\360+\235\311\353B/<\346\336ys~s"
 178      41C51AF0 
 178      2B9DC9EB 
 178      422F3CE6 
 178      DE79737E 
ARM GAS  C:\Users\gjl\AppData\Local\Temp\ccR9n7T5.s 			page 13


 179 0059 662C02C9 		.ascii	"f,\002\311\331\343\360\230\343#\376\240\011*\277M\224"
 179      D9E3F098 
 179      E323FEA0 
 179      092ABF4D 
 179      94
 180 006a 0928402E 		.ascii	"\011(@.&\000\032W\030\307_u\253P\253o\274m\213\224\214"
 180      26001A57 
 180      18C75F75 
 180      AB50AB6F 
 180      BC6D8B94 
 181 007f 9930FB4E 		.ascii	"\2310\373N\375Y\241\354\302\321D\015Ex\032BwH\020%D"
 181      FD59A1EC 
 181      C2D1440D 
 181      45781A42 
 181      77481025 
 182 0094 884B0F97 		.ascii	"\210K\017\227\257K\035\272\023r\337\372t\362\015\341"
 182      AF4B1DBA 
 182      1372DFFA 
 182      74F20DE1 
 183 00a4 8F22732B 		.ascii	"\217\"s+\263\355\005\343f\272X\2072\364})I\355\301\332"
 183      B3ED05E3 
 183      66BA5887 
 183      32F47D29 
 183      49EDC1DA 
 184 00b8 DDBB8E96 		.ascii	"\335\273\216\226\234\341\323\205\317\010\013\234\251"
 184      9CE1D385 
 184      CF080B9C 
 184      A9
 185 00c5 5FD0C23E 		.ascii	"_\320\302>!\231\225A\3274\032Y\343~\017\376\370\023"
 185      21999541 
 185      D7341A59 
 185      E37E0FFE 
 185      F813
 186 00d7 0C287234 		.ascii	"\014(r4\373v\264\262H~\373\344\355'\361E\247\254\225"
 186      FB76B4B2 
 186      487EFBE4 
 186      ED27F145 
 186      A7AC95
 187 00ea 29CE9492 		.ascii	")\316\224\222\250\217P\275\232\271\254\214\011.\253"
 187      A88F50BD 
 187      9AB9AC8C 
 187      092EAB
 188 00f9 65A239A7 		.ascii	"e\2429\247\272\343\277P\216\326M\247\357\257\027\246"
 188      BAE3BF50 
 188      8ED64DA7 
 188      EFAF17A6 
 189 0109 E13DF3B9 		.ascii	"\341=\363\271\274\2618\345l\226j\255E\314gr<\253\205"
 189      BCB138E5 
 189      6C966AAD 
 189      45CC6772 
 189      3CAB85
 190 011c 4584F015 		.ascii	"E\204\360\025l\027K(\202\2160q>u\243<\240f&g\2627\223"
 190      6C174B28 
 190      828E3071 
 190      3E75A33C 
 190      A0662667 
 191 0133 3FE1652C 		.ascii	"?\341e,N2c7\267\372A\013V\301\3022\253\017\320\224\210"
ARM GAS  C:\Users\gjl\AppData\Local\Temp\ccR9n7T5.s 			page 14


 191      4E326337 
 191      B7FA410B 
 191      56C1C232 
 191      AB0FD094 
 192 0148 5F2EF228 		.ascii	"_.\362(w\225~O\344\363R\325\271&\344\201\205\2141\276"
 192      77957E4F 
 192      E4F352D5 
 192      B926E481 
 192      858C31BE 
 193 015c 872E56D8 		.ascii	"\207.V\330\005K\244\355\371\344\357\365>\017\341g\004"
 193      054BA4ED 
 193      F9E4EFF5 
 193      3E0FE167 
 193      04
 194 016d 0B7F35EA 		.ascii	"\013\1775\352nP\372\372\270\337*\327\037\343\277U?5"
 194      6E50FAFA 
 194      B8DF2AD7 
 194      1FE3BF55 
 194      3F35
 195 017f D703590B 		.ascii	"\327\003Y\013/)\364\302~c'ci{\370U41\232\214\333C/\243"
 195      2F29F4C2 
 195      7E632763 
 195      697BF855 
 195      34319A8C 
 196 0197 89E7BD43 		.ascii	"\211\347\275C\003=O\342\324\376:\226\032\261\207\243"
 196      033D4FE2 
 196      D4FE3A96 
 196      1AB187A3 
 197 01a7 E9587A34 		.ascii	"\351Xz4\365\017\221\225\250\315"
 197      F50F9195 
 197      A8CD
 198              		.text
 199              		.section	.gnu.lto_.symbol_nodes.50a2d9ca,"",%progbits
 200 0000 789C6361 		.ascii	"x\234ca`d\310`\000\002&\206z\006\206\011\347\030@\324"
 200      6064C860 
 200      00022686 
 200      7A068609 
 200      E71840D4 
 201 0014 AE0645A0 		.ascii	"\256\006E\240\000c=#\252\000S=\023\252\000s=3\252\000"
 201      00633D23 
 201      AA00533D 
 201      13AA0073 
 201      3D33AA00 
 202 0028 4B3D0BAA 		.ascii	"K=\013\252\000k=+\212\000\003\000\305\333\026\342"
 202      006B3D2B 
 202      8A000300 
 202      C5DB16E2 
 203              		.text
 204              		.section	.gnu.lto_.refs.50a2d9ca,"",%progbits
 205 0000 789C6361 		.ascii	"x\234ca`\004B \000\000\0009\000\007"
 205      60044220 
 205      00000039 
 205      0007
 206              		.text
 207              		.section	.gnu.lto_.decls.50a2d9ca,"",%progbits
 208 0000 789C8D54 		.ascii	"x\234\215ToL[U\024\277\347\275\266\224\007\264\023\027"
 208      6F4C5B55 
ARM GAS  C:\Users\gjl\AppData\Local\Temp\ccR9n7T5.s 			page 15


 208      14BFE7BD 
 208      B69407B4 
 208      1317
 209 0012 43623FE0 		.ascii	"Cb?\340>\264d\037\210\2001~1qaq\232\2503#\316/Kf\007"
 209      3EB4641F 
 209      8880317E 
 209      31716171 
 209      9AA83323 
 210 002b 2F93C4C0 		.ascii	"/\223\304\300\254\305d\337n66\247\037\014(\002s\220"
 210      ACC564DF 
 210      6E3636A7 
 210      1F0C2802 
 210      7390
 211 003d 0D50A150 		.ascii	"\015P\241P\006\014\312h\247\266C\250\345\3176\350L\014"
 211      060CCA68 
 211      A7B643A8 
 211      E5CF36E8 
 211      4C0C
 212 004f 416586A1 		.ascii	"Ae\206\241n3\031\2729\203\006\353\271\367\276\327\367"
 212      6E3319BA 
 212      398306EB 
 212      B9F7BED7 
 212      F7
 213 0060 364BE4A6 		.ascii	"6K\344\246\347\376=\347w~\347\367Nj!@\330\260\330\010"
 213      E7FE3DE7 
 213      777EE7F7 
 213      4E6A2140 
 213      D8B0D808 
 214 0074 09E31AC4 		.ascii	"\011\343\032\304c\012G\026\356\367\022c\3403\031F\013"
 214      630A4716 
 214      EEF71263 
 214      E0331946 
 214      0B
 215 0085 A18DA145 		.ascii	"\241\215\241E\320&\320\342\344\277cX\363g\361g\321<"
 215      D026D0E2 
 215      E4BF6358 
 215      F367F167 
 215      D13C
 216 0097 6849B439 		.ascii	"hI\2649\264\335\232\017h~\017\016\206\237\365@\254k"
 216      B4DD9A0F 
 216      687E0F0E 
 216      869FF540 
 216      AC6B
 217 00a9 83F85086 		.ascii	"\203\370P\206x\306\315\372?y\3072\304E6\021\027\311"
 217      78C6CDFA 
 217      3F79C732 
 217      C4453611 
 217      17C9
 218 00bb 10C734C8 		.ascii	"\020\3074\310\326\370\346\243mE\213\242\315j8n\023\226"
 218      D6F8E6A3 
 218      6D458BA2 
 218      CD6A386E 
 218      1396
 219 00cd 8E339101 		.ascii	"\2163\221\001\207\351h\333D\315\231\364^\227`\256>~"
 219      87E968DB 
 219      44CD99F4 
 219      5E9760AE 
ARM GAS  C:\Users\gjl\AppData\Local\Temp\ccR9n7T5.s 			page 16


 219      3E7E
 220 00df DEBE080B 		.ascii	"\336\276\010\013 \201\366A\011\200\230\201\033\021\306"
 220      2081F641 
 220      09809881 
 220      1B11C6
 221 00ee 8FB891F8 		.ascii	"\217\270\221\370L\322W\351\205\260\231\010\177~g\200"
 221      4CD257E9 
 221      85B09908 
 221      7F7E6780 
 222 00fe F19FBEA6 		.ascii	"\361\237\276\246\364\301A\014t\320\202 \315@D\211wI"
 222      F4C1410C 
 222      74D08220 
 222      CD404489 
 222      7749
 223 0110 47158B64 		.ascii	"G\025\213d\004\230\360\004]\023'\270\277&\320\213\236"
 223      0498F004 
 223      5D1327B8 
 223      BF26D08B 
 223      9E
 224 0121 ED5E7C37 		.ascii	"\355^|7O\306\212q\277\264\326\363lq\220\342h\240T\332"
 224      4FC68A71 
 224      BFB4D6F3 
 224      6C7190E2 
 224      68A054DA 
 225 0135 6E283370 		.ascii	"n(3p\354z\300~W\002\227\002)`\347_\303ky\342\314\236"
 225      EC7AC07E 
 225      57029702 
 225      2960E75F 
 225      C36B79E2 
 226 014b 4F362EFF 		.ascii	"O6.\377\223#?\312\366\322\325\345\276\033\026(R>c0\327"
 226      93233FCA 
 226      F6D2D5E5 
 226      BE1B1628 
 226      523E6330 
 227 0160 3E0C3C1D 		.ascii	">\014<\035\246t\013\234\005\005\202 C\000\212Yr\227"
 227      A6740B9C 
 227      05058220 
 227      43008A59 
 227      7297
 228 0172 82F3094A 		.ascii	"\202\363\011J\217\320\325Nj+ P\346\202\307]\004\372"
 228      8FD0D54E 
 228      6A2B2050 
 228      E682C75D 
 228      04FA
 229 0184 A1886132 		.ascii	"\241\210a2/\350\003\027\364\202\213\341\257\264\234"
 229      2FE80317 
 229      F4828BE1 
 229      AFB49C
 230 0193 BE65B348 		.ascii	"\276e\263H\030\310p\016X\330\335d\352\317\230\023)\344"
 230      18C8700E 
 230      58D8DD64 
 230      EACF9813 
 230      29E4
 231 01a5 2B20E131 		.ascii	"+ \3411\271:\333\236\203\307\255\012l\301\343\345\246"
 231      B93ADB9E 
 231      83C7AD0A 
 231      6CC1E3E5 
ARM GAS  C:\Users\gjl\AppData\Local\Temp\ccR9n7T5.s 			page 17


 231      A6
 232 01b6 85241434 		.ascii	"\205$\02443\016\364(-\224`\357#0\204\200\203\010H\340"
 232      330EF428 
 232      2D9460EF 
 232      23308480 
 232      830848E0 
 233 01ca 1C14E03C 		.ascii	"\034\024\340<\000\026Q\335\267\357\177\360\235u\333"
 233      001651DD 
 233      B7EF7FF0 
 233      9D75DB
 234 01d9 197A6690 		.ascii	"\031zf\220^k9\376BG\327q:\207q\317pG\3501h\343\226-"
 234      5E6B39FE 
 234      4247D771 
 234      3A8771CF 
 234      7047E831 
 235 01f1 DDB08862 		.ascii	"\335\260\210b\016\3036\214\375\251\343\306=Y~\215\313"
 235      0EC3368C 
 235      FDA9E3C6 
 235      3D597E8D 
 235      CB
 236 0202 D018FF66 		.ascii	"\320\030\377fA\0228\261\350;\362I\032;\2020\022G\031"
 236      411238B1 
 236      E83BF249 
 236      1A3B8230 
 236      124719
 237 0215 315046CC 		.ascii	"1PF\314(!\216r{\351T\"O\256\346(\355\015]\2759f\352"
 237      28218E72 
 237      7BE95422 
 237      4FAEE628 
 237      ED0D5DBD 
 238 022c AC6683FB 		.ascii	"\254f\203\373y\316\375\200F}f\345\243\356l-\345\320"
 238      79CEFD80 
 238      467D66E5 
 238      A3EE6C2D 
 238      E5D0
 239 023e B49112BD 		.ascii	"\264\221\022\275`\324H9jN9\306S\256\3771\325\242\310"
 239      60D44839 
 239      6A4E39C6 
 239      53AEFF31 
 239      D5A2C8
 240 0251 6FF29483 		.ascii	"o\362\224\203\315\013SN\015\245u&WT\3171\302\006F\330"
 240      CD0B534E 
 240      0DA57526 
 240      5754CF31 
 240      C20646D8 
 241 0265 8C11E118 		.ascii	"\214\021\341\030\237\334\034\277\356\224)p\220O\377"
 241      9FDC1CBF 
 241      EE942970 
 241      904FFF
 242 0274 FA7B55C6 		.ascii	"\372{U\306/\340\306\036I\311\246&q\213&\351\351\210"
 242      2FE0C61E 
 242      49C9A626 
 242      718B26E9 
 242      E988
 243 0286 0F2B7213 		.ascii	"\017+r\023w\226\332\232.\366\333@)\342=\200e*=\016\222"
 243      7796DA9A 
 243      2EF6DB40 
ARM GAS  C:\Users\gjl\AppData\Local\Temp\ccR9n7T5.s 			page 18


 243      29E23D80 
 243      652A3D0E 
 244 029b 2E1262D8 		.ascii	".\022b\330\006n\255\015\276\300\313\317\361R\353\247"
 244      066EAD0D 
 244      BEC0CBCF 
 244      F152EBA7 
 245 02ab 7ED14F51 		.ascii	"~\321OQ\324\344K\203\233[\021r4_\275\273\006\274Q\242"
 245      D4E44B83 
 245      9B5B1172 
 245      345FBDBB 
 245      06BC51A2 
 246 02bf E946E9BC 		.ascii	"\351F\351\274}\247\321\236\276\273\010\374\262\367\346"
 246      7DA7D19E 
 246      BEBB08FC 
 246      B2F7E6
 247 02ce 5AD4B661 		.ascii	"Z\324\266a\177|\3055\036\327\373#\224\014\374\250\350"
 247      7F7CC535 
 247      1ED7FB23 
 247      940CFCA8 
 247      E8
 248 02df FD11DFBD 		.ascii	"\375\021\337\275|\216\322c\030ga~p\301`q\301\254\320"
 248      7C8ED263 
 248      1867617E 
 248      70C16071 
 248      C1ACD0
 249 02f2 0457A8F3 		.ascii	"\004W\250\363^},W>%\024\372\245\275u\334\241\311\034"
 249      5E7D2C57 
 249      3E2514FA 
 249      A5BD75DC 
 249      A1C91C
 250 0305 BE72FFC7 		.ascii	"\276r\377\307\2324`&\3150q\0163_?\330&\213f\267\340"
 250      9A346026 
 250      CD30710E 
 250      335F3FD8 
 250      268B66B7 
 251 031a F1B74B1F 		.ascii	"\361\267K\037/;D\263\027\342\361\373D\240\217\275z\230"
 251      2F3B44B3 
 251      17E2F1FB 
 251      44A08FBD 
 251      7A98
 252 032c F2A994D3 		.ascii	"\362\251\224\323\244\275Gh?\275\264\362{\266\334/\264"
 252      A4BD4768 
 252      3FBDB4F2 
 252      7BB6DC2F 
 252      B4
 253 033d 1FED3A7D 		.ascii	"\037\355:}\307\252k\337p\224\346'P\373\004\026\3775"
 253      C7AA6BDF 
 253      7094E627 
 253      50FB0416 
 253      FF35
 254 034f D3FE126A 		.ascii	"\323\376\022j\357\321\264\237\306\313)C\373!\241\375"
 254      EFD1B49F 
 254      C6CB2943 
 254      FB21A1FD 
 255 035f 2CCA3863 		.ascii	",\3128c\320\365h\332G\202\003\255\262r\202\351\271)"
 255      D0F568DA 
 255      478203AD 
ARM GAS  C:\Users\gjl\AppData\Local\Temp\ccR9n7T5.s 			page 19


 255      B27282E9 
 255      B929
 256 0371 5016F203 		.ascii	"P\026\362\003m\263\312#\202Vx\354V\320!he@\230\337\210"
 256      6DB3CA23 
 256      825678EC 
 256      56D02168 
 256      654098DF 
 257 0386 566CFDE7 		.ascii	"Vl\375\347\347\352)\366\340\034\322\272b\320\272\014"
 257      E7EA29F6 
 257      E01CD2BA 
 257      62D0BA0C 
 258 0396 1AAFD1C4 		.ascii	"\032\257\321\304|(+\367=\243X\356\251\003\023HB.\377"
 258      7C282BF7 
 258      3DA358EE 
 258      A9031348 
 258      422EFF
 259 03a9 5764AB73 		.ascii	"Wd\253sG\351\376\012\325\277\323W\375\266\372bm\225"
 259      47E9FE0A 
 259      D5BFD357 
 259      FDB6FA62 
 259      6D95
 260 03bb 6ADFF5D2 		.ascii	"j\337\365\322+\205\345%%\304ZW]\343\177\352\261]j\215"
 260      2B85E525 
 260      25C45A57 
 260      5DE37FEA 
 260      B15D6A8D 
 261 03cf EAF3FAD5 		.ascii	"\352\363\372\325\252\375\025\265u\276Ju\337\313\025"
 261      AAFD15B5 
 261      75BE4A75 
 261      DFCB15
 262 03de B5E54FEC 		.ascii	"\265\345O\354\253<\354?|H}\253\370u\342\332\300cGiq"
 262      AB3CEC3F 
 262      7C487DAB 
 262      F875E2DA 
 262      C0634769 
 263 03f3 25B123FA 		.ascii	"%\261#\372\253\276j\277\232\205\233=\252\267\312\241"
 263      ABBE6ABF 
 263      9A859B3D 
 263      AAB7CAA1 
 264 0403 AD3BBD7E 		.ascii	"\255;\275~\357\036\365\340\303\"\373\3635~\325\347\253"
 264      EF1EF5E0 
 264      C322FBF3 
 264      357ED5E7 
 264      AB
 265 0414 3BE4670C 		.ascii	";\344g\014l,q\311\223\017\341S\371\033\252\327\227~"
 265      6C2C71C9 
 265      930FE153 
 265      F91BAAD7 
 265      977E
 266 0426 E40F65A5 		.ascii	"\344\017e\245V\237z\260\254\364_\246f\016\302"
 266      569F7AB0 
 266      ACF45FA6 
 266      660EC2
 267              		.text
 268              		.section	.gnu.lto_.symtab.50a2d9ca,"",%progbits
 269 0000 41325F53 		.ascii	"A2_SetDriveMode\000"
 269      65744472 
ARM GAS  C:\Users\gjl\AppData\Local\Temp\ccR9n7T5.s 			page 20


 269      6976654D 
 269      6F646500 
 270 0010 00       		.ascii	"\000"
 271 0011 00       		.ascii	"\000"
 272 0012 00       		.ascii	"\000"
 273 0013 00000000 		.ascii	"\000\000\000\000\000\000\000\000"
 273      00000000 
 274 001b B3000000 		.ascii	"\263\000\000\000"
 275 001f 41325F57 		.ascii	"A2_Write\000"
 275      72697465 
 275      00
 276 0028 00       		.ascii	"\000"
 277 0029 00       		.ascii	"\000"
 278 002a 00       		.ascii	"\000"
 279 002b 00000000 		.ascii	"\000\000\000\000\000\000\000\000"
 279      00000000 
 280 0033 B5000000 		.ascii	"\265\000\000\000"
 281 0037 41325F52 		.ascii	"A2_Read\000"
 281      65616400 
 282 003f 00       		.ascii	"\000"
 283 0040 00       		.ascii	"\000"
 284 0041 00       		.ascii	"\000"
 285 0042 00000000 		.ascii	"\000\000\000\000\000\000\000\000"
 285      00000000 
 286 004a B8000000 		.ascii	"\270\000\000\000"
 287 004e 41325F52 		.ascii	"A2_ReadDataReg\000"
 287      65616444 
 287      61746152 
 287      656700
 288 005d 00       		.ascii	"\000"
 289 005e 00       		.ascii	"\000"
 290 005f 00       		.ascii	"\000"
 291 0060 00000000 		.ascii	"\000\000\000\000\000\000\000\000"
 291      00000000 
 292 0068 BA000000 		.ascii	"\272\000\000\000"
 293 006c 41325F53 		.ascii	"A2_SetInterruptMode\000"
 293      6574496E 
 293      74657272 
 293      7570744D 
 293      6F646500 
 294 0080 00       		.ascii	"\000"
 295 0081 00       		.ascii	"\000"
 296 0082 00       		.ascii	"\000"
 297 0083 00000000 		.ascii	"\000\000\000\000\000\000\000\000"
 297      00000000 
 298 008b C4000000 		.ascii	"\304\000\000\000"
 299 008f 41325F43 		.ascii	"A2_ClearInterrupt\000"
 299      6C656172 
 299      496E7465 
 299      72727570 
 299      7400
 300 00a1 00       		.ascii	"\000"
 301 00a2 00       		.ascii	"\000"
 302 00a3 00       		.ascii	"\000"
 303 00a4 00000000 		.ascii	"\000\000\000\000\000\000\000\000"
 303      00000000 
 304 00ac C6000000 		.ascii	"\306\000\000\000"
ARM GAS  C:\Users\gjl\AppData\Local\Temp\ccR9n7T5.s 			page 21


 305              		.text
 306              		.section	.gnu.lto_.opts,"",%progbits
 307 0000 272D666D 		.ascii	"'-fmath-errno' '-fsigned-zeros' '-ftrapping-math' '"
 307      6174682D 
 307      6572726E 
 307      6F272027 
 307      2D667369 
 308 0033 2D666E6F 		.ascii	"-fno-trapv' '-fno-openmp' '-fno-openacc' '-mcpu=cor"
 308      2D747261 
 308      70762720 
 308      272D666E 
 308      6F2D6F70 
 309 0066 7465782D 		.ascii	"tex-m0' '-mthumb' '-g' '-Os' '-ffunction-sections' "
 309      6D302720 
 309      272D6D74 
 309      68756D62 
 309      2720272D 
 310 0099 272D6666 		.ascii	"'-ffat-lto-objects' '-flto'\000"
 310      61742D6C 
 310      746F2D6F 
 310      626A6563 
 310      74732720 
 311              		.text
 312              		.cfi_sections	.debug_frame
 313              		.section	.text.A2_SetDriveMode,"ax",%progbits
 314              		.align	1
 315              		.global	A2_SetDriveMode
 316              		.code	16
 317              		.thumb_func
 318              		.type	A2_SetDriveMode, %function
 319              	A2_SetDriveMode:
 320              	.LFB0:
 321              		.file 1 "Generated_Source\\PSoC4\\A2.c"
   1:Generated_Source\PSoC4/A2.c **** /*******************************************************************************
   2:Generated_Source\PSoC4/A2.c **** * File Name: A2.c  
   3:Generated_Source\PSoC4/A2.c **** * Version 2.20
   4:Generated_Source\PSoC4/A2.c **** *
   5:Generated_Source\PSoC4/A2.c **** * Description:
   6:Generated_Source\PSoC4/A2.c **** *  This file contains API to enable firmware control of a Pins component.
   7:Generated_Source\PSoC4/A2.c **** *
   8:Generated_Source\PSoC4/A2.c **** ********************************************************************************
   9:Generated_Source\PSoC4/A2.c **** * Copyright 2008-2015, Cypress Semiconductor Corporation.  All rights reserved.
  10:Generated_Source\PSoC4/A2.c **** * You may use this file only in accordance with the license, terms, conditions, 
  11:Generated_Source\PSoC4/A2.c **** * disclaimers, and limitations in the end user license agreement accompanying 
  12:Generated_Source\PSoC4/A2.c **** * the software package with which this file was provided.
  13:Generated_Source\PSoC4/A2.c **** *******************************************************************************/
  14:Generated_Source\PSoC4/A2.c **** 
  15:Generated_Source\PSoC4/A2.c **** #include "cytypes.h"
  16:Generated_Source\PSoC4/A2.c **** #include "A2.h"
  17:Generated_Source\PSoC4/A2.c **** 
  18:Generated_Source\PSoC4/A2.c **** 
  19:Generated_Source\PSoC4/A2.c **** #if defined(A2__PC)
  20:Generated_Source\PSoC4/A2.c ****     #define A2_SetP4PinDriveMode(shift, mode)  \
  21:Generated_Source\PSoC4/A2.c ****     do { \
  22:Generated_Source\PSoC4/A2.c ****         A2_PC =   (A2_PC & \
  23:Generated_Source\PSoC4/A2.c ****                                 (uint32)(~(uint32)(A2_DRIVE_MODE_IND_MASK << \
  24:Generated_Source\PSoC4/A2.c ****                                 (A2_DRIVE_MODE_BITS * (shift))))) | \
ARM GAS  C:\Users\gjl\AppData\Local\Temp\ccR9n7T5.s 			page 22


  25:Generated_Source\PSoC4/A2.c ****                                 (uint32)((uint32)(mode) << \
  26:Generated_Source\PSoC4/A2.c ****                                 (A2_DRIVE_MODE_BITS * (shift))); \
  27:Generated_Source\PSoC4/A2.c ****     } while (0)
  28:Generated_Source\PSoC4/A2.c **** #else
  29:Generated_Source\PSoC4/A2.c ****     #if (CY_PSOC4_4200L)
  30:Generated_Source\PSoC4/A2.c ****         #define A2_SetP4PinDriveMode(shift, mode)  \
  31:Generated_Source\PSoC4/A2.c ****         do { \
  32:Generated_Source\PSoC4/A2.c ****             A2_USBIO_CTRL_REG = (A2_USBIO_CTRL_REG & \
  33:Generated_Source\PSoC4/A2.c ****                                     (uint32)(~(uint32)(A2_DRIVE_MODE_IND_MASK << \
  34:Generated_Source\PSoC4/A2.c ****                                     (A2_DRIVE_MODE_BITS * (shift))))) | \
  35:Generated_Source\PSoC4/A2.c ****                                     (uint32)((uint32)(mode) << \
  36:Generated_Source\PSoC4/A2.c ****                                     (A2_DRIVE_MODE_BITS * (shift))); \
  37:Generated_Source\PSoC4/A2.c ****         } while (0)
  38:Generated_Source\PSoC4/A2.c ****     #endif
  39:Generated_Source\PSoC4/A2.c **** #endif
  40:Generated_Source\PSoC4/A2.c ****   
  41:Generated_Source\PSoC4/A2.c **** 
  42:Generated_Source\PSoC4/A2.c **** #if defined(A2__PC) || (CY_PSOC4_4200L) 
  43:Generated_Source\PSoC4/A2.c ****     /*******************************************************************************
  44:Generated_Source\PSoC4/A2.c ****     * Function Name: A2_SetDriveMode
  45:Generated_Source\PSoC4/A2.c ****     ****************************************************************************//**
  46:Generated_Source\PSoC4/A2.c ****     *
  47:Generated_Source\PSoC4/A2.c ****     * \brief Sets the drive mode for each of the Pins component's pins.
  48:Generated_Source\PSoC4/A2.c ****     * 
  49:Generated_Source\PSoC4/A2.c ****     * <b>Note</b> This affects all pins in the Pins component instance. Use the
  50:Generated_Source\PSoC4/A2.c ****     * Per-Pin APIs if you wish to control individual pin's drive modes.
  51:Generated_Source\PSoC4/A2.c ****     *
  52:Generated_Source\PSoC4/A2.c ****     * <b>Note</b> USBIOs have limited drive functionality. Refer to the Drive Mode
  53:Generated_Source\PSoC4/A2.c ****     * parameter for more information.
  54:Generated_Source\PSoC4/A2.c ****     *
  55:Generated_Source\PSoC4/A2.c ****     * \param mode
  56:Generated_Source\PSoC4/A2.c ****     *  Mode for the selected signals. Valid options are documented in 
  57:Generated_Source\PSoC4/A2.c ****     *  \ref driveMode.
  58:Generated_Source\PSoC4/A2.c ****     *
  59:Generated_Source\PSoC4/A2.c ****     * \return
  60:Generated_Source\PSoC4/A2.c ****     *  None
  61:Generated_Source\PSoC4/A2.c ****     *
  62:Generated_Source\PSoC4/A2.c ****     * \sideeffect
  63:Generated_Source\PSoC4/A2.c ****     *  If you use read-modify-write operations that are not atomic, the ISR can
  64:Generated_Source\PSoC4/A2.c ****     *  cause corruption of this function. An ISR that interrupts this function 
  65:Generated_Source\PSoC4/A2.c ****     *  and performs writes to the Pins component Drive Mode registers can cause 
  66:Generated_Source\PSoC4/A2.c ****     *  corrupted port data. To avoid this issue, you should either use the Per-Pin
  67:Generated_Source\PSoC4/A2.c ****     *  APIs (primary method) or disable interrupts around this function.
  68:Generated_Source\PSoC4/A2.c ****     *
  69:Generated_Source\PSoC4/A2.c ****     * \funcusage
  70:Generated_Source\PSoC4/A2.c ****     *  \snippet A2_SUT.c usage_A2_SetDriveMode
  71:Generated_Source\PSoC4/A2.c ****     *******************************************************************************/
  72:Generated_Source\PSoC4/A2.c ****     void A2_SetDriveMode(uint8 mode)
  73:Generated_Source\PSoC4/A2.c ****     {
 322              		.loc 1 73 0
 323              		.cfi_startproc
 324              		@ args = 0, pretend = 0, frame = 0
 325              		@ frame_needed = 0, uses_anonymous_args = 0
 326              		@ link register save eliminated.
 327              	.LVL0:
  74:Generated_Source\PSoC4/A2.c **** 		A2_SetP4PinDriveMode(A2__0__SHIFT, mode);
 328              		.loc 1 74 0
ARM GAS  C:\Users\gjl\AppData\Local\Temp\ccR9n7T5.s 			page 23


 329 0000 034A     		ldr	r2, .L2
 330 0002 044B     		ldr	r3, .L2+4
 331 0004 1168     		ldr	r1, [r2]
 332 0006 8001     		lsls	r0, r0, #6
 333              	.LVL1:
 334 0008 0B40     		ands	r3, r1
 335 000a 1843     		orrs	r0, r3
 336 000c 1060     		str	r0, [r2]
  75:Generated_Source\PSoC4/A2.c ****     }
 337              		.loc 1 75 0
 338              		@ sp needed
 339 000e 7047     		bx	lr
 340              	.L3:
 341              		.align	2
 342              	.L2:
 343 0010 08020440 		.word	1074004488
 344 0014 3FFEFFFF 		.word	-449
 345              		.cfi_endproc
 346              	.LFE0:
 347              		.size	A2_SetDriveMode, .-A2_SetDriveMode
 348              		.section	.text.A2_Write,"ax",%progbits
 349              		.align	1
 350              		.global	A2_Write
 351              		.code	16
 352              		.thumb_func
 353              		.type	A2_Write, %function
 354              	A2_Write:
 355              	.LFB1:
  76:Generated_Source\PSoC4/A2.c **** #endif
  77:Generated_Source\PSoC4/A2.c **** 
  78:Generated_Source\PSoC4/A2.c **** 
  79:Generated_Source\PSoC4/A2.c **** /*******************************************************************************
  80:Generated_Source\PSoC4/A2.c **** * Function Name: A2_Write
  81:Generated_Source\PSoC4/A2.c **** ****************************************************************************//**
  82:Generated_Source\PSoC4/A2.c **** *
  83:Generated_Source\PSoC4/A2.c **** * \brief Writes the value to the physical port (data output register), masking
  84:Generated_Source\PSoC4/A2.c **** *  and shifting the bits appropriately. 
  85:Generated_Source\PSoC4/A2.c **** *
  86:Generated_Source\PSoC4/A2.c **** * The data output register controls the signal applied to the physical pin in 
  87:Generated_Source\PSoC4/A2.c **** * conjunction with the drive mode parameter. This function avoids changing 
  88:Generated_Source\PSoC4/A2.c **** * other bits in the port by using the appropriate method (read-modify-write or
  89:Generated_Source\PSoC4/A2.c **** * bit banding).
  90:Generated_Source\PSoC4/A2.c **** *
  91:Generated_Source\PSoC4/A2.c **** * <b>Note</b> This function should not be used on a hardware digital output pin 
  92:Generated_Source\PSoC4/A2.c **** * as it is driven by the hardware signal attached to it.
  93:Generated_Source\PSoC4/A2.c **** *
  94:Generated_Source\PSoC4/A2.c **** * \param value
  95:Generated_Source\PSoC4/A2.c **** *  Value to write to the component instance.
  96:Generated_Source\PSoC4/A2.c **** *
  97:Generated_Source\PSoC4/A2.c **** * \return 
  98:Generated_Source\PSoC4/A2.c **** *  None 
  99:Generated_Source\PSoC4/A2.c **** *
 100:Generated_Source\PSoC4/A2.c **** * \sideeffect
 101:Generated_Source\PSoC4/A2.c **** *  If you use read-modify-write operations that are not atomic; the Interrupt 
 102:Generated_Source\PSoC4/A2.c **** *  Service Routines (ISR) can cause corruption of this function. An ISR that 
 103:Generated_Source\PSoC4/A2.c **** *  interrupts this function and performs writes to the Pins component data 
 104:Generated_Source\PSoC4/A2.c **** *  register can cause corrupted port data. To avoid this issue, you should 
ARM GAS  C:\Users\gjl\AppData\Local\Temp\ccR9n7T5.s 			page 24


 105:Generated_Source\PSoC4/A2.c **** *  either use the Per-Pin APIs (primary method) or disable interrupts around 
 106:Generated_Source\PSoC4/A2.c **** *  this function.
 107:Generated_Source\PSoC4/A2.c **** *
 108:Generated_Source\PSoC4/A2.c **** * \funcusage
 109:Generated_Source\PSoC4/A2.c **** *  \snippet A2_SUT.c usage_A2_Write
 110:Generated_Source\PSoC4/A2.c **** *******************************************************************************/
 111:Generated_Source\PSoC4/A2.c **** void A2_Write(uint8 value)
 112:Generated_Source\PSoC4/A2.c **** {
 356              		.loc 1 112 0
 357              		.cfi_startproc
 358              		@ args = 0, pretend = 0, frame = 0
 359              		@ frame_needed = 0, uses_anonymous_args = 0
 360              		@ link register save eliminated.
 361              	.LVL2:
 113:Generated_Source\PSoC4/A2.c ****     uint8 drVal = (uint8)(A2_DR & (uint8)(~A2_MASK));
 362              		.loc 1 113 0
 363 0000 0423     		movs	r3, #4
 364 0002 0449     		ldr	r1, .L5
 114:Generated_Source\PSoC4/A2.c ****     drVal = (drVal | ((uint8)(value << A2_SHIFT) & A2_MASK));
 115:Generated_Source\PSoC4/A2.c ****     A2_DR = (uint32)drVal;
 365              		.loc 1 115 0
 366 0004 8000     		lsls	r0, r0, #2
 367              	.LVL3:
 113:Generated_Source\PSoC4/A2.c ****     uint8 drVal = (uint8)(A2_DR & (uint8)(~A2_MASK));
 368              		.loc 1 113 0
 369 0006 0A68     		ldr	r2, [r1]
 116:Generated_Source\PSoC4/A2.c **** }
 370              		.loc 1 116 0
 371              		@ sp needed
 113:Generated_Source\PSoC4/A2.c ****     uint8 drVal = (uint8)(A2_DR & (uint8)(~A2_MASK));
 372              		.loc 1 113 0
 373 0008 9A43     		bics	r2, r3
 374 000a D2B2     		uxtb	r2, r2
 115:Generated_Source\PSoC4/A2.c **** }
 375              		.loc 1 115 0
 376 000c 0340     		ands	r3, r0
 377 000e 1343     		orrs	r3, r2
 378 0010 0B60     		str	r3, [r1]
 379              		.loc 1 116 0
 380 0012 7047     		bx	lr
 381              	.L6:
 382              		.align	2
 383              	.L5:
 384 0014 00020440 		.word	1074004480
 385              		.cfi_endproc
 386              	.LFE1:
 387              		.size	A2_Write, .-A2_Write
 388              		.section	.text.A2_Read,"ax",%progbits
 389              		.align	1
 390              		.global	A2_Read
 391              		.code	16
 392              		.thumb_func
 393              		.type	A2_Read, %function
 394              	A2_Read:
 395              	.LFB2:
 117:Generated_Source\PSoC4/A2.c **** 
 118:Generated_Source\PSoC4/A2.c **** 
ARM GAS  C:\Users\gjl\AppData\Local\Temp\ccR9n7T5.s 			page 25


 119:Generated_Source\PSoC4/A2.c **** /*******************************************************************************
 120:Generated_Source\PSoC4/A2.c **** * Function Name: A2_Read
 121:Generated_Source\PSoC4/A2.c **** ****************************************************************************//**
 122:Generated_Source\PSoC4/A2.c **** *
 123:Generated_Source\PSoC4/A2.c **** * \brief Reads the associated physical port (pin status register) and masks 
 124:Generated_Source\PSoC4/A2.c **** *  the required bits according to the width and bit position of the component
 125:Generated_Source\PSoC4/A2.c **** *  instance. 
 126:Generated_Source\PSoC4/A2.c **** *
 127:Generated_Source\PSoC4/A2.c **** * The pin's status register returns the current logic level present on the 
 128:Generated_Source\PSoC4/A2.c **** * physical pin.
 129:Generated_Source\PSoC4/A2.c **** *
 130:Generated_Source\PSoC4/A2.c **** * \return 
 131:Generated_Source\PSoC4/A2.c **** *  The current value for the pins in the component as a right justified number.
 132:Generated_Source\PSoC4/A2.c **** *
 133:Generated_Source\PSoC4/A2.c **** * \funcusage
 134:Generated_Source\PSoC4/A2.c **** *  \snippet A2_SUT.c usage_A2_Read  
 135:Generated_Source\PSoC4/A2.c **** *******************************************************************************/
 136:Generated_Source\PSoC4/A2.c **** uint8 A2_Read(void)
 137:Generated_Source\PSoC4/A2.c **** {
 396              		.loc 1 137 0
 397              		.cfi_startproc
 398              		@ args = 0, pretend = 0, frame = 0
 399              		@ frame_needed = 0, uses_anonymous_args = 0
 400              		@ link register save eliminated.
 138:Generated_Source\PSoC4/A2.c ****     return (uint8)((A2_PS & A2_MASK) >> A2_SHIFT);
 401              		.loc 1 138 0
 402 0000 024B     		ldr	r3, .L8
 139:Generated_Source\PSoC4/A2.c **** }
 403              		.loc 1 139 0
 404              		@ sp needed
 138:Generated_Source\PSoC4/A2.c ****     return (uint8)((A2_PS & A2_MASK) >> A2_SHIFT);
 405              		.loc 1 138 0
 406 0002 1868     		ldr	r0, [r3]
 407 0004 4007     		lsls	r0, r0, #29
 408 0006 C00F     		lsrs	r0, r0, #31
 409              		.loc 1 139 0
 410 0008 7047     		bx	lr
 411              	.L9:
 412 000a C046     		.align	2
 413              	.L8:
 414 000c 04020440 		.word	1074004484
 415              		.cfi_endproc
 416              	.LFE2:
 417              		.size	A2_Read, .-A2_Read
 418              		.section	.text.A2_ReadDataReg,"ax",%progbits
 419              		.align	1
 420              		.global	A2_ReadDataReg
 421              		.code	16
 422              		.thumb_func
 423              		.type	A2_ReadDataReg, %function
 424              	A2_ReadDataReg:
 425              	.LFB3:
 140:Generated_Source\PSoC4/A2.c **** 
 141:Generated_Source\PSoC4/A2.c **** 
 142:Generated_Source\PSoC4/A2.c **** /*******************************************************************************
 143:Generated_Source\PSoC4/A2.c **** * Function Name: A2_ReadDataReg
 144:Generated_Source\PSoC4/A2.c **** ****************************************************************************//**
ARM GAS  C:\Users\gjl\AppData\Local\Temp\ccR9n7T5.s 			page 26


 145:Generated_Source\PSoC4/A2.c **** *
 146:Generated_Source\PSoC4/A2.c **** * \brief Reads the associated physical port's data output register and masks 
 147:Generated_Source\PSoC4/A2.c **** *  the correct bits according to the width and bit position of the component 
 148:Generated_Source\PSoC4/A2.c **** *  instance. 
 149:Generated_Source\PSoC4/A2.c **** *
 150:Generated_Source\PSoC4/A2.c **** * The data output register controls the signal applied to the physical pin in 
 151:Generated_Source\PSoC4/A2.c **** * conjunction with the drive mode parameter. This is not the same as the 
 152:Generated_Source\PSoC4/A2.c **** * preferred A2_Read() API because the 
 153:Generated_Source\PSoC4/A2.c **** * A2_ReadDataReg() reads the data register instead of the status 
 154:Generated_Source\PSoC4/A2.c **** * register. For output pins this is a useful function to determine the value 
 155:Generated_Source\PSoC4/A2.c **** * just written to the pin.
 156:Generated_Source\PSoC4/A2.c **** *
 157:Generated_Source\PSoC4/A2.c **** * \return 
 158:Generated_Source\PSoC4/A2.c **** *  The current value of the data register masked and shifted into a right 
 159:Generated_Source\PSoC4/A2.c **** *  justified number for the component instance.
 160:Generated_Source\PSoC4/A2.c **** *
 161:Generated_Source\PSoC4/A2.c **** * \funcusage
 162:Generated_Source\PSoC4/A2.c **** *  \snippet A2_SUT.c usage_A2_ReadDataReg 
 163:Generated_Source\PSoC4/A2.c **** *******************************************************************************/
 164:Generated_Source\PSoC4/A2.c **** uint8 A2_ReadDataReg(void)
 165:Generated_Source\PSoC4/A2.c **** {
 426              		.loc 1 165 0
 427              		.cfi_startproc
 428              		@ args = 0, pretend = 0, frame = 0
 429              		@ frame_needed = 0, uses_anonymous_args = 0
 430              		@ link register save eliminated.
 166:Generated_Source\PSoC4/A2.c ****     return (uint8)((A2_DR & A2_MASK) >> A2_SHIFT);
 431              		.loc 1 166 0
 432 0000 024B     		ldr	r3, .L11
 167:Generated_Source\PSoC4/A2.c **** }
 433              		.loc 1 167 0
 434              		@ sp needed
 166:Generated_Source\PSoC4/A2.c ****     return (uint8)((A2_DR & A2_MASK) >> A2_SHIFT);
 435              		.loc 1 166 0
 436 0002 1868     		ldr	r0, [r3]
 437 0004 4007     		lsls	r0, r0, #29
 438 0006 C00F     		lsrs	r0, r0, #31
 439              		.loc 1 167 0
 440 0008 7047     		bx	lr
 441              	.L12:
 442 000a C046     		.align	2
 443              	.L11:
 444 000c 00020440 		.word	1074004480
 445              		.cfi_endproc
 446              	.LFE3:
 447              		.size	A2_ReadDataReg, .-A2_ReadDataReg
 448              		.section	.text.A2_SetInterruptMode,"ax",%progbits
 449              		.align	1
 450              		.global	A2_SetInterruptMode
 451              		.code	16
 452              		.thumb_func
 453              		.type	A2_SetInterruptMode, %function
 454              	A2_SetInterruptMode:
 455              	.LFB4:
 168:Generated_Source\PSoC4/A2.c **** 
 169:Generated_Source\PSoC4/A2.c **** 
 170:Generated_Source\PSoC4/A2.c **** /*******************************************************************************
ARM GAS  C:\Users\gjl\AppData\Local\Temp\ccR9n7T5.s 			page 27


 171:Generated_Source\PSoC4/A2.c **** * Function Name: A2_SetInterruptMode
 172:Generated_Source\PSoC4/A2.c **** ****************************************************************************//**
 173:Generated_Source\PSoC4/A2.c **** *
 174:Generated_Source\PSoC4/A2.c **** * \brief Configures the interrupt mode for each of the Pins component's
 175:Generated_Source\PSoC4/A2.c **** *  pins. Alternatively you may set the interrupt mode for all the pins
 176:Generated_Source\PSoC4/A2.c **** *  specified in the Pins component.
 177:Generated_Source\PSoC4/A2.c **** *
 178:Generated_Source\PSoC4/A2.c **** *  <b>Note</b> The interrupt is port-wide and therefore any enabled pin
 179:Generated_Source\PSoC4/A2.c **** *  interrupt may trigger it.
 180:Generated_Source\PSoC4/A2.c **** *
 181:Generated_Source\PSoC4/A2.c **** * \param position
 182:Generated_Source\PSoC4/A2.c **** *  The pin position as listed in the Pins component. You may OR these to be 
 183:Generated_Source\PSoC4/A2.c **** *  able to configure the interrupt mode of multiple pins within a Pins 
 184:Generated_Source\PSoC4/A2.c **** *  component. Or you may use A2_INTR_ALL to configure the
 185:Generated_Source\PSoC4/A2.c **** *  interrupt mode of all the pins in the Pins component.       
 186:Generated_Source\PSoC4/A2.c **** *  - A2_0_INTR       (First pin in the list)
 187:Generated_Source\PSoC4/A2.c **** *  - A2_1_INTR       (Second pin in the list)
 188:Generated_Source\PSoC4/A2.c **** *  - ...
 189:Generated_Source\PSoC4/A2.c **** *  - A2_INTR_ALL     (All pins in Pins component)
 190:Generated_Source\PSoC4/A2.c **** *
 191:Generated_Source\PSoC4/A2.c **** * \param mode
 192:Generated_Source\PSoC4/A2.c **** *  Interrupt mode for the selected pins. Valid options are documented in
 193:Generated_Source\PSoC4/A2.c **** *  \ref intrMode.
 194:Generated_Source\PSoC4/A2.c **** *
 195:Generated_Source\PSoC4/A2.c **** * \return 
 196:Generated_Source\PSoC4/A2.c **** *  None
 197:Generated_Source\PSoC4/A2.c **** *  
 198:Generated_Source\PSoC4/A2.c **** * \sideeffect
 199:Generated_Source\PSoC4/A2.c **** *  It is recommended that the interrupt be disabled before calling this 
 200:Generated_Source\PSoC4/A2.c **** *  function to avoid unintended interrupt requests. Note that the interrupt
 201:Generated_Source\PSoC4/A2.c **** *  type is port wide, and therefore will trigger for any enabled pin on the 
 202:Generated_Source\PSoC4/A2.c **** *  port.
 203:Generated_Source\PSoC4/A2.c **** *
 204:Generated_Source\PSoC4/A2.c **** * \funcusage
 205:Generated_Source\PSoC4/A2.c **** *  \snippet A2_SUT.c usage_A2_SetInterruptMode
 206:Generated_Source\PSoC4/A2.c **** *******************************************************************************/
 207:Generated_Source\PSoC4/A2.c **** void A2_SetInterruptMode(uint16 position, uint16 mode)
 208:Generated_Source\PSoC4/A2.c **** {
 456              		.loc 1 208 0
 457              		.cfi_startproc
 458              		@ args = 0, pretend = 0, frame = 0
 459              		@ frame_needed = 0, uses_anonymous_args = 0
 460              		@ link register save eliminated.
 461              	.LVL4:
 209:Generated_Source\PSoC4/A2.c ****     uint32 intrCfg;
 210:Generated_Source\PSoC4/A2.c ****     
 211:Generated_Source\PSoC4/A2.c ****     intrCfg =  A2_INTCFG & (uint32)(~(uint32)position);
 462              		.loc 1 211 0
 463 0000 034A     		ldr	r2, .L14
 212:Generated_Source\PSoC4/A2.c ****     A2_INTCFG = intrCfg | ((uint32)position & (uint32)mode);
 213:Generated_Source\PSoC4/A2.c **** }
 464              		.loc 1 213 0
 465              		@ sp needed
 211:Generated_Source\PSoC4/A2.c ****     A2_INTCFG = intrCfg | ((uint32)position & (uint32)mode);
 466              		.loc 1 211 0
 467 0002 1368     		ldr	r3, [r2]
 468              	.LVL5:
ARM GAS  C:\Users\gjl\AppData\Local\Temp\ccR9n7T5.s 			page 28


 212:Generated_Source\PSoC4/A2.c ****     A2_INTCFG = intrCfg | ((uint32)position & (uint32)mode);
 469              		.loc 1 212 0
 470 0004 8343     		bics	r3, r0
 471              	.LVL6:
 472 0006 0840     		ands	r0, r1
 473              	.LVL7:
 474 0008 1843     		orrs	r0, r3
 475 000a 1060     		str	r0, [r2]
 476              		.loc 1 213 0
 477 000c 7047     		bx	lr
 478              	.L15:
 479 000e C046     		.align	2
 480              	.L14:
 481 0010 0C020440 		.word	1074004492
 482              		.cfi_endproc
 483              	.LFE4:
 484              		.size	A2_SetInterruptMode, .-A2_SetInterruptMode
 485              		.section	.text.A2_ClearInterrupt,"ax",%progbits
 486              		.align	1
 487              		.global	A2_ClearInterrupt
 488              		.code	16
 489              		.thumb_func
 490              		.type	A2_ClearInterrupt, %function
 491              	A2_ClearInterrupt:
 492              	.LFB5:
 214:Generated_Source\PSoC4/A2.c **** 
 215:Generated_Source\PSoC4/A2.c **** 
 216:Generated_Source\PSoC4/A2.c **** /*******************************************************************************
 217:Generated_Source\PSoC4/A2.c **** * Function Name: A2_ClearInterrupt
 218:Generated_Source\PSoC4/A2.c **** ****************************************************************************//**
 219:Generated_Source\PSoC4/A2.c **** *
 220:Generated_Source\PSoC4/A2.c **** * \brief Clears any active interrupts attached with the component and returns 
 221:Generated_Source\PSoC4/A2.c **** *  the value of the interrupt status register allowing determination of which
 222:Generated_Source\PSoC4/A2.c **** *  pins generated an interrupt event.
 223:Generated_Source\PSoC4/A2.c **** *
 224:Generated_Source\PSoC4/A2.c **** * \return 
 225:Generated_Source\PSoC4/A2.c **** *  The right-shifted current value of the interrupt status register. Each pin 
 226:Generated_Source\PSoC4/A2.c **** *  has one bit set if it generated an interrupt event. For example, bit 0 is 
 227:Generated_Source\PSoC4/A2.c **** *  for pin 0 and bit 1 is for pin 1 of the Pins component.
 228:Generated_Source\PSoC4/A2.c **** *  
 229:Generated_Source\PSoC4/A2.c **** * \sideeffect
 230:Generated_Source\PSoC4/A2.c **** *  Clears all bits of the physical port's interrupt status register, not just
 231:Generated_Source\PSoC4/A2.c **** *  those associated with the Pins component.
 232:Generated_Source\PSoC4/A2.c **** *
 233:Generated_Source\PSoC4/A2.c **** * \funcusage
 234:Generated_Source\PSoC4/A2.c **** *  \snippet A2_SUT.c usage_A2_ClearInterrupt
 235:Generated_Source\PSoC4/A2.c **** *******************************************************************************/
 236:Generated_Source\PSoC4/A2.c **** uint8 A2_ClearInterrupt(void)
 237:Generated_Source\PSoC4/A2.c **** {
 493              		.loc 1 237 0
 494              		.cfi_startproc
 495              		@ args = 0, pretend = 0, frame = 0
 496              		@ frame_needed = 0, uses_anonymous_args = 0
 497              		@ link register save eliminated.
 238:Generated_Source\PSoC4/A2.c **** 	uint8 maskedStatus = (uint8)(A2_INTSTAT & A2_MASK);
 498              		.loc 1 238 0
 499 0000 0423     		movs	r3, #4
ARM GAS  C:\Users\gjl\AppData\Local\Temp\ccR9n7T5.s 			page 29


 500 0002 034A     		ldr	r2, .L17
 239:Generated_Source\PSoC4/A2.c **** 	A2_INTSTAT = maskedStatus;
 240:Generated_Source\PSoC4/A2.c ****     return maskedStatus >> A2_SHIFT;
 241:Generated_Source\PSoC4/A2.c **** }
 501              		.loc 1 241 0
 502              		@ sp needed
 238:Generated_Source\PSoC4/A2.c **** 	uint8 maskedStatus = (uint8)(A2_INTSTAT & A2_MASK);
 503              		.loc 1 238 0
 504 0004 1068     		ldr	r0, [r2]
 505 0006 1840     		ands	r0, r3
 506              	.LVL8:
 239:Generated_Source\PSoC4/A2.c **** 	A2_INTSTAT = maskedStatus;
 507              		.loc 1 239 0
 508 0008 1060     		str	r0, [r2]
 240:Generated_Source\PSoC4/A2.c **** }
 509              		.loc 1 240 0
 510 000a 8008     		lsrs	r0, r0, #2
 511              	.LVL9:
 512 000c C0B2     		uxtb	r0, r0
 513              		.loc 1 241 0
 514 000e 7047     		bx	lr
 515              	.L18:
 516              		.align	2
 517              	.L17:
 518 0010 10020440 		.word	1074004496
 519              		.cfi_endproc
 520              	.LFE5:
 521              		.size	A2_ClearInterrupt, .-A2_ClearInterrupt
 522              		.text
 523              	.Letext0:
 524              		.file 2 "Generated_Source\\PSoC4\\cytypes.h"