ARM GAS  C:\Users\gjl\AppData\Local\Temp\cccntldg.s 			page 1


   1              		.syntax unified
   2              		.cpu cortex-m0
   3              		.fpu softvfp
   4              		.eabi_attribute 20, 1
   5              		.eabi_attribute 21, 1
   6              		.eabi_attribute 23, 3
   7              		.eabi_attribute 24, 1
   8              		.eabi_attribute 25, 1
   9              		.eabi_attribute 26, 1
  10              		.eabi_attribute 30, 4
  11              		.eabi_attribute 34, 0
  12              		.eabi_attribute 18, 4
  13              		.thumb
  14              		.syntax unified
  15              		.file	"ADC_PM.c"
  16              		.text
  17              	.Ltext0:
  18              		.section	.gnu.lto_.profile.50a2fc17,"",%progbits
  19 0000 789C6361 		.ascii	"x\234ca`d`a`\000\222\371\306\000\001{\000\255"
  19      60646061 
  19      600092F9 
  19      C600017B 
  19      00AD
  20              		.text
  21              		.section	.gnu.lto_.icf.50a2fc17,"",%progbits
  22 0000 789C6361 		.ascii	"x\234ca`d\000\001m\006\004`gx\375e\321KN\306cW\333\276"
  22      60640001 
  22      6D060460 
  22      6778FD65 
  22      D14B4EC6 
  23 0018 F2315D5B 		.ascii	"\3621][v\233\227y\375\314\007-L,`\222u\367\304o3\271"
  23      769B9779 
  23      FDCC072D 
  23      4C2C6092 
  23      75F7C46F 
  24 002e D8F6DFFE 		.ascii	"\330\366\337\376\177\225\217\001\000\327\302\025\005"
  24      7F958F01 
  24      00D7C215 
  24      05
  25              		.text
  26              		.section	.gnu.lto_.jmpfuncs.50a2fc17,"",%progbits
  27 0000 789C6361 		.ascii	"x\234ca`d\000\001)\006\004`\003b&\020\203\231\201\201"
  27      60640001 
  27      29060460 
  27      03622610 
  27      83998181 
  28 0014 85818115 		.ascii	"\205\201\201\025.\310\000\000\006v\000:"
  28      2EC80000 
  28      0676003A 
  29              		.text
  30              		.section	.gnu.lto_.inline.50a2fc17,"",%progbits
  31 0000 789C6361 		.ascii	"x\234ca`d\000\201I\014\010\300\306\300\300\311\301\310"
  31      60640081 
  31      490C08C0 
  31      C6C0C0C9 
  31      C1C8
  32 0012 C0C4F320 		.ascii	"\300\304\363 \226\201m\201<\023H\214\211\201S\004(\304"
ARM GAS  C:\Users\gjl\AppData\Local\Temp\cccntldg.s 			page 2


  32      96816D81 
  32      3C13488C 
  32      89815304 
  32      28C4
  33 0024 71C00E2E 		.ascii	"q\300\016.\304\310\005#\230\031\230\231\200\222 \255"
  33      C4C80523 
  33      98199899 
  33      809220AD 
  34 0034 5039160C 		.ascii	"P9\026\014\021V\006q!\240\210\322\204~F,&\200\0116\006"
  34      11560671 
  34      21A088D2 
  34      847E462C 
  34      26800936 
  35 0049 0141A012 		.ascii	"\001A\240\022\211K\035hJ\030\000\214\026\0136"
  35      894B1D68 
  35      4A18008C 
  35      160B36
  36              		.text
  37              		.section	.gnu.lto_.pureconst.50a2fc17,"",%progbits
  38 0000 789C6361 		.ascii	"x\234ca`d\340e```c\220b\222`f`a`\225b\223\002\000\004"
  38      6064E065 
  38      60606063 
  38      90629260 
  38      66606160 
  39 001a 690093   		.ascii	"i\000\223"
  40              		.text
  41              		.section	.gnu.lto_ADC_Sleep.part.0.50a2fc17,"",%progbits
  42 0000 789C8D92 		.ascii	"x\234\215\222\273K\\A\024\306\347;3\373H0\350\037`\261"
  42      BB4B5C41 
  42      14C6E73B 
  42      33FB4830 
  42      E81F60B1 
  43 0014 D859249B 		.ascii	"\330Y$\233\302\177 \030\264\022D[AD\267U\220\244\013"
  43      C27F2018 
  43      B412445B 
  43      4144B755 
  43      90A40B
  44 0027 ECECE3E2 		.ascii	"\354\354\343\342\243\010\333h\245\330\351\232\250\273"
  44      A308DB68 
  44      A5D8E99A 
  44      A8BB
  45 0035 260AAE29 		.ascii	"&\012\256)\242K\322\204hHa\021\202\020R,ADwI\024\211"
  45      A24BD284 
  45      68486111 
  45      8210522C 
  45      41447749 
  46 004b 8FEB3973 		.ascii	"\217\3539sE\255\304\201\2313\367\314\341\367}g\346\032"
  46      45ADC481 
  46      9933F7CC 
  46      E1F77D67 
  46      E61A
  47 005d 0525A38D 		.ascii	"\005%\243\215\224j\342\370\230'B\012&\267\315\033\003"
  47      946AE2F8 
  47      9827420A 
  47      26B7CD1B 
  47      03
  48 006e 7291A025 		.ascii	"r\221\240%\246\242\032\220\215\215B%\015i$qD\347\204"
ARM GAS  C:\Users\gjl\AppData\Local\Temp\cccntldg.s 			page 3


  48      A6A21A90 
  48      8D8D4225 
  48      0D692471 
  48      44E784
  49 0081 F248A544 		.ascii	"\362H\245D\315s\226\307/\357\340\251\315o\300\323J\371"
  49      CD7396C7 
  49      2FEFE0A9 
  49      CD6FC0D3 
  49      4AF9
  50 0093 E4D80A73 		.ascii	"\344\330\012shV\\\366{\371b\342Q8+e\261\340\020y\204"
  50      68565CF6 
  50      7BF962E2 
  50      51382B65 
  50      B1E01079 
  51 00a8 C540A1CB 		.ascii	"\305@\241\313Z\337\317\330\334\207z0\333\323 Y4/ddQ"
  51      5ADFCFD8 
  51      DC877A30 
  51      DBD32059 
  51      342F6464 
  52 00bd AACA53B4 		.ascii	"\252\312S\264\253\234\340\250kD.VP\376?~<\375JP\031"
  52      AB9CE0A8 
  52      6B442E56 
  52      50FE3F7E 
  52      3CFD4A50 
  53 00d2 0D9699F4 		.ascii	"\015\226\231\364\312\337\"\377\310\323\032\242\372\367"
  53      CADF22FF 
  53      C8D31AA2 
  53      FAF7
  54 00e0 743E170A 		.ascii	"t>\027\012>\255\375\2232\234\232\335\371\261if0\235"
  54      3EADFD93 
  54      329C9ADD 
  54      F9B16966 
  54      309D
  55 00f2 CAA66C83 		.ascii	"\312\246l\203\247\015\336\240\021\363hdCo1\003UA\346"
  55      A70DDEA0 
  55      11F36864 
  55      436F3103 
  55      5541E6
  56 0105 2C1C0029 		.ascii	",\034\000)`\346?\177\331\252\023\010\340\373\037\375"
  56      60E63F7F 
  56      D9AA1308 
  56      E0FB1FFD 
  57 0115 7A2C7035 		.ascii	"z,p5KOB\312\356F.2\222A\\\236^\257\035n>\010\300\372"
  57      4B4F42CA 
  57      EE462E32 
  57      92415C9E 
  57      5EAF1D6E 
  58 012d B6D39073 		.ascii	"\266\323\220sZ*\355\377\214$\317\355\250\025Dh\214\257"
  58      5A2AEDFF 
  58      8C24CFED 
  58      A8154468 
  58      8CAF
  59 013f 50D27B5F 		.ascii	"P\322{_w>=\024\264u\3710\012|\357K\202\346\303\327k"
  59      773E3D14 
  59      B475F930 
  59      0A7CEF4B 
  59      82E6C3D7 
ARM GAS  C:\Users\gjl\AppData\Local\Temp\cccntldg.s 			page 4


  60 0154 C5B1687C 		.ascii	"\305\261h|\321\006g\021\024Y\354\302\335;\226\021\227"
  60      D1066711 
  60      1459ECC2 
  60      DD3B9611 
  60      97
  61 0165 4E4EAE3A 		.ascii	"NN\256:1\201\346\367lqJ\213&\361\363\276s]\244\257\273"
  61      3181E6F7 
  61      6C714A8B 
  61      26F1F3BE 
  61      735DA4AF 
  62 017a B8AF83F7 		.ascii	"\270\257\203\367w8X\271q\260\2128\353\362\256F\332="
  62      773858B9 
  62      71B08A38 
  62      EBF2AE46 
  62      DA3D
  63 018c D61ED21B 		.ascii	"\326\036\322\033\273\355\"\346~\214*A\322\\\034kO\014"
  63      BBED22E6 
  63      7E8C2A41 
  63      D25C1C6B 
  63      4F0C
  64 019e 2686FB5E 		.ascii	"&\206\373^$\006z\273\207^\016\367'z:\273\207Z[z\236"
  64      24067ABB 
  64      875E0EF7 
  64      277A3ABB 
  64      875A5B7A 
  65 01b3 3D6FEDED 		.ascii	"=o\355\355\354x\322\257.\001\325u\321,"
  65      EC78D2AF 
  65      2E01D575 
  65      D12C
  66              		.text
  67              		.section	.gnu.lto_ADC_backup.50a2fc17,"",%progbits
  68 0000 789C6361 		.ascii	"x\234ca`d\000\001] \206\260\030\030\37621\256\177\263"
  68      60640001 
  68      5D2086B0 
  68      1818FE32 
  68      31AE7FB3 
  69 0014 F327EF17 		.ascii	"\363'\357\027\246Vf\240 \220\273sn\373m>\213m\015\035"
  69      A65666A0 
  69      2090BB73 
  69      6EFB6D3E 
  69      8B6D0D1D 
  70 0028 0B1A045A 		.ascii	"\013\032\004Z\231\031\377110.g\224a`\\\301h\301\000"
  70      9919FF31 
  70      31302E67 
  70      9461605C 
  70      C168C100 
  71 003c 00C3A010 		.ascii	"\000\303\240\020)"
  71      29
  72              		.text
  73              		.section	.gnu.lto_ADC_Wakeup.part.1.50a2fc17,"",%progbits
  74 0000 789C7550 		.ascii	"x\234uPM(\254a\024>\317y\277of\222\277\215\335M\272"
  74      4D28AC61 
  74      143ECF79 
  74      BF6F6692 
  74      BF8DDD4D 
  75 0015 3B0B2665 		.ascii	";\013&ei#\242\224\022[%1[J\254\347\345\363\205\215l"
  75      6923A294 
ARM GAS  C:\Users\gjl\AppData\Local\Temp\cccntldg.s 			page 5


  75      125B2531 
  75      5B4AACE7 
  75      E5F3858D 
  76 002a D8C9CEFF 		.ascii	"\330\311\316\3775\354\314\254&\261\321\315]]\026\263"
  76      35ECCCAC 
  76      26B1D1CD 
  76      5D5D16B3 
  77 003a 4191A4CC 		.ascii	"A\221\244\314\350\336\244\3609\347\035;9\365\276\347"
  77      E8DEA4F0 
  77      39E71D3B 
  77      39F5BEE7 
  78 004a EDBCCF73 		.ascii	"\355\274\317s\236\363\034\217@\032\273\222~Jn\223\203"
  78      9EF31C8F 
  78      401ABB92 
  78      7E4A6E93 
  78      83
  79 005b 18C15F3A 		.ascii	"\030\301_:\223\207\017v\231\331\344\352\311Vx\347I\262"
  79      93870F76 
  79      99D9E4EA 
  79      C95678E7 
  79      49B2
  80 006d 95069E56 		.ascii	"\225\006\236V\247\023\036\240\017\233\000\245}6\036"
  80      A7131EA0 
  80      0F9B00A5 
  80      7D361E
  81 007c D2F8CF6F 		.ascii	"\322\370\317o\214\243\271\333,7nX\211\313\233\365\026"
  81      8CA3B9DB 
  81      2C376E58 
  81      89CB9BF5 
  81      16
  82 008d BB994768 		.ascii	"\273\231Gh\210\"vR\204\0154\222\300\256\017\336\227"
  82      88227652 
  82      840D3492 
  82      C0AE0FDE 
  82      97
  83 009e AB62B30A 		.ascii	"\253b\263\012k(\177b\0231\235'\323om\024\005v\351\261"
  83      6B287F62 
  83      13319D27 
  83      D36F6D14 
  83      0576E9B1 
  84 00b2 0E715068 		.ascii	"\016qPh\300z\021\025\005\245\222E\3665\233\022\263\313"
  84      C07A1115 
  84      05A59245 
  84      F6359B12 
  84      B3CB
  85 00c4 7708F285 		.ascii	"w\010\362\205\323J\345k\347l\366\241\020O\277\331yk"
  85      D34AE56B 
  85      E76CF6A1 
  85      104FBFD9 
  85      796B
  86 00d6 6B43C311 		.ascii	"kC\303\021\013\025[HK\023C\267\230\311\035\\<\371\012"
  86      0B155B48 
  86      4B1343B7 
  86      98C91D5C 
  86      3CF90A
  87 00e9 0E0C04BE 		.ascii	"\016\014\004\276\022\036\375\211\377\343P\034|e{\013"
  87      121EFD89 
ARM GAS  C:\Users\gjl\AppData\Local\Temp\cccntldg.s 			page 6


  87      FFE3501C 
  87      7C657B0B 
  88 00f9 32BA96EF 		.ascii	"2\272\226\357\177\377=\256X\303\352\264uu\037;\342w"
  88      7FFF3DAE 
  88      58C3EAB4 
  88      75751F3B 
  88      E277
  89 010b 1B3FDCE7 		.ascii	"\033?\334\347\342\341\376B\"\331\024\232\030v\261\206"
  89      E2E1FE42 
  89      22D9149A 
  89      1876B186 
  90 011b 776715BF 		.ascii	"wg\025\277\220\024\271\340\265\213\002\303e\255\223"
  90      9014B9E0 
  90      B58B02C3 
  90      65AD93
  91 012a E8395FA3 		.ascii	"\3509_\243Z\000cO\330W\230-\004c\345aty\231\207\354"
  91      5A00634F 
  91      D857982D 
  91      0463E561 
  91      74799987 
  92 013f 4B551940 		.ascii	"KU\031@\310h{\211\022\033\312\325;\233\245\323\352o"
  92      C8687B89 
  92      121BCAD5 
  92      3B9BA5D3 
  92      EA6F
  93 0151 6D8A2AF6 		.ascii	"m\212*\366?m*\311s\313\271\307L\376\271\307\2214\212"
  93      3F6D2AC9 
  93      73CBB9C7 
  93      4CFEB9C7 
  93      91348A
  94 0164 B20D290B 		.ascii	"\262\015)\013\266\241;5\226\232\030\236L\215\016\015"
  94      B6A13B35 
  94      969A189E 
  94      4C8D0E0D 
  95 0174 8C4F4D8C 		.ascii	"\214OM\214\244\006\373\006\306;Z\007\333;;\206\372z"
  95      A406FB06 
  95      C63B5A07 
  95      DB3B3B86 
  95      FA7A
  96 0186 9B47E803 		.ascii	"\233G\350\003\374\262\242\024"
  96      FCB2A214 
  97              		.text
  98              		.section	.gnu.lto_ADC_SaveConfig.50a2fc17,"",%progbits
  99 0000 789C6361 		.ascii	"x\234ca`d\000\201j V\002bi fdf`d\232p\216\201\241\221"
  99      60640081 
  99      6A205602 
  99      62692066 
  99      64666064 
 100 001a 83899111 		.ascii	"\203\211\221\021\304h\340`d\250gb\254g\374\312\364\227"
 100      C468E060 
 100      64A86762 
 100      AC67FCCA 
 100      F497
 101 002c 89F150FB 		.ascii	"\211\361P\373\263\235L\232\313\033\200\340A\353t\346"
 101      B39D4C9A 
 101      CB1B80E0 
 101      41EB74E6 
ARM GAS  C:\Users\gjl\AppData\Local\Temp\cccntldg.s 			page 7


 102 003c 86150718 		.ascii	"\206\025\007\030[\231\031\030\3763\201Mb`\\\316\250"
 102      5B991918 
 102      FE33814D 
 102      62605CCE 
 102      A8
 103 004d C90054F6 		.ascii	"\311\000T\366h\343\277\251\274l- e\012\020I\306\025"
 103      68E3BFA9 
 103      BC6C2D20 
 103      650A1049 
 103      C615
 104 005f 8C6C20EB 		.ascii	"\214l \353\326\007\035h\370\377\277\271\341\300n\326"
 104      D6071D68 
 104      F8FFBFB9 
 104      E1C06ED6 
 105 006f BF4C4089 		.ascii	"\277L@\211\017@\014\262\346#\220\003\244\231_12\201"
 105      0F400CB2 
 105      E6239003 
 105      A4995F31 
 105      3281
 106 0081 94824DFB 		.ascii	"\224\202M\373\300\304\010\022\003\252PpO\315K-J,IM\211"
 106      C0C40812 
 106      03AA5070 
 106      4FCD4B2D 
 106      4A2C494D 
 107 0096 0FCE2F2D 		.ascii	"\017\316/-JN\215\011\010\316w6\211qtq\216\017\360\325"
 107      4A4E8D09 
 107      08CE7736 
 107      89717471 
 107      8E0FF0D5 
 108 00aa 4B660000 		.ascii	"Kf\000\000F\3307\212"
 108      46D8378A 
 109              		.text
 110              		.section	.gnu.lto_ADC_RestoreConfig.50a2fc17,"",%progbits
 111 0000 789C6361 		.ascii	"x\234ca`d\000\201\032 V\002bi fdf`d\232p\216\201\241"
 111      60640081 
 111      1A205602 
 111      62692066 
 111      64666064 
 112 0019 91838991 		.ascii	"\221\203\211\221\021\304h\340`d\250gb\254g\374\312\364"
 112      11C468E0 
 112      6064A867 
 112      62AC67FC 
 112      CAF4
 113 002b 9789F150 		.ascii	"\227\211\361P\373\263\235L\232\313\033\200\340A\353"
 113      FBB39D4C 
 113      9ACB1B80 
 113      E041EB
 114 003a 23838615 		.ascii	"#\203\206\025\007\030[\231\031\030\3763\201Mb`\\\316"
 114      07185B99 
 114      1918FE33 
 114      814D6260 
 114      5CCE
 115 004c A8C90054 		.ascii	"\250\311\000T\366h\343\277\251\274l- e\012\020I\306"
 115      F668E3BF 
 115      A9BC6C2D 
 115      20650A10 
 115      49C6
ARM GAS  C:\Users\gjl\AppData\Local\Temp\cccntldg.s 			page 8


 116 005e 158C6C20 		.ascii	"\025\214l \353\326\007\035h\370\377\277\271\341\300"
 116      EBD6071D 
 116      68F8FFBF 
 116      B9E1C0
 117 006d 64B683D3 		.ascii	"d\266\203\323\330\2002\037\200\030d\317G&&\020\315\374"
 117      D880321F 
 117      801864CF 
 117      47262610 
 117      CDFC
 118 007f 8A9109A4 		.ascii	"\212\221\011\244\026l\334\007&F\220\030P\205\202{j^"
 118      166CDC07 
 118      26469018 
 118      5085827B 
 118      6A5E
 119 0091 6A516249 		.ascii	"jQbIjJ|p~iQrjL@p\276\263I\214\243\213s|\200\257^2\003"
 119      6A4A7C70 
 119      7E695172 
 119      6A4C4070 
 119      BEB3498C 
 120 00ae 00BC8938 		.ascii	"\000\274\2118:"
 120      3A
 121              		.text
 122              		.section	.gnu.lto_ADC_Sleep.50a2fc17,"",%progbits
 123 0000 789C9554 		.ascii	"x\234\225TMHTQ\024>\347\2767\357g\374\031!\334IH\233"
 123      4D485451 
 123      143EE7BE 
 123      37EF67FC 
 123      1921DC49 
 124 0016 7093116D 		.ascii	"p\223\021mj\027\006\256\002\311E\033A\302f\253 \266"
 124      6A1706AE 
 124      02C9451B 
 124      41C266AB 
 124      20B6
 125 0028 9E37CE4C 		.ascii	"\2367\316L\376`e\213\204Rq\227\232\2323\232\345X\352"
 125      FE60658B 
 125      84527197 
 125      9A9A339A 
 125      E558EA
 126 003b 9BC96C23 		.ascii	"\233\311l#\266\022\012+,h\024\021\323\234\244L\235\316"
 126      B6120A2B 
 126      2C681411 
 126      D39CA44C 
 126      9DCE
 127 004d BDF7F994 		.ascii	"\275\367\371\224J\251\007s\336{\347~\367;\337\375\316"
 127      4AA90773 
 127      DE7BE77E 
 127      F73BDFFD 
 127      CE
 128 005e 79A30202 		.ascii	"y\243\002\002\277\276\250\000'\350^C?\364\002\262\326"
 128      BFBEA800 
 128      27E85E43 
 128      3FF402B2 
 128      D6
 129 006f 5980A0C1 		.ascii	"Y\200\240\301\230\322\222\017\226\327\010\237\003+["
 129      98D2920F 
 129      96D7089F 
 129      032B5B
ARM GAS  C:\Users\gjl\AppData\Local\Temp\cccntldg.s 			page 9


 130 007e 616AE349 		.ascii	"aj\343Iz\363\360\230\255\242&A\236\275\007\215\351b"
 130      7AF3F098 
 130      ADA22641 
 130      9EBD078D 
 130      E962
 131 0090 DD14EB3A 		.ascii	"\335\024\353:\232<\215\206\274\007\015\023\221?X\006"
 131      9A3C8D86 
 131      BC070D13 
 131      913F5806 
 132 00a0 428029AA 		.ascii	"B\200)\252G\323)\025\300ol\207a\262!\025gE\335\026]"
 132      47D32915 
 132      C06F6C87 
 132      61B22115 
 132      6745DD16 
 133 00b5 0B91D5D3 		.ascii	"\013\221\325\323V\217\215\021\005 \303\204:\300n,\002"
 133      568F8D11 
 133      0520C384 
 133      3AC06E2C 
 133      02
 134 00c6 827D8AED 		.ascii	"\202}\212\355\336\315\321\302\034V(\027\261\0075~\204"
 134      DECDD1C2 
 134      1C562817 
 134      B107357E 
 134      84
 135 00d7 C1CBB695 		.ascii	"\301\313\266\225\311\204,{CK\274\323\217)\020QP\345"
 135      C9842C7B 
 135      434BBCD3 
 135      8F291051 
 135      50E5
 136 00e9 41E341A7 		.ascii	"A\343A\247\300\014\376d\362\220\313\203\217\007\200"
 136      C00CFE64 
 136      F290CB83 
 136      8F0780
 137 00f8 3562E1B2 		.ascii	"5b\341\262\326\031\343w%\205\311\255\346\325\366:N\034"
 137      D619E377 
 137      2585C9AD 
 137      E6D5F63A 
 137      4E1C
 138 010a 52142ADA 		.ascii	"R\024*\332\026I\276\326\323,\242\020\234^\267\267:\323"
 138      1649BED6 
 138      D32CA210 
 138      9C5EB7B7 
 138      3AD3
 139 011c 39F2356A 		.ascii	"9\3625j-\005UJ5/\214Ofuag0L\252U|\210\005\330\213\005"
 139      2D05554A 
 139      352F8C4F 
 139      66756167 
 139      304CAA55 
 140 0136 24AE0FBB 		.ascii	"$\256\017\273\020R\030\372\256I:\325a\334m\274\3178"
 140      105218FA 
 140      AE493AD5 
 140      61DC6DBC 
 140      CF38
 141 0148 05223F8A 		.ascii	"\005\"?\212\201\375\204\246\302m\310aG\021\016\020!"
 141      81FD84A6 
 141      C26DC861 
 141      47110E10 
ARM GAS  C:\Users\gjl\AppData\Local\Temp\cccntldg.s 			page 10


 141      21
 142 0159 D18050B9 		.ascii	"\321\200P\271\331~F\322\362-\033?{[=R\226\345\310z0"
 142      D97E46D2 
 142      F22D1B3F 
 142      7B5B3D52 
 142      96E5C87A 
 143 016e F736A1EE 		.ascii	"\3676\241\356\263<rY\006\245\254\372\257\0153\036\311"
 143      B33C7259 
 143      06A5ACFA 
 143      AF0D331E 
 143      C9
 144 017f A013097C 		.ascii	"\240\023\011|\304\360l\350\270\2238xp\206\200Q\276\023"
 144      C4F06CE8 
 144      B8933878 
 144      70868051 
 144      BE13
 145 0191 B84F0AB4 		.ascii	"\270O\012\264\344K\233\246;\316K\264Ah\353\366\330\007"
 145      E44B9BA6 
 145      3BCE4BB4 
 145      4168EBF6 
 145      D807
 146 01a3 9F141076 		.ascii	"\237\024\020v\004\244\373\337l\0368F\314\0250\344\370"
 146      04A4FBDF 
 146      6C1E3846 
 146      CC1530E4 
 146      F8
 147 01b4 B27D6345 		.ascii	"\262}cE\225\014\246$Y\\\355o\321\367\234Qq\230\320\244"
 147      950CA624 
 147      595CED6F 
 147      D1F79C51 
 147      7198D0A4 
 148 01c8 6A3E54ED 		.ascii	"j>T\355\240\0102\270\022\377\221#!\200\217]U*L{IU}:"
 148      A00832B8 
 148      12FF9123 
 148      21808F5D 
 148      552A4C7B 
 149 01e0 FA39613A 		.ascii	"\3729a:6\272\007\360\210\316\305\343+\363z`\307j\264"
 149      36BA07F0 
 149      88CEC5E3 
 149      2BF37A60 
 149      C76AB4
 150 01f3 AC3CCA35 		.ascii	"\254<\3125\321\200\361\364\362\314\334\224\227\253\264"
 150      D180F1F4 
 150      F2CCDC94 
 150      97ABB4
 151 0202 445EC327 		.ascii	"D^\303'4\225#\234\230\026o\215F\233\214\342\001\336"
 151      3495239C 
 151      98166F8D 
 151      469B8CE2 
 151      01DE
 152 0214 26AB32A2 		.ascii	"&\2532\242\350\370\224\244\357\212\261\304Q,&DS\307"
 152      E8F894A4 
 152      EF8AB1C4 
 152      512C2644 
 152      53C7
 153 0226 BD3E5144 		.ascii	"\275>QDG\005\343B\317:\363\270j\026]5\377Z~\354\250"
 153      4705E342 
ARM GAS  C:\Users\gjl\AppData\Local\Temp\cccntldg.s 			page 11


 153      CF3AF3B8 
 153      6A165D35 
 153      FF5A7EEC 
 154 023b F2CFF6CB 		.ascii	"\362\317\366\313?\027\345G\032fb^Y\036q\334)\257\361"
 154      3F17E547 
 154      1A66625E 
 154      591E71DC 
 154      29AFF1
 155 024e 162D61C8 		.ascii	"\026-a\310\216\275\312\346\325\377<\275\221\241\246"
 155      8EBDCAE6 
 155      D5FF3CBD 
 155      91A1A6
 156 025d 024E6080 		.ascii	"\002N`\200>\003\0238vH?\024J\005q\322\201\212\316\247"
 156      3E031338 
 156      76483F14 
 156      4A0571D2 
 156      818ACEA7 
 157 0271 3A9DCEE7 		.ascii	":\235\316\347\0365g\266\333\346\264\"\341>\271c\370"
 157      1E3567B6 
 157      DBE6B422 
 157      E13EB963 
 157      F8
 158 0282 CECD89DC 		.ascii	"\316\315\211\334\2756\333\200\211\337\372\354;\320X"
 158      BD36DB80 
 158      89DFFAEC 
 158      3BD058
 159 0291 9D5B49FA 		.ascii	"\235[I\372\362\376\256\316\233\241\201\004L\012uYb\207"
 159      F2FEAECE 
 159      9BA18104 
 159      4C0A7559 
 159      6287
 160 02a3 01E173D2 		.ascii	"\001\341s\322\374\315\340\377\232\377\342\020\363\257"
 160      FCCDE0FF 
 160      9AFFE210 
 160      F3AF
 161 02b1 7083A7F6 		.ascii	"p\203\247\366\315\177)\314w\007L\247Y\234v\3147\305"
 161      CD7F29CC 
 161      77074CA7 
 161      599C76CC 
 161      37C5
 162 02c3 FFC832D6 		.ascii	"\377\3102\326\333\357K\205f~\255\221\335\224\246\315"
 162      DBEF4B85 
 162      667EAD91 
 162      DD94A6CD 
 163 02d3 85A5FE6A 		.ascii	"\205\245\376j\177\355\325:\377\265\312\362\232\353\265"
 163      7FEDD53A 
 163      FFB5CAF2 
 163      9AEBB5
 164 02e2 55FE8AB2 		.ascii	"U\376\212\262\362\232\222\263\025\027.\226T\226]:U\005"
 164      F29A92B3 
 164      15172E96 
 164      54965D3A 
 164      5505
 165 02f4 BF0060E1 		.ascii	"\277\000`\341\274Z"
 165      BC5A
 166              		.text
 167              		.section	.gnu.lto_ADC_Wakeup.50a2fc17,"",%progbits
ARM GAS  C:\Users\gjl\AppData\Local\Temp\cccntldg.s 			page 12


 168 0000 789C7D92 		.ascii	"x\234}\222\317KTQ\024\307\317\271\367\375\232\227\023"
 168      CF4B5451 
 168      14C7CFB9 
 168      F7FD9A97 
 168      13
 169 0011 EE5A2422 		.ascii	"\356Z$\"m\302E\015A\377@\030\005Q \271\025$l\266\011"
 169      6DC2450D 
 169      41FF4018 
 169      055120B9 
 169      15246CB6 
 170 0026 62BB60EE 		.ascii	"b\273`\356\370\346\221\012\206-\264M\"\264p\034\313"
 170      F8E6910A 
 170      862DB44D 
 170      22B4701C 
 170      CB
 171 0037 6626FBE1 		.ascii	"f&\373\341\213~\214C\313H\002]\204\020\0264\310 ehY"
 171      8B7E8C43 
 171      CB48025D 
 171      84101634 
 171      C8206568 
 172 004c A6BECE79 		.ascii	"\246\276\316ywH)\354\302\375\375=\337s\356\207k\000"
 172      774829EC 
 172      C2FDFD3D 
 172      DF73EE87 
 172      6B00
 173 005e 02B72F02 		.ascii	"\002\267/\002\340\010\315\347\251\243\015(\206\336\000"
 173      E008CDE7 
 173      A9A30D28 
 173      86DE00
 174 006d A41D21E4 		.ascii	"\244\035!\344|\002\224k=k\004U'\205\321w\224v&\217u"
 174      7C02946B 
 174      3D6B0455 
 174      2785D177 
 174      9476268F 
 175 0082 069A5A64 		.ascii	"\006\232Zd\242\305\013\264\020yV\016BJH\303\2640\205"
 175      A2C50BB4 
 175      1079560E 
 175      424A48C3 
 175      B43085
 176 0095 DFC4B6C0 		.ascii	"\337\304\266\300\362\365J \232\263\212\332\322\247\361"
 176      F2F54A20 
 176      9AB38ADA 
 176      D2A7F1
 177 00a4 136AA284 		.ascii	"\023j\242\204\276\004\010E\224\0320\213\315@\262\217"
 177      BE040845 
 177      941A308B 
 177      CD40B28F 
 178 00b4 C59DE1B8 		.ascii	"\305\235\341\270\225aY\223\276\304\0112\2459\177\261"
 178      95615993 
 178      BEC40932 
 178      A5397FB1 
 179 00c4 A4C2D053 		.ascii	"\244\302\320S\245\300\235\375\356\306\005\370\022\015"
 179      A5C09DFD 
 179      EEC605F8 
 179      120D
 180 00d2 1A84C983 		.ascii	"\032\204\311\203\315[\207W1\036\000V\251s%_\205\340"
 180      CD5B8757 
ARM GAS  C:\Users\gjl\AppData\Local\Temp\cccntldg.s 			page 13


 180      311E0056 
 180      A973255F 
 180      85E0
 181 00e4 5956B0BC 		.ascii	"YV\260\2749\3609\327\303v\2364(\325\210_\236\263\327"
 181      39F039D7 
 181      C3769E34 
 181      28D5885F 
 181      9EB3D7
 182 00f7 852F2572 		.ascii	"\205/%r\346\255\315\321\365\270\336\026\324r\232\025"
 182      E6ADCDD1 
 182      F5B8DE16 
 182      D4729A15 
 183 0107 034BCF5F 		.ascii	"\003K\317_\036\030\303\321t\206j5p\022\0330\207\015"
 183      1E18C3D1 
 183      74866A35 
 183      70121B30 
 183      870D
 184 0119 54D25D1C 		.ascii	"T\322]\034C\250\240\267ei;S;\372\203S\267\\\266\020"
 184      43A8A0B7 
 184      65693B53 
 184      3BFA8353 
 184      B75CB610 
 185 012d 1852B3F1 		.ascii	"\030R\263\361\036\251)\361\010\262\354\177\206SdH6$"
 185      1EA929F1 
 185      08B2EC7F 
 185      86536448 
 185      3624
 186 013f EE7D5A9C 		.ascii	"\356}Z\234\273cj[{o\225fTe\020\254,\332\251m\325\247"
 186      BB636A5B 
 186      7B6F9566 
 186      546510AC 
 186      2CDAA96D 
 187 0155 543D9DF5 		.ascii	"T=\235\365\023B>\256\276^x\345\262\261\212\316-\314"
 187      13423EAE 
 187      BE5E78E5 
 187      B2B18ACE 
 187      2DCC
 188 0167 13F7FB6C 		.ascii	"\023\367\373lM\2277f\012\375N\342\230/m,P\236\235\010"
 188      4D973766 
 188      0AFD4EE2 
 188      982F6D2C 
 188      509E9D08 
 189 017b 39163101 		.ascii	"9\0261\001\0370\263\3505\356&\313\257\004?#\006\210"
 189      1F30B3E8 
 189      35EE26CB 
 189      AF043F23 
 189      0688
 190 018d 800F381C 		.ascii	"\200\0178\034\230\240\204\371\204\344\347\236\001O\012"
 190      98A084F9 
 190      84E4E79E 
 190      014F0A
 191 019c 2D7D9B29 		.ascii	"-}\233)\334\226Zj\3404I#\257\354\360a\355&\366\204\033"
 191      DC965A6A 
 191      E0344923 
 191      AFECF061 
 191      ED26F684 
 192 01b1 503DA4F9 		.ascii	"P=\244\371\277\237\274\246\257\035rX\373\225\03325p"
ARM GAS  C:\Users\gjl\AppData\Local\Temp\cccntldg.s 			page 14


 192      BF9FBCA6 
 192      AF1D7258 
 192      FB951B32 
 192      3570
 193 01c3 55033EBE 		.ascii	"U\003>\276\360n\326\330\345\363\360\017\237G5\340?j"
 193      F06ED6D8 
 193      E5F3F00F 
 193      9F4735E0 
 193      3F6A
 194 01d5 C063DA62 		.ascii	"\300c\332b\372\346\340\213\203\032\270R%\300\307\177"
 194      FAE6E08B 
 194      831AB852 
 194      25C0C77F 
 195 01e5 F1DED7EF 		.ascii	"\361\336\327\357I\304;\026\225g\362\353\226\321\253"
 195      49C43B16 
 195      9567F2EB 
 195      96D1AB
 196 01f4 E7A07F19 		.ascii	"\347\240\177\031;\241\240\357\2073\230\242\217\245#"
 196      3BA1A0EF 
 196      873398A2 
 196      8FA523
 197 0203 ACE84755 		.ascii	"\254\350GU\261\267\264q.\012\342\266J2:&\270Mg\223W"
 197      B1B7B471 
 197      2E0AE2B6 
 197      4A323A26 
 197      B84D6793 
 198 0218 92DD977A 		.ascii	"\222\335\227z\222\227;\332\272\256vw&\333[\333\272Z"
 198      92973BDA 
 198      BAAE7677 
 198      26DB5BDB 
 198      BA5A
 199 022a 4EB69F3A 		.ascii	"N\266\237:\335\322\321z\341x'\374\006Z\273\010\346"
 199      DDD2D17A 
 199      E17827FC 
 199      065ABB08 
 199      E6
 200              		.text
 201              		.section	.gnu.lto_.symbol_nodes.50a2fc17,"",%progbits
 202 0000 789C5DCC 		.ascii	"x\234]\314\261\015\302@\014@\321o\373.\271\204\216\216"
 202      B10DC240 
 202      0C40D16F 
 202      FB2EB984 
 202      8E8E
 203 0012 0E76603F 		.ascii	"\016v`?_\021A\313\012\240\254@\001\013 Q\300\012\010"
 203      5F1141CB 
 203      0AA0AC40 
 203      010B2051 
 203      C00A08
 204 0025 C41A8810 		.ascii	"\304\032\210\020Qp\270\261\376\263\344\200\360`\030"
 204      5170B8B1 
 204      FEB3E480 
 204      F06018
 205 0034 6D1D3617 		.ascii	"m\0356\027p\344\320m\363\034\242\220\247`:q\371;\251"
 205      70E4D06D 
 205      F31CA290 
 205      A7603A71 
 205      F93BA9
ARM GAS  C:\Users\gjl\AppData\Local\Temp\cccntldg.s 			page 15


 206 0047 BA7E8963 		.ascii	"\272~\211c^\014`n%\004\017%D\217\005H\362j\004\310\237"
 206      5E0C606E 
 206      25040F25 
 206      448F0548 
 206      F26A04C8 
 207 005c 9FD2785D 		.ascii	"\237\322x]t\355\251\350\312\233\3376M\364\373\245iM"
 207      74EDA9E8 
 207      CA9BDF36 
 207      4DF4FBA5 
 207      694D
 208 006e 7F7B89C5 		.ascii	"\177{\211\305\226n}\015\026\033\372q\303\356|R\253\224"
 208      966E7D0D 
 208      161BFA71 
 208      C3EE7C52 
 208      AB94
 209 0080 FBEA39E3 		.ascii	"\373\3529\343\015\25293^"
 209      0DAA3933 
 209      5E
 210              		.text
 211              		.section	.gnu.lto_.refs.50a2fc17,"",%progbits
 212 0000 789C0DC8 		.ascii	"x\234\015\310\261\001\000\020\020\004\301\335\363> "
 212      B1010010 
 212      1004C1DD 
 212      F33E20
 213 000f 5380FECB 		.ascii	"S\200\376\313d\302)\344\002\001K\333`\306\324\245[\217"
 213      64C229E4 
 213      02014BDB 
 213      60C6D4A5 
 213      5B8F
 214 0021 FD9F0709 		.ascii	"\375\237\007\0114\000z"
 214      34007A
 215              		.text
 216              		.section	.gnu.lto_.decls.50a2fc17,"",%progbits
 217 0000 789C8D55 		.ascii	"x\234\215UkL\024W\024\2363\263\310:\354\202\325\246"
 217      6B4C1457 
 217      149E33B3 
 217      C83AEC82 
 217      D5A6
 218 0012 21CD36A1 		.ascii	"!\3156\241F\303&M\250h\233\370\247I-\2666i\332\022\021"
 218      46C3264D 
 218      A8689BF8 
 218      A7492DB6 
 218      3669DA12 
 219 0027 9A26B616 		.ascii	"\232&\266\026qj\215\006\020\027\023\373\247W\300HM\332"
 219      716A8D06 
 219      101713FB 
 219      A757C048 
 219      4DDA
 220 0039 8AB63EB1 		.ascii	"\212\266>\261<,\026d\205U\344\345\203]\265\342\212\242"
 220      3C2C1664 
 220      8555E4E5 
 220      835DB5E2 
 220      8AA2
 221 004b 2058B580 		.ascii	" X\265\200.Rm\215\255\245j\243\030\351\366\334\307\354"
 221      2E526D8D 
 221      ADA56AA3 
 221      18E9F6DC 
ARM GAS  C:\Users\gjl\AppData\Local\Temp\cccntldg.s 			page 16


 221      C7EC
 222 005d CC9ADDC6 		.ascii	"\314\232\335\306\233=3\367\334{\276\357;\367\236;w-"
 222      9B3D33F7 
 222      DC7BBEEF 
 222      3BF79E3B 
 222      772D
 223 006f 1248B4AD 		.ascii	"\022H\264\255\264J\322\253\330u\312\222\024\304\206"
 223      B44AD2AB 
 223      D875CA92 
 223      14C486
 224 007e AE942519 		.ascii	"\256\224%\031ME\333\207\346AkBkFkEkG;\214v\024\315\213"
 224      4D45DB87 
 224      E6416B42 
 224      6B466B45 
 224      6B473B8C 
 225 0096 760C8D32 		.ascii	"v\014\2152\236\227\302\033\305\352\234\311h\016\264"
 225      9E97C21B 
 225      C5EA9CC9 
 225      680EB4
 226 00a5 01B42B68 		.ascii	"\001\264+h\203h\335h~\201=-\336\373\242pQ_\026\034\335"
 226      8368DD68 
 226      7E813D2D 
 226      DEFBA270 
 226      515F161C 
 227 00ba 264CA446 		.ascii	"&L\244F\363\215\025\2724~\010\355@\024ME\304\353\353"
 227      F38D15BA 
 227      347E08ED 
 227      40144D45 
 227      C4EBEB
 228 00cd 89A4DD24 		.ascii	"\211\244\335$\306\365\275\0011\366dk\216\020\327\034"
 228      C6F5BD01 
 228      31F6646B 
 228      8E10D71C 
 229 00dd 218EEEA1 		.ascii	"!\216\356\241M2\366\345\252\024y_\364\274\207\321\334"
 229      4D32F6E5 
 229      AA14795F 
 229      F4BC87D1 
 229      DC
 230 00ee A69C2D82 		.ascii	"\246\234-\202\203\356;\335\377h{F\353\244\232\366!9"
 230      83EE3BDD 
 230      FF687B46 
 230      EBA49AF6 
 230      2139
 231 0100 8ACE75B4 		.ascii	"\212\316u\264F\023\277,\260\236(\274\3432\364\224t\266"
 231      4613BF2C 
 231      B09E28BC 
 231      E332F494 
 231      74B6
 232 0112 5A07E00A 		.ascii	"Z\007\340\012\310 \016\223\004\300\237\300L\342\306"
 232      C8200E93 
 232      04C09FC0 
 232      4CE2C6
 233 0121 5CECC8EC 		.ascii	"\\\354\310\354)\205\206B/\211>%\036\317\306\0142\366"
 233      29858642 
 233      2F893E25 
 233      1ECFC60C 
 233      32F6
ARM GAS  C:\Users\gjl\AppData\Local\Temp\cccntldg.s 			page 17


 234 0133 D3DF41BD 		.ascii	"\323\337A\2751\022\203\035\004\010B\031p\024\237\227"
 234      3112831D 
 234      04084219 
 234      70149F97 
 235 0143 7556FE92 		.ascii	"uV\376\222\015\200\211\217\247k\312\011\302\327\004"
 235      0D80898F 
 235      A76BCA09 
 235      C2D704
 236 0152 FAA2EBDB 		.ascii	"\372\242\353\333\376\374\332\242\340\212\261\177m\254"
 236      FEFCDAA2 
 236      E08AB17F 
 236      6DAC
 237 0160 F6AD1437 		.ascii	"\366\255\0247\301\266\221\020\371%cgN\006\037\370\022"
 237      C1B69110 
 237      F9256367 
 237      4E061FF8 
 237      12
 238 0171 EECB3059 		.ascii	"\356\3130Y\005\031\335\013\243gw\305\241\373\254\012"
 238      0519DD0B 
 238      A36777C5 
 238      A1FBAC0A 
 239 0181 93D0BDDD 		.ascii	"\223\320\275\335\261=hO\334Bq\244\230$\311\220\365\034"
 239      B13D684F 
 239      DC4271A4 
 239      9824C990 
 239      F51C
 240 0193 D48303F6 		.ascii	"\324\203\003\366\002\026\010\334\220\210\317\305\026"
 240      021608DC 
 240      9088CFC5 
 240      16
 241 01a0 CEB476BC 		.ascii	"\316\264v\274\225\310S+\211\317C\002c\001\373\226\342"
 241      95C8532B 
 241      89CF4302 
 241      6301FB96 
 241      E2
 242 01b1 925A44CD 		.ascii	"\222ZD\315\240QP\013\012\324A\012\315\016\273\364\365"
 242      A051500B 
 242      0AD4410A 
 242      CD0EBBF4 
 242      F5
 243 01c2 230C60DA 		.ascii	"#\014`\332\373`*\"\277\3559\265VV^c\211\376\277bc\230"
 243      FB602A22 
 243      BFED39B5 
 243      56565E63 
 243      89FEBF62 
 244 01d8 62D5C8A3 		.ascii	"b\325\310\243\0231\\\321\327\322e+\355A\314'4\006\032"
 244      13315CD1 
 244      D7D2652B 
 244      ED41CC27 
 244      34061A
 245 01eb 0CBD06B3 		.ascii	"\014\275\006\263\236\207\351\025\365\327w\304)\357?"
 245      9E87E915 
 245      F5D777C4 
 245      29EF3F
 246 01fa 85DE8130 		.ascii	"\205\336\2010\275Sc\345\303\261\250\347A\2756\215\254"
 246      BD5363E5 
 246      C3B1A8E7 
ARM GAS  C:\Users\gjl\AppData\Local\Temp\cccntldg.s 			page 18


 246      41BD368D 
 246      AC
 247 020b 43888586 		.ascii	"C\210\205\206\300~Cn\277Y\256\211\311\335\257x\374\017"
 247      C07E436E 
 247      BF59AE89 
 247      C9DDAF78 
 247      FC0F
 248 021d 281F33B9 		.ascii	"(\0373\271K\017\326\267\313\202bc\247\215\320\224_g"
 248      4B0FD6B7 
 248      CB826263 
 248      A78DD094 
 248      5F67
 249 022f 1C070D8E 		.ascii	"\034\007\015\216\203f\216f\306\341\335\344\355\223\225"
 249      83668E66 
 249      C6E1DDE4 
 249      ED9395
 250 023e 7C5ECB13 		.ascii	"|^\313\023_]\264!G%r\214r\216J\316\321bp\264\2309Z\031"
 250      5F5DB421 
 250      4725728C 
 250      728E4ACE 
 250      D16270B4 
 251 0256 C7B1FB67 		.ascii	"\307\261\373g*\354\312\347\214c\323\336m\263\005\005"
 251      2AECCAE7 
 251      8C63D3DE 
 251      6DB30505 
 252 0266 EE9C89A2 		.ascii	"\356\234\211\242\315\240h3S\2643\212\037\266\326|\037"
 252      CDA06833 
 252      53B4338A 
 252      1FB6D67C 
 252      1F
 253 0277 ABAC03C6 		.ascii	"\253\254\003\306\341\366W_\264\"I\200\220@O\327G\233"
 253      E1F6575F 
 253      B4224980 
 253      90404FD7 
 253      479B
 254 0289 8A2B9D8C 		.ascii	"\212+\235\214\342\220Aq\210Q`\3470\203\337\270\323\201"
 254      E2904171 
 254      885160E7 
 254      3083DFB8 
 254      D381
 255 029b 230D1C5E 		.ascii	"#\015\034^\327\261\343\226\235\303}\017\273l\276t\006"
 255      D7B1E396 
 255      9DC37D0F 
 255      BB6CBE74 
 255      06
 256 02ac 3E62808F 		.ascii	">b\200\217\350\340\243\014\374{\215\333\255(^\016>S"
 256      E8E0A30C 
 256      FC7B8DDB 
 256      AD285E0E 
 256      3E53
 257 02be 74EFA64D 		.ascii	"t\357\246M\200\357\206\300\035\006\270C\007{\031\370"
 257      80EF86C0 
 257      1D06B843 
 257      077B19F8 
 258 02ce FC97BBBA 		.ascii	"\374\227\273\272d\305\317\301W\036\372\374\011\002\374"
 258      64C5CFC1 
 258      571EFAFC 
ARM GAS  C:\Users\gjl\AppData\Local\Temp\cccntldg.s 			page 19


 258      0902FC
 259 02dd 2804F619 		.ascii	"(\004\366\031`\237\016>\306\300U\217\317m\226\225\313"
 259      609F0E3E 
 259      C6C0558F 
 259      CF6D9695 
 259      CB
 260 02ee 1C7C7CCB 		.ascii	"\034||\313`\277M\031\341N\343\272_\353\254\370\2718"
 260      60BF4D19 
 260      E14EE3BA 
 260      5FEBACF8 
 260      B938
 261 0300 540802F5 		.ascii	"T\010\002\365\377h\037\263s\237No/\033\3717N\371\213"
 261      FF681FB3 
 261      739F4E6F 
 261      2F1BF937 
 261      4EF98B
 262 0313 C5CA7D23 		.ascii	"\305\312}#\365\267,\340T\367\320\243\026\030\370&s\353"
 262      F5B72CE0 
 262      54F7D0A3 
 262      1618F826 
 262      73EB
 263 0325 7AFC14C1 		.ascii	"z\374\024\301\017*t\032\322\016z\003\226\022RDF\253"
 263      0F2A741A 
 263      D20E7A03 
 263      96125244 
 263      46AB
 264 0337 C9844409 		.ascii	"\311\204D\011f9`\206C\202S\340\244\2544\012N\342\371"
 264      66396086 
 264      438253E0 
 264      A4AC340A 
 264      4EE2F9
 265 034a FC09CFE7 		.ascii	"\374\011\317\347\270\254\364w\266\326\304\301\264)\316"
 265      B8ACF477 
 265      B6D6C4C1 
 265      B429CE
 266 0359 6A0A09F4 		.ascii	"j\012\011\364n\230\266\263\001\017\362\004F{\002i\273"
 266      6E98B6B3 
 266      010FF204 
 266      467B0269 
 266      BB
 267 036a 608A4EF1 		.ascii	"`\212N\3612=\321\251\364f-\243)\214\026\021\002+u\001"
 267      323DD1A9 
 267      F4662DA3 
 267      298C1611 
 267      022B7501 
 268 037e 8945223D 		.ascii	"\211E\"=\234A\245\3230\215m\000\313\3257\276\204\020"
 268      9C41A5D3 
 268      308D6D00 
 268      CBD537BE 
 268      8410
 269 0390 2B9D9744 		.ascii	"+\235\227D\226\342\356\370n\347h\015([\331\015#\337"
 269      96E2EEF8 
 269      6EE7680D 
 269      285BD90D 
 269      23DF
 270 03a2 79787AE7 		.ascii	"yxz\347D\230\342\214\300\015\347\2202:\375f;nC7N\237"
 270      4498E28C 
ARM GAS  C:\Users\gjl\AppData\Local\Temp\cccntldg.s 			page 20


 270      C00DE790 
 270      323AFD66 
 270      3B6E4337 
 271 03b8 35B6818A 		.ascii	"5\266\201\2121\215\273U\336n\333\364\335x>\351\255\362"
 271      318DBB55 
 271      DE6EDBF4 
 271      DD783EE9 
 271      ADF2
 272 03ca E1BD2292 		.ascii	"\341\275\"\222\310b\217\363\330P\366\324_\200\327\366"
 272      C8628FF3 
 272      D850F6D4 
 272      5F80D7F6 
 273 03da 79988EA8 		.ascii	"y\230\216\250\336\022O\271\302o5\013\272\177w\357\030"
 273      DE124FB9 
 273      C26F350B 
 273      BA7F77EF 
 273      18
 274 03eb 89E7B75A 		.ascii	"\211\347\267Z\022\272C\376\272z:\233\214U\303\226`*"
 274      12BA43FE 
 274      BA7A3A9B 
 274      8C55C396 
 274      602A
 275 03fd 5C322F5C 		.ascii	"\\2/\\\327\265\033w'*u|e-\273+\356\305\200\352dU\331"
 275      D7B51B77 
 275      272A757C 
 275      652DBB2B 
 275      EEC580EA 
 276 0414 584C26FB 		.ascii	"XL&\373\343%\350\305\032\364`\015\340g\\O\262(L\037"
 276      E325E8C5 
 276      1AF4600D 
 276      E0675C4F 
 276      B2284C1F 
 277 0428 0E5EC041 		.ascii	"\016^\300A\275\304Y\274\304\027\261\026\375\306\332"
 277      BDC459BC 
 277      C417B116 
 277      FDC6DA
 278 0437 9255BEB4 		.ascii	"\222U\276\264C\356\306m\212ZJ\357\235\247b\245\220\253"
 278      43EEC66D 
 278      8A5A4AEF 
 278      9DA762A5 
 278      90AB
 279 0449 A43C46F1 		.ascii	"\244<F\361\360\274\332\333n\273\343y^\021\030~\211\226"
 279      F0BCDADB 
 279      6EBBE379 
 279      5E11187E 
 279      8996
 280 045b 976FFCB7 		.ascii	"\227o\374\267\267K\260<\370o\250\302e#\255K \362j\361"
 280      B74BB03C 
 280      F86FA8C2 
 280      6523AD4B 
 280      20F26AF1 
 281 046f F736C7DA 		.ascii	"\3676\307\3326\030\253e\221:\261\204\327\201\215}\034"
 281      3618AB65 
 281      913AB184 
 281      D7818D7D 
 281      1C
 282 0480 F8C6E8B1 		.ascii	"\370\306\350\261=\025E\366\260hZ\036#zPD\017\262\350"
ARM GAS  C:\Users\gjl\AppData\Local\Temp\cccntldg.s 			page 21


 282      3D1545F6 
 282      B0685A1E 
 282      237A5044 
 282      0FB2E8
 283 0493 9BB54D95 		.ascii	"\233\265M\225\361a\321\364\3233\242\207\300\246\347"
 283      F161D1F4 
 283      D333A287 
 283      C0A6E7
 284 04a2 3344014A 		.ascii	"3D\001J\271\267\257U\001\325\001\030\002\245\354\017"
 284      B9B7AF55 
 284      01D50118 
 284      02A5EC0F 
 285 04b2 EC89954A 		.ascii	"\354\211\225Jp\225f\016\001\364\257\241\277\203`\330"
 285      7095660E 
 285      01F4AFA1 
 285      BF8360D8 
 286 04c2 6830F845 		.ascii	"h0\370E0\030\313\246\330\000)\253\236[Z\366<\033\240"
 286      3018CBA6 
 286      D80029AB 
 286      9E5B5AF6 
 286      3C1BA0
 287 04d5 8F88B9B8 		.ascii	"\217\210\271\270\303r\031\026\231\017G\311\2741,\372"
 287      C3721916 
 287      990F47C9 
 287      BC312CFA 
 288 04e5 BA88A6EF 		.ascii	"\272\210\246\357Is\346\246-\312X\241i\371)\371\331\005"
 288      4973E6A6 
 288      2DCA58A1 
 288      69F929F9 
 288      D905
 289 04f7 AE9419D6 		.ascii	"\256\224\031\326y\357e&\245\245\246JI\363\264\\\255"
 289      79EF6526 
 289      A5A5A64A 
 289      49F3B45C 
 289      AD
 290 0508 20DBA52D 		.ascii	" \333\245-Y\224\221WX\220\243-L\317\310K{e!\005\244"
 290      59949157 
 290      5890A32D 
 290      4CCFC84B 
 290      7B652105 
 291 051d BF9B9223 		.ascii	"\277\233\222#=C{\037d/\327\012\00565\236\221e\257\326"
 291      3D437B1F 
 291      642FD70A 
 291      0536359E 
 291      9165AFD6 
 292 0531 D2F2723F 		.ascii	"\322\362r?]\266\224\005\314\327V\271\362\012\304\310"
 292      5DB69405 
 292      CCD756B9 
 292      F20AC4C8 
 293 0541 C4909A6A 		.ascii	"\304\220\232j\200Y\367\315\334\354\305+\264\027\242"
 293      8059F7CD 
 293      DCECC52B 
 293      B417A2
 294 0550 6BA67C26 		.ascii	"k\246|&ru\241\024\262\255\326\012\\V>\220\227\237\240"
 294      7275A114 
 294      B2ADD60A 
 294      5C563E90 
ARM GAS  C:\Users\gjl\AppData\Local\Temp\cccntldg.s 			page 22


 294      979FA0
 295 0563 77C404A3 		.ascii	"w\304\004\243\\\234\235\263\2740?Nc\314\010si1\205\313"
 295      5C9C9DB3 
 295      BC303F4E 
 295      63CC0873 
 295      693185CB 
 296 0577 725DB35F 		.ascii	"r]\263_\214\"\222\263\306\265&_[\205B,\3617\346\244"
 296      8C2292B3 
 296      C6B5265F 
 296      5B85422C 
 296      F137E6A4 
 297 058b BD9399BE 		.ascii	"\275\223\231\276(c\301\374\314\264\005\023(r\326\314"
 297      2863C1FC 
 297      CCB40513 
 297      2872D6CC 
 298 059b 98026DE9 		.ascii	"\230\002m\351\254\231\377\001\316U\014\275"
 298      AC99FF01 
 298      CE550CBD 
 299              		.text
 300              		.section	.gnu.lto_.symtab.50a2fc17,"",%progbits
 301 0000 4144435F 		.ascii	"ADC_SaveConfig\000"
 301      53617665 
 301      436F6E66 
 301      696700
 302 000f 00       		.ascii	"\000"
 303 0010 00       		.ascii	"\000"
 304 0011 00       		.ascii	"\000"
 305 0012 00000000 		.ascii	"\000\000\000\000\000\000\000\000"
 305      00000000 
 306 001a B3000000 		.ascii	"\263\000\000\000"
 307 001e 4144435F 		.ascii	"ADC_RestoreConfig\000"
 307      52657374 
 307      6F726543 
 307      6F6E6669 
 307      6700
 308 0030 00       		.ascii	"\000"
 309 0031 00       		.ascii	"\000"
 310 0032 00       		.ascii	"\000"
 311 0033 00000000 		.ascii	"\000\000\000\000\000\000\000\000"
 311      00000000 
 312 003b B5000000 		.ascii	"\265\000\000\000"
 313 003f 4144435F 		.ascii	"ADC_Sleep\000"
 313      536C6565 
 313      7000
 314 0049 00       		.ascii	"\000"
 315 004a 00       		.ascii	"\000"
 316 004b 00       		.ascii	"\000"
 317 004c 00000000 		.ascii	"\000\000\000\000\000\000\000\000"
 317      00000000 
 318 0054 B7000000 		.ascii	"\267\000\000\000"
 319 0058 4144435F 		.ascii	"ADC_Wakeup\000"
 319      57616B65 
 319      757000
 320 0063 00       		.ascii	"\000"
 321 0064 00       		.ascii	"\000"
 322 0065 00       		.ascii	"\000"
 323 0066 00000000 		.ascii	"\000\000\000\000\000\000\000\000"
ARM GAS  C:\Users\gjl\AppData\Local\Temp\cccntldg.s 			page 23


 323      00000000 
 324 006e B9000000 		.ascii	"\271\000\000\000"
 325 0072 4144435F 		.ascii	"ADC_Enable\000"
 325      456E6162 
 325      6C6500
 326 007d 00       		.ascii	"\000"
 327 007e 02       		.ascii	"\002"
 328 007f 00       		.ascii	"\000"
 329 0080 00000000 		.ascii	"\000\000\000\000\000\000\000\000"
 329      00000000 
 330 0088 BB000000 		.ascii	"\273\000\000\000"
 331 008c 4144435F 		.ascii	"ADC_StartConvert\000"
 331      53746172 
 331      74436F6E 
 331      76657274 
 331      00
 332 009d 00       		.ascii	"\000"
 333 009e 02       		.ascii	"\002"
 334 009f 00       		.ascii	"\000"
 335 00a0 00000000 		.ascii	"\000\000\000\000\000\000\000\000"
 335      00000000 
 336 00a8 BD000000 		.ascii	"\275\000\000\000"
 337 00ac 4144435F 		.ascii	"ADC_Stop\000"
 337      53746F70 
 337      00
 338 00b5 00       		.ascii	"\000"
 339 00b6 02       		.ascii	"\002"
 340 00b7 00       		.ascii	"\000"
 341 00b8 00000000 		.ascii	"\000\000\000\000\000\000\000\000"
 341      00000000 
 342 00c0 BF000000 		.ascii	"\277\000\000\000"
 343 00c4 4144435F 		.ascii	"ADC_StopConvert\000"
 343      53746F70 
 343      436F6E76 
 343      65727400 
 344 00d4 00       		.ascii	"\000"
 345 00d5 02       		.ascii	"\002"
 346 00d6 00       		.ascii	"\000"
 347 00d7 00000000 		.ascii	"\000\000\000\000\000\000\000\000"
 347      00000000 
 348 00df C1000000 		.ascii	"\301\000\000\000"
 349              		.text
 350              		.section	.gnu.lto_.opts,"",%progbits
 351 0000 272D666D 		.ascii	"'-fmath-errno' '-fsigned-zeros' '-ftrapping-math' '"
 351      6174682D 
 351      6572726E 
 351      6F272027 
 351      2D667369 
 352 0033 2D666E6F 		.ascii	"-fno-trapv' '-fno-openmp' '-fno-openacc' '-mcpu=cor"
 352      2D747261 
 352      70762720 
 352      272D666E 
 352      6F2D6F70 
 353 0066 7465782D 		.ascii	"tex-m0' '-mthumb' '-g' '-Os' '-ffunction-sections' "
 353      6D302720 
 353      272D6D74 
 353      68756D62 
ARM GAS  C:\Users\gjl\AppData\Local\Temp\cccntldg.s 			page 24


 353      2720272D 
 354 0099 272D6666 		.ascii	"'-ffat-lto-objects' '-flto'\000"
 354      61742D6C 
 354      746F2D6F 
 354      626A6563 
 354      74732720 
 355              		.text
 356              		.cfi_sections	.debug_frame
 357              		.section	.text.ADC_SaveConfig,"ax",%progbits
 358              		.align	1
 359              		.global	ADC_SaveConfig
 360              		.code	16
 361              		.thumb_func
 362              		.type	ADC_SaveConfig, %function
 363              	ADC_SaveConfig:
 364              	.LFB8:
 365              		.cfi_startproc
 366              		@ args = 0, pretend = 0, frame = 0
 367              		@ frame_needed = 0, uses_anonymous_args = 0
 368              		@ link register save eliminated.
 369              		@ sp needed
 370 0000 7047     		bx	lr
 371              		.cfi_endproc
 372              	.LFE8:
 373              		.size	ADC_SaveConfig, .-ADC_SaveConfig
 374              		.section	.text.ADC_RestoreConfig,"ax",%progbits
 375              		.align	1
 376              		.global	ADC_RestoreConfig
 377              		.code	16
 378              		.thumb_func
 379              		.type	ADC_RestoreConfig, %function
 380              	ADC_RestoreConfig:
 381              	.LFB2:
 382              		.file 1 "Generated_Source\\PSoC4\\ADC_PM.c"
   1:Generated_Source\PSoC4/ADC_PM.c **** /*******************************************************************************
   2:Generated_Source\PSoC4/ADC_PM.c **** * File Name: ADC_PM.c
   3:Generated_Source\PSoC4/ADC_PM.c **** * Version 2.40
   4:Generated_Source\PSoC4/ADC_PM.c **** *
   5:Generated_Source\PSoC4/ADC_PM.c **** * Description:
   6:Generated_Source\PSoC4/ADC_PM.c **** *  This file provides Sleep/WakeUp APIs functionality.
   7:Generated_Source\PSoC4/ADC_PM.c **** *
   8:Generated_Source\PSoC4/ADC_PM.c **** * Note:
   9:Generated_Source\PSoC4/ADC_PM.c **** *
  10:Generated_Source\PSoC4/ADC_PM.c **** ********************************************************************************
  11:Generated_Source\PSoC4/ADC_PM.c **** * Copyright 2008-2015, Cypress Semiconductor Corporation.  All rights reserved.
  12:Generated_Source\PSoC4/ADC_PM.c **** * You may use this file only in accordance with the license, terms, conditions,
  13:Generated_Source\PSoC4/ADC_PM.c **** * disclaimers, and limitations in the end user license agreement accompanying
  14:Generated_Source\PSoC4/ADC_PM.c **** * the software package with which this file was provided.
  15:Generated_Source\PSoC4/ADC_PM.c **** *******************************************************************************/
  16:Generated_Source\PSoC4/ADC_PM.c **** 
  17:Generated_Source\PSoC4/ADC_PM.c **** #include "ADC.h"
  18:Generated_Source\PSoC4/ADC_PM.c **** 
  19:Generated_Source\PSoC4/ADC_PM.c **** 
  20:Generated_Source\PSoC4/ADC_PM.c **** /***************************************
  21:Generated_Source\PSoC4/ADC_PM.c **** * Local data allocation
  22:Generated_Source\PSoC4/ADC_PM.c **** ***************************************/
  23:Generated_Source\PSoC4/ADC_PM.c **** 
ARM GAS  C:\Users\gjl\AppData\Local\Temp\cccntldg.s 			page 25


  24:Generated_Source\PSoC4/ADC_PM.c **** static ADC_BACKUP_STRUCT  ADC_backup =
  25:Generated_Source\PSoC4/ADC_PM.c **** {
  26:Generated_Source\PSoC4/ADC_PM.c ****     ADC_DISABLED
  27:Generated_Source\PSoC4/ADC_PM.c **** };
  28:Generated_Source\PSoC4/ADC_PM.c **** 
  29:Generated_Source\PSoC4/ADC_PM.c **** 
  30:Generated_Source\PSoC4/ADC_PM.c **** /*******************************************************************************
  31:Generated_Source\PSoC4/ADC_PM.c **** * Function Name: ADC_SaveConfig
  32:Generated_Source\PSoC4/ADC_PM.c **** ********************************************************************************
  33:Generated_Source\PSoC4/ADC_PM.c **** *
  34:Generated_Source\PSoC4/ADC_PM.c **** * Summary:
  35:Generated_Source\PSoC4/ADC_PM.c **** *  Saves the current user configuration.
  36:Generated_Source\PSoC4/ADC_PM.c **** *
  37:Generated_Source\PSoC4/ADC_PM.c **** * Parameters:
  38:Generated_Source\PSoC4/ADC_PM.c **** *  None.
  39:Generated_Source\PSoC4/ADC_PM.c **** *
  40:Generated_Source\PSoC4/ADC_PM.c **** * Return:
  41:Generated_Source\PSoC4/ADC_PM.c **** *  None.
  42:Generated_Source\PSoC4/ADC_PM.c **** *
  43:Generated_Source\PSoC4/ADC_PM.c **** *******************************************************************************/
  44:Generated_Source\PSoC4/ADC_PM.c **** void ADC_SaveConfig(void)
  45:Generated_Source\PSoC4/ADC_PM.c **** {
  46:Generated_Source\PSoC4/ADC_PM.c ****     /* All configuration registers are marked as [reset_all_retention] */
  47:Generated_Source\PSoC4/ADC_PM.c **** }
  48:Generated_Source\PSoC4/ADC_PM.c **** 
  49:Generated_Source\PSoC4/ADC_PM.c **** 
  50:Generated_Source\PSoC4/ADC_PM.c **** /*******************************************************************************
  51:Generated_Source\PSoC4/ADC_PM.c **** * Function Name: ADC_RestoreConfig
  52:Generated_Source\PSoC4/ADC_PM.c **** ********************************************************************************
  53:Generated_Source\PSoC4/ADC_PM.c **** *
  54:Generated_Source\PSoC4/ADC_PM.c **** * Summary:
  55:Generated_Source\PSoC4/ADC_PM.c **** *  Restores the current user configuration.
  56:Generated_Source\PSoC4/ADC_PM.c **** *
  57:Generated_Source\PSoC4/ADC_PM.c **** * Parameters:
  58:Generated_Source\PSoC4/ADC_PM.c **** *  None.
  59:Generated_Source\PSoC4/ADC_PM.c **** *
  60:Generated_Source\PSoC4/ADC_PM.c **** * Return:
  61:Generated_Source\PSoC4/ADC_PM.c **** *  None.
  62:Generated_Source\PSoC4/ADC_PM.c **** *
  63:Generated_Source\PSoC4/ADC_PM.c **** *******************************************************************************/
  64:Generated_Source\PSoC4/ADC_PM.c **** void ADC_RestoreConfig(void)
  65:Generated_Source\PSoC4/ADC_PM.c **** {
 383              		.loc 1 65 0
 384              		.cfi_startproc
 385              		@ args = 0, pretend = 0, frame = 0
 386              		@ frame_needed = 0, uses_anonymous_args = 0
 387              		@ link register save eliminated.
  66:Generated_Source\PSoC4/ADC_PM.c ****     /* All congiguration registers are marked as [reset_all_retention] */
  67:Generated_Source\PSoC4/ADC_PM.c **** }
 388              		.loc 1 67 0
 389              		@ sp needed
 390 0000 7047     		bx	lr
 391              		.cfi_endproc
 392              	.LFE2:
 393              		.size	ADC_RestoreConfig, .-ADC_RestoreConfig
 394              		.section	.text.ADC_Sleep,"ax",%progbits
 395              		.align	1
ARM GAS  C:\Users\gjl\AppData\Local\Temp\cccntldg.s 			page 26


 396              		.global	ADC_Sleep
 397              		.code	16
 398              		.thumb_func
 399              		.type	ADC_Sleep, %function
 400              	ADC_Sleep:
 401              	.LFB3:
  68:Generated_Source\PSoC4/ADC_PM.c **** 
  69:Generated_Source\PSoC4/ADC_PM.c **** 
  70:Generated_Source\PSoC4/ADC_PM.c **** /*******************************************************************************
  71:Generated_Source\PSoC4/ADC_PM.c **** * Function Name: ADC_Sleep
  72:Generated_Source\PSoC4/ADC_PM.c **** ********************************************************************************
  73:Generated_Source\PSoC4/ADC_PM.c **** *
  74:Generated_Source\PSoC4/ADC_PM.c **** * Summary:
  75:Generated_Source\PSoC4/ADC_PM.c **** *  Stops the ADC operation and saves the configuration registers and component
  76:Generated_Source\PSoC4/ADC_PM.c **** *  enable state. Should be called just prior to entering sleep.
  77:Generated_Source\PSoC4/ADC_PM.c **** *
  78:Generated_Source\PSoC4/ADC_PM.c **** * Parameters:
  79:Generated_Source\PSoC4/ADC_PM.c **** *  None.
  80:Generated_Source\PSoC4/ADC_PM.c **** *
  81:Generated_Source\PSoC4/ADC_PM.c **** * Return:
  82:Generated_Source\PSoC4/ADC_PM.c **** *  None.
  83:Generated_Source\PSoC4/ADC_PM.c **** *
  84:Generated_Source\PSoC4/ADC_PM.c **** * Global Variables:
  85:Generated_Source\PSoC4/ADC_PM.c **** *  ADC_backup - modified.
  86:Generated_Source\PSoC4/ADC_PM.c **** *
  87:Generated_Source\PSoC4/ADC_PM.c **** *******************************************************************************/
  88:Generated_Source\PSoC4/ADC_PM.c **** void ADC_Sleep(void)
  89:Generated_Source\PSoC4/ADC_PM.c **** {
 402              		.loc 1 89 0
 403              		.cfi_startproc
 404              		@ args = 0, pretend = 0, frame = 0
 405              		@ frame_needed = 0, uses_anonymous_args = 0
  90:Generated_Source\PSoC4/ADC_PM.c ****     /* During deepsleep/ hibernate mode keep SARMUX active, i.e. do not open
  91:Generated_Source\PSoC4/ADC_PM.c ****     *   all switches (disconnect), to be used for ADFT
  92:Generated_Source\PSoC4/ADC_PM.c ****     */
  93:Generated_Source\PSoC4/ADC_PM.c ****     ADC_SAR_DFT_CTRL_REG |= ADC_ADFT_OVERRIDE;
 406              		.loc 1 93 0
 407 0000 8021     		movs	r1, #128
 408 0002 134A     		ldr	r2, .L14
 409 0004 0906     		lsls	r1, r1, #24
 410 0006 1368     		ldr	r3, [r2]
  89:Generated_Source\PSoC4/ADC_PM.c ****     /* During deepsleep/ hibernate mode keep SARMUX active, i.e. do not open
 411              		.loc 1 89 0
 412 0008 70B5     		push	{r4, r5, r6, lr}
 413              		.cfi_def_cfa_offset 16
 414              		.cfi_offset 4, -16
 415              		.cfi_offset 5, -12
 416              		.cfi_offset 6, -8
 417              		.cfi_offset 14, -4
 418              		.loc 1 93 0
 419 000a 0B43     		orrs	r3, r1
 420 000c 1360     		str	r3, [r2]
  94:Generated_Source\PSoC4/ADC_PM.c ****     if((ADC_SAR_CTRL_REG  & ADC_ENABLE) != 0u)
 421              		.loc 1 94 0
 422 000e 114B     		ldr	r3, .L14+4
 423 0010 114C     		ldr	r4, .L14+8
 424 0012 1A68     		ldr	r2, [r3]
ARM GAS  C:\Users\gjl\AppData\Local\Temp\cccntldg.s 			page 27


 425 0014 1D00     		movs	r5, r3
  95:Generated_Source\PSoC4/ADC_PM.c ****     {
  96:Generated_Source\PSoC4/ADC_PM.c ****         if((ADC_SAR_SAMPLE_CTRL_REG & ADC_CONTINUOUS_EN) != 0u)
  97:Generated_Source\PSoC4/ADC_PM.c ****         {
  98:Generated_Source\PSoC4/ADC_PM.c ****             ADC_backup.enableState = ADC_ENABLED | ADC_STARTED;
  99:Generated_Source\PSoC4/ADC_PM.c ****         }
 100:Generated_Source\PSoC4/ADC_PM.c ****         else
 101:Generated_Source\PSoC4/ADC_PM.c ****         {
 102:Generated_Source\PSoC4/ADC_PM.c ****             ADC_backup.enableState = ADC_ENABLED;
 103:Generated_Source\PSoC4/ADC_PM.c ****         }
 104:Generated_Source\PSoC4/ADC_PM.c ****         ADC_StopConvert();
 105:Generated_Source\PSoC4/ADC_PM.c ****         ADC_Stop();
 106:Generated_Source\PSoC4/ADC_PM.c ****         
 107:Generated_Source\PSoC4/ADC_PM.c ****         /* Disable the SAR internal pump before entering the chip low power mode */
 108:Generated_Source\PSoC4/ADC_PM.c ****         if((ADC_SAR_CTRL_REG & ADC_BOOSTPUMP_EN) != 0u)
 109:Generated_Source\PSoC4/ADC_PM.c ****         {
 110:Generated_Source\PSoC4/ADC_PM.c ****             ADC_SAR_CTRL_REG &= (uint32)~ADC_BOOSTPUMP_EN;
 111:Generated_Source\PSoC4/ADC_PM.c ****             ADC_backup.enableState |= ADC_BOOSTPUMP_ENABLED;
 112:Generated_Source\PSoC4/ADC_PM.c ****         }
 113:Generated_Source\PSoC4/ADC_PM.c ****     }
 114:Generated_Source\PSoC4/ADC_PM.c ****     else
 115:Generated_Source\PSoC4/ADC_PM.c ****     {
 116:Generated_Source\PSoC4/ADC_PM.c ****         ADC_backup.enableState = ADC_DISABLED;
 426              		.loc 1 116 0
 427 0016 0023     		movs	r3, #0
  94:Generated_Source\PSoC4/ADC_PM.c ****     if((ADC_SAR_CTRL_REG  & ADC_ENABLE) != 0u)
 428              		.loc 1 94 0
 429 0018 002A     		cmp	r2, #0
 430 001a 16DA     		bge	.L12
  96:Generated_Source\PSoC4/ADC_PM.c ****         {
 431              		.loc 1 96 0
 432 001c 0F4B     		ldr	r3, .L14+12
 433 001e 1B68     		ldr	r3, [r3]
 434 0020 DB03     		lsls	r3, r3, #15
 435 0022 01D5     		bpl	.L5
  98:Generated_Source\PSoC4/ADC_PM.c ****         }
 436              		.loc 1 98 0
 437 0024 0323     		movs	r3, #3
 438 0026 00E0     		b	.L11
 439              	.L5:
 102:Generated_Source\PSoC4/ADC_PM.c ****         }
 440              		.loc 1 102 0
 441 0028 0123     		movs	r3, #1
 442              	.L11:
 443 002a 2370     		strb	r3, [r4]
 104:Generated_Source\PSoC4/ADC_PM.c ****         ADC_Stop();
 444              		.loc 1 104 0
 445 002c FFF7FEFF 		bl	ADC_StopConvert
 446              	.LVL0:
 105:Generated_Source\PSoC4/ADC_PM.c ****         
 447              		.loc 1 105 0
 448 0030 FFF7FEFF 		bl	ADC_Stop
 449              	.LVL1:
 108:Generated_Source\PSoC4/ADC_PM.c ****         {
 450              		.loc 1 108 0
 451 0034 2B68     		ldr	r3, [r5]
 452 0036 074A     		ldr	r2, .L14+4
ARM GAS  C:\Users\gjl\AppData\Local\Temp\cccntldg.s 			page 28


 453 0038 DB02     		lsls	r3, r3, #11
 454 003a 07D5     		bpl	.L3
 455              	.LBB4:
 456              	.LBB5:
 110:Generated_Source\PSoC4/ADC_PM.c ****             ADC_backup.enableState |= ADC_BOOSTPUMP_ENABLED;
 457              		.loc 1 110 0
 458 003c 1168     		ldr	r1, [r2]
 459 003e 084B     		ldr	r3, .L14+16
 460 0040 0B40     		ands	r3, r1
 461 0042 1360     		str	r3, [r2]
 111:Generated_Source\PSoC4/ADC_PM.c ****         }
 462              		.loc 1 111 0
 463 0044 0422     		movs	r2, #4
 464 0046 2378     		ldrb	r3, [r4]
 465 0048 1343     		orrs	r3, r2
 466              	.L12:
 467              	.LBE5:
 468              	.LBE4:
 469              		.loc 1 116 0
 470 004a 2370     		strb	r3, [r4]
 471              	.L3:
 117:Generated_Source\PSoC4/ADC_PM.c ****     }
 118:Generated_Source\PSoC4/ADC_PM.c **** }
 472              		.loc 1 118 0
 473              		@ sp needed
 474 004c 70BD     		pop	{r4, r5, r6, pc}
 475              	.L15:
 476 004e C046     		.align	2
 477              	.L14:
 478 0050 30003A40 		.word	1077542960
 479 0054 00003A40 		.word	1077542912
 480 0058 00000000 		.word	.LANCHOR0
 481 005c 04003A40 		.word	1077542916
 482 0060 FFFFEFFF 		.word	-1048577
 483              		.cfi_endproc
 484              	.LFE3:
 485              		.size	ADC_Sleep, .-ADC_Sleep
 486              		.section	.text.ADC_Wakeup,"ax",%progbits
 487              		.align	1
 488              		.global	ADC_Wakeup
 489              		.code	16
 490              		.thumb_func
 491              		.type	ADC_Wakeup, %function
 492              	ADC_Wakeup:
 493              	.LFB4:
 119:Generated_Source\PSoC4/ADC_PM.c **** 
 120:Generated_Source\PSoC4/ADC_PM.c **** 
 121:Generated_Source\PSoC4/ADC_PM.c **** /*******************************************************************************
 122:Generated_Source\PSoC4/ADC_PM.c **** * Function Name: ADC_Wakeup
 123:Generated_Source\PSoC4/ADC_PM.c **** ********************************************************************************
 124:Generated_Source\PSoC4/ADC_PM.c **** *
 125:Generated_Source\PSoC4/ADC_PM.c **** * Summary:
 126:Generated_Source\PSoC4/ADC_PM.c **** *  Restores the component enable state and configuration registers.
 127:Generated_Source\PSoC4/ADC_PM.c **** *  This should be called just after awaking from sleep mode.
 128:Generated_Source\PSoC4/ADC_PM.c **** *
 129:Generated_Source\PSoC4/ADC_PM.c **** * Parameters:
 130:Generated_Source\PSoC4/ADC_PM.c **** *  None.
ARM GAS  C:\Users\gjl\AppData\Local\Temp\cccntldg.s 			page 29


 131:Generated_Source\PSoC4/ADC_PM.c **** *
 132:Generated_Source\PSoC4/ADC_PM.c **** * Return:
 133:Generated_Source\PSoC4/ADC_PM.c **** *  None.
 134:Generated_Source\PSoC4/ADC_PM.c **** *
 135:Generated_Source\PSoC4/ADC_PM.c **** * Global Variables:
 136:Generated_Source\PSoC4/ADC_PM.c **** *  ADC_backup - used.
 137:Generated_Source\PSoC4/ADC_PM.c **** *
 138:Generated_Source\PSoC4/ADC_PM.c **** *******************************************************************************/
 139:Generated_Source\PSoC4/ADC_PM.c **** void ADC_Wakeup(void)
 140:Generated_Source\PSoC4/ADC_PM.c **** {
 494              		.loc 1 140 0
 495              		.cfi_startproc
 496              		@ args = 0, pretend = 0, frame = 0
 497              		@ frame_needed = 0, uses_anonymous_args = 0
 141:Generated_Source\PSoC4/ADC_PM.c ****     ADC_SAR_DFT_CTRL_REG &= (uint32)~ADC_ADFT_OVERRIDE;
 498              		.loc 1 141 0
 499 0000 0C4A     		ldr	r2, .L27
 140:Generated_Source\PSoC4/ADC_PM.c ****     ADC_SAR_DFT_CTRL_REG &= (uint32)~ADC_ADFT_OVERRIDE;
 500              		.loc 1 140 0
 501 0002 10B5     		push	{r4, lr}
 502              		.cfi_def_cfa_offset 8
 503              		.cfi_offset 4, -8
 504              		.cfi_offset 14, -4
 505              		.loc 1 141 0
 506 0004 1368     		ldr	r3, [r2]
 142:Generated_Source\PSoC4/ADC_PM.c ****     if(ADC_backup.enableState != ADC_DISABLED)
 507              		.loc 1 142 0
 508 0006 0C4C     		ldr	r4, .L27+4
 141:Generated_Source\PSoC4/ADC_PM.c ****     ADC_SAR_DFT_CTRL_REG &= (uint32)~ADC_ADFT_OVERRIDE;
 509              		.loc 1 141 0
 510 0008 5B00     		lsls	r3, r3, #1
 511 000a 5B08     		lsrs	r3, r3, #1
 512 000c 1360     		str	r3, [r2]
 513              		.loc 1 142 0
 514 000e 2378     		ldrb	r3, [r4]
 515 0010 002B     		cmp	r3, #0
 516 0012 0ED0     		beq	.L16
 143:Generated_Source\PSoC4/ADC_PM.c ****     {
 144:Generated_Source\PSoC4/ADC_PM.c ****         /* Enable the SAR internal pump  */
 145:Generated_Source\PSoC4/ADC_PM.c ****         if((ADC_backup.enableState & ADC_BOOSTPUMP_ENABLED) != 0u)
 517              		.loc 1 145 0
 518 0014 5B07     		lsls	r3, r3, #29
 519 0016 05D5     		bpl	.L19
 146:Generated_Source\PSoC4/ADC_PM.c ****         {
 147:Generated_Source\PSoC4/ADC_PM.c ****             ADC_SAR_CTRL_REG |= ADC_BOOSTPUMP_EN;
 520              		.loc 1 147 0
 521 0018 8021     		movs	r1, #128
 522 001a 084A     		ldr	r2, .L27+8
 523 001c 4903     		lsls	r1, r1, #13
 524 001e 1368     		ldr	r3, [r2]
 525 0020 0B43     		orrs	r3, r1
 526 0022 1360     		str	r3, [r2]
 527              	.L19:
 528              	.LBB8:
 529              	.LBB9:
 148:Generated_Source\PSoC4/ADC_PM.c ****         }
 149:Generated_Source\PSoC4/ADC_PM.c ****         ADC_Enable();
ARM GAS  C:\Users\gjl\AppData\Local\Temp\cccntldg.s 			page 30


 530              		.loc 1 149 0
 531 0024 FFF7FEFF 		bl	ADC_Enable
 532              	.LVL2:
 150:Generated_Source\PSoC4/ADC_PM.c ****         if((ADC_backup.enableState & ADC_STARTED) != 0u)
 533              		.loc 1 150 0
 534 0028 2378     		ldrb	r3, [r4]
 535 002a 9B07     		lsls	r3, r3, #30
 536 002c 01D5     		bpl	.L16
 151:Generated_Source\PSoC4/ADC_PM.c ****         {
 152:Generated_Source\PSoC4/ADC_PM.c ****             ADC_StartConvert();
 537              		.loc 1 152 0
 538 002e FFF7FEFF 		bl	ADC_StartConvert
 539              	.LVL3:
 540              	.L16:
 541              	.LBE9:
 542              	.LBE8:
 153:Generated_Source\PSoC4/ADC_PM.c ****         }
 154:Generated_Source\PSoC4/ADC_PM.c ****     }
 155:Generated_Source\PSoC4/ADC_PM.c **** }
 543              		.loc 1 155 0
 544              		@ sp needed
 545 0032 10BD     		pop	{r4, pc}
 546              	.L28:
 547              		.align	2
 548              	.L27:
 549 0034 30003A40 		.word	1077542960
 550 0038 00000000 		.word	.LANCHOR0
 551 003c 00003A40 		.word	1077542912
 552              		.cfi_endproc
 553              	.LFE4:
 554              		.size	ADC_Wakeup, .-ADC_Wakeup
 555              		.bss
 556              		.set	.LANCHOR0,. + 0
 557              		.type	ADC_backup, %object
 558              		.size	ADC_backup, 1
 559              	ADC_backup:
 560 0000 00       		.space	1
 561              		.text
 562              	.Letext0:
 563              		.file 2 "Generated_Source\\PSoC4\\cytypes.h"
 564              		.file 3 "Generated_Source\\PSoC4\\ADC.h"