ARM GAS  C:\Users\gjl\AppData\Local\Temp\ccRmXffq.s 			page 1


   1              		.syntax unified
   2              		.cpu cortex-m0
   3              		.fpu softvfp
   4              		.eabi_attribute 20, 1
   5              		.eabi_attribute 21, 1
   6              		.eabi_attribute 23, 3
   7              		.eabi_attribute 24, 1
   8              		.eabi_attribute 25, 1
   9              		.eabi_attribute 26, 1
  10              		.eabi_attribute 30, 4
  11              		.eabi_attribute 34, 0
  12              		.eabi_attribute 18, 4
  13              		.thumb
  14              		.syntax unified
  15              		.file	"ADC_intClock.c"
  16              		.text
  17              	.Ltext0:
  18              		.section	.gnu.lto_.profile.58eab318,"",%progbits
  19 0000 789C6361 		.ascii	"x\234ca`d`a`\000\222r\222\000\000\277\000B"
  19      60646061 
  19      60009272 
  19      920000BF 
  19      0042
  20              		.text
  21              		.section	.gnu.lto_.icf.58eab318,"",%progbits
  22 0000 789C6361 		.ascii	"x\234ca`d\000\001\005\006\004`eh\355\272\325\302\313"
  22      60640001 
  22      05060460 
  22      6568EDBA 
  22      D5C2CB
  23 0013 D87E74D1 		.ascii	"\330~t\321\015N\246\366\343\355?y\231\017\376\230\276"
  23      0D4EA6F6 
  23      E3ED3F79 
  23      990FFE98 
  23      BE
  24 0024 90996576 		.ascii	"\220\231ev\323\274)<\014\000\345\036\015\250"
  24      D3BC293C 
  24      0C00E51E 
  24      0DA8
  25              		.text
  26              		.section	.gnu.lto_.jmpfuncs.58eab318,"",%progbits
  27 0000 789C6361 		.ascii	"x\234ca`d\000\001q\006\004`e`dd\254\007\21231122\327"
  27      60640001 
  27      71060460 
  27      65606464 
  27      AC078A33 
  28 0019 D7333330 		.ascii	"\327330\260\000\205\001\026\322\001\263"
  28      B0008501 
  28      16D201B3 
  29              		.text
  30              		.section	.gnu.lto_.inline.58eab318,"",%progbits
  31 0000 789C458B 		.ascii	"x\234E\213\261\015\2000\014\004\337\316\007B(`\003("
  31      B10D8030 
  31      0C04DFCE 
  31      07422860 
  31      0328
  32 0012 10E33013 		.ascii	"\020\3430\023#PRf\016\246`$l!\310\027\226\375\347#\004"
ARM GAS  C:\Users\gjl\AppData\Local\Temp\ccRmXffq.s 			page 2


  32      23505266 
  32      0EA66024 
  32      6C21C817 
  32      96FDE723 
  33 0027 9E1D3511 		.ascii	"\236\0355\021\350V\021\314\206B\272N\242)\223\202e\242"
  33      E85611CC 
  33      8642BA4E 
  33      A2299382 
  33      65A2
  34 0039 6341BB08 		.ascii	"cA\273\010\264\002\213\242\317\242\030\315\220d\203"
  34      B4028BA2 
  34      CFA218CD 
  34      906483
  35 0048 F9D85EA8 		.ascii	"\371\330^\250\367@W\223\277\005D\232j\347o\022A\255"
  35      F7405793 
  35      BF05449A 
  35      6AE76F12 
  35      41AD
  36 005a B2ED6BF0 		.ascii	"\262\355k\360\000t\\\014$"
  36      00745C0C 
  36      24
  37              		.text
  38              		.section	.gnu.lto_.pureconst.58eab318,"",%progbits
  39 0000 789C6361 		.ascii	"x\234ca`d\340f```e\220b\224b\222b\226ba\000\000\003"
  39      6064E066 
  39      60606065 
  39      90629462 
  39      92629662 
  40 0018 E40088   		.ascii	"\344\000\210"
  41              		.text
  42              		.section	.gnu.lto_ADC_intClock_StartEx.58eab318,"",%progbits
  43 0000 789C5551 		.ascii	"x\234UQ=h\024Q\020\236\357\275}{\253\371\251-R\2442"
  43      3D681451 
  43      109EEFBD 
  43      7D7BABF9 
  43      A92D52A4 
  44 0015 5C6395CA 		.ascii	"\\c\225\312.\\\320VL\033\010\341\\\344\314q\007!\332"
  44      2E5CD056 
  44      4C1B08E1 
  44      5CE4CC71 
  44      0721DA
  45 0028 FAEE7637 		.ascii	"\372\356v7\207b!JR\004\3450\020\222\250\361r\212\205"
  45      8762214A 
  45      5204E530 
  45      1092A8F1 
  45      728A85
  46 003b D89CA722 		.ascii	"\330\234\247\"\210\236\2441\255F\334\302\352N\243\210"
  46      889EA431 
  46      AD46DCC2 
  46      EA4EA388 
  47 004b A2E7CC6E 		.ascii	"\242\347\314n\0123\2603o\206of\276o\326!\220\330\260"
  47      0A33B033 
  47      6F866F66 
  47      BE6FD621 
  47      90D8B0
  48 005e 221AE778 		.ascii	"\"\032\347x\212?\270\004u\275CT\361\024t\372\320\312"
  48      8A3FB804 
ARM GAS  C:\Users\gjl\AppData\Local\Temp\ccRmXffq.s 			page 3


  48      75BD4354 
  48      F11474FA 
  48      D0CA
  49 0070 5C7B4564 		.ascii	"\\{Ed\217:a\206\354\240I\353\023\016 \321z\240\313J"
  49      8F3A6186 
  49      ECA049EB 
  49      130E20D1 
  49      7AA0CB4A 
  50 0084 1B07EC29 		.ascii	"\033\007\354)\265\357\352\217B\273\026?Q\331u\313\366"
  50      B5EFEA8F 
  50      42BB163F 
  50      51D975CB 
  50      F6
  51 0095 E1F34D6D 		.ascii	"\341\363Mm7Z\210\030\320W)\006\353\3102j'\334\276\245"
  51      375A8818 
  51      D0572906 
  51      EBC8326A 
  51      27DCBEA5 
  52 00a9 F755A401 		.ascii	"\367U\244\001\207\323\336\333\225O\303\222*\214rz\345"
  52      87D3DEDB 
  52      954FC392 
  52      2A8C727A 
  52      E5
  53 00ba F98F678E 		.ascii	"\371\217g\216\316\202\370\335\374V\217\207\306\326\254"
  53      CE82F8DD 
  53      FC568F87 
  53      C6D6AC
  54 00c9 AD5ABBE4 		.ascii	"\255Z\273\344\333#\221\326\270\013\315\363\260\211\021"
  54      DB2391D6 
  54      B80BCDF3 
  54      B08911
  55 00d8 6C6084B8 		.ascii	"l`\204\270D\270\2071\201\3575\377.\015\271\241\254\037"
  55      44B88731 
  55      81EF35FF 
  55      2E0DB9A1 
  55      AC1F
  56 00ea 4D97E23E 		.ascii	"M\227\342>\\Q\3348\333\262\375~`[M\263\245=\305]\216"
  56      5C51DC38 
  56      DBB2FD7E 
  56      605B4DB3 
  56      A53DC55D 
  57 00ff 66C70AA4 		.ascii	"f\307\012\244\327H\356\212#\352r\033k\356*\305A\367"
  57      D748EE8A 
  57      23EA721B 
  57      6BEE2AC5 
  57      41F7
  58 0111 581F2BD6 		.ascii	"X\037+\3261\332\277\256\276\177\251e^\240E\352r\324"
  58      31DABFAE 
  58      BE7FA965 
  58      5EA045EA 
  58      72D4
  59 0123 7E9711D6 		.ascii	"~\227\021\326n\302t\365\316\357]\223\246\326\206Vt\325"
  59      6EC274F5 
  59      CEEF5D93 
  59      A6D68656 
  59      74D5
  60 0135 A29DCDC1 		.ascii	"\242\235\315\301:nWB>B\006\017\230\360\026\023&4P\007"
ARM GAS  C:\Users\gjl\AppData\Local\Temp\ccRmXffq.s 			page 4


  60      3A6E5742 
  60      3E42060F 
  60      98F01613 
  60      26345007 
  61 0149 C5A87EAD 		.ascii	"\305\250~\255\2759\226\016\324<\223>\"\354\004\027\016"
  61      BD39960E 
  61      D43C933E 
  61      22EC0417 
  61      0E
  62 015a 0AFF6F30 		.ascii	"\012\377o0 lK'\011=C\374g\320S\216\360\213\021t\027"
  62      206C4B27 
  62      093D43FC 
  62      67D0538E 
  62      F08B1174 
  63 016f 3BB149BB 		.ascii	";\261I\273L\240e\361\312\323\375\327\011\027\017\036"
  63      4CA065F1 
  63      CAD3FDD7 
  63      09170F1E 
  64 017f 9ADCC8A8 		.ascii	"\232\334\310\250\237\213/2)Hpr\332\275\033\217\223\253"
  64      9F8B2F32 
  64      29487072 
  64      DABD1B8F 
  64      93AB
  65 0191 3B68F1BD 		.ascii	";h\361\275<<L\200\355\345^\343\244\000\017\011\250X"
  65      3C3C4C80 
  65      EDE55EE3 
  65      A4000F09 
  65      A858
  66 01a3 3B7058C3 		.ascii	";pX\303#\326\300\263\350\013\252\255\335d\375\001=0"
  66      23D6C0B3 
  66      E80BAAAD 
  66      DD64FD01 
  66      3D30
  67 01b5 2D3EE1F1 		.ascii	"->\341\361\323~\311\237\237]\360\317\315L\225/\316\347"
  67      D37EC99F 
  67      9F5DF0CF 
  67      CD4C952F 
  67      CEE7
  68 01c7 FDE93353 		.ascii	"\375\3513S\345\334\370\364\304dn\246PZ\310\025\313\371"
  68      E5DCF8F4 
  68      C4646EA6 
  68      505AC815 
  68      CBF9
  69 01d9 B913791A 		.ascii	"\271\023y\032\230-\026\316\227r\305\271\311\302\245"
  69      982D16CE 
  69      9772C5B9 
  69      C9C2A5
  70 01e8 7F531BC2 		.ascii	"\177S\033\302\220"
  70      90
  71              		.text
  72              		.section	.gnu.lto_ADC_intClock_Stop.58eab318,"",%progbits
  73 0000 789C5590 		.ascii	"x\234U\220;H\003A\020\206\347\337\275\313\005\215\275"
  73      3B480341 
  73      1086E7DF 
  73      BDCB058D 
  73      BD
  74 0011 85859598 		.ascii	"\205\205\225\230F,,lC\304\264\242m@$\246\360\225@\210"
ARM GAS  C:\Users\gjl\AppData\Local\Temp\ccRmXffq.s 			page 5


  74      462C2C6C 
  74      43C4B4A2 
  74      6D4024A6 
  74      F0954088 
  75 0025 B59BE48E 		.ascii	"\265\233\344\216\200Xh\241\225\022bc\342\023K\2733\215"
  75      805868A1 
  75      95126263 
  75      E2134BBB 
  75      338D
  76 0037 8D446C4C 		.ascii	"\215DlL\351\003L!\242\211\304F\3218\353\245\320\201"
  76      E9034C21 
  76      A289C446 
  76      D138EBA5 
  76      D081
  77 0049 DDD99DFD 		.ascii	"\335\331\235\375w\376\2171\010\244c\211\323 \347q^\360"
  77      77FE8F31 
  77      08A46389 
  77      D320E771 
  77      5EF0
  78 005b 11C47A95 		.ascii	"\021\304z\225(\343\027\220\336A\012s\355\202Hu\031\266"
  78      28E31790 
  78      DE410A73 
  78      ED824875 
  78      19B6
  79 006d 452A607A 		.ascii	"E*`z\365\220\001\350\254\374\240\025!M\003\274\223\027"
  79      F59001E8 
  79      ACFCA015 
  79      214D03BC 
  79      9317
  80 007f EFE24BA0 		.ascii	"\357\342K\240\222\257\237\211\340\236\342\270{|\035"
  80      92AF9F89 
  80      E09EE2B8 
  80      7B7C1D
  81 008e 5625170E 		.ascii	"V%\027\016\013\332\302\323`\017Ab\331\303\351\367f\217"
  81      0BDAC2D3 
  81      600F4162 
  81      D9C3E9F7 
  81      668F
  82 00a0 CFD6B27E 		.ascii	"\317\326\262~\357\021%\3704\331\311\244\253\332\355"
  82      EF1125F8 
  82      34D9C9A4 
  82      ABDAED
  83 00af 9C7237AC 		.ascii	"\234r7\254\363\033\313\024\344HH\336X\323\340\3050\015"
  83      F31BCB14 
  83      E44848DE 
  83      58D3E0C5 
  83      300D
  84 00c1 2138C926 		.ascii	"!8\311&\0333\212\254\243\362\261Z\337\036\325\015rR"
  84      1B338AAC 
  84      A3F2B15A 
  84      DF1ED50D 
  84      7252
  85 00d3 336C3995 		.ascii	"3l9\225+\253%\034)\241\275v\213\2375\323\273*e+\203"
  85      2BAB251C 
  85      29A1BD76 
  85      8B9F35D3 
  85      BB2A652B 
ARM GAS  C:\Users\gjl\AppData\Local\Temp\ccRmXffq.s 			page 6


  86 00e8 4B79E7BA 		.ascii	"Ky\347\272\034(`'c3\235\201}\364\241\214>\2068@\001"
  86      1C286027 
  86      63339D81 
  86      7DF4A18C 
  86      3E863840 
  87 00fd 5447F62D 		.ascii	"TG\366-\177\331\3535\224\334\223\356aWs\363\235\302"
  87      7FD9EB35 
  87      94DC93EE 
  87      615773F3 
  87      9DC2
  88 010f 5F0701C2 		.ascii	"_\007\001\302\241\376I\032\317$\036\031\232\302\320"
  88      A1FE491A 
  88      CF241E19 
  88      9AC2D0
  89 011e 7CCCD56A 		.ascii	"|\314\325j<\027-\375\353\237eF\251\356\377\256G\354"
  89      3C172DFD 
  89      EB9F6546 
  89      A9EEFFAE 
  89      47EC
  90 0130 CA92DB6D 		.ascii	"\312\222\333m\347\345\027\024py0\006\216\371\365\011"
  90      E7E51714 
  90      70793006 
  90      8EF9F509 
  91 0140 59B716D1 		.ascii	"Y\267\026\321M:&\340\346<\210\201H<\021O\315\244\343"
  91      4D3A26E0 
  91      E63C8881 
  91      483C114F 
  91      CDA4E3
  92 0153 B3D353C9 		.ascii	"\263\323S\311\345T,\036\235\230J\206G\242\241\261\360"
  92      E5542C1E 
  92      9D984A86 
  92      47A2A1B1 
  92      F0
  93 0164 F45C221D 		.ascii	"\364\\\"\035^L\306\026\206b\364\003\353\331\216\256"
  93      5E4CC616 
  93      8662F403 
  93      EBD98EAE 
  94              		.text
  95              		.section	.gnu.lto_ADC_intClock_SetFractionalDividerRegister.58eab318,"",%progbits
  96 0000 789C6D52 		.ascii	"x\234mR]H\223a\024~\317\373n\337\367\271\315\351e\221"
  96      5D489361 
  96      147ECFFB 
  96      6EDFF7B9 
  96      CDE96591 
  97 0014 17DE9878 		.ascii	"\027\336\230x\023F^t\025\224R\324\225$x%\310\230#\206"
  97      13465E74 
  97      159452D4 
  97      95247825 
  97      C8982386 
  98 0028 CBC1D26E 		.ascii	"\313\301\322n}\347\366\315\030H\022$%\211\240\230\377"
  98      7DE7F6CD 
  98      18481224 
  98      2589A098 
  98      FF
  99 0039 BA657FA6 		.ascii	"\272e\177\246\320\034X f\024\375\334\204\205\211A\204"
  99      D01C5820 
  99      6614FDDC 
ARM GAS  C:\Users\gjl\AppData\Local\Temp\ccRmXffq.s 			page 7


  99      84858941 
  99      84
 100 004a 4D5919A2 		.ascii	"MY\031\242\255s\276W\013\241\027\366\376\234=\317s\316"
 100      AD73BE57 
 100      0BA117F6 
 100      FE9C3DCF 
 100      73CE
 101 005c 79CE6763 		.ascii	"y\316gc\300h\265\010\306\252\361<\202?\020\014x\347"
 101      C068B508 
 101      C6AAF13C 
 101      823F100C 
 101      78E7
 102 006e 12636183 		.ascii	"\022ca\203\003\320E\032\300Z9\264\302\017\276\313!\335"
 102      03D0451A 
 102      C05A39B4 
 102      C20FBECB 
 102      21DD
 103 0080 BE36CDCB 		.ascii	"\2766\315\313\006%\256O\363\375\307\345P\012L\244\347"
 103      0625AE4F 
 103      F3FDC7E5 
 103      500A4CA4 
 103      E7
 104 0091 B8A5C460 		.ascii	"\270\245\304`\020\312\0205\237\333J\025d\271)\000\210"
 104      10CA1035 
 104      9FDB4A15 
 104      64B92900 
 104      88
 105 00a2 F43AB3D8 		.ascii	"\364:\263\330\343\244'\207B|\3066\337\257\272D\0310"
 105      E3A42787 
 105      427CC636 
 105      DFAFBA44 
 105      1930
 106 00b4 BC8F269E 		.ascii	"\274\217&\236\306\013J\007\244l\223\362\243G\332M!`"
 106      C60B4A07 
 106      A46C93F2 
 106      A347DA4D 
 106      2160
 107 00c6 0404EAC1 		.ascii	"\004\004\352\3010\024\301\020\0241\0141\030\205RD\267"
 107      3014C110 
 107      14310C31 
 107      18855244 
 107      B7
 108 00d7 27EFDE70 		.ascii	"'\357\336p\213\012\2139pm{\014\366\230S\317\234\262"
 108      8B0A8B39 
 108      706D7B0C 
 108      F69853CF 
 108      9CB2
 109 00e9 DC143618 		.ascii	"\334\0246\030S\324\023EPND\033\203q(%\364\253h\342\216"
 109      53D41345 
 109      504E441B 
 109      83712825 
 109      F4AB68E2 
 110 00fe 5015D9F0 		.ascii	"P\025\331\360\271\361\242\373\263[UT\214\317\365/\313"
 110      B9F1A2FB 
 110      B35B5554 
 110      8CCFF52F 
 110      CB
ARM GAS  C:\Users\gjl\AppData\Local\Temp\ccRmXffq.s 			page 8


 111 010f D7F3C519 		.ascii	"\327\363\305\031K\367\373-YX\322O\262\251\251\270\373"
 111      4BF7FB2D 
 111      5958D24F 
 111      B2A9A9B8 
 111      FB
 112 0120 B64C458B 		.ascii	"\266LE\213Ma\207\204R\236\304\242&\260(Z\010\236\234"
 112      4D618784 
 112      529EC4A2 
 112      26B0285A 
 112      089E9C
 113 0133 4DBCE5E2 		.ascii	"M\274\345\342\274E\234\350HNh{\314\304\202Kv\206\015"
 113      BC459CE8 
 113      484E687B 
 113      CCC4824B 
 113      76860D
 114 0146 22DEFB2F 		.ascii	"\"\336\373/q%\371\373f\276\026%\037\213a\012J \011%"
 114      7125F9FB 
 114      66BE1625 
 114      1F8B610A 
 114      4A200925 
 115 015a CA45B80F 		.ascii	"\312E\270\017\032\316\205\357G'/\246d.\027\221\251^"
 115      1ACE85EF 
 115      47272FA6 
 115      642E1791 
 115      A95E
 116 016c C7DC8EC3 		.ascii	"\307\334\216\303\315\261-\015\015\301\177m@\266\330"
 116      CDB12D0D 
 116      0DC17F6D 
 116      40B6D8
 117 017b 29A0D1A6 		.ascii	")\240\321\246\323f\000\265\234GW\007mN\332\\\314\322"
 117      D36600B5 
 117      9C475707 
 117      6D4EDA5C 
 117      CCD2
 118 018d 67194C40 		.ascii	"g\031L@3\335\340\234N\261\006\351\355\370\317\341S\224"
 118      33DDE09C 
 118      4EB106E9 
 118      EDF8CFE1 
 118      5394
 119 019f 33226854 		.ascii	"3\"hT]f\372\245N\306\350VO\013\037\346\372\012\324S"
 119      5D66FAA5 
 119      4EC6E856 
 119      4F0B1FE6 
 119      FA0AD453 
 120 01b3 C6A292AC 		.ascii	"\306\242\222\254[\357\030\177\356\356\205\236p\024'"
 120      5BEF187F 
 120      EEEE859E 
 120      701427
 121 01c2 6FC043EC 		.ascii	"o\300C\354\353\001\365\005\217\240\027\330\032Dvb\337"
 121      EB01F505 
 121      8FA017D8 
 121      1A447662 
 121      DF
 122 01d3 40090AA5 		.ascii	"@\011\012\245\231\215\233[\226\367\032\350\360\030\261"
 122      998D9B5B 
 122      96F71AE8 
 122      F018B1
ARM GAS  C:\Users\gjl\AppData\Local\Temp\ccRmXffq.s 			page 9


 123 01e2 2BC0AD2E 		.ascii	"+\300\255.\261\007\004!\247m\263\375\335H\255\"\331"
 123      B1070421 
 123      A76DB3FD 
 123      DD48AD22 
 123      D9
 124 01f3 23383694 		.ascii	"#86\224\311\304\262\207T\204\202(\323=\223]\260\223"
 124      C9C4B287 
 124      54848228 
 124      D33D935D 
 124      B093
 125 0205 4C1E1830 		.ascii	"L\036\0300\2152\010\372\025[\032\251S(\335\312\247)"
 125      8D3208FA 
 125      155B1AA9 
 125      5328DDCA 
 125      A729
 126 0217 B5E57DB5 		.ascii	"\265\345}\265\274\2100\224\332\233\275\242\034\030\244"
 126      BC883094 
 126      DA9BBDA2 
 126      1C18A4
 127 0226 0F793331 		.ascii	"\017y31\350Rj\002\236(\265\235\330\342a\005r\"\216\306"
 127      E8526A02 
 127      9E28B59D 
 127      D8E26105 
 127      72228EC6 
 128 023a 6BAE0E1B 		.ascii	"k\256\016\033\252\362\034\300\314\277\234'\025\314e"
 128      AAF21CC0 
 128      CCBF9C27 
 128      15CC65
 129 0249 A575FE6D 		.ascii	"\245u\376m(I\015\271\020\224\356\332X\356\323)v\300"
 129      28490DB9 
 129      1094EEDA 
 129      58EED329 
 129      76C0
 130 025b B1B094CE 		.ascii	"\261\260\224\316\203\246\315\242iD\371\012m\251\335"
 130      83A6CDA2 
 130      6944F90A 
 130      6DA9DD
 131 026a 0B44B0BE 		.ascii	"\013D\260\276\220\014\007\032\020\216\353\3509_\223"
 131      900C071A 
 131      108EEBE8 
 131      395F93
 132 0279 2FE469F6 		.ascii	"/\344i\3665\324\327\004[B^_]uM\260\262\242\356tUe\275"
 132      35D4D704 
 132      5B425E5F 
 132      5D754DB0 
 132      B2A2EE74 
 133 0290 BFA9B932 		.ascii	"\277\251\2712\020\3646\036\3632\2077\320X\345\277\352"
 133      10F4361E 
 133      F3328737 
 133      D058E5BF 
 133      EA
 134 02a1 6FF085F2 		.ascii	"o\360\205\362\361z6\344\3616\373\203M\236\200\026\362"
 134      F17A36E4 
 134      F136FB83 
 134      4D9E8016 
 134      F2
 135 02b2 5DAAF504 		.ascii	"]\252\365\004\364\313\236+\215x\376\001\323\2218_"
ARM GAS  C:\Users\gjl\AppData\Local\Temp\ccRmXffq.s 			page 10


 135      F4CB9E2B 
 135      8D78FE01 
 135      D391385F 
 136              		.text
 137              		.section	.gnu.lto_ADC_intClock_GetDividerRegister.58eab318,"",%progbits
 138 0000 789C2D90 		.ascii	"x\234-\220\301KBA\020\306\347\333}\332\003)\273\347"
 138      C14B4241 
 138      10C6E7DB 
 138      7DDA0329 
 138      BBE7
 139 0012 A153E8A5 		.ascii	"\241S\350\245S\375\001b\3245\362*H\330;D\241 vv\365"
 139      53FD0162 
 139      D435F22A 
 139      48D83B44 
 139      A1207676 
 140 0027 F90A82A0 		.ascii	"\371\012\202\240K\035\002\021B\260,\225\256uQ!\002\211"
 140      4B1D0211 
 140      42B02C95 
 140      AE755121 
 140      0289
 141 0039 8282E8D0 		.ascii	"\202\202\350\320!\"<t\010\023#\010\352\265\203-\314"
 141      21223C74 
 141      08132308 
 141      EAB5832D 
 141      CC
 142 004a CE7EBBDF 		.ascii	"\316~\273\337\314\374X\203@\274fu\012\352<\241\003\222"
 142      CCFC5883 
 142      40BC6675 
 142      0AEA3CA1 
 142      0392
 143 005c 20766F88 		.ascii	" vo\210r\246\000\370\240LPV \213O\361#p\351~5\375\003"
 143      72A600F8 
 143      A04C5056 
 143      208B4FF1 
 143      2370E97E 
 144 0073 E1B04DCB 		.ascii	"\341\260M\313\273\336u\321\307\022\030\327\262Zn\364"
 144      BBDE75D1 
 144      C71218D7 
 144      B25A6EF4 
 145 0083 CD5045A9 		.ascii	"\315PE\251\274zv\316\3039\333\011:R\220+\010G\010\240"
 145      BC7A76CE 
 145      C339DB09 
 145      3A52902B 
 145      084708A0 
 146 0097 82008F38 		.ascii	"\202\000\2178F\210\264\371\345\354wo\324[PzM\262E\277"
 146      4688B4F9 
 146      E5EC776F 
 146      D45B507A 
 146      4DB245BF 
 147 00ab 54E165A4 		.ascii	"T\341e\244\306RS\271\256\255\232\367\276\326\243\317"
 147      C65253B9 
 147      AEAD9AF7 
 147      BED6A3CF 
 148 00bb 0372A494 		.ascii	"\003r\244\224\274\031\304\355\250\247\203\321>\204\340"
 148      BC19C4ED 
 148      A8A783D1 
 148      3E84E0
ARM GAS  C:\Users\gjl\AppData\Local\Temp\ccRmXffq.s 			page 11


 149 00ca 2CBB687F 		.ascii	",\273h\177o?\324c\\oK\251{\357;\355\333\021\3462\300"
 149      6F3FD463 
 149      5C6F4BA9 
 149      7BEF3BED 
 149      DB11E632 
 150 00df A33A4FAD 		.ascii	"\243:O\255C\377P\252\315\2022\364\325\373N\355j\254"
 150      43FF50AA 
 150      CD8232F4 
 150      D5FB4EED 
 150      6AAC
 151 00f1 8462AE00 		.ascii	"\204b\256\000Gzp\252\361N\030\0175\224@]\330\375y\262"
 151      477A70AA 
 151      F14E180F 
 151      3594405D 
 151      D8FD79B2 
 152 0105 2586ED0E 		.ascii	"%\206\355\016.\006\035\017\327{a\242\256m]\344\373["
 152      2E061D0F 
 152      D77B61A2 
 152      AE6D5DE4 
 152      FB5B
 153 0117 AF180E34 		.ascii	"\257\030\0164\264\217\336 \376\025\177iO\200\3114\347"
 153      B48FDE20 
 153      FE157F69 
 153      4F80C934 
 153      E7
 154 0128 D48295B4 		.ascii	"\324\202\225\264\322\313\031k%\036Mm\244\023Vl1\232"
 154      D2CB196B 
 154      251E4D6D 
 154      A413566C 
 154      319A
 155 013a 8ACCC4C2 		.ascii	"\212\314\304\302s\221\370j2\023YO%\326\246\023\364\007"
 155      7391F86A 
 155      3213594F 
 155      25D6A613 
 155      F407
 156 014c 44557702 		.ascii	"DUw\002"
 157              		.text
 158              		.section	.gnu.lto_ADC_intClock_GetFractionalDividerRegister.58eab318,"",%progbits
 159 0000 789C6361 		.ascii	"x\234ca`d\000\201i@\254\001\304\322@\314\310\314\300"
 159      60640081 
 159      6940AC01 
 159      C4D240CC 
 159      C8CCC0
 160 0013 C834E11C 		.ascii	"\3104\341\034\003C#\007\023##\210\321\300\301\310P\317"
 160      03432307 
 160      13232388 
 160      D1C0C1C8 
 160      50CF
 161 0025 C458CFF8 		.ascii	"\304X\317\370\225\351/\023\343\351\357'z\2704\22774"
 161      95E92F13 
 161      E3E9EF27 
 161      7AB83497 
 161      3734
 162 0037 34353C38 		.ascii	"45<8\372\330r\372\212\003\214\255\314\014\014\377\231"
 162      FAD872FA 
 162      8A038CAD 
 162      CC0C0CFF 
ARM GAS  C:\Users\gjl\AppData\Local\Temp\ccRmXffq.s 			page 12


 162      99
 163 0048 18188D65 		.ascii	"\030\030\215e\030\015d@F,g\324d\000*}\264\361\337T^"
 163      180D6440 
 163      462C67D4 
 163      64002A7D 
 163      B4F1DF54 
 164 005d B6960620 		.ascii	"\266\226\006 P\000)\000\312\254`d\003Y\271>\350@\303"
 164      50002900 
 164      CAAC6064 
 164      0359B93E 
 164      E840C3
 165 0070 FFFFCD0D 		.ascii	"\377\377\315\015\007\346\363\035\334\307\007\224\371"
 165      07E6F31D 
 165      DCC70794 
 165      F9
 166 007d 00C420BB 		.ascii	"\000\304 \273>21\201h\346W\214M\007v\367\361\201\324"
 166      3E323181 
 166      68E6578C 
 166      4D0776F7 
 166      F181D4
 167 0090 030D9AD6 		.ascii	"\003\015\232\326z\350<\373\027&\240=\214\014\214+\031"
 167      7AE83CFB 
 167      1726A03D 
 167      8C0C8C2B 
 167      19
 168 00a1 41760075 		.ascii	"Av\000u0\202T\002\365\251\271\247\346\245\026%\226\244"
 168      30825402 
 168      F5A9B9A7 
 168      E6A51625 
 168      96A4
 169 00b3 A6C407E7 		.ascii	"\246\304\007\347\227\026%\247\306\004\004\347;\233\304"
 169      971625A7 
 169      C60404E7 
 169      3B9BC4
 170 00c2 38BA38C7 		.ascii	"8\2728\307g\346\2258\347\344'g\353%3\000\000l\367E\004"
 170      67E69538 
 170      E7E42767 
 170      EB253300 
 170      006CF745 
 171              		.text
 172              		.section	.gnu.lto_.symbol_nodes.58eab318,"",%progbits
 173 0000 789C6361 		.ascii	"x\234ca`d\010g\000\002&\206z\006\206\011\347\030@\324"
 173      60640867 
 173      00022686 
 173      7A068609 
 173      E71840D4 
 174 0014 AE0645A0 		.ascii	"\256\006E\240\000c=#\252\000S=\023\252\000s=3\252\000"
 174      00633D23 
 174      AA00533D 
 174      13AA0073 
 174      3D33AA00 
 175 0028 4B3D0B8A 		.ascii	"K=\013\212\000\003\000U/\023\016"
 175      00030055 
 175      2F130E
 176              		.text
 177              		.section	.gnu.lto_.refs.58eab318,"",%progbits
 178 0000 789C6361 		.ascii	"x\234ca`\004B \000\000\0009\000\007"
ARM GAS  C:\Users\gjl\AppData\Local\Temp\ccRmXffq.s 			page 13


 178      60044220 
 178      00000039 
 178      0007
 179              		.text
 180              		.section	.gnu.lto_.decls.58eab318,"",%progbits
 181 0000 789C8D54 		.ascii	"x\234\215ToL[U\024\277\347\275R\350\243\260I\210!\246"
 181      6F4C5B55 
 181      14BFE7BD 
 181      52E8A3B0 
 181      498821A6 
 182 0014 51DC87C2 		.ascii	"Q\334\207\302\2760\031\306\370\305D\003\216o\316H\344"
 182      BE3019C6 
 182      F8C54403 
 182      8E6FCE48 
 182      E4
 183 0025 D312C2BA 		.ascii	"\323\022\302\272\227I$\224t\235q\237\274\033\2332\375"
 183      97492494 
 183      749D719F 
 183      BC1B9B32 
 183      FD
 184 0036 02667F64 		.ascii	"\002f\177d\201t2\377\264\243\265\035\310\237\242\024"
 184      817432FF 
 184      B4A3B51D 
 184      C89FA214 
 185 0046 70AE741D 		.ascii	"p\256t\0350\030\316H\346\204\014\211\177\230\221M\023"
 185      3018CE48 
 185      E6840C89 
 185      7F98914D 
 185      13
 186 0057 8306EAB9 		.ascii	"\203\006\352\271\367\276\366\275\326\222x\323\363\336"
 186      F7BEF6BD 
 186      D69278D3 
 186      F3DE
 187 0065 BBE79E73 		.ascii	"\273\347\236s~\277\363\247\327D\200\260\3454\023\222"
 187      7EBFF3A7 
 187      D74480B0 
 187      E5341392 
 188 0075 879FCD28 		.ascii	"\207\237\315(\011\\\270%\365D_9(\203(#(S(q\224\031\362"
 188      095CB825 
 188      F5445F39 
 188      28832823 
 188      28532871 
 189 008c DFC56C2C 		.ascii	"\337\305l,\232o\021J1J\020\245\014e\026\3456\312\002"
 189      9A6F114A 
 189      314A10A5 
 189      0C6516E5 
 189      36CA02
 190 009f CA7ECD1E 		.ascii	"\312~\315\0364\237\3145\242a\326g\361M\372\215d\361"
 190      349FCC35 
 190      A261D667 
 190      F14DFA8D 
 190      64F1
 191 00b1 63DC940C 		.ascii	"c\334\224\014\374\253(\021\003\217l\034\246\262\304"
 191      FCAB2811 
 191      038F6C1C 
 191      A6B2C4
 192 00c0 6239E666 		.ascii	"b9\346f\304\331\316?\236\305\177F;\213\030\354\262\325"
ARM GAS  C:\Users\gjl\AppData\Local\Temp\ccRmXffq.s 			page 14


 192      C4D9CE3F 
 192      9EC57F46 
 192      3B8B18EC 
 192      B2D5
 193 00d2 6C5382B9 		.ascii	"lS\202\271\223\321\341\274;\260\010\022h\015!\000\342"
 193      93D1E1BC 
 193      3BB00812 
 193      680D2100 
 193      E2
 194 00e3 095C8810 		.ascii	"\011\\\210\020\276\305\017\211?IJ\225z\021\366$\302"
 194      BEC50F89 
 194      3F494A95 
 194      7A11F624 
 194      C2
 195 00f4 9EEBF460 		.ascii	"\236\353\364`\374\227|'\222\213\007\321\243\203\346"
 195      FC977C27 
 195      928B07D1 
 195      A383E6
 196 0103 042906C2 		.ascii	"\004)\006\302K\234K\311\250\342%\351\016\206x\202\256"
 196      4B9C4BC9 
 196      A8E225E9 
 196      0E867882 
 196      AE
 197 0114 8113A4E7 		.ascii	"\201\023\244\347\004\311\244\303\211\360\335\002\031"
 197      04C9A4C3 
 197      89F0DD02 
 197      19
 198 0121 33C6EFA5 		.ascii	"3\306\357\245\015\357\276\012?\305\325A\251\264G\257"
 198      0DEFBE0A 
 198      3FC5D541 
 198      A9B447AF 
 199 0131 CCDD98AF 		.ascii	"\314\335\230\257O\376S\2022\005X\370\035\250\012\336"
 199      4FFE5382 
 199      320558F8 
 199      1DA80ADE 
 200 0141 0F6F1408 		.ascii	"\017o\024\010\025\263\210/\255>\264\310\245\374{\376"
 200      15B3882F 
 200      AD3EB4C8 
 200      A5FC7BFE 
 201 0151 64A89B59 		.ascii	"d\250\233Y\027)`\302\355\203\231\013+\205\270-V\240"
 201      172960C2 
 201      ED83990B 
 201      2B85B82D 
 201      56A0
 202 0163 74539286 		.ascii	"tS\222\206.y\376\310\001\245\274\235\322\023\264\243"
 202      2E79FEC8 
 202      01A5BC9D 
 202      D213B4A3 
 203 0173 8D16C50A 		.ascii	"\215\026\305\012\011|\0066\010\200\215@\010\312YH\037"
 203      097C0636 
 203      08808D40 
 203      08CA5948 
 203      1F
 204 0184 5410E843 		.ascii	"T\020\350C\345eT~\302\030-{\256<\027\246t'\004A\001"
 204      E565547E 
 204      C2182D7B 
 204      AE3C17A6 
ARM GAS  C:\Users\gjl\AppData\Local\Temp\ccRmXffq.s 			page 15


 204      74270441 
 205 0199 3FC8DC04 		.ascii	"?\310\334\004\363(S\004\305\337~\367\314\344\232$\324"
 205      F3285304 
 205      C5DF7EF7 
 205      CCE49A24 
 205      D4
 206 01aa 30838326 		.ascii	"0\203\203&\246\273\226\370kb\207 \"\341\366\326\372"
 206      A6BB96F8 
 206      6B628720 
 206      22E1F6D6 
 206      FA
 207 01bb 744FBE20 		.ascii	"tO\276 \262\023\267\357|t\246W)9\307\202\3236Z*A\375"
 207      B213B7EF 
 207      7C74A657 
 207      2939C782 
 207      D3365A2A 
 208 01d1 A3308090 		.ascii	"\2430\200\220\375\010I\340s(\301\347\0250\211\360\361"
 208      FD0849E0 
 208      7328C1E7 
 208      153089F0 
 208      F1
 209 01e2 F3D30FA4 		.ascii	"\363\323\017\244]\027\351\305\020]\036\210\226\235k"
 209      5D17E9C5 
 209      105D1E88 
 209      969D6B
 210 01f1 A35E742B 		.ascii	"\243^t+ef\340\325\331\340'{}\012w\260\334\203\260\013"
 210      6566E0D5 
 210      D9E0277B 
 210      7D0A77B0 
 210      DC83B00B 
 211 0205 3D07A77D 		.ascii	"=\007\247}\301|\271\225Wf-\322\225(\330\026r\230C\036"
 211      C17CB995 
 211      57662DD2 
 211      9528D816 
 211      7298431E 
 212 0219 D4108FFF 		.ascii	"\324\020\217\377\352\017\344\012\304\211\255\250\225"
 212      EA0FE40A 
 212      C489ADA8 
 212      95
 213 0226 CEA1CFF3 		.ascii	"\316\241\317\363\314\006\206t\274!#\336\010\307\373"
 213      CC068674 
 213      BC2123DE 
 213      08C7FB
 214 0235 796B74D1 		.ascii	"ykt\321\"\237\000\016\030<\365\243/\017S\266a\343\300"
 214      229F000E 
 214      183CF5A3 
 214      2F0F53B6 
 214      61E3C0
 215 0248 D0359BE8 		.ascii	"\3205\233\350ZW\347\312V\276\354\347\266\322\302J\337"
 215      5A57E7CA 
 215      56BEECE7 
 215      B6D2C24A 
 215      DF
 216 0259 2F262857 		.ascii	"/&(W\264r\373D\271#X\315/u@\033+7o\335z/5\227\020\250"
 216      B472FB44 
 216      B92358CD 
 216      2F75401B 
ARM GAS  C:\Users\gjl\AppData\Local\Temp\ccRmXffq.s 			page 16


 216      2B376FDD 
 217 0273 B2C153D8 		.ascii	"\262\301S\330\2671\354\233M\353\333\027\230\321(f\204"
 217      B731EC9B 
 217      4DEBDB17 
 217      98D12866 
 217      84
 218 0284 00ABE73D 		.ascii	"\000\253\347=kf\336\225H\252+\037\377\375\317:\033\017"
 218      6B66DE95 
 218      48AA2B1F 
 218      FFFDCF3A 
 218      1B0F
 219 0296 3B1B26D9 		.ascii	";\033&\331@\312.Hy?\214\016(r\277 \325}f2`NN\013\326"
 219      40CA2E48 
 219      793F8C0E 
 219      2872BF20 
 219      D57D6632 
 220 02af 4CF1E2B4 		.ascii	"L\361\342\264$K\006_#\252]C\235D\345DrZ&\276}\234Jp"
 220      244B065F 
 220      23AA5D43 
 220      9D44E544 
 220      725A26BE 
 221 02c7 1531BFD2 		.ascii	"\0251\277\322\271\333\265Q9\373\323\331e\013'\305\014"
 221      B9DBB551 
 221      39FBD3D9 
 221      650B27C5 
 221      0C
 222 02d8 C681B3EA 		.ascii	"\306\201\263\352\271\371\335\352\366\323\020\345\255"
 222      B9F9DDEA 
 222      F6D310E5 
 222      AD
 223 02e5 B9969C86 		.ascii	"\271\226\234\206\367\277?>iIN\303\333\265\367\372)="
 223      F7BF3F3E 
 223      69494EC3 
 223      DBB5F7FA 
 223      293D
 224 02f7 857E2666 		.ascii	"\205~&f\007a\0351ll\317\024o\317\326\346\370CI\016\213"
 224      07611D31 
 224      6C6CCF14 
 224      6FCFD6E6 
 224      F843490E 
 225 030c F6DC1B8B 		.ascii	"\366\334\033\213y\254FPFHG\275\2366\020\375\201\373"
 225      79AC4650 
 225      464847BD 
 225      9E3610FD 
 225      81FB
 226 031e C38A3610 		.ascii	"\303\2126\020\363\357Y\273\350\004V\004\263D+\210\351"
 226      F3EF59BB 
 226      E8045604 
 226      B3442B88 
 226      E9
 227 032f 98312366 		.ascii	"\2301#f\234c\216\235\016]\227\344E\201\331\323q\351"
 227      9C638E9D 
 227      0E5D97E4 
 227      4581D9D3 
 227      71E9
 228 0341 72BE1133 		.ascii	"r\276\0213\222\2069\235\206\27147\0300#f\0101{f\345"
 228      9286399D 
ARM GAS  C:\Users\gjl\AppData\Local\Temp\ccRmXffq.s 			page 17


 228      86B93437 
 228      18302366 
 228      08317B66 
 229 0356 14265AC1 		.ascii	"\024&Z\301\015\035\363\206\021s\206a\312\335\343\013"
 229      0D1DF386 
 229      11738661 
 229      CADDE30B 
 230 0366 C3322836 		.ascii	"\3032(6\300\310\320\316\357\224\214\377:\201Y\300\216"
 230      C0C8D0CE 
 230      EF948CFF 
 230      3A8159C0 
 230      8E
 231 0377 C01CEE6F 		.ascii	"\300\034\356o\342\376\002E\263\365D\342\255D\"\227\037"
 231      E2FE0245 
 231      B3F544E2 
 231      AD442297 
 231      1F
 232 0388 7105EDEC 		.ascii	"q\005\355\354\255i\357|\214+\330\003I\215\372\203\037"
 232      AD69EF7C 
 232      8C2BD803 
 232      498DFA83 
 232      1F
 233 0399 C84A3BA3 		.ascii	"\310J;\243\377\277\356\017\346\362\003\355\316\221\333"
 233      FFBFEE0F 
 233      E6F203ED 
 233      CE91DB
 234 03a8 F8352785 		.ascii	"\3705'\205G\326\374\205b\246\262D\370f\373\033hc\177"
 234      47D6FC85 
 234      62A6B244 
 234      F866FB1B 
 234      68637F
 235 03bb E76996FD 		.ascii	"\347i\226\375\002V\354\226\236\375<h\2035\024\233\037"
 235      0256EC96 
 235      9EFD3C68 
 235      8335149B 
 235      1F
 236 03cc CCB5BEAB 		.ascii	"\314\265\276\253_l\334R\317\3676X\371\005\314\336\305"
 236      5F6CDC52 
 236      CFF73658 
 236      F905CCDE 
 236      C5
 237 03dd 2FD45437 		.ascii	"/\324T74\265\270\253\233\235\216\327\033\352\334\215"
 237      34B5B8AB 
 237      9B9D8ED7 
 237      1BEADC8D 
 238 03ed 2EF78B6F 		.ascii	".\367\213o\346\325\276\364jiue%1\037\305\243\252\275"
 238      E6D5BEF4 
 238      6A697565 
 238      25311FC5 
 238      A3AABD
 239 0400 4FD6AA2D 		.ascii	"O\326\252-\252\253\321\255\036j\250s\036u9\324\003/"
 239      AAABD1AD 
 239      1E6AA873 
 239      1E7539D4 
 239      032F
 240 0412 D739AB9F 		.ascii	"\3279\253\237\336\3438\346>\326\252\036\251x\215\330"
 240      DEE338E6 
ARM GAS  C:\Users\gjl\AppData\Local\Temp\ccRmXffq.s 			page 18


 240      3ED6AA1E 
 240      A9788DD8 
 241 0422 B35B1C30 		.ascii	"\263[\0340F\257p\220G2\320\234\255\273\3235\252{\237"
 241      46AF7090 
 241      4732D09C 
 241      ADBBD335 
 241      AA7B9F
 242 0435 ABD1E16E 		.ascii	"\253\321\341nr\26646\3274\275\321tHu\275\242\036n:\342"
 242      72B63436 
 242      D734BDD1 
 242      744875BD 
 242      A21E6E3A 
 243 044a 565D398C 		.ascii	"V]9\214\313\263\234Q\3453O\244\271\325\252\356\014\343"
 243      CBB39C51 
 243      E5334FA4 
 243      B9D5AAEE 
 243      0CE3
 244 045c DD99E7DB 		.ascii	"\335\231\347\333\207u\251\207\253\366\376\0136\250E"
 244      8775A987 
 244      ABF6FE0B 
 244      36A845
 245 046b 8D       		.ascii	"\215"
 246              		.text
 247              		.section	.gnu.lto_.symtab.58eab318,"",%progbits
 248 0000 4144435F 		.ascii	"ADC_intClock_StartEx\000"
 248      696E7443 
 248      6C6F636B 
 248      5F537461 
 248      72744578 
 249 0015 00       		.ascii	"\000"
 250 0016 00       		.ascii	"\000"
 251 0017 00       		.ascii	"\000"
 252 0018 00000000 		.ascii	"\000\000\000\000\000\000\000\000"
 252      00000000 
 253 0020 B5000000 		.ascii	"\265\000\000\000"
 254 0024 4144435F 		.ascii	"ADC_intClock_Stop\000"
 254      696E7443 
 254      6C6F636B 
 254      5F53746F 
 254      7000
 255 0036 00       		.ascii	"\000"
 256 0037 00       		.ascii	"\000"
 257 0038 00       		.ascii	"\000"
 258 0039 00000000 		.ascii	"\000\000\000\000\000\000\000\000"
 258      00000000 
 259 0041 B8000000 		.ascii	"\270\000\000\000"
 260 0045 4144435F 		.ascii	"ADC_intClock_SetFractionalDividerRegister\000"
 260      696E7443 
 260      6C6F636B 
 260      5F536574 
 260      46726163 
 261 006f 00       		.ascii	"\000"
 262 0070 00       		.ascii	"\000"
 263 0071 00       		.ascii	"\000"
 264 0072 00000000 		.ascii	"\000\000\000\000\000\000\000\000"
 264      00000000 
 265 007a C7000000 		.ascii	"\307\000\000\000"
ARM GAS  C:\Users\gjl\AppData\Local\Temp\ccRmXffq.s 			page 19


 266 007e 4144435F 		.ascii	"ADC_intClock_GetDividerRegister\000"
 266      696E7443 
 266      6C6F636B 
 266      5F476574 
 266      44697669 
 267 009e 00       		.ascii	"\000"
 268 009f 00       		.ascii	"\000"
 269 00a0 00       		.ascii	"\000"
 270 00a1 00000000 		.ascii	"\000\000\000\000\000\000\000\000"
 270      00000000 
 271 00a9 CA000000 		.ascii	"\312\000\000\000"
 272 00ad 4144435F 		.ascii	"ADC_intClock_GetFractionalDividerRegister\000"
 272      696E7443 
 272      6C6F636B 
 272      5F476574 
 272      46726163 
 273 00d7 00       		.ascii	"\000"
 274 00d8 00       		.ascii	"\000"
 275 00d9 00       		.ascii	"\000"
 276 00da 00000000 		.ascii	"\000\000\000\000\000\000\000\000"
 276      00000000 
 277 00e2 CD000000 		.ascii	"\315\000\000\000"
 278              		.text
 279              		.section	.gnu.lto_.opts,"",%progbits
 280 0000 272D666D 		.ascii	"'-fmath-errno' '-fsigned-zeros' '-ftrapping-math' '"
 280      6174682D 
 280      6572726E 
 280      6F272027 
 280      2D667369 
 281 0033 2D666E6F 		.ascii	"-fno-trapv' '-fno-openmp' '-fno-openacc' '-mcpu=cor"
 281      2D747261 
 281      70762720 
 281      272D666E 
 281      6F2D6F70 
 282 0066 7465782D 		.ascii	"tex-m0' '-mthumb' '-g' '-Os' '-ffunction-sections' "
 282      6D302720 
 282      272D6D74 
 282      68756D62 
 282      2720272D 
 283 0099 272D6666 		.ascii	"'-ffat-lto-objects' '-flto'\000"
 283      61742D6C 
 283      746F2D6F 
 283      626A6563 
 283      74732720 
 284              		.text
 285              		.cfi_sections	.debug_frame
 286              		.section	.text.ADC_intClock_StartEx,"ax",%progbits
 287              		.align	1
 288              		.global	ADC_intClock_StartEx
 289              		.code	16
 290              		.thumb_func
 291              		.type	ADC_intClock_StartEx, %function
 292              	ADC_intClock_StartEx:
 293              	.LFB0:
 294              		.file 1 "Generated_Source\\PSoC4\\ADC_intClock.c"
   1:Generated_Source\PSoC4/ADC_intClock.c **** /*******************************************************************************
   2:Generated_Source\PSoC4/ADC_intClock.c **** * File Name: ADC_intClock.c
ARM GAS  C:\Users\gjl\AppData\Local\Temp\ccRmXffq.s 			page 20


   3:Generated_Source\PSoC4/ADC_intClock.c **** * Version 2.20
   4:Generated_Source\PSoC4/ADC_intClock.c **** *
   5:Generated_Source\PSoC4/ADC_intClock.c **** *  Description:
   6:Generated_Source\PSoC4/ADC_intClock.c **** *   Provides system API for the clocking, interrupts and watchdog timer.
   7:Generated_Source\PSoC4/ADC_intClock.c **** *
   8:Generated_Source\PSoC4/ADC_intClock.c **** *  Note:
   9:Generated_Source\PSoC4/ADC_intClock.c **** *   Documentation of the API's in this file is located in the
  10:Generated_Source\PSoC4/ADC_intClock.c **** *   System Reference Guide provided with PSoC Creator.
  11:Generated_Source\PSoC4/ADC_intClock.c **** *
  12:Generated_Source\PSoC4/ADC_intClock.c **** ********************************************************************************
  13:Generated_Source\PSoC4/ADC_intClock.c **** * Copyright 2008-2012, Cypress Semiconductor Corporation.  All rights reserved.
  14:Generated_Source\PSoC4/ADC_intClock.c **** * You may use this file only in accordance with the license, terms, conditions,
  15:Generated_Source\PSoC4/ADC_intClock.c **** * disclaimers, and limitations in the end user license agreement accompanying
  16:Generated_Source\PSoC4/ADC_intClock.c **** * the software package with which this file was provided.
  17:Generated_Source\PSoC4/ADC_intClock.c **** *******************************************************************************/
  18:Generated_Source\PSoC4/ADC_intClock.c **** 
  19:Generated_Source\PSoC4/ADC_intClock.c **** #include <cydevice_trm.h>
  20:Generated_Source\PSoC4/ADC_intClock.c **** #include "ADC_intClock.h"
  21:Generated_Source\PSoC4/ADC_intClock.c **** 
  22:Generated_Source\PSoC4/ADC_intClock.c **** #if defined CYREG_PERI_DIV_CMD
  23:Generated_Source\PSoC4/ADC_intClock.c **** 
  24:Generated_Source\PSoC4/ADC_intClock.c **** /*******************************************************************************
  25:Generated_Source\PSoC4/ADC_intClock.c **** * Function Name: ADC_intClock_StartEx
  26:Generated_Source\PSoC4/ADC_intClock.c **** ********************************************************************************
  27:Generated_Source\PSoC4/ADC_intClock.c **** *
  28:Generated_Source\PSoC4/ADC_intClock.c **** * Summary:
  29:Generated_Source\PSoC4/ADC_intClock.c **** *  Starts the clock, aligned to the specified running clock.
  30:Generated_Source\PSoC4/ADC_intClock.c **** *
  31:Generated_Source\PSoC4/ADC_intClock.c **** * Parameters:
  32:Generated_Source\PSoC4/ADC_intClock.c **** *  alignClkDiv:  The divider to which phase alignment is performed when the
  33:Generated_Source\PSoC4/ADC_intClock.c **** *    clock is started.
  34:Generated_Source\PSoC4/ADC_intClock.c **** *
  35:Generated_Source\PSoC4/ADC_intClock.c **** * Returns:
  36:Generated_Source\PSoC4/ADC_intClock.c **** *  None
  37:Generated_Source\PSoC4/ADC_intClock.c **** *
  38:Generated_Source\PSoC4/ADC_intClock.c **** *******************************************************************************/
  39:Generated_Source\PSoC4/ADC_intClock.c **** void ADC_intClock_StartEx(uint32 alignClkDiv)
  40:Generated_Source\PSoC4/ADC_intClock.c **** {
 295              		.loc 1 40 0
 296              		.cfi_startproc
 297              		@ args = 0, pretend = 0, frame = 0
 298              		@ frame_needed = 0, uses_anonymous_args = 0
 299              		@ link register save eliminated.
 300              	.LVL0:
  41:Generated_Source\PSoC4/ADC_intClock.c ****     /* Make sure any previous start command has finished. */
  42:Generated_Source\PSoC4/ADC_intClock.c ****     while((ADC_intClock_CMD_REG & ADC_intClock_CMD_ENABLE_MASK) != 0u)
 301              		.loc 1 42 0
 302 0000 044A     		ldr	r2, .L5
 303              	.L2:
 304              		.loc 1 42 0 is_stmt 0 discriminator 1
 305 0002 1368     		ldr	r3, [r2]
 306 0004 002B     		cmp	r3, #0
 307 0006 FCDB     		blt	.L2
  43:Generated_Source\PSoC4/ADC_intClock.c ****     {
  44:Generated_Source\PSoC4/ADC_intClock.c ****     }
  45:Generated_Source\PSoC4/ADC_intClock.c ****     
  46:Generated_Source\PSoC4/ADC_intClock.c ****     /* Specify the target divider and it's alignment divider, and enable. */
ARM GAS  C:\Users\gjl\AppData\Local\Temp\ccRmXffq.s 			page 21


  47:Generated_Source\PSoC4/ADC_intClock.c ****     ADC_intClock_CMD_REG =
  48:Generated_Source\PSoC4/ADC_intClock.c ****         ((uint32)ADC_intClock__DIV_ID << ADC_intClock_CMD_DIV_SHIFT)|
  49:Generated_Source\PSoC4/ADC_intClock.c ****         (alignClkDiv << ADC_intClock_CMD_PA_DIV_SHIFT) |
 308              		.loc 1 49 0 is_stmt 1
 309 0008 034B     		ldr	r3, .L5+4
 310 000a 0002     		lsls	r0, r0, #8
 311              	.LVL1:
 312 000c 1843     		orrs	r0, r3
  47:Generated_Source\PSoC4/ADC_intClock.c ****         ((uint32)ADC_intClock__DIV_ID << ADC_intClock_CMD_DIV_SHIFT)|
 313              		.loc 1 47 0
 314 000e 014B     		ldr	r3, .L5
  50:Generated_Source\PSoC4/ADC_intClock.c ****         (uint32)ADC_intClock_CMD_ENABLE_MASK;
  51:Generated_Source\PSoC4/ADC_intClock.c **** }
 315              		.loc 1 51 0
 316              		@ sp needed
  47:Generated_Source\PSoC4/ADC_intClock.c ****         ((uint32)ADC_intClock__DIV_ID << ADC_intClock_CMD_DIV_SHIFT)|
 317              		.loc 1 47 0
 318 0010 1860     		str	r0, [r3]
 319              		.loc 1 51 0
 320 0012 7047     		bx	lr
 321              	.L6:
 322              		.align	2
 323              	.L5:
 324 0014 00000140 		.word	1073807360
 325 0018 40000080 		.word	-2147483584
 326              		.cfi_endproc
 327              	.LFE0:
 328              		.size	ADC_intClock_StartEx, .-ADC_intClock_StartEx
 329              		.section	.text.ADC_intClock_Stop,"ax",%progbits
 330              		.align	1
 331              		.global	ADC_intClock_Stop
 332              		.code	16
 333              		.thumb_func
 334              		.type	ADC_intClock_Stop, %function
 335              	ADC_intClock_Stop:
 336              	.LFB1:
  52:Generated_Source\PSoC4/ADC_intClock.c **** 
  53:Generated_Source\PSoC4/ADC_intClock.c **** #else
  54:Generated_Source\PSoC4/ADC_intClock.c **** 
  55:Generated_Source\PSoC4/ADC_intClock.c **** /*******************************************************************************
  56:Generated_Source\PSoC4/ADC_intClock.c **** * Function Name: ADC_intClock_Start
  57:Generated_Source\PSoC4/ADC_intClock.c **** ********************************************************************************
  58:Generated_Source\PSoC4/ADC_intClock.c **** *
  59:Generated_Source\PSoC4/ADC_intClock.c **** * Summary:
  60:Generated_Source\PSoC4/ADC_intClock.c **** *  Starts the clock.
  61:Generated_Source\PSoC4/ADC_intClock.c **** *
  62:Generated_Source\PSoC4/ADC_intClock.c **** * Parameters:
  63:Generated_Source\PSoC4/ADC_intClock.c **** *  None
  64:Generated_Source\PSoC4/ADC_intClock.c **** *
  65:Generated_Source\PSoC4/ADC_intClock.c **** * Returns:
  66:Generated_Source\PSoC4/ADC_intClock.c **** *  None
  67:Generated_Source\PSoC4/ADC_intClock.c **** *
  68:Generated_Source\PSoC4/ADC_intClock.c **** *******************************************************************************/
  69:Generated_Source\PSoC4/ADC_intClock.c **** 
  70:Generated_Source\PSoC4/ADC_intClock.c **** void ADC_intClock_Start(void)
  71:Generated_Source\PSoC4/ADC_intClock.c **** {
  72:Generated_Source\PSoC4/ADC_intClock.c ****     /* Set the bit to enable the clock. */
ARM GAS  C:\Users\gjl\AppData\Local\Temp\ccRmXffq.s 			page 22


  73:Generated_Source\PSoC4/ADC_intClock.c ****     ADC_intClock_ENABLE_REG |= ADC_intClock__ENABLE_MASK;
  74:Generated_Source\PSoC4/ADC_intClock.c **** }
  75:Generated_Source\PSoC4/ADC_intClock.c **** 
  76:Generated_Source\PSoC4/ADC_intClock.c **** #endif /* CYREG_PERI_DIV_CMD */
  77:Generated_Source\PSoC4/ADC_intClock.c **** 
  78:Generated_Source\PSoC4/ADC_intClock.c **** 
  79:Generated_Source\PSoC4/ADC_intClock.c **** /*******************************************************************************
  80:Generated_Source\PSoC4/ADC_intClock.c **** * Function Name: ADC_intClock_Stop
  81:Generated_Source\PSoC4/ADC_intClock.c **** ********************************************************************************
  82:Generated_Source\PSoC4/ADC_intClock.c **** *
  83:Generated_Source\PSoC4/ADC_intClock.c **** * Summary:
  84:Generated_Source\PSoC4/ADC_intClock.c **** *  Stops the clock and returns immediately. This API does not require the
  85:Generated_Source\PSoC4/ADC_intClock.c **** *  source clock to be running but may return before the hardware is actually
  86:Generated_Source\PSoC4/ADC_intClock.c **** *  disabled.
  87:Generated_Source\PSoC4/ADC_intClock.c **** *
  88:Generated_Source\PSoC4/ADC_intClock.c **** * Parameters:
  89:Generated_Source\PSoC4/ADC_intClock.c **** *  None
  90:Generated_Source\PSoC4/ADC_intClock.c **** *
  91:Generated_Source\PSoC4/ADC_intClock.c **** * Returns:
  92:Generated_Source\PSoC4/ADC_intClock.c **** *  None
  93:Generated_Source\PSoC4/ADC_intClock.c **** *
  94:Generated_Source\PSoC4/ADC_intClock.c **** *******************************************************************************/
  95:Generated_Source\PSoC4/ADC_intClock.c **** void ADC_intClock_Stop(void)
  96:Generated_Source\PSoC4/ADC_intClock.c **** {
 337              		.loc 1 96 0
 338              		.cfi_startproc
 339              		@ args = 0, pretend = 0, frame = 0
 340              		@ frame_needed = 0, uses_anonymous_args = 0
 341              		@ link register save eliminated.
  97:Generated_Source\PSoC4/ADC_intClock.c **** #if defined CYREG_PERI_DIV_CMD
  98:Generated_Source\PSoC4/ADC_intClock.c **** 
  99:Generated_Source\PSoC4/ADC_intClock.c ****     /* Make sure any previous start command has finished. */
 100:Generated_Source\PSoC4/ADC_intClock.c ****     while((ADC_intClock_CMD_REG & ADC_intClock_CMD_ENABLE_MASK) != 0u)
 342              		.loc 1 100 0
 343 0000 034A     		ldr	r2, .L10
 344              	.L8:
 345              		.loc 1 100 0 is_stmt 0 discriminator 1
 346 0002 1368     		ldr	r3, [r2]
 347 0004 002B     		cmp	r3, #0
 348 0006 FCDB     		blt	.L8
 101:Generated_Source\PSoC4/ADC_intClock.c ****     {
 102:Generated_Source\PSoC4/ADC_intClock.c ****     }
 103:Generated_Source\PSoC4/ADC_intClock.c ****     
 104:Generated_Source\PSoC4/ADC_intClock.c ****     /* Specify the target divider and it's alignment divider, and disable. */
 105:Generated_Source\PSoC4/ADC_intClock.c ****     ADC_intClock_CMD_REG =
 349              		.loc 1 105 0 is_stmt 1
 350 0008 024A     		ldr	r2, .L10+4
 351 000a 014B     		ldr	r3, .L10
 106:Generated_Source\PSoC4/ADC_intClock.c ****         ((uint32)ADC_intClock__DIV_ID << ADC_intClock_CMD_DIV_SHIFT)|
 107:Generated_Source\PSoC4/ADC_intClock.c ****         ((uint32)ADC_intClock_CMD_DISABLE_MASK);
 108:Generated_Source\PSoC4/ADC_intClock.c **** 
 109:Generated_Source\PSoC4/ADC_intClock.c **** #else
 110:Generated_Source\PSoC4/ADC_intClock.c **** 
 111:Generated_Source\PSoC4/ADC_intClock.c ****     /* Clear the bit to disable the clock. */
 112:Generated_Source\PSoC4/ADC_intClock.c ****     ADC_intClock_ENABLE_REG &= (uint32)(~ADC_intClock__ENABLE_MASK);
 113:Generated_Source\PSoC4/ADC_intClock.c ****     
 114:Generated_Source\PSoC4/ADC_intClock.c **** #endif /* CYREG_PERI_DIV_CMD */
ARM GAS  C:\Users\gjl\AppData\Local\Temp\ccRmXffq.s 			page 23


 115:Generated_Source\PSoC4/ADC_intClock.c **** }
 352              		.loc 1 115 0
 353              		@ sp needed
 105:Generated_Source\PSoC4/ADC_intClock.c ****         ((uint32)ADC_intClock__DIV_ID << ADC_intClock_CMD_DIV_SHIFT)|
 354              		.loc 1 105 0
 355 000c 1A60     		str	r2, [r3]
 356              		.loc 1 115 0
 357 000e 7047     		bx	lr
 358              	.L11:
 359              		.align	2
 360              	.L10:
 361 0010 00000140 		.word	1073807360
 362 0014 40000040 		.word	1073741888
 363              		.cfi_endproc
 364              	.LFE1:
 365              		.size	ADC_intClock_Stop, .-ADC_intClock_Stop
 366              		.section	.text.ADC_intClock_SetFractionalDividerRegister,"ax",%progbits
 367              		.align	1
 368              		.global	ADC_intClock_SetFractionalDividerRegister
 369              		.code	16
 370              		.thumb_func
 371              		.type	ADC_intClock_SetFractionalDividerRegister, %function
 372              	ADC_intClock_SetFractionalDividerRegister:
 373              	.LFB2:
 116:Generated_Source\PSoC4/ADC_intClock.c **** 
 117:Generated_Source\PSoC4/ADC_intClock.c **** 
 118:Generated_Source\PSoC4/ADC_intClock.c **** /*******************************************************************************
 119:Generated_Source\PSoC4/ADC_intClock.c **** * Function Name: ADC_intClock_SetFractionalDividerRegister
 120:Generated_Source\PSoC4/ADC_intClock.c **** ********************************************************************************
 121:Generated_Source\PSoC4/ADC_intClock.c **** *
 122:Generated_Source\PSoC4/ADC_intClock.c **** * Summary:
 123:Generated_Source\PSoC4/ADC_intClock.c **** *  Modifies the clock divider and the fractional divider.
 124:Generated_Source\PSoC4/ADC_intClock.c **** *
 125:Generated_Source\PSoC4/ADC_intClock.c **** * Parameters:
 126:Generated_Source\PSoC4/ADC_intClock.c **** *  clkDivider:  Divider register value (0-65535). This value is NOT the
 127:Generated_Source\PSoC4/ADC_intClock.c **** *    divider; the clock hardware divides by clkDivider plus one. For example,
 128:Generated_Source\PSoC4/ADC_intClock.c **** *    to divide the clock by 2, this parameter should be set to 1.
 129:Generated_Source\PSoC4/ADC_intClock.c **** *  fracDivider:  Fractional Divider register value (0-31).
 130:Generated_Source\PSoC4/ADC_intClock.c **** * Returns:
 131:Generated_Source\PSoC4/ADC_intClock.c **** *  None
 132:Generated_Source\PSoC4/ADC_intClock.c **** *
 133:Generated_Source\PSoC4/ADC_intClock.c **** *******************************************************************************/
 134:Generated_Source\PSoC4/ADC_intClock.c **** void ADC_intClock_SetFractionalDividerRegister(uint16 clkDivider, uint8 clkFractional)
 135:Generated_Source\PSoC4/ADC_intClock.c **** {
 374              		.loc 1 135 0
 375              		.cfi_startproc
 376              		@ args = 0, pretend = 0, frame = 0
 377              		@ frame_needed = 0, uses_anonymous_args = 0
 378              	.LVL2:
 136:Generated_Source\PSoC4/ADC_intClock.c ****     uint32 maskVal;
 137:Generated_Source\PSoC4/ADC_intClock.c ****     uint32 regVal;
 138:Generated_Source\PSoC4/ADC_intClock.c ****     
 139:Generated_Source\PSoC4/ADC_intClock.c **** #if defined (ADC_intClock__FRAC_MASK) || defined (CYREG_PERI_DIV_CMD)
 140:Generated_Source\PSoC4/ADC_intClock.c ****     
 141:Generated_Source\PSoC4/ADC_intClock.c **** 	/* get all but divider bits */
 142:Generated_Source\PSoC4/ADC_intClock.c ****     maskVal = ADC_intClock_DIV_REG & 
 143:Generated_Source\PSoC4/ADC_intClock.c ****                     (uint32)(~(uint32)(ADC_intClock_DIV_INT_MASK | ADC_intClock_DIV_FRAC_MASK)); 
ARM GAS  C:\Users\gjl\AppData\Local\Temp\ccRmXffq.s 			page 24


 144:Generated_Source\PSoC4/ADC_intClock.c **** 	/* combine mask and new divider vals into 32-bit value */
 145:Generated_Source\PSoC4/ADC_intClock.c ****     regVal = maskVal |
 379              		.loc 1 145 0
 380 0000 FF22     		movs	r2, #255
 381 0002 C900     		lsls	r1, r1, #3
 382              	.LVL3:
 383 0004 1140     		ands	r1, r2
 384 0006 0202     		lsls	r2, r0, #8
 385 0008 1143     		orrs	r1, r2
 386 000a 0723     		movs	r3, #7
 387 000c 0800     		movs	r0, r1
 388              	.LVL4:
 135:Generated_Source\PSoC4/ADC_intClock.c ****     uint32 maskVal;
 389              		.loc 1 135 0
 390 000e 30B5     		push	{r4, r5, lr}
 391              		.cfi_def_cfa_offset 12
 392              		.cfi_offset 4, -12
 393              		.cfi_offset 5, -8
 394              		.cfi_offset 14, -4
 142:Generated_Source\PSoC4/ADC_intClock.c ****                     (uint32)(~(uint32)(ADC_intClock_DIV_INT_MASK | ADC_intClock_DIV_FRAC_MASK)); 
 395              		.loc 1 142 0
 396 0010 024C     		ldr	r4, .L13
 146:Generated_Source\PSoC4/ADC_intClock.c ****         ((uint32)((uint32)clkDivider <<  ADC_intClock_DIV_INT_SHIFT) & ADC_intClock_DIV_INT_MASK) |
 147:Generated_Source\PSoC4/ADC_intClock.c ****         ((uint32)((uint32)clkFractional << ADC_intClock_DIV_FRAC_SHIFT) & ADC_intClock_DIV_FRAC_MAS
 148:Generated_Source\PSoC4/ADC_intClock.c ****     
 149:Generated_Source\PSoC4/ADC_intClock.c **** #else
 150:Generated_Source\PSoC4/ADC_intClock.c ****     /* get all but integer divider bits */
 151:Generated_Source\PSoC4/ADC_intClock.c ****     maskVal = ADC_intClock_DIV_REG & (uint32)(~(uint32)ADC_intClock__DIVIDER_MASK);
 152:Generated_Source\PSoC4/ADC_intClock.c ****     /* combine mask and new divider val into 32-bit value */
 153:Generated_Source\PSoC4/ADC_intClock.c ****     regVal = clkDivider | maskVal;
 154:Generated_Source\PSoC4/ADC_intClock.c ****     
 155:Generated_Source\PSoC4/ADC_intClock.c **** #endif /* ADC_intClock__FRAC_MASK || CYREG_PERI_DIV_CMD */
 156:Generated_Source\PSoC4/ADC_intClock.c **** 
 157:Generated_Source\PSoC4/ADC_intClock.c ****     ADC_intClock_DIV_REG = regVal;
 158:Generated_Source\PSoC4/ADC_intClock.c **** }
 397              		.loc 1 158 0
 398              		@ sp needed
 142:Generated_Source\PSoC4/ADC_intClock.c ****                     (uint32)(~(uint32)(ADC_intClock_DIV_INT_MASK | ADC_intClock_DIV_FRAC_MASK)); 
 399              		.loc 1 142 0
 400 0012 2568     		ldr	r5, [r4]
 401              	.LVL5:
 145:Generated_Source\PSoC4/ADC_intClock.c ****         ((uint32)((uint32)clkDivider <<  ADC_intClock_DIV_INT_SHIFT) & ADC_intClock_DIV_INT_MASK) |
 402              		.loc 1 145 0
 403 0014 2B40     		ands	r3, r5
 404              	.LVL6:
 405 0016 1843     		orrs	r0, r3
 406              	.LVL7:
 157:Generated_Source\PSoC4/ADC_intClock.c **** }
 407              		.loc 1 157 0
 408 0018 2060     		str	r0, [r4]
 409              		.loc 1 158 0
 410 001a 30BD     		pop	{r4, r5, pc}
 411              	.L14:
 412              		.align	2
 413              	.L13:
 414 001c 00030140 		.word	1073808128
 415              		.cfi_endproc
ARM GAS  C:\Users\gjl\AppData\Local\Temp\ccRmXffq.s 			page 25


 416              	.LFE2:
 417              		.size	ADC_intClock_SetFractionalDividerRegister, .-ADC_intClock_SetFractionalDividerRegister
 418              		.section	.text.ADC_intClock_GetDividerRegister,"ax",%progbits
 419              		.align	1
 420              		.global	ADC_intClock_GetDividerRegister
 421              		.code	16
 422              		.thumb_func
 423              		.type	ADC_intClock_GetDividerRegister, %function
 424              	ADC_intClock_GetDividerRegister:
 425              	.LFB3:
 159:Generated_Source\PSoC4/ADC_intClock.c **** 
 160:Generated_Source\PSoC4/ADC_intClock.c **** 
 161:Generated_Source\PSoC4/ADC_intClock.c **** /*******************************************************************************
 162:Generated_Source\PSoC4/ADC_intClock.c **** * Function Name: ADC_intClock_GetDividerRegister
 163:Generated_Source\PSoC4/ADC_intClock.c **** ********************************************************************************
 164:Generated_Source\PSoC4/ADC_intClock.c **** *
 165:Generated_Source\PSoC4/ADC_intClock.c **** * Summary:
 166:Generated_Source\PSoC4/ADC_intClock.c **** *  Gets the clock divider register value.
 167:Generated_Source\PSoC4/ADC_intClock.c **** *
 168:Generated_Source\PSoC4/ADC_intClock.c **** * Parameters:
 169:Generated_Source\PSoC4/ADC_intClock.c **** *  None
 170:Generated_Source\PSoC4/ADC_intClock.c **** *
 171:Generated_Source\PSoC4/ADC_intClock.c **** * Returns:
 172:Generated_Source\PSoC4/ADC_intClock.c **** *  Divide value of the clock minus 1. For example, if the clock is set to
 173:Generated_Source\PSoC4/ADC_intClock.c **** *  divide by 2, the return value will be 1.
 174:Generated_Source\PSoC4/ADC_intClock.c **** *
 175:Generated_Source\PSoC4/ADC_intClock.c **** *******************************************************************************/
 176:Generated_Source\PSoC4/ADC_intClock.c **** uint16 ADC_intClock_GetDividerRegister(void)
 177:Generated_Source\PSoC4/ADC_intClock.c **** {
 426              		.loc 1 177 0
 427              		.cfi_startproc
 428              		@ args = 0, pretend = 0, frame = 0
 429              		@ frame_needed = 0, uses_anonymous_args = 0
 430              		@ link register save eliminated.
 178:Generated_Source\PSoC4/ADC_intClock.c ****     return (uint16)((ADC_intClock_DIV_REG & ADC_intClock_DIV_INT_MASK)
 431              		.loc 1 178 0
 432 0000 024B     		ldr	r3, .L16
 179:Generated_Source\PSoC4/ADC_intClock.c ****         >> ADC_intClock_DIV_INT_SHIFT);
 180:Generated_Source\PSoC4/ADC_intClock.c **** }
 433              		.loc 1 180 0
 434              		@ sp needed
 178:Generated_Source\PSoC4/ADC_intClock.c ****     return (uint16)((ADC_intClock_DIV_REG & ADC_intClock_DIV_INT_MASK)
 435              		.loc 1 178 0
 436 0002 1868     		ldr	r0, [r3]
 437 0004 000A     		lsrs	r0, r0, #8
 438 0006 80B2     		uxth	r0, r0
 439              		.loc 1 180 0
 440 0008 7047     		bx	lr
 441              	.L17:
 442 000a C046     		.align	2
 443              	.L16:
 444 000c 00030140 		.word	1073808128
 445              		.cfi_endproc
 446              	.LFE3:
 447              		.size	ADC_intClock_GetDividerRegister, .-ADC_intClock_GetDividerRegister
 448              		.section	.text.ADC_intClock_GetFractionalDividerRegister,"ax",%progbits
 449              		.align	1
ARM GAS  C:\Users\gjl\AppData\Local\Temp\ccRmXffq.s 			page 26


 450              		.global	ADC_intClock_GetFractionalDividerRegister
 451              		.code	16
 452              		.thumb_func
 453              		.type	ADC_intClock_GetFractionalDividerRegister, %function
 454              	ADC_intClock_GetFractionalDividerRegister:
 455              	.LFB4:
 181:Generated_Source\PSoC4/ADC_intClock.c **** 
 182:Generated_Source\PSoC4/ADC_intClock.c **** 
 183:Generated_Source\PSoC4/ADC_intClock.c **** /*******************************************************************************
 184:Generated_Source\PSoC4/ADC_intClock.c **** * Function Name: ADC_intClock_GetFractionalDividerRegister
 185:Generated_Source\PSoC4/ADC_intClock.c **** ********************************************************************************
 186:Generated_Source\PSoC4/ADC_intClock.c **** *
 187:Generated_Source\PSoC4/ADC_intClock.c **** * Summary:
 188:Generated_Source\PSoC4/ADC_intClock.c **** *  Gets the clock fractional divider register value.
 189:Generated_Source\PSoC4/ADC_intClock.c **** *
 190:Generated_Source\PSoC4/ADC_intClock.c **** * Parameters:
 191:Generated_Source\PSoC4/ADC_intClock.c **** *  None
 192:Generated_Source\PSoC4/ADC_intClock.c **** *
 193:Generated_Source\PSoC4/ADC_intClock.c **** * Returns:
 194:Generated_Source\PSoC4/ADC_intClock.c **** *  Fractional Divide value of the clock
 195:Generated_Source\PSoC4/ADC_intClock.c **** *  0 if the fractional divider is not in use.
 196:Generated_Source\PSoC4/ADC_intClock.c **** *
 197:Generated_Source\PSoC4/ADC_intClock.c **** *******************************************************************************/
 198:Generated_Source\PSoC4/ADC_intClock.c **** uint8 ADC_intClock_GetFractionalDividerRegister(void)
 199:Generated_Source\PSoC4/ADC_intClock.c **** {
 456              		.loc 1 199 0
 457              		.cfi_startproc
 458              		@ args = 0, pretend = 0, frame = 0
 459              		@ frame_needed = 0, uses_anonymous_args = 0
 460              		@ link register save eliminated.
 200:Generated_Source\PSoC4/ADC_intClock.c **** #if defined (ADC_intClock__FRAC_MASK)
 201:Generated_Source\PSoC4/ADC_intClock.c ****     /* return fractional divider bits */
 202:Generated_Source\PSoC4/ADC_intClock.c ****     return (uint8)((ADC_intClock_DIV_REG & ADC_intClock_DIV_FRAC_MASK)
 203:Generated_Source\PSoC4/ADC_intClock.c ****         >> ADC_intClock_DIV_FRAC_SHIFT);
 204:Generated_Source\PSoC4/ADC_intClock.c **** #else
 205:Generated_Source\PSoC4/ADC_intClock.c ****     return 0u;
 206:Generated_Source\PSoC4/ADC_intClock.c **** #endif /* ADC_intClock__FRAC_MASK */
 207:Generated_Source\PSoC4/ADC_intClock.c **** }
 461              		.loc 1 207 0
 462 0000 0020     		movs	r0, #0
 463              		@ sp needed
 464 0002 7047     		bx	lr
 465              		.cfi_endproc
 466              	.LFE4:
 467              		.size	ADC_intClock_GetFractionalDividerRegister, .-ADC_intClock_GetFractionalDividerRegister
 468              		.text
 469              	.Letext0:
 470              		.file 2 "Generated_Source\\PSoC4/cytypes.h"