ARM GAS  C:\Users\gjl\AppData\Local\Temp\ccBjvZyb.s 			page 1


   1              		.syntax unified
   2              		.cpu cortex-m0
   3              		.fpu softvfp
   4              		.eabi_attribute 20, 1
   5              		.eabi_attribute 21, 1
   6              		.eabi_attribute 23, 3
   7              		.eabi_attribute 24, 1
   8              		.eabi_attribute 25, 1
   9              		.eabi_attribute 26, 1
  10              		.eabi_attribute 30, 4
  11              		.eabi_attribute 34, 0
  12              		.eabi_attribute 18, 4
  13              		.thumb
  14              		.syntax unified
  15              		.file	"Clock_1.c"
  16              		.text
  17              	.Ltext0:
  18              		.section	.gnu.lto_.profile.58ea9657,"",%progbits
  19 0000 789C6361 		.ascii	"x\234ca`d`a`\000\222r\222\000\000\277\000B"
  19      60646061 
  19      60009272 
  19      920000BF 
  19      0042
  20              		.text
  21              		.section	.gnu.lto_.icf.58ea9657,"",%progbits
  22 0000 789C6361 		.ascii	"x\234ca`d\000\001\005\006\004`e\3305\377\355%\026\306"
  22      60640001 
  22      05060460 
  22      65D835FF 
  22      ED2516C6 
  23 0014 1753677D 		.ascii	"\027Sg}bf\372\322\262\357\006;\363\374\017\367\316\361"
  23      6266FAD2 
  23      B2EF063B 
  23      F3FC0FF7 
  23      CEF1
  24 0026 B3CC6E9A 		.ascii	"\263\314n\2327\205\207\001\000\004\031\017\027"
  24      37858701 
  24      0004190F 
  24      17
  25              		.text
  26              		.section	.gnu.lto_.jmpfuncs.58ea9657,"",%progbits
  27 0000 789C6361 		.ascii	"x\234ca`d\000\001q\006\004`e`dd\254\007\21231122\327"
  27      60640001 
  27      71060460 
  27      65606464 
  27      AC078A33 
  28 0019 D7333330 		.ascii	"\327330\260\000\205\001\026\322\001\263"
  28      B0008501 
  28      16D201B3 
  29              		.text
  30              		.section	.gnu.lto_.inline.58ea9657,"",%progbits
  31 0000 789C458B 		.ascii	"x\234E\213\261\015\2000\014\004\337\316\007B(`\003("
  31      B10D8030 
  31      0C04DFCE 
  31      07422860 
  31      0328
  32 0012 10E33013 		.ascii	"\020\3430\023#PRf\016\246`$l!\310\027\226\375\347#\004"
ARM GAS  C:\Users\gjl\AppData\Local\Temp\ccBjvZyb.s 			page 2


  32      23505266 
  32      0EA66024 
  32      6C21C817 
  32      96FDE723 
  33 0027 9E1D3511 		.ascii	"\236\0355\021\350V\021\314\206B\272N\242)\223\202e\242"
  33      E85611CC 
  33      8642BA4E 
  33      A2299382 
  33      65A2
  34 0039 6341BB08 		.ascii	"cA\273\010\264\002\213\242\317\242\030\315\220d\203"
  34      B4028BA2 
  34      CFA218CD 
  34      906483
  35 0048 F9D85EA8 		.ascii	"\371\330^\250\367@W\223\277\005D\232j\347o\022A\255"
  35      F7405793 
  35      BF05449A 
  35      6AE76F12 
  35      41AD
  36 005a B2ED6BF0 		.ascii	"\262\355k\360\000t\\\014$"
  36      00745C0C 
  36      24
  37              		.text
  38              		.section	.gnu.lto_.pureconst.58ea9657,"",%progbits
  39 0000 789C6361 		.ascii	"x\234ca`d\340f```e\220b\224b\222b\226ba\000\000\003"
  39      6064E066 
  39      60606065 
  39      90629462 
  39      92629662 
  40 0018 E40088   		.ascii	"\344\000\210"
  41              		.text
  42              		.section	.gnu.lto_Clock_1_StartEx.58ea9657,"",%progbits
  43 0000 789C5551 		.ascii	"x\234UQMk\023a\020\236\347\375\330\2546\355/\350\241"
  43      4D6B1361 
  43      109EE7FD 
  43      D8AC36ED 
  43      2FE8A1
  44 0013 82507A50 		.ascii	"\202PzP\021\374\003\022\321\253\330k\241\2244Hmh\240"
  44      11FC0312 
  44      D1ABD86B 
  44      A1943448 
  44      6D68A0
  45 0026 A857DF64 		.ascii	"\250W\337dw\033\024\017\202X\260(AA\373\2415\215\236"
  45      771B140F 
  45      8258B028 
  45      4141FBA1 
  45      358D9E
  46 0039 C44B5C11 		.ascii	"\304K\\\021A0\322\213\275x\360\003\367\340)\321\372"
  46      4130D28B 
  46      BD78F003 
  46      F7E029D1 
  46      FA
  47 004a 8155E34C 		.ascii	"\201U\343L6\007;\2603\357\014\317\314<\317\254!\220"
  47      36073BB0 
  47      33EF0CCF 
  47      CC3CCFAC 
  47      2190
  48 005c D890223A 		.ascii	"\330\220\":\304\3618\177\360\010\352J\213\250\354+\350"
ARM GAS  C:\Users\gjl\AppData\Local\Temp\ccBjvZyb.s 			page 3


  48      C4F1387F 
  48      F008EA4A 
  48      8BA8EC2B 
  48      E8
  49 006d F4A195BD 		.ascii	"\364\241\225\275\374\202\310\3555a\206\\\326\246\365"
  49      FC82C8ED 
  49      3561865C 
  49      D6A6F5
  50 007c A30690E8 		.ascii	"\243\006\220\350|\320\005\245\255\001{J\355\233\372"
  50      7CD005A5 
  50      AD017B4A 
  50      ED9BFA
  51 008b A3105793 		.ascii	"\243\020W\223\307jl\331\261\275\373tU\273\225&\"\006"
  51      C76A6CD9 
  51      B1BDFB74 
  51      55BB9526 
  51      2206
  52 009d 74558AC1 		.ascii	"tU\212\3012\306\030\265\031n\334\320\333*\322\200\341"
  52      32C618B5 
  52      196EDCD0 
  52      DB2AD280 
  52      E1
  53 00ae B4F36AE9 		.ascii	"\264\363j\351\343\220\244\012#\234^|\366\375\251\321"
  53      E390A40A 
  53      239C5E7C 
  53      F6FDA9D1 
  54 00be FB41FC6E 		.ascii	"\373A\374n|\255%\203\243w\234\2538\2673\355\366DZc\015"
  54      7CAD2583 
  54      A3779CAB 
  54      38B733ED 
  54      F6445A63 
  55 00d3 9AE76115 		.ascii	"\232\347a\025\303X\3010q\211p\017\243\002\377\320\370"
  55      C358C130 
  55      7189700F 
  55      A302FFD0 
  55      F8
  56 00e4 7B6DD00B 		.ascii	"{m\320\013e\375H\272\024\367\341\211\342\372\251\246"
  56      65FD48BA 
  56      14F7E189 
  56      E2FAA9A6 
  57 00f4 EB7603D7 		.ascii	"\353v\003\327l\330u\355+\3562\232\035+\220^+\271'\216"
  57      6CD875ED 
  57      2BEE329A 
  57      1D2B905E 
  57      2BB9278E 
  58 0108 A8CD6DAC 		.ascii	"\250\315m\254\271\255\024\007\335a}\254X'\210\177]z"
  58      B9AD1407 
  58      DD617DAC 
  58      5827887F 
  58      5D7A
  59 011a F35CCBBC 		.ascii	"\363\\\313\274@\213\324\305(~\235\021\326^\217\351\355"
  59      408BD4C5 
  59      287E9D11 
  59      D65E8FE9 
  59      ED
  60 012b 5B3B5B36 		.ascii	"[;[6M\235\013\235\350\252F\233\253\331\032n\226C>B\006"
  60      4D9D0B9D 
ARM GAS  C:\Users\gjl\AppData\Local\Temp\ccBjvZyb.s 			page 4


  60      E8AA469B 
  60      ABD91A6E 
  60      96433E42 
  61 0140 0F98F03A 		.ascii	"\017\230\360:\023&\324Q\003%\250|\251\376\366\322\201"
  61      1326D451 
  61      0325A87C 
  61      A9FEF6D2 
  61      81
  62 0151 9A67D27B 		.ascii	"\232g\322{\204\255\340L\277\360\377\006\013\302\206"
  62      84ADE04C 
  62      BFF0FF06 
  62      0BC286
  63 0160 7492D0B3 		.ascii	"t\222\320\263\304\177\006\035e\204_\202\240\275\320"
  63      C47F061D 
  63      65845F82 
  63      A0BDD0
  64 016f 4A6CDA65 		.ascii	"Jl\332e\003-\213\227\236l\277\354q\361\341\243\301\215"
  64      032D8B97 
  64      9E6CBFEC 
  64      71F1E1A3 
  64      C18D
  65 0181 8CFAB9F0 		.ascii	"\214\372\271\360\266\277Kp\014\272\376\343\356ZV@\006"
  65      B6BF4B70 
  65      0CBAFEE3 
  65      EE5A5640 
  65      06
  66 0192 31DFCBC7 		.ascii	"1\337\313\307\303\0360^\354\324\017\010p\227\200\262"
  66      C31E305E 
  66      ECD40F08 
  66      709780B2 
  67 01a2 7303BB35 		.ascii	"s\003\2735<b\015<\213>\243\322\334\352\255\357\323\003"
  67      3C620D3C 
  67      8B3EA3D2 
  67      DCEAADEF 
  67      D303
  68 01b4 D3E213EE 		.ascii	"\323\342\023\356;Q\230+\314O\235-LO\216\227\316\315"
  68      3B51982B 
  68      CC4F9D2D 
  68      4C4F8E97 
  68      CECD
  69 01c6 E70B1327 		.ascii	"\347\013\023'\307K\271#\023\271b)?;y\370`\236\006\246"
  69      C74BB923 
  69      13B96229 
  69      3F3B79F8 
  69      609E06A6 
  70 01da 8A33A7E7 		.ascii	"\2123\247\347r\305\331c3\347\377\001V\355\3012"
  70      72C5D963 
  70      33E7FF01 
  70      56EDC132 
  71              		.text
  72              		.section	.gnu.lto_Clock_1_Stop.58ea9657,"",%progbits
  73 0000 789C5550 		.ascii	"x\234UP\277KBQ\024>\337\275\357\251\224\376\007\016"
  73      BF4B4251 
  73      143EDFBD 
  73      EFA994FE 
  73      070E
  74 0012 45934B14 		.ascii	"E\223K\0244\264\206\220k\344\032H\230K\277\004\251\271"
ARM GAS  C:\Users\gjl\AppData\Local\Temp\ccBjvZyb.s 			page 5


  74      34B48690 
  74      6BE41A48 
  74      984BBF04 
  74      A9B9
  75 0024 ABBE8711 		.ascii	"\253\276\207\021A5\324TH-j?il\263\267\264\031.\271V"
  75      4135D454 
  75      482D6A3F 
  75      696CB3B7 
  75      B4192EB9 
  76 0039 90430469 		.ascii	"\220C\004i\330R\326\353\\\236C\0368\347\334{\356w\277"
  76      D852D6EB 
  76      5C9E431E 
  76      38E7DC7B 
  76      EE77BF
  77 004c EFE31804 		.ascii	"\357\343\030\004\322\261\302m\204\3734'|\004\261[#\312"
  77      D2B1C26D 
  77      84FB3427 
  77      7C04B15B 
  77      23CA
  78 005e 0604A477 		.ascii	"\006\004\244w\220\302\334\276#R\003\206\345'\0254\275"
  78      90C2DCBE 
  78      23520386 
  78      E5271534 
  78      BD
  79 006f F99401E8 		.ascii	"\371\224\001\350\256\002\240\015!M\003\\\311\213O\361"
  79      AE02A00D 
  79      214D035C 
  79      C98B4FF1 
  80 007f 23E0149A 		.ascii	"#\340\024\2327\"RR\034\217/\357c\252\\\205\315\000W"
  80      37225252 
  80      1C8F2FEF 
  80      63AA5C85 
  80      CD0057
  81 0092 78189410 		.ascii	"x\030\224\020!\206=_\377\356\207|\226\206\015y\217("
  81      21863D5F 
  81      FFEE877C 
  81      96860D79 
  81      8F28
  82 00a4 C3A79D5D 		.ascii	"\303\247\235]\315V\225\353\346Uu\317\177\373\3407\005"
  82      CD5695EB 
  82      E65575CF 
  82      7FFBE037 
  82      05
  83 00b5 D912920B 		.ascii	"\331\022\222\013cZ\234l\246%\0047\331fa\266\"\233p\276"
  83      635A9C6C 
  83      A6250437 
  83      D96661B6 
  83      229B70BE 
  84 00c9 B69A8793 		.ascii	"\266\232\207\223\232 /\265\207\003\333\271\367w\204"
  84      9A202FB5 
  84      8703DBB9 
  84      F77784
  85 00d8 2D25B4D6 		.ascii	"-%\264\326\311\361w\303\364\256JY\312\340Q\301\256W"
  85      C9F177C3 
  85      F4AE4A59 
  85      CAE051C1 
  85      AE57
ARM GAS  C:\Users\gjl\AppData\Local\Temp\ccBjvZyb.s 			page 6


  86 00ea 82451C65 		.ascii	"\202E\034e-vg\340\024aT\020f\023g(\202\232\310}\024"
  86      2D7667E0 
  86      14615410 
  86      66136728 
  86      829AC87D 
  87 00ff BA3E8F50 		.ascii	"\272>\217P2'=\301\252\345\027{\203\377\012\002\204s"
  87      32273DC1 
  87      AAE5177B 
  87      83FF0A02 
  87      8473
  88 0111 FD93B43D 		.ascii	"\375\223\264=\223xeh\013C\373c_\235\326[\335\324\277"
  88      93786568 
  88      0B43FB63 
  88      5F9DD65B 
  88      DDD4BF
  89 0124 FA24B34A 		.ascii	"\372$\263J\015\366\253^\260*Cv\272\356fH\263\002\016"
  89      0DF6AB5E 
  89      B02A4376 
  89      BAEE6648 
  89      B3020E
  90 0137 2FC6C025 		.ascii	"/\306\300%\277\276\"Wm\3044IO\004L\316\213\030\216\245"
  90      BFBE2257 
  90      6DC43449 
  90      4F044CCE 
  90      8B188EA5 
  91 014b 565399F9 		.ascii	"VS\231\371\265\324B\"\236^\317$Ss3\361ttb.\272\234N"
  91      B5D44222 
  91      9E5ECF24 
  91      537333F1 
  91      7474622E 
  92 0162 2E25C647 		.ascii	".%\306G\223\364\007U\366\215<"
  92      93F40755 
  92      F68D3C
  93              		.text
  94              		.section	.gnu.lto_Clock_1_SetFractionalDividerRegister.58ea9657,"",%progbits
  95 0000 789C6D52 		.ascii	"x\234mR]H\223a\024~\317\373n\337>\2679\275\014\362\302"
  95      5D489361 
  95      147ECFFB 
  95      6EDF3EB7 
  95      39BD0CF2 
  96 0015 20116F4A 		.ascii	" \021oJ\251\213n\352F)\250\233H\360J\2201G\210\313\301"
  96      A98B6EEA 
  96      4629A89B 
  96      48F04A90 
  96      314788CB 
  97 002a D26E7DE7 		.ascii	"\322n}\347\366m2\210$JR\022/\304\374M\267\354\317\024"
  97      F66D3288 
  97      244A5212 
  97      2FC4FC4D 
  97      B7ECCF14 
  98 003e FA1AD885 		.ascii	"\372\032\330\205\230\221\250\335I\230\030D\324\264\225"
  98      9891A8DD 
  98      49981844 
  98      D4B495
  99 004d 21DA3AE7 		.ascii	"!\332:\347{g!\364\302\336\237\263\347y\3169\317\371"
  99      7B6721F4 
  99      C2DE9FB3 
ARM GAS  C:\Users\gjl\AppData\Local\Temp\ccBjvZyb.s 			page 7


  99      E779CE39 
  99      CFF9
 100 005f 6C0C18AD 		.ascii	"l\014\030\2556\301\330%<\217\342\017\004\003\336\265"
 100      36C1D825 
 100      3C8FE20F 
 100      0403DEB5 
 101 006f C85858E7 		.ascii	"\310XX\347\000t\221:\260v\016\355\360\203\357sH\307"
 101      0074913A 
 101      B0760EED 
 101      F083EF73 
 101      48C7
 102 0081 37A779C5 		.ascii	"7\247y\305\220\304\365an\240J\016\233` =\307-%\006C"
 102      90C4F561 
 102      6EA04A0E 
 102      9B60203D 
 102      C72D2506 
 103 0096 5081A8B9 		.ascii	"P\201\250\271\334\216Y\224\345\206\000 \322Rf\241\317"
 103      DC8E5994 
 103      E5860020 
 103      D25266A1 
 103      CF
 104 00a7 454F0EC5 		.ascii	"EO\016\305\370\214m\277\337p\213\343\300\360>\226|\231"
 104      F88C6DBF 
 104      DF708BE3 
 104      C0F03E96 
 104      7C99
 105 00b9 282A1F94 		.ascii	"(*\037\224\262C\312\025\257\264\033B\300(\010\324\203"
 105      B243CA15 
 105      AFB41B42 
 105      C02808D4 
 105      83
 106 00ca 11288161 		.ascii	"\021(\201a(a\030b0\006\345\210\216\247\036\334\366\210"
 106      28611862 
 106      3006E588 
 106      8EA71EDC 
 106      F688
 107 00dc 931673B0 		.ascii	"\223\026s\260sw\034\362\314\236\327.Yi\010\033\214+"
 107      73771CF2 
 107      CC9ED72E 
 107      5969081B 
 107      8C2B
 108 00ee EAA912A8 		.ascii	"\352\251\022\250$\242\215\301C('\364\273h\362\276P\025"
 108      24A28DC1 
 108      432827F4 
 108      BB68F2BE 
 108      5015
 109 0100 D9F0B9F5 		.ascii	"\331\360\271\365\246\367\243GUT\212\317\257\237\326"
 109      A6F7A347 
 109      55548ACF 
 109      AF9FD6
 110 010f 6E158AB3 		.ascii	"n\025\212\263\226\356\267{\262\270l\200d\315\251\204"
 110      96EEB77B 
 110      B2B86C80 
 110      64CDA984 
 111 011f A7479AD1 		.ascii	"\247G\232\321RC\330!\251\224'\261\250\011,\212\026\202"
 111      5243D821 
 111      A99427B1 
ARM GAS  C:\Users\gjl\AppData\Local\Temp\ccBjvZyb.s 			page 8


 111      A8092C8A 
 111      1682
 112 0131 2767932B 		.ascii	"'g\223+\\\324X\304\211\233\251\011-\317L\316\273eWX"
 112      5CD458C4 
 112      899BA909 
 112      2DCF4CCE 
 112      BB655758 
 113 0145 27E2A3FF 		.ascii	"'\342\243\377\022\327S\277\357\026jQ\362\261\024\246"
 113      12D753BF 
 113      EF166A51 
 113      F2B114A6 
 114 0155 A00C5250 		.ascii	"\240\014RP\246\\\204\307\240\341\\\370At\362\212)s\271"
 114      A65C84C7 
 114      A0E15CF8 
 114      4174F28A 
 114      2973B9
 115 0168 8834FB9D 		.ascii	"\2104\373\235\257\366\234\036\216mih\010\376k\003\262"
 115      AFF69C1E 
 115      8E6D6968 
 115      08FE6B03 
 115      B2
 116 0179 C54E018D 		.ascii	"\305N\001\2156\007m:P\313\005tu\322\346\242\315\315"
 116      36076D3A 
 116      50CB0574 
 116      75D2E6A2 
 116      CDCD
 117 018b 2C7D96C1 		.ascii	",}\226\301\0044\323-\316\351\024\233\220\336M\374\034"
 117      0434D32D 
 117      CEE9149B 
 117      90DE4DFC 
 117      1C
 118 019c 39473923 		.ascii	"9G9#\202F\325m\244\337:\310\030\207\325\323zd\177\031"
 118      8246D56D 
 118      A4DF3AC8 
 118      1887D5D3 
 118      7A647F19 
 119 01b0 D4B33316 		.ascii	"\324\2633\026\225d\335\356\340\367;z?\364\205\2438y"
 119      9564DDEE 
 119      E0F73B7A 
 119      3FF485A3 
 119      3879
 120 01c2 1D9E625F 		.ascii	"\035\236b_O\250/x\006\375\3006!\262\027\373\002JP(\315"
 120      4FA82F78 
 120      06FDC036 
 120      21B217FB 
 120      024A5028 
 121 01d7 6CC2D8B1 		.ascii	"l\302\330\261\274\327\300\001\317\021\273\016\334\352"
 121      BCD7C001 
 121      CF11BB0E 
 121      DCEA
 122 01e5 127B4010 		.ascii	"\022{@\020r:\266\343\253\243u\212d\217\340\330P&\023"
 122      723AB6E3 
 122      ABA3758A 
 122      648FE0D8 
 122      502613
 123 01f8 5B38A222 		.ascii	"[8\242\"\024D\231\336\231\354\274\235d\012@\207i\224"
 123      144499DE 
ARM GAS  C:\Users\gjl\AppData\Local\Temp\ccBjvZyb.s 			page 9


 123      99ECBC9D 
 123      640A4087 
 123      6994
 124 020a 41D0AFD8 		.ascii	"A\320\257\330\342h\275B9\254|\232R[;P+\210\010]\251"
 124      E268BD42 
 124      39AC7C9A 
 124      525B3B50 
 124      2B88085D 
 125 021f 2DE78B72 		.ascii	"-\347\213rb\220>\344\355\344\220[\251\011x\241\324\366"
 125      62903EE4 
 125      EDE4905B 
 125      A90978A1 
 125      D4F6
 126 0231 621BF994 		.ascii	"b\033\371\224.\304\321x\215\215\021]U\236\003\230\371"
 126      2EC4D178 
 126      8D8D115D 
 126      559E0398 
 126      F9
 127 0242 97F38C82 		.ascii	"\227\363\214\202\271\255\264\256\277\015\245\250!7\202"
 127      B9ADB4AE 
 127      BF0DA5A8 
 127      213782
 128 0251 D2DD5B6B 		.ascii	"\322\335[kKv\212\035r,,\245\353\260i\263h\032Q>C\207"
 128      4B768A1D 
 128      722C2CA5 
 128      EBB069B3 
 128      681A513E 
 129 0267 B97F9108 		.ascii	"\271\177\221\010\326\027\222\341@\003\302q\035\273\340"
 129      D61792E1 
 129      4003C271 
 129      1DBBE0
 130 0276 6FF187BC 		.ascii	"o\361\207\274\255\376\306\206\332`[\310\347\257\277"
 130      ADFEC686 
 130      DA605BC8 
 130      E7AFBF
 131 0285 5C1BAC3E 		.ascii	"\\\033\254>]_\035\010\372\232\033\252N\370\230\323\027"
 131      5D5F1D08 
 131      FA9A1BAA 
 131      4EF898D3 
 131      17
 132 0296 68AE69BA 		.ascii	"h\256i\272\321\324\350\017\025\342\365|\310\353km\012"
 132      D1D4E80F 
 132      15E2F57C 
 132      C8EB6B6D 
 132      0A
 133 02a7 B678035A 		.ascii	"\266x\003Z\310\177\265\316\033p\\\363^o\306\363\017"
 133      C87FB5CE 
 133      1B705CF3 
 133      5E6FC6F3 
 133      0F
 134 02b8 A1BC36E1 		.ascii	"\241\2746\341"
 135              		.text
 136              		.section	.gnu.lto_Clock_1_GetDividerRegister.58ea9657,"",%progbits
 137 0000 789C2D90 		.ascii	"x\234-\220\261KBQ\024\306\317w\357\323\036H\324^C\321"
 137      B14B4251 
 137      14C6CF77 
 137      EFD31E48 
ARM GAS  C:\Users\gjl\AppData\Local\Temp\ccBjvZyb.s 			page 10


 137      D45E43D1 
 138 0014 924B10D4 		.ascii	"\222K\020\324\037\020B\255\221\253 ao*\022\244f\257"
 138      1F1042AD 
 138      91AB2061 
 138      6F2A12A4 
 138      66AF
 139 0026 3E5F4553 		.ascii	">_ESC5\004\342RXVJk-&\264D\024TDcD84\231\031\201`\257"
 139      433504E2 
 139      5258564A 
 139      6B2D26B4 
 139      44145444 
 140 0043 73B20BE7 		.ascii	"s\262\013\347\236\373\335\373\235s~\\\213@\262&9\215"
 140      9EFBDDFB 
 140      9D737E5C 
 140      8B40B226 
 140      398D
 141 0055 701EE080 		.ascii	"p\036\340\200&\250\255[\242\214\255\0009\030\033\224"
 141      26A8AD5B 
 141      A28CAD00 
 141      39181B94 
 142 0065 5648E34B 		.ascii	"VH\343Ku\024\256\374\357j_Kybcy\337\270\311\207D\002"
 142      7514AEFC 
 142      EF6A5F4B 
 142      79626379 
 142      DFB8C987 
 143 007b FD2C4BFB 		.ascii	"\375,K\373\225\246\035.\032\2235/\336\371T\306\365F"
 143      95A61D2E 
 143      1A93352F 
 143      DEF954C6 
 143      F546
 144 008d 3DADC857 		.ascii	"=\255\310W\204C\014\242\210A\031q\2040\261\371\365\354"
 144      84430CA2 
 144      88411971 
 144      8430B1F9 
 144      F5EC
 145 009f 67A73798 		.ascii	"g\2477\2303\274\206\304\302/%\004\005\2512W5\276\357"
 145      33BC86C4 
 145      C22F2504 
 145      05A93257 
 145      35BEEF
 146 00b2 9AEA43E8 		.ascii	"\232\352C\350\3629\024\000yZk\331,\222v\324\340\020"
 146      F2391400 
 146      795A6BD9 
 146      2C9276D4 
 146      E010
 147 00c4 B40FA524 		.ascii	"\264\017\245$\353:j\355\315\247rL\352]\255\271\367\256"
 147      EB3A6AED 
 147      CDA7724C 
 147      EA5DADB9 
 147      F7AE
 148 00d6 57BBEB11 		.ascii	"W\273\353\021.\013\177\243\334\316#\272rc-g,\276j\037"
 148      2E0B7FA3 
 148      DCCE23BA 
 148      72632D67 
 148      2CBE6A1F 
 149 00ea 7C6EDB05 		.ascii	"|n\333\005\34439x:\200\023\306;\026<\234\242\000\252"
 149      E4333978 
ARM GAS  C:\Users\gjl\AppData\Local\Temp\ccBjvZyb.s 			page 11


 149      3A8013C6 
 149      3B163C9C 
 149      A200AA
 150 00fd C36D4E93 		.ascii	"\303mN\223\253\321m\267w\321\272\016H}\0206\312l\253"
 150      ABD16DB7 
 150      77D1BA0E 
 150      487D1036 
 150      CA6CAB
 151 0110 23DB5C7F 		.ascii	"#\333\\\177Cw\240\305>z\207\372W\362\245\015\005!c\316"
 151      4377A0C5 
 151      3E7A87FA 
 151      57F2A50D 
 151      052163CE 
 152 0124 E11967D9 		.ascii	"\341\031g\331I\315\2578\013\361hr5\225pb\263\321dd\""
 152      49CDAF38 
 152      0BF16872 
 152      35957062 
 152      B3D16464 
 153 0139 16594A26 		.ascii	"\026YJ&\026\343\343c\011\372\005\035\206un"
 153      16E3E363 
 153      09FA051D 
 153      86756E
 154              		.text
 155              		.section	.gnu.lto_Clock_1_GetFractionalDividerRegister.58ea9657,"",%progbits
 156 0000 789C6361 		.ascii	"x\234ca`d\000\201i@\254\014\304\322@\314\310\314\300"
 156      60640081 
 156      6940AC0C 
 156      C4D240CC 
 156      C8CCC0
 157 0013 C834E11C 		.ascii	"\3104\341\034\003C#\007\023##\210\321\300\301\310P\317"
 157      03432307 
 157      13232388 
 157      D1C0C1C8 
 157      50CF
 158 0025 C458CFF8 		.ascii	"\304X\317\370\225\351/\023\343\351\357'z\2704\22774"
 158      95E92F13 
 158      E3E9EF27 
 158      7AB83497 
 158      3734
 159 0037 34353C38 		.ascii	"45<8\372\330r\372\212\003\214\255\314\014\014\377\231"
 159      FAD872FA 
 159      8A038CAD 
 159      CC0C0CFF 
 159      99
 160 0048 18188D65 		.ascii	"\030\030\215e\030\015d@F,g\324d\000*}\264\361\337T^"
 160      180D6440 
 160      462C67D4 
 160      64002A7D 
 160      B4F1DF54 
 161 005d B6960620 		.ascii	"\266\226\006 P\000)\000\312\254`d\003Y\271>\350@\303"
 161      50002900 
 161      CAAC6064 
 161      0359B93E 
 161      E840C3
 162 0070 FFFFCD0D 		.ascii	"\377\377\315\015\007\346\363\035\334\307\007\224\371"
 162      07E6F31D 
 162      DCC70794 
ARM GAS  C:\Users\gjl\AppData\Local\Temp\ccBjvZyb.s 			page 12


 162      F9
 163 007d 00C420BB 		.ascii	"\000\304 \273>21\201h\346W\214M\007v\367\361\201\324"
 163      3E323181 
 163      68E6578C 
 163      4D0776F7 
 163      F181D4
 164 0090 030D9AD6 		.ascii	"\003\015\232\326z\350<\373\027&\240=\214\014\214+\031"
 164      7AE83CFB 
 164      1726A03D 
 164      8C0C8C2B 
 164      19
 165 00a1 41760075 		.ascii	"Av\000u0\202T\002\365)\272\247\346\245\026%\226\244"
 165      30825402 
 165      F529BAA7 
 165      E6A51625 
 165      96A4
 166 00b3 A6C407E7 		.ascii	"\246\304\007\347\227\026%\247\306\004\004\347;\233\304"
 166      971625A7 
 166      C60404E7 
 166      3B9BC4
 167 00c2 38E7E427 		.ascii	"8\347\344'g\307\033\352%3\000\000\021\273C\030"
 167      67C71BEA 
 167      25330000 
 167      11BB4318 
 168              		.text
 169              		.section	.gnu.lto_.symbol_nodes.58ea9657,"",%progbits
 170 0000 789C6361 		.ascii	"x\234ca`d\010g\000\002&\206z\006\206\011\347\030@\324"
 170      60640867 
 170      00022686 
 170      7A068609 
 170      E71840D4 
 171 0014 AE0645A0 		.ascii	"\256\006E\240\000c=#\252\000S=\023\252\000s=3\252\000"
 171      00633D23 
 171      AA00533D 
 171      13AA0073 
 171      3D33AA00 
 172 0028 4B3D0B8A 		.ascii	"K=\013\212\000\003\000U/\023\016"
 172      00030055 
 172      2F130E
 173              		.text
 174              		.section	.gnu.lto_.refs.58ea9657,"",%progbits
 175 0000 789C6361 		.ascii	"x\234ca`\004B \000\000\0009\000\007"
 175      60044220 
 175      00000039 
 175      0007
 176              		.text
 177              		.section	.gnu.lto_.decls.58ea9657,"",%progbits
 178 0000 789C8D54 		.ascii	"x\234\215TkL\034U\024\276gfY`\330BC\032C\352\306`\323"
 178      6B4C1C55 
 178      14BE6766 
 178      5960D842 
 178      431A43EA 
 179 0017 00F1074A 		.ascii	"\000\361\007J1\306?&&\324\362\317\032\211\374jB\350"
 179      31C63F26 
 179      26D4F2CF 
 179      1A89FC6A 
 179      42E8
ARM GAS  C:\Users\gjl\AppData\Local\Temp\ccBjvZyb.s 			page 13


 180 0029 76AC1B91 		.ascii	"v\254\033\221m\226\255\261\277\274)\245\305\372\207"
 180      6D96ADB1 
 180      BFBC29A5 
 180      C5FA87
 181 0038 4DA01604 		.ascii	"M\240\026\004\251\324\332\345Q\227>Xv\261]\266\257e"
 181      A9D4DAE5 
 181      51973E58 
 181      76B15DB6 
 181      AF65
 182 004a A52C85AE 		.ascii	"\245,\205\256\365\021l\301\"\361\201FT\222JM;\236{g"
 182      F5116CC1 
 182      22F18146 
 182      54924A4D 
 182      3B9E7B67 
 183 005e 66675877 		.ascii	"fgXw\023o\366\334;\367\3149\347\373\316c\307B\200\260"
 183      136FF6DC 
 183      3BF7CC39 
 183      E7FBCE63 
 183      C74280B0 
 184 0072 F5969590 		.ascii	"\365\226\225\220_\360l\300\253\202\013\257\244\226\030"
 184      5FF06CC0 
 184      AB820BAF 
 184      A49618
 185 0081 2B0B6504 		.ascii	"+\013e\004%\2102\2012\211\022'\377]\314&W\363-D\331"
 185      25883281 
 185      32891227 
 185      FF5DCC26 
 185      57F32D44 
 186 0096 84E24729 		.ascii	"\204\342G)E\231F\271\215\222@\331\251\331\203\346\223"
 186      459946B9 
 186      8D9240D9 
 186      A9D983E6 
 186      93
 187 00a7 BA821A66 		.ascii	"\272\202\032fm\032_\335/\230\306\217q\223R\360\257\242"
 187      6D1A5FDD 
 187      2F98C68F 
 187      719352F0 
 187      AFA2
 188 00b9 844D3CD2 		.ascii	"\204M<\322q\230H\023\213\345\230\235\022'\223\377d\032"
 188      71984813 
 188      8BE5989D 
 188      122793FF 
 188      641A
 189 00cb FFB8F62E 		.ascii	"\377\270\366.l\262KW\263\207\002\314\034\212\216\346"
 189      6CB24B57 
 189      B38702CC 
 189      1C8A8EE6 
 190 00db CCC1B720 		.ascii	"\314\301\267 \200\326\020\002\240\356\300\205\250\302"
 190      80D61002 
 190      A0EEC085 
 190      A8C2
 191 00e9 AFF820F0 		.ascii	"\257\370 \360\235$U\311\203\260\235\250\366\\g\004\343"
 191      9D2455C9 
 191      83B09DA8 
 191      F65C6704 
 191      E3
 192 00fa 3FFD54F4 		.ascii	"?\375T\364\305\203\030\321As\202$\003\325K}/\350Q\325"
ARM GAS  C:\Users\gjl\AppData\Local\Temp\ccBjvZyb.s 			page 14


 192      C58318D1 
 192      41738224 
 192      03D54B7D 
 192      2FE851D5 
 193 010e 43301C4C 		.ascii	"C0\034L\361T\272&N\260>'\320\223\376\373\301\352O6\021"
 193      F154BA26 
 193      4EB03E27 
 193      D093FEFB 
 193      C1EA4F36 
 194 0123 33C6E7F9 		.ascii	"3\306\347\3715\337\216\362!\212\253\215R\341)\2432w"
 194      35DF8EF2 
 194      218AAB8D 
 194      52E129A3 
 194      3277
 195 0135 62FD83E2 		.ascii	"b\375\203\342\252\000\245\022\260\360\005\250\362\377"
 195      AA00A512 
 195      B0F005A8 
 195      F2FF
 196 0143 1A5ADBA0 		.ascii	"\032Z\333\240\252\230\305\344\374\322\237\271\342\343"
 196      AA98C5E4 
 196      FCD29FB9 
 196      E2E3
 197 0151 FC79F6D0 		.ascii	"\374y\366\320p7\263.\224\300\202\327?\342]\213\371x"
 197      7037B32E 
 197      94C082D7 
 197      3FE25D8B 
 197      F978
 198 0163 DD2441F1 		.ascii	"\335$A\361CA\010\234\354\375+\013\244\262VJ\017\322"
 198      4341089C 
 198      ECFD2B0B 
 198      A4B2564A 
 198      0FD2
 199 0175 B6665A18 		.ascii	"\266fZ\030\313'\360\031\330\341\014\330\011\014C\031"
 199      CB27F019 
 199      D8E10CD8 
 199      090C4319 
 200 0185 0BD90FE5 		.ascii	"\013\331\017\345\004\006Q9\200\312O\031\243\205\216"
 200      04065139 
 200      80CA4F19 
 200      A3858E
 201 0194 B32F8428 		.ascii	"\263/\204(\335\010~\220`\010Dn\202y\224J*\305\337~\357"
 201      DD087E90 
 201      6008446E 
 201      8279944A 
 201      2AC5DF7E 
 202 01a9 8D675B04 		.ascii	"\215g[\004\3240\203\335\026\246\273\256\334\217\024"
 202      D43083DD 
 202      16A6BBAE 
 202      DC8F14
 203 01b8 A84404BC 		.ascii	"\250D\004\274\336Z\231\352\311S\211l\304\353\221O\332"
 203      DE5A99EA 
 203      C953896C 
 203      C4EB914F 
 203      DA
 204 01c9 FBA4A263 		.ascii	"\373\244\242c,8m\246\305\002\324>\006\347\021\362\034"
 204      2C386DA6 
 204      C502D43E 
ARM GAS  C:\Users\gjl\AppData\Local\Temp\ccBjvZyb.s 			page 15


 204      06E711F2 
 204      1C
 205 01da 4212B800 		.ascii	"B\022\270\000E\270\237\005\213\032~\276o\300k\333r\202"
 205      45B89F05 
 205      8B1A7EBE 
 205      6FC06BDB 
 205      7282
 206 01ec 9E18A60B 		.ascii	"\236\030\246\013\235\321\322c\315\324\207n\305\314\014"
 206      9DD1D263 
 206      CDD4876E 
 206      C5CC0C
 207 01fb 7C061B7C 		.ascii	"|\006\033|d\307i\230\303r\217\300\026\364\354\27226"
 207      64C76998 
 207      C3728FC0 
 207      16F4ECBA 
 207      3236
 208 020d 9E2BBECE 		.ascii	"\236+\276\316+\263\034\356T6d\204\034\345\220\2735\304"
 208      2BB31CEE 
 208      54366484 
 208      1CE590BB 
 208      35C4
 209 021f FB2D47E7 		.ascii	"\373-G\347@E\214<\212\332\350\014\372\274\310l `\340"
 209      40458C3C 
 209      8ADAE80C 
 209      FABCC86C 
 209      2060E0
 210 0232 05CC7841 		.ascii	"\005\314xA\216w:\370\341\035\213\330\304\361\374-?\364"
 210      8E773AF8 
 210      E11D8BD8 
 210      C4F1FC2D 
 210      3FF4
 211 0244 E760C676 		.ascii	"\347`\306v\354\033\230\232fW\233\326\351]|\224'\036"
 211      EC1B989A 
 211      66579BD6 
 211      E95D7C94 
 211      271E
 212 0256 07761112 		.ascii	"\007v\021\022\213\203?[\240L\322\252\335\257V;\214\305"
 212      8B833F5B 
 212      A04CD2AA 
 212      DDAF563B 
 212      8CC5
 213 0268 BC68E0D9 		.ascii	"\274h\340\331Y\265y\347V\372\250\265\210@\245\035\236"
 213      59B579E7 
 213      56FAA8B5 
 213      8840A51D 
 213      9E
 214 0279 C1B65DC2 		.ascii	"\301\266]\302\266\331\265\266}\216\011\215aB\010\260"
 214      B6D9B5B6 
 214      7D8E098D 
 214      614208B0 
 215 0289 F441EFB2 		.ascii	"\364A\357\262\2257%\234l\312\251\007\377\254\260\351"
 215      9537259C 
 215      6CCAA907 
 215      FFACB0E9 
 216 0299 2861B324 		.ascii	"(a\263$\232H\225\250\244|\037G\317K\342G*\251\356\366"
 216      9A4895A8 
 216      A47C1F47 
ARM GAS  C:\Users\gjl\AppData\Local\Temp\ccBjvZyb.s 			page 16


 216      CF4BE247 
 216      2AA9EEF6 
 217 02ad CB67ACFA 		.ascii	"\313g\254\372\260`\311$\037\016\213^1\270\206\250%\032"
 217      B060C924 
 217      1F0E8B5E 
 217      31B886A8 
 217      251A
 218 02bf EA655446 		.ascii	"\352eTF\364a\211|\365\004\025\340*b^1\270\227h\223\322"
 218      F461897C 
 218      F50415E0 
 218      2A625E31 
 218      B8976893 
 219 02d4 F163C742 		.ascii	"\361c\307B.'\305\014\306\201\263\352\271\371\315R\346"
 219      2E27C50C 
 219      C681B3EA 
 219      B9F9CD52 
 219      E6
 220 02e5 6188F2CE 		.ascii	"a\210\362\316\\\327\207\341\273\013\007\333A\037\206"
 220      5CD787E1 
 220      BB0B07DB 
 220      411F86
 221 02f4 C3D5F7CE 		.ascii	"\303\325\367\316Q\332\202~\026f\007!\0031d\356\316\004"
 221      51DA827E 
 221      16660721 
 221      033164EE 
 221      CE04
 222 0306 EF8E92F8 		.ascii	"\357\216\222\370\272L<\305\223\203{\227b\27563&\343"
 222      BA4C3CC5 
 222      93837B97 
 222      62BD3633 
 222      26E3
 223 0318 63807EB1 		.ascii	"c\200~\261n\034V[\256\035\221\264q\230}\337\326I#X\020"
 223      6E1C565B 
 223      AE1D91B4 
 223      71987DDF 
 223      D6492358 
 224 032d 4C12AD20 		.ascii	"L\022\255 f@\306\314\220\223\03420u\367{\213\030Q1{"
 224      6640C6CC 
 224      90931C32 
 224      3075F77B 
 224      8B185131 
 225 0342 DA4E0EE4 		.ascii	"\332N\016\344\2311\303\3530\247\326a.+\027\017\027 "
 225      9931C3EB 
 225      30A7D661 
 225      2E2B170F 
 225      1720
 226 0354 E63062F6 		.ascii	"\3460b\366L\213IL\264\202\033\006\346\0153f\234a\212"
 226      4C8B494C 
 226      B4821B06 
 226      E60D3366 
 226      9C618A
 227 0367 DDE38951 		.ascii	"\335\343\211Q\021$;`dh\345_\224\224\177:\201i\300\206"
 227      11243B60 
 227      6468E55F 
 227      94947F3A 
 227      8169C086 
 228 037b C00CDE6F 		.ascii	"\300\014\336o\342\275\213\242\331\212\242\274\253(\331"
ARM GAS  C:\Users\gjl\AppData\Local\Temp\ccBjvZyb.s 			page 17


 228      E2BD8BA2 
 228      D98AA2BC 
 228      AB28D9
 229 038a FC155750 		.ascii	"\374\025WPo\337\366V\357f\256`\033\222\032\033\362\037"
 229      6FDFF656 
 229      EF66AE60 
 229      1B921A1B 
 229      F21F
 230 039c 17A55646 		.ascii	"\027\245VF\377\177}=\230\313]\332\235%.\251#\025\012"
 230      FF7F7D3D 
 230      98CB5DDA 
 230      9D252EA9 
 230      23150A
 231 03af 2E0FE5AB 		.ascii	".\017\345\253#\225&\302\227\231\277?k;\275\357\261\354"
 231      239526C2 
 231      9799BF3F 
 231      6B3BBDEF 
 231      B1EC
 232 03c1 1358B15B 		.ascii	"\023X\261[F\366\263\240\315U 6;\222m;j|\326\270\245"
 232      46F6B3A0 
 232      CD552036 
 232      3B926D3B 
 232      6A7CD6B8 
 233 03d6 91EF6DB0 		.ascii	"\221\357m\260\361\317/;\013\252\032\\\2167\353*\352"
 233      F1CF2F3B 
 233      0BAA1A5C 
 233      8E37EB2A 
 233      EA
 234 03e7 6A3CF56E 		.ascii	"j<\365n\317K\357\344T\277\374ZqUE\005\261\356w6z*\267"
 234      CF4BEFE4 
 234      54BFFC5A 
 234      71554505 
 234      B1EE7736 
 235 03fe 3D592D37 		.ascii	"=Y-7\312\356z\217\274\247\256\306\265\337\355\220w\275"
 235      CAEE7A8F 
 235      BCA7AEC6 
 235      B5DFED90 
 235      77BD
 236 0410 52E3AA7A 		.ascii	"R\343\252z\366i\307\001\317\201}rS\371\033$\203\305"
 236      F669C701 
 236      CF817D72 
 236      53F91B24 
 236      83C5
 237 0422 2E2D70B9 		.ascii	".-p\271\203\330\014\014\327\276\255\311\213\354\331"
 237      83D80C0C 
 237      D7BEADC9 
 237      8BECD9
 238 0431 E1AE7778 		.ascii	"\341\256wx\234\256\306\372\206\355\316\267\235{d\367"
 238      9CAEC6FA 
 238      86EDCEB7 
 238      9D7B64F7 
 239 0441 ABF25E67 		.ascii	"\253\362^g\223Gvg1\360\3479\205\212\3476\353\036\325"
 239      93477667 
 239      31F0E739 
 239      858AE736 
 239      EB1ED5
 240 0454 B227C56E 		.ascii	"\262'\305n\253\351U\346`nyo\345\266\177\001u\3619\244"
ARM GAS  C:\Users\gjl\AppData\Local\Temp\ccBjvZyb.s 			page 18


 240      ABE955E6 
 240      606E796F 
 240      E5B67F01 
 240      75F139A4 
 241              		.text
 242              		.section	.gnu.lto_.symtab.58ea9657,"",%progbits
 243 0000 436C6F63 		.ascii	"Clock_1_StartEx\000"
 243      6B5F315F 
 243      53746172 
 243      74457800 
 244 0010 00       		.ascii	"\000"
 245 0011 00       		.ascii	"\000"
 246 0012 00       		.ascii	"\000"
 247 0013 00000000 		.ascii	"\000\000\000\000\000\000\000\000"
 247      00000000 
 248 001b B5000000 		.ascii	"\265\000\000\000"
 249 001f 436C6F63 		.ascii	"Clock_1_Stop\000"
 249      6B5F315F 
 249      53746F70 
 249      00
 250 002c 00       		.ascii	"\000"
 251 002d 00       		.ascii	"\000"
 252 002e 00       		.ascii	"\000"
 253 002f 00000000 		.ascii	"\000\000\000\000\000\000\000\000"
 253      00000000 
 254 0037 B8000000 		.ascii	"\270\000\000\000"
 255 003b 436C6F63 		.ascii	"Clock_1_SetFractionalDividerRegister\000"
 255      6B5F315F 
 255      53657446 
 255      72616374 
 255      696F6E61 
 256 0060 00       		.ascii	"\000"
 257 0061 00       		.ascii	"\000"
 258 0062 00       		.ascii	"\000"
 259 0063 00000000 		.ascii	"\000\000\000\000\000\000\000\000"
 259      00000000 
 260 006b C7000000 		.ascii	"\307\000\000\000"
 261 006f 436C6F63 		.ascii	"Clock_1_GetDividerRegister\000"
 261      6B5F315F 
 261      47657444 
 261      69766964 
 261      65725265 
 262 008a 00       		.ascii	"\000"
 263 008b 00       		.ascii	"\000"
 264 008c 00       		.ascii	"\000"
 265 008d 00000000 		.ascii	"\000\000\000\000\000\000\000\000"
 265      00000000 
 266 0095 CA000000 		.ascii	"\312\000\000\000"
 267 0099 436C6F63 		.ascii	"Clock_1_GetFractionalDividerRegister\000"
 267      6B5F315F 
 267      47657446 
 267      72616374 
 267      696F6E61 
 268 00be 00       		.ascii	"\000"
 269 00bf 00       		.ascii	"\000"
 270 00c0 00       		.ascii	"\000"
 271 00c1 00000000 		.ascii	"\000\000\000\000\000\000\000\000"
ARM GAS  C:\Users\gjl\AppData\Local\Temp\ccBjvZyb.s 			page 19


 271      00000000 
 272 00c9 CD000000 		.ascii	"\315\000\000\000"
 273              		.text
 274              		.section	.gnu.lto_.opts,"",%progbits
 275 0000 272D666D 		.ascii	"'-fmath-errno' '-fsigned-zeros' '-ftrapping-math' '"
 275      6174682D 
 275      6572726E 
 275      6F272027 
 275      2D667369 
 276 0033 2D666E6F 		.ascii	"-fno-trapv' '-fno-openmp' '-fno-openacc' '-mcpu=cor"
 276      2D747261 
 276      70762720 
 276      272D666E 
 276      6F2D6F70 
 277 0066 7465782D 		.ascii	"tex-m0' '-mthumb' '-g' '-Os' '-ffunction-sections' "
 277      6D302720 
 277      272D6D74 
 277      68756D62 
 277      2720272D 
 278 0099 272D6666 		.ascii	"'-ffat-lto-objects' '-flto'\000"
 278      61742D6C 
 278      746F2D6F 
 278      626A6563 
 278      74732720 
 279              		.text
 280              		.cfi_sections	.debug_frame
 281              		.section	.text.Clock_1_StartEx,"ax",%progbits
 282              		.align	1
 283              		.global	Clock_1_StartEx
 284              		.code	16
 285              		.thumb_func
 286              		.type	Clock_1_StartEx, %function
 287              	Clock_1_StartEx:
 288              	.LFB0:
 289              		.file 1 "Generated_Source\\PSoC4\\Clock_1.c"
   1:Generated_Source\PSoC4/Clock_1.c **** /*******************************************************************************
   2:Generated_Source\PSoC4/Clock_1.c **** * File Name: Clock_1.c
   3:Generated_Source\PSoC4/Clock_1.c **** * Version 2.20
   4:Generated_Source\PSoC4/Clock_1.c **** *
   5:Generated_Source\PSoC4/Clock_1.c **** *  Description:
   6:Generated_Source\PSoC4/Clock_1.c **** *   Provides system API for the clocking, interrupts and watchdog timer.
   7:Generated_Source\PSoC4/Clock_1.c **** *
   8:Generated_Source\PSoC4/Clock_1.c **** *  Note:
   9:Generated_Source\PSoC4/Clock_1.c **** *   Documentation of the API's in this file is located in the
  10:Generated_Source\PSoC4/Clock_1.c **** *   System Reference Guide provided with PSoC Creator.
  11:Generated_Source\PSoC4/Clock_1.c **** *
  12:Generated_Source\PSoC4/Clock_1.c **** ********************************************************************************
  13:Generated_Source\PSoC4/Clock_1.c **** * Copyright 2008-2012, Cypress Semiconductor Corporation.  All rights reserved.
  14:Generated_Source\PSoC4/Clock_1.c **** * You may use this file only in accordance with the license, terms, conditions,
  15:Generated_Source\PSoC4/Clock_1.c **** * disclaimers, and limitations in the end user license agreement accompanying
  16:Generated_Source\PSoC4/Clock_1.c **** * the software package with which this file was provided.
  17:Generated_Source\PSoC4/Clock_1.c **** *******************************************************************************/
  18:Generated_Source\PSoC4/Clock_1.c **** 
  19:Generated_Source\PSoC4/Clock_1.c **** #include <cydevice_trm.h>
  20:Generated_Source\PSoC4/Clock_1.c **** #include "Clock_1.h"
  21:Generated_Source\PSoC4/Clock_1.c **** 
  22:Generated_Source\PSoC4/Clock_1.c **** #if defined CYREG_PERI_DIV_CMD
ARM GAS  C:\Users\gjl\AppData\Local\Temp\ccBjvZyb.s 			page 20


  23:Generated_Source\PSoC4/Clock_1.c **** 
  24:Generated_Source\PSoC4/Clock_1.c **** /*******************************************************************************
  25:Generated_Source\PSoC4/Clock_1.c **** * Function Name: Clock_1_StartEx
  26:Generated_Source\PSoC4/Clock_1.c **** ********************************************************************************
  27:Generated_Source\PSoC4/Clock_1.c **** *
  28:Generated_Source\PSoC4/Clock_1.c **** * Summary:
  29:Generated_Source\PSoC4/Clock_1.c **** *  Starts the clock, aligned to the specified running clock.
  30:Generated_Source\PSoC4/Clock_1.c **** *
  31:Generated_Source\PSoC4/Clock_1.c **** * Parameters:
  32:Generated_Source\PSoC4/Clock_1.c **** *  alignClkDiv:  The divider to which phase alignment is performed when the
  33:Generated_Source\PSoC4/Clock_1.c **** *    clock is started.
  34:Generated_Source\PSoC4/Clock_1.c **** *
  35:Generated_Source\PSoC4/Clock_1.c **** * Returns:
  36:Generated_Source\PSoC4/Clock_1.c **** *  None
  37:Generated_Source\PSoC4/Clock_1.c **** *
  38:Generated_Source\PSoC4/Clock_1.c **** *******************************************************************************/
  39:Generated_Source\PSoC4/Clock_1.c **** void Clock_1_StartEx(uint32 alignClkDiv)
  40:Generated_Source\PSoC4/Clock_1.c **** {
 290              		.loc 1 40 0
 291              		.cfi_startproc
 292              		@ args = 0, pretend = 0, frame = 0
 293              		@ frame_needed = 0, uses_anonymous_args = 0
 294              		@ link register save eliminated.
 295              	.LVL0:
  41:Generated_Source\PSoC4/Clock_1.c ****     /* Make sure any previous start command has finished. */
  42:Generated_Source\PSoC4/Clock_1.c ****     while((Clock_1_CMD_REG & Clock_1_CMD_ENABLE_MASK) != 0u)
 296              		.loc 1 42 0
 297 0000 044A     		ldr	r2, .L5
 298              	.L2:
 299              		.loc 1 42 0 is_stmt 0 discriminator 1
 300 0002 1368     		ldr	r3, [r2]
 301 0004 002B     		cmp	r3, #0
 302 0006 FCDB     		blt	.L2
  43:Generated_Source\PSoC4/Clock_1.c ****     {
  44:Generated_Source\PSoC4/Clock_1.c ****     }
  45:Generated_Source\PSoC4/Clock_1.c ****     
  46:Generated_Source\PSoC4/Clock_1.c ****     /* Specify the target divider and it's alignment divider, and enable. */
  47:Generated_Source\PSoC4/Clock_1.c ****     Clock_1_CMD_REG =
  48:Generated_Source\PSoC4/Clock_1.c ****         ((uint32)Clock_1__DIV_ID << Clock_1_CMD_DIV_SHIFT)|
  49:Generated_Source\PSoC4/Clock_1.c ****         (alignClkDiv << Clock_1_CMD_PA_DIV_SHIFT) |
 303              		.loc 1 49 0 is_stmt 1
 304 0008 034B     		ldr	r3, .L5+4
 305 000a 0002     		lsls	r0, r0, #8
 306              	.LVL1:
 307 000c 1843     		orrs	r0, r3
  47:Generated_Source\PSoC4/Clock_1.c ****         ((uint32)Clock_1__DIV_ID << Clock_1_CMD_DIV_SHIFT)|
 308              		.loc 1 47 0
 309 000e 014B     		ldr	r3, .L5
  50:Generated_Source\PSoC4/Clock_1.c ****         (uint32)Clock_1_CMD_ENABLE_MASK;
  51:Generated_Source\PSoC4/Clock_1.c **** }
 310              		.loc 1 51 0
 311              		@ sp needed
  47:Generated_Source\PSoC4/Clock_1.c ****         ((uint32)Clock_1__DIV_ID << Clock_1_CMD_DIV_SHIFT)|
 312              		.loc 1 47 0
 313 0010 1860     		str	r0, [r3]
 314              		.loc 1 51 0
 315 0012 7047     		bx	lr
ARM GAS  C:\Users\gjl\AppData\Local\Temp\ccBjvZyb.s 			page 21


 316              	.L6:
 317              		.align	2
 318              	.L5:
 319 0014 00000140 		.word	1073807360
 320 0018 42000080 		.word	-2147483582
 321              		.cfi_endproc
 322              	.LFE0:
 323              		.size	Clock_1_StartEx, .-Clock_1_StartEx
 324              		.section	.text.Clock_1_Stop,"ax",%progbits
 325              		.align	1
 326              		.global	Clock_1_Stop
 327              		.code	16
 328              		.thumb_func
 329              		.type	Clock_1_Stop, %function
 330              	Clock_1_Stop:
 331              	.LFB1:
  52:Generated_Source\PSoC4/Clock_1.c **** 
  53:Generated_Source\PSoC4/Clock_1.c **** #else
  54:Generated_Source\PSoC4/Clock_1.c **** 
  55:Generated_Source\PSoC4/Clock_1.c **** /*******************************************************************************
  56:Generated_Source\PSoC4/Clock_1.c **** * Function Name: Clock_1_Start
  57:Generated_Source\PSoC4/Clock_1.c **** ********************************************************************************
  58:Generated_Source\PSoC4/Clock_1.c **** *
  59:Generated_Source\PSoC4/Clock_1.c **** * Summary:
  60:Generated_Source\PSoC4/Clock_1.c **** *  Starts the clock.
  61:Generated_Source\PSoC4/Clock_1.c **** *
  62:Generated_Source\PSoC4/Clock_1.c **** * Parameters:
  63:Generated_Source\PSoC4/Clock_1.c **** *  None
  64:Generated_Source\PSoC4/Clock_1.c **** *
  65:Generated_Source\PSoC4/Clock_1.c **** * Returns:
  66:Generated_Source\PSoC4/Clock_1.c **** *  None
  67:Generated_Source\PSoC4/Clock_1.c **** *
  68:Generated_Source\PSoC4/Clock_1.c **** *******************************************************************************/
  69:Generated_Source\PSoC4/Clock_1.c **** 
  70:Generated_Source\PSoC4/Clock_1.c **** void Clock_1_Start(void)
  71:Generated_Source\PSoC4/Clock_1.c **** {
  72:Generated_Source\PSoC4/Clock_1.c ****     /* Set the bit to enable the clock. */
  73:Generated_Source\PSoC4/Clock_1.c ****     Clock_1_ENABLE_REG |= Clock_1__ENABLE_MASK;
  74:Generated_Source\PSoC4/Clock_1.c **** }
  75:Generated_Source\PSoC4/Clock_1.c **** 
  76:Generated_Source\PSoC4/Clock_1.c **** #endif /* CYREG_PERI_DIV_CMD */
  77:Generated_Source\PSoC4/Clock_1.c **** 
  78:Generated_Source\PSoC4/Clock_1.c **** 
  79:Generated_Source\PSoC4/Clock_1.c **** /*******************************************************************************
  80:Generated_Source\PSoC4/Clock_1.c **** * Function Name: Clock_1_Stop
  81:Generated_Source\PSoC4/Clock_1.c **** ********************************************************************************
  82:Generated_Source\PSoC4/Clock_1.c **** *
  83:Generated_Source\PSoC4/Clock_1.c **** * Summary:
  84:Generated_Source\PSoC4/Clock_1.c **** *  Stops the clock and returns immediately. This API does not require the
  85:Generated_Source\PSoC4/Clock_1.c **** *  source clock to be running but may return before the hardware is actually
  86:Generated_Source\PSoC4/Clock_1.c **** *  disabled.
  87:Generated_Source\PSoC4/Clock_1.c **** *
  88:Generated_Source\PSoC4/Clock_1.c **** * Parameters:
  89:Generated_Source\PSoC4/Clock_1.c **** *  None
  90:Generated_Source\PSoC4/Clock_1.c **** *
  91:Generated_Source\PSoC4/Clock_1.c **** * Returns:
  92:Generated_Source\PSoC4/Clock_1.c **** *  None
ARM GAS  C:\Users\gjl\AppData\Local\Temp\ccBjvZyb.s 			page 22


  93:Generated_Source\PSoC4/Clock_1.c **** *
  94:Generated_Source\PSoC4/Clock_1.c **** *******************************************************************************/
  95:Generated_Source\PSoC4/Clock_1.c **** void Clock_1_Stop(void)
  96:Generated_Source\PSoC4/Clock_1.c **** {
 332              		.loc 1 96 0
 333              		.cfi_startproc
 334              		@ args = 0, pretend = 0, frame = 0
 335              		@ frame_needed = 0, uses_anonymous_args = 0
 336              		@ link register save eliminated.
  97:Generated_Source\PSoC4/Clock_1.c **** #if defined CYREG_PERI_DIV_CMD
  98:Generated_Source\PSoC4/Clock_1.c **** 
  99:Generated_Source\PSoC4/Clock_1.c ****     /* Make sure any previous start command has finished. */
 100:Generated_Source\PSoC4/Clock_1.c ****     while((Clock_1_CMD_REG & Clock_1_CMD_ENABLE_MASK) != 0u)
 337              		.loc 1 100 0
 338 0000 034A     		ldr	r2, .L10
 339              	.L8:
 340              		.loc 1 100 0 is_stmt 0 discriminator 1
 341 0002 1368     		ldr	r3, [r2]
 342 0004 002B     		cmp	r3, #0
 343 0006 FCDB     		blt	.L8
 101:Generated_Source\PSoC4/Clock_1.c ****     {
 102:Generated_Source\PSoC4/Clock_1.c ****     }
 103:Generated_Source\PSoC4/Clock_1.c ****     
 104:Generated_Source\PSoC4/Clock_1.c ****     /* Specify the target divider and it's alignment divider, and disable. */
 105:Generated_Source\PSoC4/Clock_1.c ****     Clock_1_CMD_REG =
 344              		.loc 1 105 0 is_stmt 1
 345 0008 024A     		ldr	r2, .L10+4
 346 000a 014B     		ldr	r3, .L10
 106:Generated_Source\PSoC4/Clock_1.c ****         ((uint32)Clock_1__DIV_ID << Clock_1_CMD_DIV_SHIFT)|
 107:Generated_Source\PSoC4/Clock_1.c ****         ((uint32)Clock_1_CMD_DISABLE_MASK);
 108:Generated_Source\PSoC4/Clock_1.c **** 
 109:Generated_Source\PSoC4/Clock_1.c **** #else
 110:Generated_Source\PSoC4/Clock_1.c **** 
 111:Generated_Source\PSoC4/Clock_1.c ****     /* Clear the bit to disable the clock. */
 112:Generated_Source\PSoC4/Clock_1.c ****     Clock_1_ENABLE_REG &= (uint32)(~Clock_1__ENABLE_MASK);
 113:Generated_Source\PSoC4/Clock_1.c ****     
 114:Generated_Source\PSoC4/Clock_1.c **** #endif /* CYREG_PERI_DIV_CMD */
 115:Generated_Source\PSoC4/Clock_1.c **** }
 347              		.loc 1 115 0
 348              		@ sp needed
 105:Generated_Source\PSoC4/Clock_1.c ****         ((uint32)Clock_1__DIV_ID << Clock_1_CMD_DIV_SHIFT)|
 349              		.loc 1 105 0
 350 000c 1A60     		str	r2, [r3]
 351              		.loc 1 115 0
 352 000e 7047     		bx	lr
 353              	.L11:
 354              		.align	2
 355              	.L10:
 356 0010 00000140 		.word	1073807360
 357 0014 42000040 		.word	1073741890
 358              		.cfi_endproc
 359              	.LFE1:
 360              		.size	Clock_1_Stop, .-Clock_1_Stop
 361              		.section	.text.Clock_1_SetFractionalDividerRegister,"ax",%progbits
 362              		.align	1
 363              		.global	Clock_1_SetFractionalDividerRegister
 364              		.code	16
ARM GAS  C:\Users\gjl\AppData\Local\Temp\ccBjvZyb.s 			page 23


 365              		.thumb_func
 366              		.type	Clock_1_SetFractionalDividerRegister, %function
 367              	Clock_1_SetFractionalDividerRegister:
 368              	.LFB2:
 116:Generated_Source\PSoC4/Clock_1.c **** 
 117:Generated_Source\PSoC4/Clock_1.c **** 
 118:Generated_Source\PSoC4/Clock_1.c **** /*******************************************************************************
 119:Generated_Source\PSoC4/Clock_1.c **** * Function Name: Clock_1_SetFractionalDividerRegister
 120:Generated_Source\PSoC4/Clock_1.c **** ********************************************************************************
 121:Generated_Source\PSoC4/Clock_1.c **** *
 122:Generated_Source\PSoC4/Clock_1.c **** * Summary:
 123:Generated_Source\PSoC4/Clock_1.c **** *  Modifies the clock divider and the fractional divider.
 124:Generated_Source\PSoC4/Clock_1.c **** *
 125:Generated_Source\PSoC4/Clock_1.c **** * Parameters:
 126:Generated_Source\PSoC4/Clock_1.c **** *  clkDivider:  Divider register value (0-65535). This value is NOT the
 127:Generated_Source\PSoC4/Clock_1.c **** *    divider; the clock hardware divides by clkDivider plus one. For example,
 128:Generated_Source\PSoC4/Clock_1.c **** *    to divide the clock by 2, this parameter should be set to 1.
 129:Generated_Source\PSoC4/Clock_1.c **** *  fracDivider:  Fractional Divider register value (0-31).
 130:Generated_Source\PSoC4/Clock_1.c **** * Returns:
 131:Generated_Source\PSoC4/Clock_1.c **** *  None
 132:Generated_Source\PSoC4/Clock_1.c **** *
 133:Generated_Source\PSoC4/Clock_1.c **** *******************************************************************************/
 134:Generated_Source\PSoC4/Clock_1.c **** void Clock_1_SetFractionalDividerRegister(uint16 clkDivider, uint8 clkFractional)
 135:Generated_Source\PSoC4/Clock_1.c **** {
 369              		.loc 1 135 0
 370              		.cfi_startproc
 371              		@ args = 0, pretend = 0, frame = 0
 372              		@ frame_needed = 0, uses_anonymous_args = 0
 373              	.LVL2:
 136:Generated_Source\PSoC4/Clock_1.c ****     uint32 maskVal;
 137:Generated_Source\PSoC4/Clock_1.c ****     uint32 regVal;
 138:Generated_Source\PSoC4/Clock_1.c ****     
 139:Generated_Source\PSoC4/Clock_1.c **** #if defined (Clock_1__FRAC_MASK) || defined (CYREG_PERI_DIV_CMD)
 140:Generated_Source\PSoC4/Clock_1.c ****     
 141:Generated_Source\PSoC4/Clock_1.c **** 	/* get all but divider bits */
 142:Generated_Source\PSoC4/Clock_1.c ****     maskVal = Clock_1_DIV_REG & 
 143:Generated_Source\PSoC4/Clock_1.c ****                     (uint32)(~(uint32)(Clock_1_DIV_INT_MASK | Clock_1_DIV_FRAC_MASK)); 
 144:Generated_Source\PSoC4/Clock_1.c **** 	/* combine mask and new divider vals into 32-bit value */
 145:Generated_Source\PSoC4/Clock_1.c ****     regVal = maskVal |
 374              		.loc 1 145 0
 375 0000 FF22     		movs	r2, #255
 376 0002 C900     		lsls	r1, r1, #3
 377              	.LVL3:
 378 0004 1140     		ands	r1, r2
 379 0006 0202     		lsls	r2, r0, #8
 380 0008 1143     		orrs	r1, r2
 381 000a 0723     		movs	r3, #7
 382 000c 0800     		movs	r0, r1
 383              	.LVL4:
 135:Generated_Source\PSoC4/Clock_1.c ****     uint32 maskVal;
 384              		.loc 1 135 0
 385 000e 30B5     		push	{r4, r5, lr}
 386              		.cfi_def_cfa_offset 12
 387              		.cfi_offset 4, -12
 388              		.cfi_offset 5, -8
 389              		.cfi_offset 14, -4
 142:Generated_Source\PSoC4/Clock_1.c ****                     (uint32)(~(uint32)(Clock_1_DIV_INT_MASK | Clock_1_DIV_FRAC_MASK)); 
ARM GAS  C:\Users\gjl\AppData\Local\Temp\ccBjvZyb.s 			page 24


 390              		.loc 1 142 0
 391 0010 024C     		ldr	r4, .L13
 146:Generated_Source\PSoC4/Clock_1.c ****         ((uint32)((uint32)clkDivider <<  Clock_1_DIV_INT_SHIFT) & Clock_1_DIV_INT_MASK) |
 147:Generated_Source\PSoC4/Clock_1.c ****         ((uint32)((uint32)clkFractional << Clock_1_DIV_FRAC_SHIFT) & Clock_1_DIV_FRAC_MASK);
 148:Generated_Source\PSoC4/Clock_1.c ****     
 149:Generated_Source\PSoC4/Clock_1.c **** #else
 150:Generated_Source\PSoC4/Clock_1.c ****     /* get all but integer divider bits */
 151:Generated_Source\PSoC4/Clock_1.c ****     maskVal = Clock_1_DIV_REG & (uint32)(~(uint32)Clock_1__DIVIDER_MASK);
 152:Generated_Source\PSoC4/Clock_1.c ****     /* combine mask and new divider val into 32-bit value */
 153:Generated_Source\PSoC4/Clock_1.c ****     regVal = clkDivider | maskVal;
 154:Generated_Source\PSoC4/Clock_1.c ****     
 155:Generated_Source\PSoC4/Clock_1.c **** #endif /* Clock_1__FRAC_MASK || CYREG_PERI_DIV_CMD */
 156:Generated_Source\PSoC4/Clock_1.c **** 
 157:Generated_Source\PSoC4/Clock_1.c ****     Clock_1_DIV_REG = regVal;
 158:Generated_Source\PSoC4/Clock_1.c **** }
 392              		.loc 1 158 0
 393              		@ sp needed
 142:Generated_Source\PSoC4/Clock_1.c ****                     (uint32)(~(uint32)(Clock_1_DIV_INT_MASK | Clock_1_DIV_FRAC_MASK)); 
 394              		.loc 1 142 0
 395 0012 2568     		ldr	r5, [r4]
 396              	.LVL5:
 145:Generated_Source\PSoC4/Clock_1.c ****         ((uint32)((uint32)clkDivider <<  Clock_1_DIV_INT_SHIFT) & Clock_1_DIV_INT_MASK) |
 397              		.loc 1 145 0
 398 0014 2B40     		ands	r3, r5
 399              	.LVL6:
 400 0016 1843     		orrs	r0, r3
 401              	.LVL7:
 157:Generated_Source\PSoC4/Clock_1.c **** }
 402              		.loc 1 157 0
 403 0018 2060     		str	r0, [r4]
 404              		.loc 1 158 0
 405 001a 30BD     		pop	{r4, r5, pc}
 406              	.L14:
 407              		.align	2
 408              	.L13:
 409 001c 08030140 		.word	1073808136
 410              		.cfi_endproc
 411              	.LFE2:
 412              		.size	Clock_1_SetFractionalDividerRegister, .-Clock_1_SetFractionalDividerRegister
 413              		.section	.text.Clock_1_GetDividerRegister,"ax",%progbits
 414              		.align	1
 415              		.global	Clock_1_GetDividerRegister
 416              		.code	16
 417              		.thumb_func
 418              		.type	Clock_1_GetDividerRegister, %function
 419              	Clock_1_GetDividerRegister:
 420              	.LFB3:
 159:Generated_Source\PSoC4/Clock_1.c **** 
 160:Generated_Source\PSoC4/Clock_1.c **** 
 161:Generated_Source\PSoC4/Clock_1.c **** /*******************************************************************************
 162:Generated_Source\PSoC4/Clock_1.c **** * Function Name: Clock_1_GetDividerRegister
 163:Generated_Source\PSoC4/Clock_1.c **** ********************************************************************************
 164:Generated_Source\PSoC4/Clock_1.c **** *
 165:Generated_Source\PSoC4/Clock_1.c **** * Summary:
 166:Generated_Source\PSoC4/Clock_1.c **** *  Gets the clock divider register value.
 167:Generated_Source\PSoC4/Clock_1.c **** *
 168:Generated_Source\PSoC4/Clock_1.c **** * Parameters:
ARM GAS  C:\Users\gjl\AppData\Local\Temp\ccBjvZyb.s 			page 25


 169:Generated_Source\PSoC4/Clock_1.c **** *  None
 170:Generated_Source\PSoC4/Clock_1.c **** *
 171:Generated_Source\PSoC4/Clock_1.c **** * Returns:
 172:Generated_Source\PSoC4/Clock_1.c **** *  Divide value of the clock minus 1. For example, if the clock is set to
 173:Generated_Source\PSoC4/Clock_1.c **** *  divide by 2, the return value will be 1.
 174:Generated_Source\PSoC4/Clock_1.c **** *
 175:Generated_Source\PSoC4/Clock_1.c **** *******************************************************************************/
 176:Generated_Source\PSoC4/Clock_1.c **** uint16 Clock_1_GetDividerRegister(void)
 177:Generated_Source\PSoC4/Clock_1.c **** {
 421              		.loc 1 177 0
 422              		.cfi_startproc
 423              		@ args = 0, pretend = 0, frame = 0
 424              		@ frame_needed = 0, uses_anonymous_args = 0
 425              		@ link register save eliminated.
 178:Generated_Source\PSoC4/Clock_1.c ****     return (uint16)((Clock_1_DIV_REG & Clock_1_DIV_INT_MASK)
 426              		.loc 1 178 0
 427 0000 024B     		ldr	r3, .L16
 179:Generated_Source\PSoC4/Clock_1.c ****         >> Clock_1_DIV_INT_SHIFT);
 180:Generated_Source\PSoC4/Clock_1.c **** }
 428              		.loc 1 180 0
 429              		@ sp needed
 178:Generated_Source\PSoC4/Clock_1.c ****     return (uint16)((Clock_1_DIV_REG & Clock_1_DIV_INT_MASK)
 430              		.loc 1 178 0
 431 0002 1868     		ldr	r0, [r3]
 432 0004 000A     		lsrs	r0, r0, #8
 433 0006 80B2     		uxth	r0, r0
 434              		.loc 1 180 0
 435 0008 7047     		bx	lr
 436              	.L17:
 437 000a C046     		.align	2
 438              	.L16:
 439 000c 08030140 		.word	1073808136
 440              		.cfi_endproc
 441              	.LFE3:
 442              		.size	Clock_1_GetDividerRegister, .-Clock_1_GetDividerRegister
 443              		.section	.text.Clock_1_GetFractionalDividerRegister,"ax",%progbits
 444              		.align	1
 445              		.global	Clock_1_GetFractionalDividerRegister
 446              		.code	16
 447              		.thumb_func
 448              		.type	Clock_1_GetFractionalDividerRegister, %function
 449              	Clock_1_GetFractionalDividerRegister:
 450              	.LFB4:
 181:Generated_Source\PSoC4/Clock_1.c **** 
 182:Generated_Source\PSoC4/Clock_1.c **** 
 183:Generated_Source\PSoC4/Clock_1.c **** /*******************************************************************************
 184:Generated_Source\PSoC4/Clock_1.c **** * Function Name: Clock_1_GetFractionalDividerRegister
 185:Generated_Source\PSoC4/Clock_1.c **** ********************************************************************************
 186:Generated_Source\PSoC4/Clock_1.c **** *
 187:Generated_Source\PSoC4/Clock_1.c **** * Summary:
 188:Generated_Source\PSoC4/Clock_1.c **** *  Gets the clock fractional divider register value.
 189:Generated_Source\PSoC4/Clock_1.c **** *
 190:Generated_Source\PSoC4/Clock_1.c **** * Parameters:
 191:Generated_Source\PSoC4/Clock_1.c **** *  None
 192:Generated_Source\PSoC4/Clock_1.c **** *
 193:Generated_Source\PSoC4/Clock_1.c **** * Returns:
 194:Generated_Source\PSoC4/Clock_1.c **** *  Fractional Divide value of the clock
ARM GAS  C:\Users\gjl\AppData\Local\Temp\ccBjvZyb.s 			page 26


 195:Generated_Source\PSoC4/Clock_1.c **** *  0 if the fractional divider is not in use.
 196:Generated_Source\PSoC4/Clock_1.c **** *
 197:Generated_Source\PSoC4/Clock_1.c **** *******************************************************************************/
 198:Generated_Source\PSoC4/Clock_1.c **** uint8 Clock_1_GetFractionalDividerRegister(void)
 199:Generated_Source\PSoC4/Clock_1.c **** {
 451              		.loc 1 199 0
 452              		.cfi_startproc
 453              		@ args = 0, pretend = 0, frame = 0
 454              		@ frame_needed = 0, uses_anonymous_args = 0
 455              		@ link register save eliminated.
 200:Generated_Source\PSoC4/Clock_1.c **** #if defined (Clock_1__FRAC_MASK)
 201:Generated_Source\PSoC4/Clock_1.c ****     /* return fractional divider bits */
 202:Generated_Source\PSoC4/Clock_1.c ****     return (uint8)((Clock_1_DIV_REG & Clock_1_DIV_FRAC_MASK)
 203:Generated_Source\PSoC4/Clock_1.c ****         >> Clock_1_DIV_FRAC_SHIFT);
 204:Generated_Source\PSoC4/Clock_1.c **** #else
 205:Generated_Source\PSoC4/Clock_1.c ****     return 0u;
 206:Generated_Source\PSoC4/Clock_1.c **** #endif /* Clock_1__FRAC_MASK */
 207:Generated_Source\PSoC4/Clock_1.c **** }
 456              		.loc 1 207 0
 457 0000 0020     		movs	r0, #0
 458              		@ sp needed
 459 0002 7047     		bx	lr
 460              		.cfi_endproc
 461              	.LFE4:
 462              		.size	Clock_1_GetFractionalDividerRegister, .-Clock_1_GetFractionalDividerRegister
 463              		.text
 464              	.Letext0:
 465              		.file 2 "Generated_Source\\PSoC4/cytypes.h"