ARM GAS  C:\Users\gjl\AppData\Local\Temp\ccZWe7zS.s 			page 1


   1              		.syntax unified
   2              		.cpu cortex-m0
   3              		.fpu softvfp
   4              		.eabi_attribute 20, 1
   5              		.eabi_attribute 21, 1
   6              		.eabi_attribute 23, 3
   7              		.eabi_attribute 24, 1
   8              		.eabi_attribute 25, 1
   9              		.eabi_attribute 26, 1
  10              		.eabi_attribute 30, 4
  11              		.eabi_attribute 34, 0
  12              		.eabi_attribute 18, 4
  13              		.thumb
  14              		.syntax unified
  15              		.file	"CyFlash.c"
  16              		.text
  17              	.Ltext0:
  18              		.section	.gnu.lto_.profile.58ea9481,"",%progbits
  19 0000 789C6361 		.ascii	"x\234ca`d`c`\000\222\037\031\2271\002\000\005\250\001"
  19      60646063 
  19      6000921F 
  19      19973102 
  19      0005A801 
  20 0014 A6       		.ascii	"\246"
  21              		.text
  22              		.section	.gnu.lto_.icf.58ea9481,"",%progbits
  23 0000 789C6361 		.ascii	"x\234ca`d\000\001\021\006\004`fX\276\360\363:\016\306"
  23      60640001 
  23      11060460 
  23      6658BEF0 
  23      F33A0EC6 
  24 0014 8D531B6F 		.ascii	"\215S\033oq2M{\274j\033\037\003\000\\\216\010\242"
  24      71324D7B 
  24      BC6A1B1F 
  24      03005C8E 
  24      08A2
  25              		.text
  26              		.section	.gnu.lto_.jmpfuncs.58ea9481,"",%progbits
  27 0000 789C558C 		.ascii	"x\234U\2141\016@@\024D\347\375\025\205\306\005\366\242"
  27      310E4040 
  27      1444E7FD 
  27      1585C605 
  27      F6A2
  28 0012 5BD1380B 		.ascii	"[\3218\013'\320\352\204[\250\366\004:\021vC\"^7\223"
  28      27D0EA84 
  28      5BA8F604 
  28      3A117643 
  28      225E3793 
  29 0026 79530865 		.ascii	"yS\010e\202>\234\014\\\323X\016\245D!\013\244\035\247"
  29      823E9C0C 
  29      5CD3580E 
  29      A544210B 
  29      A41DA7
  30 0039 31C675AE 		.ascii	"1\306u\256v\353\234h\241\307\247:\361\214\355'\302v"
  30      76EB9C68 
  30      A1C7A73A 
  30      F18CED27 
ARM GAS  C:\Users\gjl\AppData\Local\Temp\ccZWe7zS.s 			page 2


  30      C276
  31 004b BD64F358 		.ascii	"\275d\363X\342Tg\023.1\340\277\337\347G7%\012\034\177"
  31      E2546713 
  31      2E31E0BF 
  31      DFE74737 
  31      250A1C7F 
  32              		.text
  33              		.section	.gnu.lto_.inline.58ea9481,"",%progbits
  34 0000 789C9590 		.ascii	"x\234\225\220\273J\304@\024\206\317?\031\223\301\260"
  34      BB4AC440 
  34      1486CF3F 
  34      1993C1B0 
  35 0010 316823A2 		.ascii	"1h#\242$\345V\342#\370\002\356C\330\254h\343#\244YP"
  35      24E556E2 
  35      23F802EE 
  35      43D8AC68 
  35      E323A459 
  36 0025 504821A2 		.ascii	"PH!\242\242\260\310\202\227\354\326\026\012\202\305"
  36      A2B0C882 
  36      97ECD616 
  36      0A82C5
  37 0034 365E1104 		.ascii	"6^\021\004{\021,W\330ru=s\211\210\2158\305\374\207\371"
  37      7B112C57 
  37      D872753D 
  37      7389888D 
  37      38C5FC87 
  38 0049 02E7CB2F 		.ascii	"\002\347\313/\011\244\317\300\2069\036\345\270\243)"
  38      09A4CFC0 
  38      86391EE5 
  38      B8A329
  39 0058 284AEB1F 		.ascii	"(J\353\037\002\227\257\317\013}\321\360\004\206\001"
  39      0297AFCF 
  39      0B7DD1F0 
  39      048601
  40 0067 8E304D94 		.ascii	"\2160M\224.\231D\272\302x\273qu\037h\356\201pl\236\227"
  40      2E9944BA 
  40      C278BB71 
  40      751F68EE 
  40      81706C9E 
  41 007c 4DF2678C 		.ascii	"M\362g\214\363\247\353M\251\261\304\320\303\211y\257"
  41      F3A7EB4D 
  41      A9B1C4D0 
  41      C38979AF 
  42 008c BBE49DD0 		.ascii	"\273\344\235\320W\340\367f\311o&\202d3\311\370~\030"
  42      57E0F766 
  42      C96F2682 
  42      6433C9F8 
  42      7E18
  43 009e CBA424B1 		.ascii	"\313\244$\2615Z%\177\020f\"\226\264\332\337\000\007"
  43      355A257F 
  43      10662296 
  43      B4DADF00 
  43      07
  44 00af 1F11120F 		.ascii	"\037\021\022\017\310kv Y\321\301\3225\376\227\311\004"
  44      C86B7620 
  44      59D1C1D2 
  44      35FE97C9 
ARM GAS  C:\Users\gjl\AppData\Local\Temp\ccZWe7zS.s 			page 3


  44      04
  45 00c0 81D57EEC 		.ascii	"\201\325~\354\335\034\204vq\214S\247mS\343\367\333\275"
  45      DD1C8476 
  45      718C53A7 
  45      6D53E3F7 
  45      DBBD
  46 00d2 97C8E214 		.ascii	"\227\310\342\024\205\303\3057>?\273\350\216X<\207\266"
  46      85C3C537 
  46      3E3FBBE8 
  46      8E583C87 
  46      B6
  47 00e3 C3EDD25A 		.ascii	"\303\355\322Z\261\306O\337\265\211L(\326f\325T\221\332"
  47      B1C64FDF 
  47      B5894C28 
  47      D666D554 
  47      91DA
  48 00f5 89E675BC 		.ascii	"\211\346u\274E\261\"\2775^Z;g\236sti\246\354w}\177\267"
  48      45B122BF 
  48      355E5A3B 
  48      679E7374 
  48      69A6EC77 
  49 010c 086CC11E 		.ascii	"\010l\301\036:nU\307\366\373\273\320\177\026\370\251"
  49      3A6E55C7 
  49      F6FBBBD0 
  49      7F16F8A9 
  50 011c AA245B15 		.ascii	"\252$[\025S\340b~\370w\201\364\005\030Nc\200"
  50      53E0627E 
  50      F87781F4 
  50      05184E63 
  50      80
  51              		.text
  52              		.section	.gnu.lto_.pureconst.58ea9481,"",%progbits
  53 0000 789C6361 		.ascii	"x\234ca`d\340d```f\330\305\310(\305\264\213\021\000"
  53      6064E064 
  53      60606066 
  53      D8C5C828 
  53      C5B48B11 
  54 0015 07F801A5 		.ascii	"\007\370\001\245"
  55              		.text
  56              		.section	.gnu.lto_CySysFlashWriteRow.58ea9481,"",%progbits
  57 0000 789C9556 		.ascii	"x\234\225VkpTU\022>}\317\314\334y\317l&/$(\310\246b"
  57      6B705455 
  57      123E7DCF 
  57      CCDC79CF 
  57      6C262F24 
  58 0018 44C02CD4 		.ascii	"D\300,\324\026\376\263\304R\377\370(S\265\353\017\252"
  58      16FEB3C4 
  58      52FFF828 
  58      53B5EB0F 
  58      AA
  59 0029 AC148EE5 		.ascii	"\254\024\216\345\003\301\215\241t\177\254\271\311\314"
  59      03C18DA1 
  59      747FACB9 
  59      C9CC
  60 0037 C4689512 		.ascii	"\304h\225\022Q\023A,@\012\010\2731!\341\241D$\023\010"
  60      5113412C 
  60      400A08BB 
ARM GAS  C:\Users\gjl\AppData\Local\Temp\ccZWe7zS.s 			page 4


  60      3121E1A1 
  60      44241308 
  61 004b 09A82126 		.ascii	"\011\250!&B6\220\007!\220\310\306\254\225AY\036Y\030"
  61      42369007 
  61      2190C8C6 
  61      AC954159 
  61      1E5918
  62 005e BBCFB977 		.ascii	"\273\317\271w2s\241R\345TM\317=}\272\277\356>}\372\233"
  62      3273A152 
  62      E5544DCF 
  62      3D7DBABF 
  62      EE3E7DFA 
  63 0073 6B61C0E8 		.ascii	"ka\300\350\363\262\207\261\227\360\367\016\\\302,\006"
  63      F3B287B1 
  63      97F0F70E 
  63      5CC22C06 
  64 0083 4AD509C6 		.ascii	"J\325\011\306\312\354\212\302+\363\230\346\314\"\351"
  64      CAEC8AC2 
  64      2BF398E6 
  64      CC22E9
  65 0092 E68AA5E3 		.ascii	"\346\212\245\343\317\264:\236\205+\213b\023{V\261g\005"
  65      CFB43A9E 
  65      852B8B62 
  65      137B56B1 
  65      6705
  66 00a4 9B74B129 		.ascii	"\233t\261)\352d\006\252\355[\226\241Z\005\227T\333\025"
  66      EA6406AA 
  66      ED5B96A1 
  66      5A059754 
  66      DB15
  67 00b6 07299C2E 		.ascii	"\007)\234.\332t;\014\265Kq7\337\211\352\354\336\305"
  67      DA743B0C 
  67      B54B7137 
  67      DF89EAEC 
  67      DEC5
  68 00c8 A8762B1E 		.ascii	"\250v+\036\001\031\020\220\036\305+\220|\002\311\013"
  68      01191090 
  68      1EC52B90 
  68      7C02C90B 
  69 00d8 69D2C5A7 		.ascii	"i\322\305\247\370\005R\232@\362\033\3524\010\310\207"
  69      F805529A 
  69      40F21BEA 
  69      3408C887 
  70 00e8 80927E12 		.ascii	"\200\222~\022\301\234\231\007\021\330\235\256d$\255"
  70      C19C9907 
  70      11D89DAE 
  70      6424AD
  71 00f7 3220531A 		.ascii	"2 S\032eB\266|\3102\036\262\001\350A\263\003+U\270\305"
  71      6542B67C 
  71      C8321EB2 
  71      01E841B3 
  71      032B55B8 
  72 010c 6A53ED0E 		.ascii	"jS\355\016\227\333\343\365\371\323\002\351\031\231Y"
  72      97DBE3F5 
  72      F9D302E9 
  72      199959
  73 011b D9500A97 		.ascii	"\331P\012\227\225\033\012t\207wo\342\277*\021\316\300"
ARM GAS  C:\Users\gjl\AppData\Local\Temp\ccZWe7zS.s 			page 5


  73      951B0A74 
  73      87776FE2 
  73      BF2A11CE 
  73      C0
  74 012c 82CB58E7 		.ascii	"\202\313X\347\306\363^Z\002\314\305\345'Z\317\333j\376"
  74      C6F35E5A 
  74      02CCC5E5 
  74      275ACFDB 
  74      6AFE
  75 013e 4E4D2BD7 		.ascii	"NM+\327\206\267\217?\370~(\362X\204+,\2560\250\205\034"
  75      86B78F3F 
  75      F87E28F2 
  75      58842B2C 
  75      AE30A885 
  76 0153 D8093978 		.ascii	"\330\0119x\312\260\013\362\321\266f\363\216Q\027\377"
  76      CAB00BF2 
  76      D1B666F3 
  76      8E5117FF 
  77 0163 23307C6E 		.ascii	"#0|nZ\267\245\023\362\266\223\237\366QPs\240\023\374"
  77      5AB7A513 
  77      F2B6939F 
  77      F6515073 
  77      A013FC
  78 0176 1378B21F 		.ascii	"\023x\262\037\341\300\277 \017\255\277\231\272\272\303"
  78      E1C0BF20 
  78      0FADBF99 
  78      BABAC3
  79 0185 C917084F 		.ascii	"\311\027\010O\355\275\346)\253\3569(<9\324\231=1\331"
  79      EDBDE629 
  79      ABEE3928 
  79      3C39D499 
  79      3D31D9
  80 0198 CF218FCC 		.ascii	"\317!\217\314?\2704\370\245\215/\021\256g\352\253\302"
  80      3FB834F8 
  80      A58D2F11 
  80      AE67EAAB 
  80      C2
  81 01a9 CEDC6DE4 		.ascii	"\316\334m\344\032\035\254\360\326h\321\262\271\021n"
  81      1A1DACF0 
  81      D668D1B2 
  81      B9116E
  82 01b8 817AE9BE 		.ascii	"\201z\351\276$\007\356\317\021\327\003m\353:;\006\364"
  82      2407EECF 
  82      11D7036D 
  82      EB3A3B06 
  82      F4
  83 01c9 B22B81D6 		.ascii	"\262+\201\326\265\203c\252\254;j\307\365\215+U!\013"
  83      B58363AA 
  83      AC3B6AC7 
  83      F58D2B55 
  83      210B
  84 01db 7F48E05E 		.ascii	"\177H\340^\035\035\275\354@\334\2662-\332\337\236\211"
  84      1D1DBDEC 
  84      40DCB632 
  84      2DDADF9E 
  84      89
  85 01ec 328CB856 		.ascii	"2\214\270Vh\222\270\215\230\326nH \037\033\251iU\370"
ARM GAS  C:\Users\gjl\AppData\Local\Temp\ccZWe7zS.s 			page 6


  85      6892B88D 
  85      98D66E48 
  85      201F1BA9 
  85      6955F8
  86 01ff E3C273FF 		.ascii	"\343\302s\377\246-1+z\206CZ\264\257\335\255U\225\331"
  86      A62D312B 
  86      7A86435A 
  86      B4AFDDAD 
  86      5595D9
  87 0212 23DC067B 		.ascii	"#\334\006{S\353\321\035?\256yk\227\227\257\020\216\233"
  87      53EBD11D 
  87      3FAE796B 
  87      9797AF10 
  87      8E9B
  88 0224 36FCB0CF 		.ascii	"6\374\260\317p\354\235v\334\177[\307\221\306\233\037"
  88      70EC9D76 
  88      DC7F5BC7 
  88      91C69B1F 
  89 0234 796C610D 		.ascii	"yla\015?s\341\013\310\205}\370\335\203\337\006\310\245"
  89      3F73E10B 
  89      C8857DF8 
  89      DD83DF06 
  89      C8A5
  90 0246 566187BE 		.ascii	"Va\207\276\004\033\216\202\305\274\333\360tT\213\307"
  90      041B8E82 
  90      C5BCDBF0 
  90      74548BC7 
  91 0256 31C6295B 		.ascii	"1\306)[\353u\357\003\200G\253*$8\011'P\177\\@g\355#"
  91      EB75EF03 
  91      8047AB2A 
  91      24380927 
  91      507F5C40 
  92 026d 451A8900 		.ascii	"E\032\211\000\211t\022\031$2Id\221\310&1\213\304l\022"
  92      89741219 
  92      24324964 
  92      91C82631 
  92      8BC46C12 
  93 0281 731845B8 		.ascii	"s\030E\270\213\036\347\221\270\233\304|\022\271$\356"
  93      8B1EE791 
  93      B89BC47C 
  93      12B924EE 
  94 0291 21914FE2 		.ascii	"!\221O\342^\022\013H\334Gb!\211E$\026\223( \261\204"
  94      5E120B48 
  94      DC476221 
  94      89452416 
  94      932820B1 
  95 02a6 C45212CB 		.ascii	"\304R\022\313\304\275a\223\370\245\373\035S\024\372"
  95      C4BD6193 
  95      F8A5FB1D 
  95      5314FA
  96 02b5 E56370F8 		.ascii	"\345cp\370\327\311S\335VQ(\026\211\247R\0359\334%:\212"
  96      D7C953DD 
  96      56512816 
  96      89A7521D 
  96      39DC253A 
  97 02ca 95C3013C 		.ascii	"\225\303\001<-\262\251\352\005aBg@\272s\020\356\012"
  97      2DB2A9EA 
ARM GAS  C:\Users\gjl\AppData\Local\Temp\ccZWe7zS.s 			page 7


  97      05614267 
  97      40BA7310 
  97      EE0A
  98 02dc ED7C2F9B 		.ascii	"\355|/\233\224!\356D\267\226\321\276\307\311K\201\270"
  98      9421EE44 
  98      B796D1BE 
  98      C7C94B81 
  98      B8
  99 02ed 0ACDFA21 		.ascii	"\012\315\372!\307\024\316*\3638Z\367\207\306\024i\354"
  99      C714CE2A 
  99      F3385AF7 
  99      87C61469 
  99      EC
 100 02fe 4A8EC131 		.ascii	"J\216\3011\306W\011c\013\3336\233_\204\212\350\206\016"
 100      C6570963 
 100      0BDB369B 
 100      5F848AE8 
 100      860E
 101 0310 37195393 		.ascii	"7\031S\223\016\034\230\350WKoh\225\232\346\217p{\\!"
 101      0E1C98E8 
 101      574B6F68 
 101      959AE68F 
 101      707B5C21 
 102 0324 6A3A08A5 		.ascii	"j:\010\245\264w4~%\352#\030\007\320H\216\017\034Z^\320"
 102      B477347E 
 102      25EA2318 
 102      07D0488E 
 102      0F1C5A5E 
 103 0339 A085CB34 		.ascii	"\240\205\3134m\017P\376\324\255\257%:nw\235\215nw!\022"
 103      6D0F50FE 
 103      D4ADAF25 
 103      3A6E779D 
 103      8D6E7721 
 104 034e 7DFE11E1 		.ascii	"}\376\021\341N8\004\005\"\012\264@\251\314k\377\330"
 104      4E380405 
 104      220AB440 
 104      A9CC6BFF 
 104      D8
 105 035f F176A704 		.ascii	"\361v\247\004\324\360BCN\204\273\250\326\276\320\324"
 105      D4F04243 
 105      4E84BBA8 
 105      D6BED0D4 
 106 036f BA9FF874 		.ascii	"\272\237\370t\261U\247\276}\327Bv*\3049\264\352\005"
 106      B155A7BE 
 106      7DD74276 
 106      2AC439B4 
 106      EA05
 107 0381 4C2A56D6 		.ascii	"L*V\326\343\3411\305Fu\340\261U7\336,S\311\013]\032"
 107      E3E131C5 
 107      4675E0B1 
 107      5537DE2C 
 107      53C90B5D 
 108 0396 260E5CF3 		.ascii	"&\016\\\363HhJ&\322|\361\242WO\366\257F\256\207%\020"
 108      48684A26 
 108      D27CF1A2 
 108      574FF6AF 
 108      46AE8725 
ARM GAS  C:\Users\gjl\AppData\Local\Temp\ccZWe7zS.s 			page 8


 109 03ab 1C818210 		.ascii	"\034\201\202\020\236\014\035\374\356\266r\003ao[G\205"
 109      9E0C1DFC 
 109      EEB67203 
 109      616F5B47 
 109      85
 110 03bc 5D22D0E4 		.ascii	"]\"\320\344\335\374\337\350Cf\2006\035\340(\024\240"
 110      DDFCDFE8 
 110      43668036 
 110      1DE02814 
 110      A0
 111 03cd C5D4B1B1 		.ascii	"\305\324\261\261\026\237\354d\234A\273he\371\245\267"
 111      169FEC64 
 111      9C41BB68 
 111      65F9A5B7 
 112 03dd 7A6B3782 		.ascii	"zk7\202,\305gJ\344\0270e\202\373\037\356\030\331\350"
 112      2CC5674A 
 112      E4173065 
 112      82FB1FEE 
 112      18D9E8
 113 03f0 D14FED6B 		.ascii	"\321O\355k\240c\353\200\002\014q\014[@%\236\313\325"
 113      A063EB80 
 113      020C710C 
 113      5B40259E 
 113      CBD5
 114 0402 D34BF4D4 		.ascii	"\323K\364\324-\012|\273\257q\312-\227\225ZT#\216\374"
 114      2D0A7CBB 
 114      AF71CA2D 
 114      97955A54 
 114      238EFC
 115 0415 ECAB759F 		.ascii	"\354\253u\237x6\303\247e\024\213\256\246\007\276\301"
 115      7836C3A7 
 115      65148BAE 
 115      A607BEC1 
 116 0425 893C4EB1 		.ascii	"\211<N\261\340[\330\014\230\221(z\362h\223CG\035n\257"
 116      E05BD80C 
 116      9891287A 
 116      F2689343 
 116      471D6EAF 
 117 0439 9FB04998 		.ascii	"\237\260I\230\260\0163ue\340\240+\025\346\273\004L'"
 117      B00E3375 
 117      65E0A02B 
 117      15E6BB04 
 117      4C27
 118 044b C2A0CDBA 		.ascii	"\302\240\315\272\272\355\023\\6\210\346\333\016'p\367"
 118      BAED135C 
 118      3688E6DB 
 118      0E2770F7 
 119 045b 47D08E7C 		.ascii	"G\320\216|\354\024-\307O\220B]\177\347\347\332g\344"
 119      EC142DC7 
 119      4F90425D 
 119      7FE7E7DA 
 119      67E4
 120 046d 61A4A564 		.ascii	"a\244\245d\010\251\331u!,\332\207\376o\223\306\001i"
 120      08A9D975 
 120      212CDA87 
 120      FE6F93C6 
 120      0169
ARM GAS  C:\Users\gjl\AppData\Local\Temp\ccZWe7zS.s 			page 9


 121 047f DFF6FEB5 		.ascii	"\337\366\376\265\277\311(t<>\370^\216\306\031\375\252"
 121      BFC92874 
 121      3C3EF85E 
 121      8EC619FD 
 121      AA
 122 0490 0484023F 		.ascii	"\004\204\002?\227D\307\206['\366\351\267f\177C\310\016"
 122      9744C786 
 122      5B27F6E9 
 122      B7667F43 
 122      C80E
 123 04a2 DD906399 		.ascii	"\335\220c\231h\251\243.\014Uox\303\330\341\320\0039"
 123      68A9A32E 
 123      0C556F78 
 123      C3D8E1D0 
 123      0339
 124 04b4 569A0795 		.ascii	"V\232\007\225\365\250<5\313\364\231\262\374\301\224"
 124      F5A83C35 
 124      CBF499B2 
 124      FCC194
 125 04c3 6586B46F 		.ascii	"e\206\264o\210\\\330e\327o+\300I\221RL\261\263\236\200"
 125      885CD865 
 125      D76F2BC0 
 125      4991524C 
 125      B1B39E80 
 126 04d7 00774AE3 		.ascii	"\000wJ\343\314\231\220O\231\220\263\320\336\250\266"
 126      CC99904F 
 126      9990B3D0 
 126      DEA8B6
 127 04e6 5FAF360B 		.ascii	"_\2576\013\001v\356m\271i\237>\021'\364&\206\333\301"
 127      0176EE6D 
 127      B9699F3E 
 127      1127F426 
 127      86DBC1
 128 04f9 D67B93E3 		.ascii	"\326{\223\343e\317\024\357\337\246x\263\320>\221\271"
 128      65CF14EF 
 128      DFA678B3 
 128      D03E91B9 
 129 0509 CB18AFAD 		.ascii	"\313\030\257\255\031\006o\205\220\334H\023\353\350\261"
 129      19066F85 
 129      90DC4813 
 129      EBE8B1
 130 0518 4A8FD9A4 		.ascii	"J\217\331\244\026\315\010\255\3265\311S\250\"\361\364"
 130      16CD08AD 
 130      D635C953 
 130      A822F1F4 
 131 0528 19CD51F0 		.ascii	"\031\315Q\360\250\324\201\356\335@*;\303p\016\212\343"
 131      A8D481EE 
 131      DD402A3B 
 131      C3700E8A 
 131      E3
 132 0539 66DD4EA4 		.ascii	"f\335N\244\243P\264\345\235;%\304\234[\010\311\033G"
 132      A350B4E5 
 132      9D3B25C4 
 132      9C5B08C9 
 132      1B47
 133 054b 2665701A 		.ascii	"&ep\032\247!\202\267w\004\004\313\021\203\2435.\313"
 133      A72182B7 
ARM GAS  C:\Users\gjl\AppData\Local\Temp\ccZWe7zS.s 			page 10


 133      770404CB 
 133      1183A335 
 133      2ECB
 134 055d A3D7CE4F 		.ascii	"\243\327\316O\212\201\030\350\352\036\265\310\177Y\255"
 134      8A8118E8 
 134      EA1EB5C8 
 134      7F59AD
 135 056c 49D380FE 		.ascii	"I\323\200\376\013\375\267\373g\2023\251<\354\307T\373"
 135      0BFDB7FB 
 135      678233A9 
 135      3CECC754 
 135      FB
 136 057d 250F57C7 		.ascii	"%\017W\307N\036V\023Dl(\033\007\327\2532\277\273\246"
 136      4E1E5613 
 136      446C281B 
 136      07D7AB32 
 136      BFBBA6
 137 0590 8B7ED3D0 		.ascii	"\213~\323\320\364%:\340a\265V\311\370C\353\215\371J"
 137      F4253AE0 
 137      61B556C9 
 137      F843EB8D 
 137      F94A
 138 05a2 1EFFD7CD 		.ascii	"\036\377\327\315<4 h\344\363\262\232/\214k\333\310a"
 138      3C342068 
 138      E4F3B29A 
 138      2F8C6BDB 
 138      C861
 139 05b4 50463DD4 		.ascii	"PF=\324x\266\334!c\314K\305\361\233a\206\2200\260\227"
 139      78B6DC21 
 139      63CC4BC5 
 139      F19B6186 
 139      9030B097 
 140 05c8 9315037A 		.ascii	"\223\025\003z7\357\226,\3323\371\335\247.Ih~8+`CW+\332"
 140      37EF962C 
 140      DA33F9DD 
 140      A72E4968 
 140      7E382B60 
 141 05e0 2CD2683E 		.ascii	",\322h>\002\243\251\250\020n\315\366\226(\303D\232\363"
 141      02A3A9A8 
 141      106ECDF6 
 141      9628C344 
 141      9AF3
 142 05f2 25C5B5D7 		.ascii	"%\305\265\3275\353\024\227k\252\361\003\333\314\024"
 142      35EB1497 
 142      6BAAF103 
 142      DBCC14
 143 0601 372828EE 		.ascii	"7((\356\234\240\270\021\203\342\026\352\341S\010\254"
 143      9CA0B811 
 143      83E216EA 
 143      E15308AC 
 144 0611 D04460E7 		.ascii	"\320D`\347\005\201\345J\002\273\320\344\322}R\330\252"
 144      0581E54A 
 144      02BBD0E4 
 144      D27D52D8 
 144      AA
 145 0622 D0C45617 		.ascii	"\320\304V\027$[]\256\252?\355\222'\034\021l5\252\263"
 145      245B5DAE 
ARM GAS  C:\Users\gjl\AppData\Local\Temp\ccZWe7zS.s 			page 11


 145      AA3FED92 
 145      271C116C 
 145      35AAB3
 146 0635 D5872E13 		.ascii	"\325\207.\023[\015\325\275!\353\272g\246\351\0313MO"
 146      5B0DD5BD 
 146      21EBBA67 
 146      A6E91933 
 146      4D4F
 147 0647 3EDA9BB9 		.ascii	">\332\233\271)\337\340&\274\030^\326\002\311\243y\357"
 147      29DFE026 
 147      BC185ED6 
 147      02C9A379 
 147      EF
 148 0658 4CE03F9A 		.ascii	"L\340?\232\300\027\240}b4}l\234'#\3357\023\322E\023"
 148      C017A07D 
 148      62347D6C 
 148      9C2723DD 
 148      3713D245 
 149 066d D242B437 		.ascii	"\322B\2647\223\312\302$\006\361\263sJ2\370\242\231\300"
 149      93CAC224 
 149      06F1B373 
 149      4A32F8A2 
 149      99C0
 150 067f FF63025F 		.ascii	"\377c\002_\214\366\2114\323\364I\250\336:g\232A8Q\001"
 150      8CF68934 
 150      D3F449A8 
 150      DE3A679A 
 150      41385101 
 151 0693 C782BCC7 		.ascii	"\307\202\274\307T\232\032\037\022\301b?\231\007\210"
 151      549A1A1F 
 151      12C1623F 
 151      990788
 152 06a2 08C4A475 		.ascii	"\010\304\244u\376\242OZ\001M`\312\244\025$MZ:;d\343"
 152      FEA24F5A 
 152      014D60CA 
 152      A415244D 
 152      5A3A3B64 
 153 06b7 34FC977F 		.ascii	"4\374\227\177\376\275\303?\236<\330'B\216[\247\275k"
 153      FEBDC33F 
 153      9E3CD827 
 153      428E5BA7 
 153      BD6B
 154 06c9 8F3E774B 		.ascii	"\217>wK\214\034\372C\365`\250\246\223\310`\327\271\314"
 154      8C1CFA43 
 154      F560A8A6 
 154      93C860D7 
 154      B9CC
 155 06db FAE4793D 		.ascii	"\372\344y=\353\245\302#1Q\262\356\245\302:S\222]8z\372"
 155      EBA5C223 
 155      3151B2EE 
 155      A5C23A53 
 155      925D387A 
 156 06f0 84F7F6EF 		.ascii	"\204\367\366\357^\177\210\343\333\034\203\237p*\220"
 156      5E7F88E3 
 156      DB1C839F 
 156      702A90
 157 06ff DB223C4D 		.ascii	"\333\"<M\370e\261\377\376I\222\312\300\266\344\327\310"
ARM GAS  C:\Users\gjl\AppData\Local\Temp\ccZWe7zS.s 			page 12


 157      F865B1FF 
 157      FE4992CA 
 157      C0B6E4D7 
 157      C8
 158 0710 D6E1A698 		.ascii	"\326\341\246\230K\276|X`B?\367l\343\245\263\272q\350"
 158      4BBE7C58 
 158      60423FF7 
 158      6CE3A5B3 
 158      BA71E8
 159 0723 88DEE165 		.ascii	"\210\336\341e\202\263\306A\177=\\&\337\244\200,\221"
 159      82B3C641 
 159      7F3D5C26 
 159      DFA4802C 
 159      91
 160 0734 59E73D1A 		.ascii	"Y\347=\032\\\035,.*\011>\367l\341\232\265\305+\203+"
 160      5C1D2C2E 
 160      2A093EF7 
 160      6CE19AB5 
 160      C52B832B 
 161 0748 9E2A5CB3 		.ascii	"\236*\\\263|\351\212\345\177\177dU\321k/,Z\311l\305"
 161      7CE98AE5 
 161      7F7F6455 
 161      D16B2F2C 
 161      5AC96CC5 
 162 075c 6B5E7F62 		.ascii	"k^\177b\355+*\376<\\TR\344}quI\260\270x\355\253%\205"
 162      ED2B2AFE 
 162      3C5C5452 
 162      E47D7175 
 162      49B0B878 
 163 0774 25E8E67C 		.ascii	"%\350\346|\265\250\270\350\225 \252^\363\256\\\365\362"
 163      B5A8B8E8 
 163      9520AA5E 
 163      F3AE5CF5 
 163      F2
 164 0785 F2D5CF3F 		.ascii	"\362\325\317?\035,\371K\321\252\265A{\261\376`}\342"
 164      1D2CF94B 
 164      D1AAB541 
 164      7BB1FE60 
 164      7DE2
 165 0797 C9A79CEC 		.ascii	"\311\247\234\3547\304/\226\000"
 165      37C42F96 
 165      00
 166              		.text
 167              		.section	.gnu.lto_CySysFlashSetWaitCycles.58ea9481,"",%progbits
 168 0000 789C9552 		.ascii	"x\234\225R[KTQ\024\336k\357s\233Qg\314\207\2402\231"
 168      5B4B5451 
 168      14DE6BEF 
 168      739B5167 
 168      CC87A032 
 169 0015 20312152 		.ascii	" 1!R0\350\007\010\366\032\315cR\210\215\024\204\326"
 169      30E80708 
 169      F61ACD63 
 169      52888D14 
 169      84D6
 170 0027 34063DCD 		.ascii	"4\006=\315\036g\306.\364 D\006\232\210HhY\336M''9I\326"
 170      1E67C62E 
 170      F4204406 
ARM GAS  C:\Users\gjl\AppData\Local\Temp\ccZWe7zS.s 			page 13


 170      9A884868 
 170      59DE4D27 
 171 003f 43A5683E 		.ascii	"C\245h>u\221\322\230\"\2044L%\324\323\332g\353\230\025"
 171      7591D298 
 171      2284344C 
 171      25D4D3DA 
 171      67EB9815 
 172 0053 411B669D 		.ascii	"A\033f\235\263\327\371\326\267\276o\315R\010\020q\212"
 172      B3D7F9D6 
 172      B7BE6FCD 
 172      52081071 
 172      8A
 173 0064 14420EE1 		.ascii	"\024B\016\341\263\014\177\340 @kF\011\011\031\224\262"
 173      B30C7FE0 
 173      20406B46 
 173      09091994 
 173      B2
 174 0075 7816E14E 		.ascii	"x\026\341Ne2\217\360T\006\206L+T\265\323\232\235V7\322"
 174      65328FF0 
 174      5406864C 
 174      2B54B5D3 
 174      9A9D5637 
 175 008a 1AD545C2 		.ascii	"\032\325E\302i\210\217\251\372F\332\000\020/\334\000"
 175      69888FA9 
 175      FA46DA00 
 175      102FDC00 
 176 009a 12A44C51 		.ascii	"\022\244LQ5\335\200 |\247\253\024\206/%b4\267\205\343"
 176      35DD8020 
 176      7CA7AB14 
 176      862F2562 
 176      34B785E3 
 177 00ae 793FD253 		.ascii	"y?\322S\300[M\2102B,j\213\"\320\002\271\210\032\217"
 177      C05B4D88 
 177      32422C6A 
 177      8B22D002 
 177      B9881A8F 
 178 00c2 74DE620B 		.ascii	"t\336b\0134\312\000\024\274\316\277\254\233q\211+\005"
 178      34CA0014 
 178      BCCEBFAC 
 178      9B71892B 
 178      05
 179 00d3 0F5EC716 		.ascii	"\017^\307\026?6\271\331^ \370~mtq\010rns^\305y\275\217"
 179      3F36B9D9 
 179      5E20F87E 
 179      6D747108 
 179      726E735E 
 180 00eb 3BA28CC1 		.ascii	";\242\214\301]`\310\007w \023Z!\223`\212@\033\344\010"
 180      5D60C807 
 180      7720135A 
 180      2193608A 
 180      401BE408 
 181 00ff F8F56FEF 		.ascii	"\370\365o\357\0064\226k\227\276n\257\2118\263\233E\251"
 181      0634966B 
 181      97BE6EAF 
 181      8938B39B 
 181      45A9
 182 0111 D955EFBA 		.ascii	"\331U\357\272\311\315\220'\312\024\270'\313\0132!?\323"
ARM GAS  C:\Users\gjl\AppData\Local\Temp\ccZWe7zS.s 			page 14


 182      C9CD9027 
 182      CA14B827 
 182      CB0B3221 
 182      3FD3
 183 0123 1685D8E9 		.ascii	"\026\205\330\351\256\265\033iZD\310\366\300}\310\226"
 183      AEB51B69 
 183      5A44C8F6 
 183      C07DC896 
 184 0133 82A11D34 		.ascii	"\202\241\0354\234&\210L\307Q\223[V\230\233\215\273\036"
 184      9C26884C 
 184      C751935B 
 184      56989B8D 
 184      BB1E
 185 0145 4F646528 		.ascii	"Ode(D$U\020\2155\224\240\352\"8Dp\212\220\"B\232\010"
 185      44245510 
 185      8D3594A0 
 185      EA223844 
 185      708A9022 
 186 015c 2E11DC22 		.ascii	".\021\334\"\0202\207\254br\363\224\212'\373\014a\263"
 186      103287AC 
 186      6272F394 
 186      8A27FB0C 
 186      61B3
 187 016e AF7EBBE8 		.ascii	"\257~\273\350\023fb\022\261\330\354\033=\270\312/s\236"
 187      13666212 
 187      B1D8EC1B 
 187      3DB8CA2F 
 187      739E
 188 0180 1E659A45 		.ascii	"\036e\232EE\373\016\010b\271N\246\201\332\212\2601\242"
 188      45FB0E08 
 188      62B94EA6 
 188      81DA8AB0 
 188      31A2
 189 0192 C907888C 		.ascii	"\311\007\210\214\205?\365\357\223\325*VO\314\275hH\021"
 189      853FF5EF 
 189      93D52A56 
 189      4FCCBD68 
 189      4811
 190 01a4 7354211D 		.ascii	"sT!\035:A\272\233\247\214\304\263X\002\206\177\\\235"
 190      3A41BA9B 
 190      A78CC4B3 
 190      5802867F 
 190      5C9D
 191 01b6 FA5A0712 		.ascii	"\372Z\007\022\256!\2746:<\246\013\270a\317ky\246}\326"
 191      AE21BC36 
 191      3A3CA60B 
 191      B861CF6B 
 191      79A67DD6 
 192 01ca 90D74E6E 		.ascii	"\220\327Nnr!'\3347\320\354l\204\206P\004\377E\007t\343"
 192      722127DC 
 192      37D0EC6C 
 192      84865004 
 192      FF450774 
 193 01df C4BB042D 		.ascii	"\304\273\004-\364@#\220\004\204W\252WvHB]r\016-F/H\005"
 193      F4402390 
 193      048457AA 
 193      57764842 
ARM GAS  C:\Users\gjl\AppData\Local\Temp\ccZWe7zS.s 			page 15


 193      5D720E2D 
 194 01f7 2B9665B9 		.ascii	"+\226e\271\241\027\341\330\272\266)[\300\266P\2068\367"
 194      A117E1D8 
 194      BAB6295B 
 194      C0B65086 
 194      38F7
 195 0209 92ADB47D 		.ascii	"\222\255\264}H\213T\266j\205L\3461\333\343\322\257\036"
 195      488B54B6 
 195      6A854CE6 
 195      31DBE3D2 
 195      AF1E
 196 021b 93BBA282 		.ascii	"\223\273\242\202\007\036$=\252\344y\206\364\270\226"
 196      071E243D 
 196      AAE47986 
 196      F4B896
 197 022a F4E8F897 		.ascii	"\364\350\370\227\203\376\244\203\005M\302\235X\261\256"
 197      83FEA483 
 197      054DC29D 
 197      58B1AE
 198 0239 37BC9CF4 		.ascii	"7\274\234\364\225\202\037\220\247\367\311\263jC\266"
 198      95821F90 
 198      A7F7C9B3 
 198      6A43B6
 199 0248 0518F82F 		.ascii	"\005\030\370/S1\333T\212-S#WvKSm\361\375\233\246\006"
 199      5331DB54 
 199      8A2D5323 
 199      57764B53 
 199      6DF1FD9B 
 200 025e FBE34F55 		.ascii	"\373\343OU\311\236\017\017\223\246t2\265M\232J,w\257"
 200      C99E0F0F 
 200      93A67432 
 200      B54D9A4A 
 200      2C77AF
 201 0271 9B4AFB97 		.ascii	"\233J\373\227\251\301\244\251I]\302]X\261i\352\355N"
 201      A9C1A4A9 
 201      495DC25D 
 201      58B169EA 
 201      ED4E
 202 0283 9975E307 		.ascii	"\231u\343\007\344\031\261\226L\267lK!\276a*\347o\246"
 202      E419B196 
 202      4CB76C4B 
 202      21BE612A 
 202      E76FA6
 203 0296 8EFD66EA 		.ascii	"\216\375f\352\221m\312m\3134\326w9b\216O\331\033J\376"
 203      916DCA6D 
 203      CB34D677 
 203      39628E4F 
 203      D91B4AFE 
 204 02aa D864A785 		.ascii	"\330d\247\205\033O`\0107\031W7\212\323\370\002U\346"
 204      1B4F6008 
 204      37195737 
 204      8AD3F802 
 204      55E6
 205 02bc ABE3365A 		.ascii	"\253\3436Z\2349\334tdA\320\236\303\276r\237\277$\340"
 205      9C39DC74 
 205      6441D09E 
 205      C3BE729F 
ARM GAS  C:\Users\gjl\AppData\Local\Temp\ccZWe7zS.s 			page 16


 205      BF24E0
 206 02cf 3B79C25B 		.ascii	";y\302[Q\351/\365\025\037\361V\024\036,.\274Xt\246\344"
 206      51E92FF5 
 206      151FF156 
 206      141E2C2E 
 206      BC5874A6 
 207 02e4 FCA903A5 		.ascii	"\374\251\003\245D)\363\373\316\271N\227\007|~\177\345"
 207      4429F3FB 
 207      CEB94E97 
 207      077C7E7F 
 207      E5
 208 02f5 D9803780 		.ascii	"\331\2007\200\340\237\2020\201\335"
 208      E09F8230 
 208      81DD
 209              		.text
 210              		.section	.gnu.lto_CySysSFlashWriteUserRow.58ea9481,"",%progbits
 211 0000 789C9556 		.ascii	"x\234\225V{PTe\024\377\316\375\366\375\016X\326&LsB"
 211      7B505465 
 211      14FFCEFD 
 211      F6FD0E58 
 211      D6264C73 
 212 0015 F29185F6 		.ascii	"\362\221\205\366G\177GS\375\323c\242\251\246q\246!\333"
 212      477F4753 
 212      FDD363A2 
 212      A9A671A6 
 212      21DB
 213 0027 A6876911 		.ascii	"\246\207i\021\216\365Gqqw\023kJz\341\2024h\215\230\371"
 213      8EF54771 
 213      7177136B 
 213      4A7AE182 
 213      34688D98 
 214 003c 407CA0E2 		.ascii	"@|\240\342\203\305\360\321\203\31025\205@\024\"c\030"
 214      83C5F0D1 
 214      83C83235 
 214      85401422 
 214      6318
 215 004e D6543490 		.ascii	"\326T4\220\355\234\357\273w\331\2759\314tg\366\354\275"
 215      ED9CEFBB 
 215      77D9BD39 
 215      CC7467F6 
 215      ECBD
 216 0060 E73BE777 		.ascii	"\347;\347w\316\371\276s~\367\232\0300\272\252\\\214"
 216      CEF9BE73 
 216      7EF79A18 
 216      30BAAA5C 
 216      8C
 217 0071 BD8CFF2E 		.ascii	"\275\214\377.|\204I\014\224\212\037\031+\263)\012/\317"
 217      7C84490C 
 217      948A1F19 
 217      2BB3290A 
 217      2FCF
 218 0083 63AA239B 		.ascii	"c\252#\233\244\213+\246\035\007\031=v8\361\321\244X"
 218      A48B2BA6 
 218      1D07193D 
 218      7638F1D1 
 218      A458
 219 0095 C4A2592C 		.ascii	"\304\242Y,\232\301\"},\212u\310\217j\333\232{Qm\005"
ARM GAS  C:\Users\gjl\AppData\Local\Temp\ccZWe7zS.s 			page 17


 219      9AC1227D 
 219      2C8A75C8 
 219      8F6ADB9A 
 219      7B516D05 
 220 00a9 A754DB14 		.ascii	"\247T\333\024;)\034NZt\331u\265Sq5\335\212\352\300\211"
 220      3B291C4E 
 220      5A74D975 
 220      B5537135 
 220      DD8AEAC0 
 221 00be BB50ED52 		.ascii	"\273P\355R\334\0022S@\272\025\217@\362\012$\017dH\027"
 221      DC023253 
 221      40BA158F 
 221      40F20A24 
 221      0F644817 
 222 00d2 AFE21348 		.ascii	"\257\342\023H\031\002\311\247\2533 S\336d*Y\307\021"
 222      1902C9A7 
 222      AB332053 
 222      DE642A59 
 222      C711
 223 00e4 CCE1DF87 		.ascii	"\314\341\337\207\300\256,\360K\265\037\002\362&[\277"
 223      C0AE2CF0 
 223      4BB51F02 
 223      F2265BBF 
 224 00f4 0900D08D 		.ascii	"\011\000\320\215j\003V\252p\223\331b\265\331\235.\267"
 224      6A0356AA 
 224      7093D962 
 224      B5D99D2E 
 224      B7
 225 0105 C7EBCBC8 		.ascii	"\307\353\313\310\314\362g\007\240\024.+\327\0258\026"
 225      CCF26707 
 225      A0142E2B 
 225      D7153816 
 226 0115 DE5AC32F 		.ascii	"\336Z\303/)\021\316\300\204\217\361\266\352s\036z\004"
 226      2911CEC0 
 226      848FF1B6 
 226      EA731E7A 
 226      04
 227 0126 988A8FAB 		.ascii	"\230\212\217\253\325\237WXg\254W\325ej\367\241+\005"
 227      D59F5758 
 227      67AC57D5 
 227      656AF7A1 
 227      2B05
 228 0138 1F85220F 		.ascii	"\037\205\"\017E\270\302\022\012\203\257 \007\326C\016"
 228      45B8C212 
 228      0A83AF20 
 228      07D6430E 
 229 0148 EE2B6C80 		.ascii	"\356+l\200\031h\273\252\266\256\327\311o\007\206\367"
 229      1968BBAA 
 229      B6AED7C9 
 229      6F0786F7 
 230 0158 DB56AE69 		.ascii	"\333V\256i\203\274u\344\247\326\006U;:\301\327\300S"
 230      83BC75E4 
 230      A7D60655 
 230      3B3AC1D7 
 230      C053
 231 016a FD080736 		.ascii	"\375\010\0076B\036Z\1777r\265\316\301g\011O\365\303"
 231      421E5A7F 
ARM GAS  C:\Users\gjl\AppData\Local\Temp\ccZWe7zS.s 			page 18


 231      3772B5CE 
 231      C167094F 
 231      F5C3
 232 017c A611B3E6 		.ascii	"\246\021\263\3469,<9l2zb\262\233!\217\314?\271\330\271"
 232      392C3C39 
 232      6C327A62 
 232      B29B218F 
 232      CC3FB9D8 
 233 0191 DBC2E709 		.ascii	"\333\302\347\011\327\323[*\302\216\334/\3115\326\\\353"
 233      D7D35B2A 
 233      C28EDC2F 
 233      C935D65C 
 233      EB
 234 01a2 59A5C6CA 		.ascii	"Y\245\306\312\246F\270\011\266H\367y9pw\216h\010\264"
 234      A646B809 
 234      B648F779 
 234      3970778E 
 234      6808B4
 235 01b5 DDD476A4 		.ascii	"\335\324v\244C+\273\034\350\371\253\316>\253\254;f\303"
 235      432BBB1C 
 235      E8F9ABCE 
 235      3EABAC3B 
 235      66C3
 236 01c7 E7EBC315 		.ascii	"\347\353\303\025!\023\277O\340^\355\355\275lG\334\326"
 236      2113BF4F 
 236      E05EEDED 
 236      BD6C47DC 
 236      D6
 237 01d8 3235B6BF 		.ascii	"25\266\277+\033e\030q\315\260M\3426`Z[!\211|\264gU\213"
 237      2B1B6518 
 237      71CDB04D 
 237      E236605A 
 237      5B21897C 
 238 01f0 C21F169E 		.ascii	"\302\037\026\236\2155k\342f\364\014\207\324XS\227K\255"
 238      8D356BE2 
 238      66F40C87 
 238      D4585397 
 238      4BAD
 239 0202 28B345B8 		.ascii	"(\263E\270\005v\244\327\2439FW-\337\340\341\363\205"
 239      0576A4D7 
 239      A3394657 
 239      2DDFE0E1 
 239      F385
 240 0214 634DD52F 		.ascii	"cM\325/;u\307\335\343\216\2157t\354i\030\373\314m\011"
 240      3B75C7DD 
 240      E38E8D37 
 240      74EC6918 
 240      FBCC6D09 
 241 0228 AB784D85 		.ascii	"\253xM\205]\220\013;\361\267\035\177\365\220KG\205'"
 241      5D900B3B 
 241      F1B71D7F 
 241      F5904B47 
 241      8527
 242 023a B41B2CD8 		.ascii	"\264\033,\330\374&\343j\375\34315\221\300\030\273\246"
 242      FC26E36A 
 242      FDE33135 
 242      91C018BB 
ARM GAS  C:\Users\gjl\AppData\Local\Temp\ccZWe7zS.s 			page 19


 242      A6
 243 024b B4342DC0 		.ascii	"\2644-\300]\214p\253B\202\223p\000\235\217\023h\257"
 243      5D8C70AB 
 243      42829370 
 243      009D8F13 
 243      68AF
 244 025d BDA4C820 		.ascii	"\275\244\310 \221I\"\213\204\237D6\211\000\211I$n&q"
 244      9149228B 
 244      849F4436 
 244      89008949 
 244      246E2671 
 245 0271 0B89C98C 		.ascii	"\013\211\311\214\"L\241\333i$rIL'\221G\342\016\0223"
 245      224CA1DB 
 245      69247249 
 245      4C279147 
 245      E20E1233 
 246 0285 48CC2431 		.ascii	"H\314$1\213\304l\022sH\314\025\355\301\206\360G]\034"
 246      8BC46C12 
 246      7348CC15 
 246      EDC186F0 
 246      475D1C
 247 0298 5714FAE7 		.ascii	"W\024\372\347}p\360\322\326\301\223fQ\017\326\202\305"
 247      7D70F0D2 
 247      D6C19366 
 247      510FD682 
 247      C5
 248 02a9 57460EB6 		.ascii	"WF\016\266\213\203\303\002a\017n\012\331\3744h\025&"
 248      8B83C302 
 248      610F6E0A 
 248      D9FC3468 
 248      1526
 249 02bb 542AE9CE 		.ascii	"T*\351\316B\270=\264\261y\022)C\334\201n+j\2526\012"
 249      42B83DB4 
 249      B1791229 
 249      43DC816E 
 249      2B6AAA36 
 250 02d0 37053834 		.ascii	"7\00584i{\031W8+\317\343h}&\364\217\"\215\235\25118"
 250      697B1957 
 250      382BCFE3 
 250      687D26F4 
 250      8F228D9D 
 251 02e7 C6D89B34 		.ascii	"\306\330\23346\261\352\333\310\370T\250\271\371/>\216"
 251      36B1EADB 
 251      C8F854A8 
 251      B9F92F3E 
 251      8E
 252 02f8 5DF1EBF7 		.ascii	"]\361\353\367\037\230\310\334\012\011\016\3734\373!"
 252      1F98C8DC 
 252      0A090EFB 
 252      34FB21
 253 0307 C5CCDA7C 		.ascii	"\305\314\332|<\256X\310\015\263\254\214_Y.\322D\227"
 253      3CAE58C8 
 253      0DB3AC8C 
 253      5F592ED2 
 253      4497
 254 0319 FA813DD7 		.ascii	"\372\201=\327\334\344b\023\307\037i\352\357\367\344"
 254      DCE46213 
ARM GAS  C:\Users\gjl\AppData\Local\Temp\ccZWe7zS.s 			page 20


 254      C71F69EA 
 254      EFF7E4
 255 0328 D7ABE132 		.ascii	"\327\253\3412U}\212J\243\363\332/\201\340\000\344\207"
 255      557D8A4A 
 255      A3F3DA2F 
 255      81E000E4 
 255      87
 256 0339 3011AA73 		.ascii	"0\021\252sh4\211\260\243\365\310\2736\211@\375<v\245"
 256      683489B0 
 256      A3F5C8BB 
 256      368940FD 
 256      3C76A5
 257 034c F73E2340 		.ascii	"\367>#@\263\006\020\203|\264\0309\332\327\354\225\033"
 257      B3061083 
 257      7CB41839 
 257      DAD7EC95 
 257      1B
 258 035d 9760D082 		.ascii	"\227`\320\202k\375\360nl\270\313E\200\224\304\236=\003"
 258      6BFDF06E 
 258      6CB8CB45 
 258      8094C49E 
 258      3D03
 259 036f 67ACA5D7 		.ascii	"g\254\245\327\325rU\365E\270=\241\020}\036\204RZ;\224"
 259      D57255F5 
 259      45B83DA1 
 259      107D1E84 
 259      525A3B94 
 260 0383 188E7965 		.ascii	"\030\216ye4\"\221\013\035\007\012\264h\333A\017\367"
 260      3422910B 
 260      1D070AB4 
 260      68DB410F 
 260      F7
 261 0394 8D0C87CB 		.ascii	"\215\014\207\313\355]\261uND\242\353\355\010w@+\344"
 261      ED5DB175 
 261      4E44A2EB 
 261      ED087740 
 261      2BE4
 262 03a6 8B287008 		.ascii	"\213(p\010J\345\0267\366}{\330!\001U\200\303\220\023"
 262      4AE51637 
 262      F67D7BD8 
 262      21015580 
 262      C39013
 263 03b9 E14E2C71 		.ascii	"\341N,q\331\305\345}\211j\220{\3535\354\314\337`\330"
 263      D9C5E57D 
 263      896A907B 
 263      EB35ECCC 
 263      DF60D8
 264 03cc 1A5CFFB4 		.ascii	"\032\\\377\264\256\247\332\255\205\332\017\024\353\010"
 264      AEA7DAAD 
 264      85DA0F14 
 264      EB08
 265 03da E463DE47 		.ascii	"\344c\336G1o\332\363\263\271\332~%\317\324%v|\305\251"
 265      316FDAF3 
 265      B3B9DA7E 
 265      25CFD425 
 265      767CC5A9 
 266 03ee 8611977C 		.ascii	"\206\021\227|,Wc*Q\341\027{W\256v\327\302\347e\024k"
ARM GAS  C:\Users\gjl\AppData\Local\Temp\ccZWe7zS.s 			page 21


 266      2C57632A 
 266      51E1177B 
 266      57AE76D7 
 266      C2E76514 
 267 0403 1E36A41B 		.ascii	"\0366\244\033\276\303\301\373\226b\301\367P\013\230"
 267      BEC3C1FB 
 267      9662C1F7 
 267      500B98
 268 0412 913C85B1 		.ascii	"\221<\205\261]v\015\265\373\360\226\001\213\204\011"
 268      5D760DB5 
 268      FBF09601 
 268      8B8409
 269 0421 6B3023C3 		.ascii	"k0#\303\035\373\234\3510?$a\332\020\006mVnZ7\300e\307"
 269      1DFB9CE9 
 269      303F2461 
 269      DA10066D 
 269      566E5A37 
 270 0438 D018DBE0 		.ascii	"\320\030\333\340G\\\375\003\324oF\247\210}\302+H\241"
 270      475CFD03 
 270      D46F46A7 
 270      887DC22B 
 270      48A1
 271 044a FE796F2C 		.ascii	"\376yo,\361\264\334\214\214\264\014!=\273v\204E\373"
 271      F1B4DC8C 
 271      8CB40C21 
 271      3DBB7684 
 271      45FB
 272 045c D0A8451A 		.ascii	"\320\250E\032gJ\373\326\217\256\275.\243\320\366x\341"
 272      674AFBD6 
 272      8FAEBD2E 
 272      A3D0F678 
 272      E1
 273 046d 27391AA7 		.ascii	"'9\032\247\265\336\315\024\012\274.\212\026\352n\031"
 273      B5DECD14 
 273      0ABC2E8A 
 273      16EA6E19 
 274 047d D8A9B571 		.ascii	"\330\251\265qc}\310\006\307 \3074z}3\235\302\357\225"
 274      637DC806 
 274      C720C734 
 274      7A7D339D 
 274      C2EF95
 275 0490 556FEA2B 		.ascii	"Uo\352+\034~\206\0343\315\203\225\325\331yz\226Y\023"
 275      1C7E861C 
 275      33CD8395 
 275      D5D9797A 
 275      965913
 276 04a3 65F98B21 		.ascii	"e\371\213!K\277\264\257\217\234\337`\323\306\007\340"
 276      4BBFB4AF 
 276      8F9CDF60 
 276      D3C607E0 
 277 04b3 B84829AE 		.ascii	"\270H)\256\330\330\245\200\000wH\343\354\211\220\177"
 277      D8D8A580 
 277      007748E3 
 277      EC89907F 
 278 04c3 352007D0 		.ascii	"5 \007\320^\257\366\214Vm\000\001\326\357h\036\263\215"
 278      5EAFF68C 
 278      566D0001 
ARM GAS  C:\Users\gjl\AppData\Local\Temp\ccZWe7zS.s 			page 22


 278      D6EF681E 
 278      B38D
 279 04d5 EF88034E 		.ascii	"\357\210\003N$\207\333\316V\337\224\032o\322D\361N\032"
 279      2487DBCE 
 279      56DF941A 
 279      6FD244F1 
 279      4E1A
 280 04e7 E2DD8CF6 		.ascii	"\342\335\214\366\311\314\235\372\274\257\365\353\274"
 280      C9CC9DFA 
 280      BCAFF5EB 
 280      BC
 281 04f4 15427213 		.ascii	"\025Br\023\014\320\032}Fz\334Bjq\030\241E\232&\225\026"
 281      0CD01A7D 
 281      467ADC42 
 281      6A7118A1 
 281      459A2695 
 282 0509 AC483CA7 		.ascii	"\254H<\247\364\303Qp\253\254\243\211\006 \225\215a8"
 282      F4C35170 
 282      ABACA389 
 282      0620958D 
 282      6138
 283 051b 3BC571B1 		.ascii	";\305q\261k.\336\017\241\330\366\236n\255\306\311\377"
 283      6B2EDE0F 
 283      A1D8F69E 
 283      6EADC6C9 
 283      FF
 284 052c 19634F02 		.ascii	"\031cO\002\251\224\301o8\016\021l\337\036\0204GL\215"
 284      A994C16F 
 284      380E116C 
 284      DF1E1034 
 284      474C8D
 285 053f D6F8B82C 		.ascii	"\326\370\270,v\355\334\220\230\210\216\366c\275&\371"
 285      76EDDC90 
 285      98888EF6 
 285      63BD26F9 
 286 054f 3655B7A9 		.ascii	"6U\267\251*\320;\317w\2437\020\234N'b\037\346zF\022"
 286      2AD03BCF 
 286      77A33710 
 286      9C4E2762 
 286      1FE67A46 
 287 0564 7165BC2D 		.ascii	"qe\274-\372f\222\211ue\303\211h\261\314o\312x\325\357"
 287      FA669289 
 287      7565C389 
 287      68B1CC6F 
 287      CA78D5EF 
 288 0578 E89A53C9 		.ascii	"\350\232S\311#p\263}\026A\371C'\243\037\2036a\251\004"
 288      2370B37D 
 288      1641F943 
 288      27A31F83 
 288      3661A904 
 289 058c B0D4488D 		.ascii	"\260\324H\215\035\202\331Z\316\3275)Z{\236\344\320)"
 289      1D82D95A 
 289      CED73529 
 289      5A7B9EE4 
 289      D029
 290 059e C3563774 		.ascii	"\303V7tD+t\224\024z\\j\244\307\337\211_\035\222|N\274"
 290      442B7494 
ARM GAS  C:\Users\gjl\AppData\Local\Temp\ccZWe7zS.s 			page 23


 290      147A5C6A 
 290      A4C7DF89 
 290      5F1D927C 
 291 05b4 FF654026 		.ascii	"\377e@&6\315\020\373\023\313\304\344\323)\310\247K\220"
 291      36CD10FB 
 291      13CBC4E4 
 291      D329C8A7 
 291      4B90
 292 05c6 4FB74E3E 		.ascii	"O\267N>wj\341\323\250\245\320@-g\005\265L\223\324\322"
 292      776AE1D3 
 292      A8A5D040 
 292      2D6705B5 
 292      4C93D4D2 
 293 05da 196DD473 		.ascii	"\031m\324sN#\222B\003\221\364H\"\251\271\324\361\033"
 293      4E239242 
 293      0391F448 
 293      22A9B9D4 
 293      F11B
 294 05ec C8D2A382 		.ascii	"\310\322\243\202H\316iDr\3659\003\221\014\276\037\362"
 294      48CE6944 
 294      72F53903 
 294      910CBE1F 
 294      F2
 295 05fd CACA7227 		.ascii	"\312\312r'\352\354\363\206\316\236\216\366F\336\230"
 295      EAECF386 
 295      CE9E8EF6 
 295      46DE98
 296 060c AEF3069E 		.ascii	"\256\363\006\236\231\007\337\"\251c\2237\021x\257\001"
 296      9907DF22 
 296      A9639337 
 296      1178AF01 
 297 061c FC0EB44F 		.ascii	"\374\016\264O\216\215\227\0357\245\"\315\230\010\251"
 297      8E8D971D 
 297      37A522CD 
 297      9808A9
 298 062b CF803413 		.ascii	"\317\2004\023\355\215\003?3e\272}l3O\005\2375\021\370"
 298      ED8D033F 
 298      3365BA7D 
 298      6C334F05 
 298      9F3511F8 
 299 063f 1F06F0D9 		.ascii	"\037\006\360\331h\237L3Ck\322\312\265\223\307\247\233"
 299      689F4C33 
 299      436BD2CA 
 299      B593C7A7 
 299      9B
 300 0650 D398722C 		.ascii	"\323\230r,\310s\324J\015\355\305!\235\355#\363L\032"
 300      C873D44A 
 300      0DEDC521 
 300      9DED23F3 
 300      4C1A
 301 0662 523104E7 		.ascii	"R1\004\347\243Z\313\317\241\341H\033\2029)C\220\305"
 301      A35ACBCF 
 301      A1E1481B 
 301      82392943 
 301      90C5
 302 0674 FEB6729A 		.ascii	"\376\266r\232\313\313\203\377w.\373Sg\256Wk\376\344"
 302      CBCB83FF 
ARM GAS  C:\Users\gjl\AppData\Local\Temp\ccZWe7zS.s 			page 24


 302      772EFB53 
 302      67AE576B 
 302      FEE4
 303 0686 2412B85F 		.ascii	"$\022\270_RF8Vu\256\037n\374\336\277)\201\037E\014\376"
 303      52463856 
 303      75AE1F6E 
 303      FCDEBF29 
 303      811F450C 
 304 069b C4164686 		.ascii	"\304\026F\206\210\360\014\341\230\315\256\314\226\243"
 304      88F00CE1 
 304      98CDAECC 
 304      96A3
 305 06a9 39107D22 		.ascii	"9\020}\"\345k\254\245{[\334)?*LpA\213\022\320\277\335"
 305      E56BACA5 
 305      7B5BDC29 
 305      3F2A4C70 
 305      418B12D0 
 306 06bf 2A1B06A3 		.ascii	"*\033\006\243\367\312\022\347\212\311\277\000\332W\326"
 306      F7CA12E7 
 306      8AC9BF00 
 306      DA57D6
 307 06ce 5CF98504 		.ascii	"\\\371\205\004d\211\374t\333\203\301E\301\342\242\222"
 307      6489FC74 
 307      DB83C145 
 307      C1E2A292 
 308 06de E0F3CF16 		.ascii	"\340\363\317\026.^R\274 8\377\261\302\305\005\367\314"
 308      2E5E52BC 
 308      2038FFB1 
 308      C2C505F7 
 308      CC
 309 06ef 2F78EB81 		.ascii	"/x\353\201\205Eo\2748g\001\263\024/^\372\310\222W\255"
 309      85456FBC 
 309      386701B3 
 309      142F5EFA 
 309      C89257AD 
 310 0703 F8777F51 		.ascii	"\370w\177QI\221\347\245E%\301\342\342%\257\225\024\226"
 310      4991E7A5 
 310      4525C1E2 
 310      E225AF95 
 310      1496
 311 0715 A09BE3B5 		.ascii	"\240\233\343\265\242\342\242W\203\250z\303\263`\341"
 311      A2E2A257 
 311      83A87AC3 
 311      B360E1
 312 0724 2B058B5E 		.ascii	"+\005\213^x<X\362d\321\302%A[\261vc~\344\321\307\034"
 312      783C58F2 
 312      64D1C225 
 312      415BB176 
 312      637EE4D1 
 313 073a EC5FDC16 		.ascii	"\354_\334\026_m"
 313      5F6D
 314              		.text
 315              		.section	.gnu.lto_.symbol_nodes.58ea9481,"",%progbits
 316 0000 789C558A 		.ascii	"x\234U\212\261\015\302@\020\004\367n\337\306]`\012\240"
 316      B10DC240 
 316      1004F76E 
 316      DFC65D60 
ARM GAS  C:\Users\gjl\AppData\Local\Temp\ccZWe7zS.s 			page 25


 316      0AA0
 317 0012 C6FBC011 		.ascii	"\306\373\300\021\011t\340\344\253\240\000G\026t\200"
 317      0974E0E4 
 317      ABA00047 
 317      167480
 318 0021 089023A7 		.ascii	"\010\220#\247N-VD\374&\253\031M\202\241@s\013\340\366"
 318      4E2D5644 
 318      FC26AB19 
 318      4D82A140 
 318      730BE0F6 
 319 0035 0074F77C 		.ascii	"\000t\367|\222\360\260Z0\274\022\326\005\177\002\310"
 319      92F0B05A 
 319      30BC12D6 
 319      057F02C8 
 320 0045 B9171F22 		.ascii	"\271\027\037\"U\334F\363\317D\203\262\235\211\204\341"
 320      55DC46F3 
 320      CF4483B2 
 320      9D8984E1 
 321 0055 3A3B253E 		.ascii	":;%>\243\336\022\312{7\032Q.\353\221\256lZ[\272\272"
 321      A3DE12CA 
 321      7B371A51 
 321      2EEB91AE 
 321      6C5A5BBA 
 322 006a E7E25439 		.ascii	"\347\342T9\274\026\307\027\304\240&\315"
 322      BC16C717 
 322      C4A026CD 
 323              		.text
 324              		.section	.gnu.lto_.refs.58ea9481,"",%progbits
 325 0000 789C6361 		.ascii	"x\234ca`\004B \000\000\0009\000\007"
 325      60044220 
 325      00000039 
 325      0007
 326              		.text
 327              		.section	.gnu.lto_.decls.58ea9481,"",%progbits
 328 0000 789CAD56 		.ascii	"x\234\255VkP\023W\024\336\263\033B\014\001\034j\321"
 328      6B501357 
 328      14DEB31B 
 328      420C011C 
 328      6AD1
 329 0012 CE302DFA 		.ascii	"\3160-\372G\373CZ\037\3558\316t\306\031\246\372\247"
 329      47FB435A 
 329      1FED38CE 
 329      74C619A6 
 329      FAA7
 330 0024 8A2D55FB 		.ascii	"\212-U\373#3N\210+f\006\022\232,\243\351\237\256\"\365"
 330      23334E88 
 330      2B660612 
 330      9A2CA3E9 
 330      9FAE22F5 
 331 0038 DD82EF17 		.ascii	"\335\202\357\027\342\203\252(\030\252\010*>\242\242"
 331      E283AA28 
 331      18AA082A 
 331      3EA2A2
 332 0047 208A0A8A 		.ascii	" \212\012\212\005Q\001\237\240(b\"\342\273\347\336\273"
 332      0551019F 
 332      A0286222 
 332      E2BBE7DE 
ARM GAS  C:\Users\gjl\AppData\Local\Temp\ccZWe7zS.s 			page 26


 332      BB
 333 0058 C9266AAA 		.ascii	"\311&j\252\235\351N\316n\356\331s\276\363\235{\316\236"
 333      9DE94ECE 
 333      6EEED973 
 333      BEF39D7B 
 333      CE9E
 334 006a 5D0D071C 		.ascii	"]\015\007\0349\246\3529\356\023\236\343\012p\371\032"
 334      39A6EA39 
 334      EE139EE3 
 334      0A70F91A 
 335 007a 0F0DEA26 		.ascii	"\017\015\352&\243\204\241$\241\270P\212Q\312P\006s\354"
 335      A384A124 
 335      A1B8508A 
 335      51CA5006 
 335      73EC
 336 008c D0A21C46 		.ascii	"\320\242\034F9\206R\211R\215r\032\245\215{\373 v\037"
 336      39865289 
 336      528D721A 
 336      A58D7BFB 
 336      20761F
 337 009f A1C4A0F4 		.ascii	"\241\304\240\364\013\300*E\271\243\340\023\334v%^\007"
 337      0BC02A45 
 337      B9A3E013 
 337      DC76255E 
 337      07
 338 00b0 4A178A07 		.ascii	"J\027\212\007\245\033\305\213R\203\322\203\322\213R"
 338      A51BC58B 
 338      5283D283 
 338      D28B52
 339 00bf A5E06A14 		.ascii	"\245\340j\024\3546%v\365;b\023~\006%\237\300\370\245"
 339      EC362576 
 339      F53B6213 
 339      7E06259F 
 339      C0F8A5
 340 00d2 4A4C1FB6 		.ascii	"JL\037\266/V \276\240\370\207\302\256\374\300\274\222"
 340      2F5620BE 
 340      A0F887C2 
 340      AEFCC0BC 
 340      92
 341 00e3 94DCFE4B 		.ascii	"\224\334\376K^\225\357\311\353%\017W\253\013w\012^\036"
 341      5E95EFC9 
 341      EB250F57 
 341      AB0B770A 
 341      5E1E
 342 00f5 06EB8154 		.ascii	"\006\353\201T-\032U\256\316\375O#\231\212X\264<\335"
 342      2D1A55AE 
 342      CEFD4F23 
 342      998A58B4 
 342      3CDD
 343 0107 3E36A148 		.ascii	">6\241H\306#G\226y^u\255i\271\365\250\217\020A\215\352"
 343      C6234796 
 343      795E75AD 
 343      69B9F5A8 
 343      8F10418D 
 344 011c E696AC27 		.ascii	"\346\226\254'01z\320\340\262\273v\355\215(\\\366\323"
 344      30317AD0 
 344      E0B2BB76 
ARM GAS  C:\Users\gjl\AppData\Local\Temp\ccZWe7zS.s 			page 27


 344      ED8D285C 
 344      F6D3
 345 012e 43FC4B9E 		.ascii	"C\374K\236/\333\222\357\011\003\375\220\371\262<G\316"
 345      2FDB92EF 
 345      0903FD90 
 345      F9B23C47 
 345      CE
 346 013f C99263AA 		.ascii	"\311\222c\252\2438(\2028\330\011q\034\354\202!$V!$p"
 346      A3382882 
 346      38D80971 
 346      1CEC8221 
 346      24562124 
 347 0154 B01D95DB 		.ascii	"\260\035\225\333P\271\225\304km(\371f\277,\367\205b"
 347      50B995C4 
 347      6B6D28F9 
 347      66BF2CF7 
 347      8562
 348 0166 D0C30E10 		.ascii	"\320\303\016\020\250\011\307\2411#p\240\310\265Z\320"
 348      A809C7A1 
 348      312370A0 
 348      C8B55AD0 
 349 0176 2368D687 		.ascii	"#h\326\207\201\202\013\364$\277\354\233\205:$\027\207"
 349      81820BF4 
 349      24BFEC9B 
 349      853A2417 
 349      87
 350 0187 294340BE 		.ascii	")C@\276q,\3375\2717^E\010#\311\177\376\302\215\235\035"
 350      712CDF35 
 350      B9375E45 
 350      0823C97F 
 350      FEC28D9D 
 351 019c 1A18A2A7 		.ascii	"\032\030\242\247t\334\027?\225y(E.\273U.q\204\013\315"
 351      74DC173F 
 351      95792845 
 351      2EBB552E 
 351      71840BCD 
 352 01b0 EBE16659 		.ascii	"\353\341fY;\200\203\021q\360%\206\332\203\361\343\224"
 352      3B808311 
 352      71F02586 
 352      DA83F1E3 
 352      94
 353 01c1 F87F61FC 		.ascii	"\370\177a\374\022\214\217\340\017\013_{\243\365\212"
 353      128C8FE0 
 353      0F0B5F7B 
 353      A3F58A
 354 01d0 7DCEFBED 		.ascii	"}\316\373\355\357.\331\330\022iX\250\356\033\354\305"
 354      EF2ED9D8 
 354      126958A8 
 354      EE1BECC5 
 355 01e0 F8BE2C39 		.ascii	"\370\276,9(\003\322\227\364\212\326\347\347\236,\327"
 355      2803D297 
 355      F48AD6E7 
 355      E79E2CD7 
 356 01f0 354313F0 		.ascii	"5C\023\360\240<\225\034\000;\003\025\216\011]\342\037"
 356      A03C951C 
 356      003B0315 
 356      8E095DE2 
ARM GAS  C:\Users\gjl\AppData\Local\Temp\ccZWe7zS.s 			page 28


 356      1F
 357 0201 9E9E39BF 		.ascii	"\236\2369\277\312\177\341\310\231c\366T\247\202\321"
 357      CA7FE1C8 
 357      9963F654 
 357      A782D1
 358 0210 9FEFFADA 		.ascii	"\237\357\372\332wP\020\025\035\024'\3603`^\354>\357"
 358      77501015 
 358      1D1427F0 
 358      33605EEC 
 358      3EEF
 359 0222 4365175E 		.ascii	"Ce\027^u\010\300ct\0038ApN\340k\303\027\263\017\037"
 359      7508C063 
 359      74033841 
 359      704EE06B 
 359      C317B30F 
 360 0237 D00BA369 		.ascii	"\320\013\243i\3556\344d\177\257\341\331~@\212\206\250"
 360      ED36E464 
 360      7FAFE1D9 
 360      7E408A86 
 360      A8
 361 0248 567BB3E6 		.ascii	"V{\263\346\030\250\216t\321~\240\312\023\257\237\270"
 361      18A88E74 
 361      D17EA0CA 
 361      13AF9FB8 
 362 0258 A359BBF2 		.ascii	"\243Y\273\362\270\254\177x&/\202\265k_\\\236\354j]\021"
 362      B8AC7F78 
 362      262F82B5 
 362      6B5F5C9E 
 362      EC6A5D11 
 363 026c 316025A9 		.ascii	"1`%\2519\266V<O=\017\342\236W\320=?\004\003\360|\000"
 363      39B6563C 
 363      4F3D0FE2 
 363      9E57D03D 
 363      3F0403F0 
 364 0282 342C7ED6 		.ascii	"4,~\326\253\247\277G\017\332(o,\221[+N\3768{\313o\362"
 364      ABA7BF47 
 364      0FDA286F 
 364      2C915B2B 
 364      4EFE387B 
 365 0299 79741C43 		.ascii	"yt\034C\015a\237\332*\370\227\\\312\241\03139\014\203"
 365      0D619FDA 
 365      2AF8975C 
 365      CAA11933 
 365      390C83
 366 02ac D0F7C8D6 		.ascii	"\320\367\310\326\213+\372\0106\312\375~W~m\270\237("
 366      8B2BFA08 
 366      36CAFD7E 
 366      577E6DB8 
 366      9F28
 367 02be 233FAF60 		.ascii	"#?\257`\371f} \223\311\261\001D\216R\"n\037\221\227"
 367      F9667D20 
 367      93C9B101 
 367      448E5222 
 367      6E1F9197 
 368 02d2 AEEA469E 		.ascii	"\256\352F\236\021q\347\255\023\326\310\3569\350\306"
 368      1171E7AD 
 368      13D6C8EE 
ARM GAS  C:\Users\gjl\AppData\Local\Temp\ccZWe7zS.s 			page 29


 368      39E8C6
 369 02e1 133338A2 		.ascii	"\02338\242\3228\022H\343\030\245\361l\305\274\202\010"
 369      D2381248 
 369      E318A5F1 
 369      6CC5BC82 
 369      08
 370 02f2 611E501E 		.ascii	"a\036P\036\007{j/\201\002\2637\337\340\207!\331\034"
 370      077B6A2F 
 370      8102B337 
 370      DFE08721 
 370      D91C
 371 0304 57618E07 		.ascii	"Wa\216\007\302T\262l:j\266\011B>\203\271\265*\377\236"
 371      C254B26C 
 371      3A6AB609 
 371      423E83B9 
 371      B52AFF9E 
 372 0318 96A653EA 		.ascii	"\226\246S\352O\347\354\362\246z\010\231N\025M\347\244"
 372      4FE7ECF2 
 372      A67A0899 
 372      4E154DE7 
 372      A4
 373 0329 2F9DB605 		.ascii	"/\235\266\005m\215\006\344\321\212\203\240yQ\252g\267"
 373      6D8D06E4 
 373      D18A83A0 
 373      7951AA67 
 373      B7
 374 033a 3C378CD8 		.ascii	"<7\214\330\300\011\225\304\011J\002\377TS\002E\025y"
 374      C00995C4 
 374      094A02FF 
 374      54530245 
 374      1579
 375 034c CF754203 		.ascii	"\317uB\003#\220\227\263eGP\025K\203\252XC\243\245(\301"
 375      239097B3 
 375      65475015 
 375      4B83AA58 
 375      43A3A528 
 376 0361 EEB66F38 		.ascii	"\356\266o8\027\315\202\271\327\2363\270'\222\373pJ\215"
 376      17CD82B9 
 376      D79E33B8 
 376      2792FB70 
 376      4A8D
 377 0373 74CA17E9 		.ascii	"t\312\027\3514\215\264nG\305\036\255\320\311\"\325\272"
 377      348DB46E 
 377      47C51EAD 
 377      D0C922D5 
 377      BA
 378 0384 3A166905 		.ascii	":\026i\005\017[\224\254\273]C\312\010\265\324\203hf"
 378      0F5B94AC 
 378      BB5D43CA 
 378      08B5D483 
 378      6866
 379 0396 BBB7450A 		.ascii	"\273\267E\012\275\354\366\346?7\324\367!\267\317\341"
 379      BDECF6E6 
 379      3F37D4F7 
 379      21B7CFE1 
 380 03a6 6D38CBDA 		.ascii	"m8\313\332qW\321\363\022=\335\253\311\261AS9\351\355"
 380      7157D1F3 
ARM GAS  C:\Users\gjl\AppData\Local\Temp\ccZWe7zS.s 			page 30


 380      123DDDAB 
 380      C9B14153 
 380      39E9ED
 381 03b9 A99CC4A6 		.ascii	"\251\234\304\246T\301\323\256r\203\200e!cj\343\222\342"
 381      54C1D3AE 
 381      72838065 
 381      21636AE3 
 381      92E2
 382 03cb 8E30DF98 		.ascii	"\2160\337\230j\315_j\364d\223\212]\302\204/\252)$\371"
 382      6ACD5F6A 
 382      F464938A 
 382      5DC2842F 
 382      AA2924F9 
 383 03df 47D55BD3 		.ascii	"G\325[\323\262\001\247O\2222}.\240\262\236M\237Sy\271"
 383      B201A74F 
 383      92327D2E 
 383      A0B29E4D 
 383      9F5379B9 
 384 03f3 85AC2509 		.ascii	"\205\254%\011T\035#{\371\305\262g:\252\034o\200\277"
 384      541D237B 
 384      F9C5B267 
 384      3AAA1C6F 
 384      80BF
 385 0405 996E61D3 		.ascii	"\231na\323\341\245\254\330\223\014\320\310t\227\262"
 385      E1A5ACD8 
 385      930CD0C8 
 385      7497B2
 386 0414 16F7440D 		.ascii	"\026\367D\015\234'\344\313:\232\323\2415\035{4\324\346"
 386      9C27E4CB 
 386      3A9AD3A1 
 386      351D7B34 
 386      D4E6
 387 0426 320CA49A 		.ascii	"2\014\244\232\236\353K\226\205\013\013\004\232Pw\276"
 387      9EEB4B96 
 387      850B0B04 
 387      9A5077BE 
 388 0436 672B8180 		.ascii	"g+\201\200+\310\270\2314\001*\275W\326\034\014\023r"
 388      2BC8B899 
 388      34012ABD 
 388      57D61C0C 
 388      1372
 389 0448 99C5CE55 		.ascii	"\231\305\316U\005\347\351\316^#[w\225E9\372Gq\271\020"
 389      05E7E9CE 
 389      5E235B77 
 389      954539FA 
 389      4771B910 
 390 045c 586524A0 		.ascii	"Xe$\240\024\031Z\320\004Zi\235\233\374]Uym\241\236\024"
 390      14195AD0 
 390      045A699D 
 390      9BFC5D55 
 390      796DA19E 
 391 0471 3A476EF5 		.ascii	":Gn\365\\\356\277\032\273*[\036\320\314\023;8\343\333"
 391      5CEEBF1A 
 391      BB2A5B1E 
 391      D0CC133B 
 391      38E3DB
 392 0484 2C380F1A 		.ascii	",8\017\032\262b%o\243%\237\337\334\3515\260\2311\220"
ARM GAS  C:\Users\gjl\AppData\Local\Temp\ccZWe7zS.s 			page 31


 392      B262256F 
 392      A3259FDF 
 392      DCE935B0 
 392      993190
 393 0497 045E7DE6 		.ascii	"\004^}\346j$\231\344\262o2\307\004\016\346\033\200\273"
 393      6A2499E4 
 393      B26F32C7 
 393      040EE61B 
 393      80BB
 394 04a9 0D5FC4C1 		.ascii	"\015_\304\301u\266\225E\265UW\224\027\344|\362\322)"
 394      75B69545 
 394      B5555794 
 394      17E47CF2 
 394      D229
 395 04bb DA7EF576 		.ascii	"\332~\365v8\0339n\035\256\253n^\251\213\214\311Q^\263"
 395      381B396E 
 395      1DAEAB6E 
 395      5EA98B8C 
 395      C9515EB3 
 396 04cf 63243A04 		.ascii	"c$:\004n!\334M\012w\033b|\240\004\255\376\320\312\362"
 396      6E21DC4D 
 396      0A771B62 
 396      7CA004AD 
 396      FED0CAF2 
 397 04e3 A8406B57 		.ascii	"\250@kWHk\270\0031\244}\326o\225\202\336#$_\225n\273"
 397      486BB803 
 397      31A47DD6 
 397      6F9582DE 
 397      23245F95 
 398 04f9 F21E69A7 		.ascii	"\362\036i\247\357\221\234M\317\333\243\203\254]Ao\235"
 398      EF919C4D 
 398      CFDBA383 
 398      AC5D416F 
 398      9D
 399 050a 0EC5BA83 		.ascii	"\016\305\272\203Z7\036<\343\025\374]\302\236\364\305"
 399      5A371E3C 
 399      E315FC5D 
 399      C29EF4C5 
 400 051a B75A7687 		.ascii	"\267Zv\207\371\020\346\022\204\011\261\001\000\343\015"
 400      F910E612 
 400      8409B101 
 400      00E30D
 401 0529 CAF05EF8 		.ascii	"\312\360^\370`s'\363\275\207\023\373.\204p\236\034\350"
 401      607327F3 
 401      BD8713FB 
 401      2E84709E 
 401      1CE8
 402 053b 8C15661D 		.ascii	"\214\025f\035\215\246\331\215\215\215\254C\357\243\177"
 402      8DA6D98D 
 402      8D8DAC43 
 402      EFA37F
 403 054a 27F37FBC 		.ascii	"'\363\177\2747w\233\356\337z\242\213\366\304\003\332"
 403      37779BEE 
 403      DF7AA28B 
 403      F6C403DA 
 404 055a 136441BE 		.ascii	"\023dA\276%\256\311\353\303\204E\032\372<\355\337w\257"
 404      25AEC9EB 
ARM GAS  C:\Users\gjl\AppData\Local\Temp\ccZWe7zS.s 			page 32


 404      C384451A 
 404      FA3CEDDF 
 404      77AF
 405 056c 288A7DAF 		.ascii	"(\212}\257\274\343\323\342Q\350\357\225\336\244\334"
 405      BCE3D3E2 
 405      51E8EF95 
 405      DEA4DC
 406 057b 05E4C9EB 		.ascii	"\005\344\311\353\306\215x\250>y._\335\312\252\353\366"
 406      C68D78A8 
 406      3E792E5F 
 406      DDCAAAEB 
 406      F6
 407 058c 86076D6C 		.ascii	"\206\007mlw\320\306z\224\215\365\320\215]\262\257~f"
 407      77D0C67A 
 407      948DF5D0 
 407      8D5DB2AF 
 407      7E66
 408 059e 90714D50 		.ascii	"\220qMP\315\274\212\261\227\0327\224ewF\010\271,\201"
 408      CDBC8AB1 
 408      971A3794 
 408      65774608 
 408      B92C81
 409 05b1 E24D8B5D 		.ascii	"\342M\213]\332\220\037\\OB%\340n\272\363S\226,\003\364"
 409      DA901F5C 
 409      4F4225E0 
 409      6EBAF353 
 409      962C03F4 
 410 05c5 20ABC76F 		.ascii	" \253\307o|p\021%\306Y\260\241b\225!\210UU\020\253^"
 410      7C701125 
 410      C659B0A1 
 410      62952188 
 410      555510AB 
 411 05da 8515B9EA 		.ascii	"\205\025\271\352\306M\230\024\2378l\030\247\315\264"
 411      C64D9814 
 411      9F386C18 
 411      A7CDB4
 412 05e9 58A511C3 		.ascii	"X\245\021\303\007\216\023\255\242\335$\211\323\246&"
 412      078E13AD 
 412      A2DD2489 
 412      D3A626
 413 05f8 DB32ED66 		.ascii	"\3332\355f\32181\331\2268\322hvJ\316\014\321\2210\203"
 413      D13831D9 
 413      9638D268 
 413      764ACE0C 
 413      D1913083 
 414 060c 0B2386A3 		.ascii	"\013#\206\243b\022\235\311N\307\3304\223c\306\024\273"
 414      62129DC9 
 414      4EC7D834 
 414      9363C614 
 414      BB
 415 061d 45127FB0 		.ascii	"E\022\177\260\315\014\345\232\350\244f\011f\256\277"
 415      CD0CE59A 
 415      E8A46609 
 415      66AEBF
 416 062c EA942C4A 		.ascii	"\352\224,JSL\026)\321iN\023\035L\237\254\242Mr\210v"
 416      534C1629 
 416      D1694E13 
ARM GAS  C:\Users\gjl\AppData\Local\Temp\ccZWe7zS.s 			page 33


 416      1D4C9FAC 
 416      A24D7288 
 417 0641 44FC38D1 		.ascii	"D\3748\321\371\355,4B\225\305lJK\026\315\222\305f\375"
 417      F9ED2C34 
 417      4295C56C 
 417      4A4B16CD 
 417      92C566FD 
 418 0655 2C649CEF 		.ascii	",d\234\357,)H0\026\275\254\222h\177\303M\233.\246\233"
 418      2C294830 
 418      16BDAC92 
 418      687FC34D 
 418      9B2EA69B 
 419 0669 339C9A34 		.ascii	"3\234\2324\3214=\334j\223f\330m3\265\016\313/\342T\351"
 419      D1343DDC 
 419      6A9366D8 
 419      6D33B50E 
 419      CB2FE254 
 420 067e 57F36863 		.ascii	"W\363hc\206\335\226j7\245\307O\267 \241\370!\263F}\375"
 420      86DD966A 
 420      37A5C74F 
 420      B720A1F8 
 420      21B3467D 
 421 0693 39269D61 		.ascii	"9&\235a\027\035\016c\206\303f\2167\333E\223d\263\033"
 421      171D0E63 
 421      86C3668E 
 421      37DB4593 
 421      64B31B
 422 06a6 47260C0B 		.ascii	"G&\014\013VX\3223lv\311\230j\3154\232\354\351\306\257"
 422      5658D233 
 422      6C76C998 
 422      6ACD349A 
 422      ECE9C6AF 
 423 06ba 1288459A 		.ascii	"\022\210E\232%\305\230j6\023\315P\253\315*\016\025M"
 423      25C5986A 
 423      3613CD50 
 423      ABCD2A0E 
 423      154D
 424 06cc 2916E59E 		.ascii	")\026\345\236\305jN\313\234&\032\035\322\264i\342td"
 424      C56A4ECB 
 424      9C261A1D 
 424      D2B469E2 
 424      7464
 425 06de 0CC3C2A7 		.ascii	"\014\303\302\247[\343\035\031\242\031\211Y\255\231i"
 425      5BE31D19 
 425      A2198959 
 425      AD9969
 426 06ed 693FFFFF 		.ascii	"i?\377\377\214\202\231\250\034\354\026k*)\253]L\035"
 426      8C8299A8 
 426      1CEC166B 
 426      2A29AB5D 
 426      4C1D
 427 06ff 315C6776 		.ascii	"1\\gv:$\223\224\351\370\007k\214\350\247"
 427      3A249394 
 427      E9F8076B 
 427      8CE8A7
 428              		.text
 429              		.section	.gnu.lto_.symtab.58ea9481,"",%progbits
ARM GAS  C:\Users\gjl\AppData\Local\Temp\ccZWe7zS.s 			page 34


 430 0000 43795379 		.ascii	"CySysFlashWriteRow\000"
 430      73466C61 
 430      73685772 
 430      69746552 
 430      6F7700
 431 0013 00       		.ascii	"\000"
 432 0014 00       		.ascii	"\000"
 433 0015 00       		.ascii	"\000"
 434 0016 00000000 		.ascii	"\000\000\000\000\000\000\000\000"
 434      00000000 
 435 001e BE000000 		.ascii	"\276\000\000\000"
 436 0022 43795379 		.ascii	"CySysFlashSetWaitCycles\000"
 436      73466C61 
 436      73685365 
 436      74576169 
 436      74437963 
 437 003a 00       		.ascii	"\000"
 438 003b 00       		.ascii	"\000"
 439 003c 00       		.ascii	"\000"
 440 003d 00000000 		.ascii	"\000\000\000\000\000\000\000\000"
 440      00000000 
 441 0045 C2000000 		.ascii	"\302\000\000\000"
 442 0049 43795379 		.ascii	"CySysSFlashWriteUserRow\000"
 442      7353466C 
 442      61736857 
 442      72697465 
 442      55736572 
 443 0061 00       		.ascii	"\000"
 444 0062 00       		.ascii	"\000"
 445 0063 00       		.ascii	"\000"
 446 0064 00000000 		.ascii	"\000\000\000\000\000\000\000\000"
 446      00000000 
 447 006c C4000000 		.ascii	"\304\000\000\000"
 448 0070 43794578 		.ascii	"CyExitCriticalSection\000"
 448      69744372 
 448      69746963 
 448      616C5365 
 448      6374696F 
 449 0086 00       		.ascii	"\000"
 450 0087 02       		.ascii	"\002"
 451 0088 00       		.ascii	"\000"
 452 0089 00000000 		.ascii	"\000\000\000\000\000\000\000\000"
 452      00000000 
 453 0091 C8000000 		.ascii	"\310\000\000\000"
 454 0095 4379456E 		.ascii	"CyEnterCriticalSection\000"
 454      74657243 
 454      72697469 
 454      63616C53 
 454      65637469 
 455 00ac 00       		.ascii	"\000"
 456 00ad 02       		.ascii	"\002"
 457 00ae 00       		.ascii	"\000"
 458 00af 00000000 		.ascii	"\000\000\000\000\000\000\000\000"
 458      00000000 
 459 00b7 CB000000 		.ascii	"\313\000\000\000"
 460              		.text
 461              		.section	.gnu.lto_.opts,"",%progbits
ARM GAS  C:\Users\gjl\AppData\Local\Temp\ccZWe7zS.s 			page 35


 462 0000 272D666D 		.ascii	"'-fmath-errno' '-fsigned-zeros' '-ftrapping-math' '"
 462      6174682D 
 462      6572726E 
 462      6F272027 
 462      2D667369 
 463 0033 2D666E6F 		.ascii	"-fno-trapv' '-fno-openmp' '-fno-openacc' '-mcpu=cor"
 463      2D747261 
 463      70762720 
 463      272D666E 
 463      6F2D6F70 
 464 0066 7465782D 		.ascii	"tex-m0' '-mthumb' '-g' '-Os' '-ffunction-sections' "
 464      6D302720 
 464      272D6D74 
 464      68756D62 
 464      2720272D 
 465 0099 272D6666 		.ascii	"'-ffat-lto-objects' '-flto'\000"
 465      61742D6C 
 465      746F2D6F 
 465      626A6563 
 465      74732720 
 466              		.text
 467              		.cfi_sections	.debug_frame
 468              		.section	.text.CySysFlashWriteRow,"ax",%progbits
 469              		.align	1
 470              		.global	CySysFlashWriteRow
 471              		.code	16
 472              		.thumb_func
 473              		.type	CySysFlashWriteRow, %function
 474              	CySysFlashWriteRow:
 475              	.LFB1:
 476              		.file 1 "Generated_Source\\PSoC4\\CyFlash.c"
   1:Generated_Source\PSoC4/CyFlash.c **** /***************************************************************************//**
   2:Generated_Source\PSoC4/CyFlash.c **** * \file CyFlash.c
   3:Generated_Source\PSoC4/CyFlash.c **** * \version 5.60
   4:Generated_Source\PSoC4/CyFlash.c **** *
   5:Generated_Source\PSoC4/CyFlash.c **** * \brief Provides an API for the FLASH.
   6:Generated_Source\PSoC4/CyFlash.c **** *
   7:Generated_Source\PSoC4/CyFlash.c **** * \note This code is endian agnostic.
   8:Generated_Source\PSoC4/CyFlash.c **** *
   9:Generated_Source\PSoC4/CyFlash.c **** * \note Documentation of the API's in this file is located in the System
  10:Generated_Source\PSoC4/CyFlash.c **** * Reference Guide provided with PSoC Creator.
  11:Generated_Source\PSoC4/CyFlash.c **** *
  12:Generated_Source\PSoC4/CyFlash.c **** ********************************************************************************
  13:Generated_Source\PSoC4/CyFlash.c **** * \copyright
  14:Generated_Source\PSoC4/CyFlash.c **** * Copyright 2010-2017, Cypress Semiconductor Corporation.  All rights reserved.
  15:Generated_Source\PSoC4/CyFlash.c **** * You may use this file only in accordance with the license, terms, conditions,
  16:Generated_Source\PSoC4/CyFlash.c **** * disclaimers, and limitations in the end user license agreement accompanying
  17:Generated_Source\PSoC4/CyFlash.c **** * the software package with which this file was provided.
  18:Generated_Source\PSoC4/CyFlash.c **** *******************************************************************************/
  19:Generated_Source\PSoC4/CyFlash.c **** 
  20:Generated_Source\PSoC4/CyFlash.c **** #include "CyFlash.h"
  21:Generated_Source\PSoC4/CyFlash.c **** 
  22:Generated_Source\PSoC4/CyFlash.c **** 
  23:Generated_Source\PSoC4/CyFlash.c **** /*******************************************************************************
  24:Generated_Source\PSoC4/CyFlash.c **** * Cypress identified a defect with the Flash write functionality of the
  25:Generated_Source\PSoC4/CyFlash.c **** * PSoC 4000, PSoC 4000U, PSoC 4100, and PSoC 4200 devices. The 
  26:Generated_Source\PSoC4/CyFlash.c **** * CySysFlashWriteRow() function now checks the data to be written and, if 
ARM GAS  C:\Users\gjl\AppData\Local\Temp\ccZWe7zS.s 			page 36


  27:Generated_Source\PSoC4/CyFlash.c **** * necessary, modifies it to have a non-zero checksum. After writing to Flash, 
  28:Generated_Source\PSoC4/CyFlash.c **** * the modified data is replaced (Flash program) with 
  29:Generated_Source\PSoC4/CyFlash.c **** * the correct (original) data.
  30:Generated_Source\PSoC4/CyFlash.c **** *******************************************************************************/
  31:Generated_Source\PSoC4/CyFlash.c **** #define CY_FLASH_CHECKSUM_WORKAROUND    (CY_PSOC4_4000 || CY_PSOC4_4100 || CY_PSOC4_4200 || CY_PSOC
  32:Generated_Source\PSoC4/CyFlash.c **** 
  33:Generated_Source\PSoC4/CyFlash.c **** #if (CY_IP_FM || ((!CY_PSOC4_4000) && CY_IP_SPCIF_SYNCHRONOUS) || (!CY_IP_FM) && CY_PSOC4_4000)
  34:Generated_Source\PSoC4/CyFlash.c ****     static CY_SYS_FLASH_CLOCK_BACKUP_STRUCT cySysFlashBackup;
  35:Generated_Source\PSoC4/CyFlash.c **** #endif /* (CY_IP_FM || ((!CY_PSOC4_4000) && CY_IP_SPCIF_SYNCHRONOUS) || (!CY_IP_FM) && CY_PSOC4_400
  36:Generated_Source\PSoC4/CyFlash.c **** 
  37:Generated_Source\PSoC4/CyFlash.c **** static cystatus CySysFlashClockBackup(void);
  38:Generated_Source\PSoC4/CyFlash.c **** static cystatus CySysFlashClockRestore(void);
  39:Generated_Source\PSoC4/CyFlash.c **** #if(CY_IP_SPCIF_SYNCHRONOUS)
  40:Generated_Source\PSoC4/CyFlash.c ****     static cystatus CySysFlashClockConfig(void);
  41:Generated_Source\PSoC4/CyFlash.c **** #endif  /* (CY_IP_SPCIF_SYNCHRONOUS) */
  42:Generated_Source\PSoC4/CyFlash.c **** 
  43:Generated_Source\PSoC4/CyFlash.c **** 
  44:Generated_Source\PSoC4/CyFlash.c **** /*******************************************************************************
  45:Generated_Source\PSoC4/CyFlash.c **** * Function Name: CySysFlashWriteRow
  46:Generated_Source\PSoC4/CyFlash.c **** ****************************************************************************//**
  47:Generated_Source\PSoC4/CyFlash.c **** *
  48:Generated_Source\PSoC4/CyFlash.c **** * Erases a row of Flash and programs it with the new data.
  49:Generated_Source\PSoC4/CyFlash.c **** *
  50:Generated_Source\PSoC4/CyFlash.c **** * The IMO must be enabled before calling this function. The operation of the
  51:Generated_Source\PSoC4/CyFlash.c **** * flash writing hardware is dependent on the IMO.
  52:Generated_Source\PSoC4/CyFlash.c **** *
  53:Generated_Source\PSoC4/CyFlash.c **** * For PSoC 4000, PSoC 4100 BLE and PSoC 4200 BLE devices (PSoC 4100 BLE and
  54:Generated_Source\PSoC4/CyFlash.c **** * PSoC 4200 BLE devices with 256K of Flash memory are not affected), this API
  55:Generated_Source\PSoC4/CyFlash.c **** * will automatically modify the clock settings for the device. Writing to
  56:Generated_Source\PSoC4/CyFlash.c **** * flash requires that changes be made to the IMO and HFCLK settings. The
  57:Generated_Source\PSoC4/CyFlash.c **** * configuration is restored before returning. This will impact the operation
  58:Generated_Source\PSoC4/CyFlash.c **** * of most of the hardware in the device.
  59:Generated_Source\PSoC4/CyFlash.c **** *
  60:Generated_Source\PSoC4/CyFlash.c **** * For PSoC 4000 devices this API will automatically modify the clock settings
  61:Generated_Source\PSoC4/CyFlash.c **** * for the device. Writing to flash requires that changes be made to the IMO
  62:Generated_Source\PSoC4/CyFlash.c **** * and HFCLK settings. The configuration is restored before returning. HFCLK
  63:Generated_Source\PSoC4/CyFlash.c **** * will have several frequency changes during the operation of this API between
  64:Generated_Source\PSoC4/CyFlash.c **** * a minimum frequency of the current IMO frequency divided by 8 and a maximum
  65:Generated_Source\PSoC4/CyFlash.c **** * frequency of 12 MHz. This will impact the operation of most of the hardware
  66:Generated_Source\PSoC4/CyFlash.c **** * in the device.
  67:Generated_Source\PSoC4/CyFlash.c **** *
  68:Generated_Source\PSoC4/CyFlash.c **** * \param rowNum The flash row number. The number of the flash rows is defined by
  69:Generated_Source\PSoC4/CyFlash.c **** * the \ref CY_FLASH_NUMBER_ROWS macro for the selected device. Refer to the
  70:Generated_Source\PSoC4/CyFlash.c **** * device datasheet for the details.
  71:Generated_Source\PSoC4/CyFlash.c **** * \note The target flash array is calculated based on the specified flash row.
  72:Generated_Source\PSoC4/CyFlash.c **** *
  73:Generated_Source\PSoC4/CyFlash.c **** * \param rowData Array of bytes to write. The size of the array must be equal to
  74:Generated_Source\PSoC4/CyFlash.c **** * the flash row size. The flash row size for the selected device is defined by
  75:Generated_Source\PSoC4/CyFlash.c **** * the \ref CY_FLASH_SIZEOF_ROW macro. Refer to the device datasheet for the
  76:Generated_Source\PSoC4/CyFlash.c **** * details.
  77:Generated_Source\PSoC4/CyFlash.c **** *
  78:Generated_Source\PSoC4/CyFlash.c **** * \return \ref group_flash_status_codes
  79:Generated_Source\PSoC4/CyFlash.c **** *
  80:Generated_Source\PSoC4/CyFlash.c **** *******************************************************************************/
  81:Generated_Source\PSoC4/CyFlash.c **** uint32 CySysFlashWriteRow(uint32 rowNum, const uint8 rowData[])
  82:Generated_Source\PSoC4/CyFlash.c **** {
 477              		.loc 1 82 0
ARM GAS  C:\Users\gjl\AppData\Local\Temp\ccZWe7zS.s 			page 37


 478              		.cfi_startproc
 479              		@ args = 0, pretend = 0, frame = 152
 480              		@ frame_needed = 0, uses_anonymous_args = 0
 481              	.LVL0:
  83:Generated_Source\PSoC4/CyFlash.c ****     volatile uint32 retValue = CY_SYS_FLASH_SUCCESS;
 482              		.loc 1 83 0
 483 0000 0023     		movs	r3, #0
  82:Generated_Source\PSoC4/CyFlash.c ****     volatile uint32 retValue = CY_SYS_FLASH_SUCCESS;
 484              		.loc 1 82 0
 485 0002 F0B5     		push	{r4, r5, r6, r7, lr}
 486              		.cfi_def_cfa_offset 20
 487              		.cfi_offset 4, -20
 488              		.cfi_offset 5, -16
 489              		.cfi_offset 6, -12
 490              		.cfi_offset 7, -8
 491              		.cfi_offset 14, -4
 492 0004 A7B0     		sub	sp, sp, #156
 493              		.cfi_def_cfa_offset 176
 494              		.loc 1 83 0
 495 0006 0293     		str	r3, [sp, #8]
  84:Generated_Source\PSoC4/CyFlash.c ****     volatile uint32 clkCnfRetValue = CY_SYS_FLASH_SUCCESS;
 496              		.loc 1 84 0
 497 0008 0393     		str	r3, [sp, #12]
  85:Generated_Source\PSoC4/CyFlash.c ****     volatile uint32 parameters[(CY_FLASH_SIZEOF_ROW + CY_FLASH_SRAM_ROM_DATA) / sizeof(uint32)];
  86:Generated_Source\PSoC4/CyFlash.c ****     uint8  interruptState;
  87:Generated_Source\PSoC4/CyFlash.c **** 
  88:Generated_Source\PSoC4/CyFlash.c ****     #if (CY_FLASH_CHECKSUM_WORKAROUND)
  89:Generated_Source\PSoC4/CyFlash.c ****         uint32 needChecksumWorkaround = 0u;
  90:Generated_Source\PSoC4/CyFlash.c ****         uint32 savedIndex = 0u;
  91:Generated_Source\PSoC4/CyFlash.c ****         uint32 savedValue = 0u;
  92:Generated_Source\PSoC4/CyFlash.c ****         uint32 checksum = 0u;
  93:Generated_Source\PSoC4/CyFlash.c ****         uint32 bits = 0u;
  94:Generated_Source\PSoC4/CyFlash.c ****         uint32 i;
  95:Generated_Source\PSoC4/CyFlash.c ****     #endif  /* (CY_FLASH_CHECKSUM_WORKAROUND) */
  96:Generated_Source\PSoC4/CyFlash.c **** 
  97:Generated_Source\PSoC4/CyFlash.c ****     if ((rowNum < CY_FLASH_NUMBER_ROWS) && (rowData != 0u))
 498              		.loc 1 97 0
 499 000a 2C4B     		ldr	r3, .L24
  82:Generated_Source\PSoC4/CyFlash.c ****     volatile uint32 retValue = CY_SYS_FLASH_SUCCESS;
 500              		.loc 1 82 0
 501 000c 0500     		movs	r5, r0
 502              		.loc 1 97 0
 503 000e 9842     		cmp	r0, r3
 504 0010 4ED8     		bhi	.L2
 505              		.loc 1 97 0 is_stmt 0 discriminator 1
 506 0012 0029     		cmp	r1, #0
 507 0014 4CD0     		beq	.L2
  98:Generated_Source\PSoC4/CyFlash.c ****     {
  99:Generated_Source\PSoC4/CyFlash.c ****         /* Copy data to be written into internal variable */
 100:Generated_Source\PSoC4/CyFlash.c ****         (void)memcpy((void *)&parameters[2u], rowData, CY_FLASH_SIZEOF_ROW);
 508              		.loc 1 100 0 is_stmt 1
 509 0016 8022     		movs	r2, #128
 510 0018 06A8     		add	r0, sp, #24
 511              	.LVL1:
 512 001a FFF7FEFF 		bl	memcpy
 513              	.LVL2:
 101:Generated_Source\PSoC4/CyFlash.c **** 
ARM GAS  C:\Users\gjl\AppData\Local\Temp\ccZWe7zS.s 			page 38


 102:Generated_Source\PSoC4/CyFlash.c ****         #if (CY_FLASH_CHECKSUM_WORKAROUND)
 103:Generated_Source\PSoC4/CyFlash.c **** 
 104:Generated_Source\PSoC4/CyFlash.c ****             for (i = 2u; i < ((CY_FLASH_SIZEOF_ROW / sizeof(uint32)) + 2u); i++)
 105:Generated_Source\PSoC4/CyFlash.c ****             {
 106:Generated_Source\PSoC4/CyFlash.c ****                 uint32 tmp = parameters[i];
 107:Generated_Source\PSoC4/CyFlash.c ****                 if (tmp != 0u)
 108:Generated_Source\PSoC4/CyFlash.c ****                 {
 109:Generated_Source\PSoC4/CyFlash.c ****                     checksum += tmp;
 110:Generated_Source\PSoC4/CyFlash.c ****                     bits |= tmp;
 111:Generated_Source\PSoC4/CyFlash.c ****                     savedIndex = i;
 112:Generated_Source\PSoC4/CyFlash.c ****                 }
 113:Generated_Source\PSoC4/CyFlash.c ****             }
 114:Generated_Source\PSoC4/CyFlash.c **** 
 115:Generated_Source\PSoC4/CyFlash.c ****             needChecksumWorkaround = ((checksum == 0u) && (bits != 0u)) ? 1u : 0u;
 116:Generated_Source\PSoC4/CyFlash.c ****             if (needChecksumWorkaround != 0u)
 117:Generated_Source\PSoC4/CyFlash.c ****             {
 118:Generated_Source\PSoC4/CyFlash.c ****                 savedValue = parameters[savedIndex];
 119:Generated_Source\PSoC4/CyFlash.c ****                 parameters[savedIndex] = 0u;
 120:Generated_Source\PSoC4/CyFlash.c ****             }
 121:Generated_Source\PSoC4/CyFlash.c ****         #endif  /* (CY_FLASH_CHECKSUM_WORKAROUND) */
 122:Generated_Source\PSoC4/CyFlash.c **** 
 123:Generated_Source\PSoC4/CyFlash.c ****         /* Load Flash Bytes */
 124:Generated_Source\PSoC4/CyFlash.c ****         parameters[0u] = (uint32) (CY_FLASH_GET_MACRO_FROM_ROW(rowNum)        << CY_FLASH_PARAM_MAC
 125:Generated_Source\PSoC4/CyFlash.c ****                          (uint32) (CY_FLASH_PAGE_LATCH_START_ADDR             << CY_FLASH_PARAM_ADD
 126:Generated_Source\PSoC4/CyFlash.c ****                          (uint32) (CY_FLASH_KEY_TWO(CY_FLASH_API_OPCODE_LOAD) << CY_FLASH_PARAM_KEY
 514              		.loc 1 126 0
 515 001e 284B     		ldr	r3, .L24+4
 516 0020 9D42     		cmp	r5, r3
 517 0022 01D8     		bhi	.L13
 518 0024 274B     		ldr	r3, .L24+8
 519 0026 00E0     		b	.L3
 520              	.L13:
 521 0028 274B     		ldr	r3, .L24+12
 522              	.L3:
 124:Generated_Source\PSoC4/CyFlash.c ****                          (uint32) (CY_FLASH_PAGE_LATCH_START_ADDR             << CY_FLASH_PARAM_ADD
 523              		.loc 1 124 0
 524 002a 0493     		str	r3, [sp, #16]
 127:Generated_Source\PSoC4/CyFlash.c ****                          CY_FLASH_KEY_ONE;
 128:Generated_Source\PSoC4/CyFlash.c ****         parameters[1u] = CY_FLASH_SIZEOF_ROW - 1u;
 525              		.loc 1 128 0
 526 002c 7F23     		movs	r3, #127
 124:Generated_Source\PSoC4/CyFlash.c ****                          (uint32) (CY_FLASH_PAGE_LATCH_START_ADDR             << CY_FLASH_PARAM_ADD
 527              		.loc 1 124 0
 528 002e 04AE     		add	r6, sp, #16
 529              		.loc 1 128 0
 530 0030 7360     		str	r3, [r6, #4]
 129:Generated_Source\PSoC4/CyFlash.c **** 
 130:Generated_Source\PSoC4/CyFlash.c ****         CY_FLASH_CPUSS_SYSARG_REG = (uint32) &parameters[0u];
 531              		.loc 1 130 0
 532 0032 264C     		ldr	r4, .L24+16
 131:Generated_Source\PSoC4/CyFlash.c ****         CY_FLASH_CPUSS_SYSREQ_REG = CY_FLASH_CPUSS_REQ_START | CY_FLASH_API_OPCODE_LOAD;
 533              		.loc 1 131 0
 534 0034 264A     		ldr	r2, .L24+20
 535 0036 274B     		ldr	r3, .L24+24
 130:Generated_Source\PSoC4/CyFlash.c ****         CY_FLASH_CPUSS_SYSREQ_REG = CY_FLASH_CPUSS_REQ_START | CY_FLASH_API_OPCODE_LOAD;
 536              		.loc 1 130 0
 537 0038 2660     		str	r6, [r4]
ARM GAS  C:\Users\gjl\AppData\Local\Temp\ccZWe7zS.s 			page 39


 538              		.loc 1 131 0
 539 003a 1360     		str	r3, [r2]
 132:Generated_Source\PSoC4/CyFlash.c ****         CY_NOP;
 540              		.loc 1 132 0
 541              		.syntax divided
 542              	@ 132 "Generated_Source\PSoC4\CyFlash.c" 1
 543 003c C046     		NOP
 544              	
 545              	@ 0 "" 2
 133:Generated_Source\PSoC4/CyFlash.c ****         retValue = CY_FLASH_API_RETURN;
 546              		.loc 1 133 0
 547              		.thumb
 548              		.syntax unified
 549 003e 2368     		ldr	r3, [r4]
 550 0040 0192     		str	r2, [sp, #4]
 551 0042 1B0F     		lsrs	r3, r3, #28
 552 0044 0F2B     		cmp	r3, #15
 553 0046 04D0     		beq	.L21
 554              		.loc 1 133 0 is_stmt 0 discriminator 2
 555 0048 2268     		ldr	r2, [r4]
 556 004a 0023     		movs	r3, #0
 557 004c 120F     		lsrs	r2, r2, #28
 558 004e 0A2A     		cmp	r2, #10
 559 0050 01D0     		beq	.L5
 560              	.L21:
 561              		.loc 1 133 0 discriminator 4
 562 0052 2368     		ldr	r3, [r4]
 563 0054 DBB2     		uxtb	r3, r3
 564              	.L5:
 565              		.loc 1 133 0 discriminator 8
 566 0056 0293     		str	r3, [sp, #8]
 134:Generated_Source\PSoC4/CyFlash.c **** 
 135:Generated_Source\PSoC4/CyFlash.c ****         if(retValue == CY_SYS_FLASH_SUCCESS)
 567              		.loc 1 135 0 is_stmt 1 discriminator 8
 568 0058 029F     		ldr	r7, [sp, #8]
 569 005a 002F     		cmp	r7, #0
 570 005c 2AD1     		bne	.L6
 136:Generated_Source\PSoC4/CyFlash.c ****         {
 137:Generated_Source\PSoC4/CyFlash.c ****             /***************************************************************
 138:Generated_Source\PSoC4/CyFlash.c ****             * Mask all the exceptions to guarantee that Flash write will
 139:Generated_Source\PSoC4/CyFlash.c ****             * occur in the atomic way. It will not affect system call
 140:Generated_Source\PSoC4/CyFlash.c ****             * execution (flash row write) since it is executed in the NMI
 141:Generated_Source\PSoC4/CyFlash.c ****             * context.
 142:Generated_Source\PSoC4/CyFlash.c ****             ***************************************************************/
 143:Generated_Source\PSoC4/CyFlash.c ****             interruptState = CyEnterCriticalSection();
 571              		.loc 1 143 0
 572 005e FFF7FEFF 		bl	CyEnterCriticalSection
 573              	.LVL3:
 144:Generated_Source\PSoC4/CyFlash.c **** 
 145:Generated_Source\PSoC4/CyFlash.c ****             clkCnfRetValue = CySysFlashClockBackup();
 574              		.loc 1 145 0
 575 0062 0397     		str	r7, [sp, #12]
 146:Generated_Source\PSoC4/CyFlash.c **** 
 147:Generated_Source\PSoC4/CyFlash.c ****         #if(CY_IP_SPCIF_SYNCHRONOUS)
 148:Generated_Source\PSoC4/CyFlash.c ****             if(clkCnfRetValue == CY_SYS_FLASH_SUCCESS)
 149:Generated_Source\PSoC4/CyFlash.c ****             {
 150:Generated_Source\PSoC4/CyFlash.c ****                 retValue = CySysFlashClockConfig();
ARM GAS  C:\Users\gjl\AppData\Local\Temp\ccZWe7zS.s 			page 40


 151:Generated_Source\PSoC4/CyFlash.c ****             }
 152:Generated_Source\PSoC4/CyFlash.c ****         #endif  /* (CY_IP_SPCIF_SYNCHRONOUS) */
 153:Generated_Source\PSoC4/CyFlash.c **** 
 154:Generated_Source\PSoC4/CyFlash.c ****             if(retValue == CY_SYS_FLASH_SUCCESS)
 576              		.loc 1 154 0
 577 0064 029B     		ldr	r3, [sp, #8]
 578 0066 002B     		cmp	r3, #0
 579 0068 16D1     		bne	.L7
 155:Generated_Source\PSoC4/CyFlash.c ****             {
 156:Generated_Source\PSoC4/CyFlash.c ****                 /* Write Row */
 157:Generated_Source\PSoC4/CyFlash.c ****                 parameters[0u]  = (uint32) (((uint32) CY_FLASH_KEY_TWO(CY_FLASH_API_OPCODE_WRITE_RO
 580              		.loc 1 157 0
 581 006a 1B4A     		ldr	r2, .L24+28
 158:Generated_Source\PSoC4/CyFlash.c ****                 parameters[0u] |= (uint32)(rowNum << 16u);
 582              		.loc 1 158 0
 583 006c 2D04     		lsls	r5, r5, #16
 584              	.LVL4:
 157:Generated_Source\PSoC4/CyFlash.c ****                 parameters[0u] |= (uint32)(rowNum << 16u);
 585              		.loc 1 157 0
 586 006e 0492     		str	r2, [sp, #16]
 587              		.loc 1 158 0
 588 0070 049A     		ldr	r2, [sp, #16]
 159:Generated_Source\PSoC4/CyFlash.c **** 
 160:Generated_Source\PSoC4/CyFlash.c ****                 CY_FLASH_CPUSS_SYSARG_REG = (uint32) &parameters[0u];
 161:Generated_Source\PSoC4/CyFlash.c ****                 CY_FLASH_CPUSS_SYSREQ_REG = CY_FLASH_CPUSS_REQ_START | CY_FLASH_API_OPCODE_WRITE_RO
 589              		.loc 1 161 0
 590 0072 1A49     		ldr	r1, .L24+32
 158:Generated_Source\PSoC4/CyFlash.c **** 
 591              		.loc 1 158 0
 592 0074 1543     		orrs	r5, r2
 593 0076 0495     		str	r5, [sp, #16]
 594              		.loc 1 161 0
 595 0078 019D     		ldr	r5, [sp, #4]
 160:Generated_Source\PSoC4/CyFlash.c ****                 CY_FLASH_CPUSS_SYSREQ_REG = CY_FLASH_CPUSS_REQ_START | CY_FLASH_API_OPCODE_WRITE_RO
 596              		.loc 1 160 0
 597 007a 2660     		str	r6, [r4]
 598 007c 134A     		ldr	r2, .L24+16
 599              		.loc 1 161 0
 600 007e 2960     		str	r1, [r5]
 162:Generated_Source\PSoC4/CyFlash.c ****                 CY_NOP;
 601              		.loc 1 162 0
 602              		.syntax divided
 603              	@ 162 "Generated_Source\PSoC4\CyFlash.c" 1
 604 0080 C046     		NOP
 605              	
 606              	@ 0 "" 2
 163:Generated_Source\PSoC4/CyFlash.c ****                 retValue = CY_FLASH_API_RETURN;
 607              		.loc 1 163 0
 608              		.thumb
 609              		.syntax unified
 610 0082 2168     		ldr	r1, [r4]
 611 0084 090F     		lsrs	r1, r1, #28
 612 0086 0F29     		cmp	r1, #15
 613 0088 03D0     		beq	.L22
 614              		.loc 1 163 0 is_stmt 0 discriminator 2
 615 008a 1168     		ldr	r1, [r2]
 616 008c 090F     		lsrs	r1, r1, #28
ARM GAS  C:\Users\gjl\AppData\Local\Temp\ccZWe7zS.s 			page 41


 617 008e 0A29     		cmp	r1, #10
 618 0090 01D0     		beq	.L9
 619              	.L22:
 620              		.loc 1 163 0 discriminator 4
 621 0092 1368     		ldr	r3, [r2]
 622 0094 DBB2     		uxtb	r3, r3
 623              	.L9:
 624              		.loc 1 163 0 discriminator 8
 625 0096 0293     		str	r3, [sp, #8]
 626              	.L7:
 164:Generated_Source\PSoC4/CyFlash.c ****             }
 165:Generated_Source\PSoC4/CyFlash.c **** 
 166:Generated_Source\PSoC4/CyFlash.c ****             #if (CY_FLASH_CHECKSUM_WORKAROUND)
 167:Generated_Source\PSoC4/CyFlash.c **** 
 168:Generated_Source\PSoC4/CyFlash.c ****                 if ((retValue == CYRET_SUCCESS) && (needChecksumWorkaround != 0u))
 169:Generated_Source\PSoC4/CyFlash.c ****                 {
 170:Generated_Source\PSoC4/CyFlash.c ****                     (void)memset((void *)&parameters[2u], 0, CY_FLASH_SIZEOF_ROW);
 171:Generated_Source\PSoC4/CyFlash.c ****                     parameters[savedIndex] = savedValue;
 172:Generated_Source\PSoC4/CyFlash.c **** 
 173:Generated_Source\PSoC4/CyFlash.c ****                     /* Load Flash Bytes */
 174:Generated_Source\PSoC4/CyFlash.c ****                     parameters[0u] = (uint32) (CY_FLASH_GET_MACRO_FROM_ROW(rowNum)        << CY_FLA
 175:Generated_Source\PSoC4/CyFlash.c ****                                      (uint32) (CY_FLASH_PAGE_LATCH_START_ADDR             << CY_FLA
 176:Generated_Source\PSoC4/CyFlash.c ****                                      (uint32) (CY_FLASH_KEY_TWO(CY_FLASH_API_OPCODE_LOAD) << CY_FLA
 177:Generated_Source\PSoC4/CyFlash.c ****                                      CY_FLASH_KEY_ONE;
 178:Generated_Source\PSoC4/CyFlash.c ****                     parameters[1u] = CY_FLASH_SIZEOF_ROW - 1u;
 179:Generated_Source\PSoC4/CyFlash.c **** 
 180:Generated_Source\PSoC4/CyFlash.c ****                     CY_FLASH_CPUSS_SYSARG_REG = (uint32) &parameters[0u];
 181:Generated_Source\PSoC4/CyFlash.c ****                     CY_FLASH_CPUSS_SYSREQ_REG = CY_FLASH_CPUSS_REQ_START | CY_FLASH_API_OPCODE_LOAD
 182:Generated_Source\PSoC4/CyFlash.c ****                     CY_NOP;
 183:Generated_Source\PSoC4/CyFlash.c ****                     retValue = CY_FLASH_API_RETURN;
 184:Generated_Source\PSoC4/CyFlash.c **** 
 185:Generated_Source\PSoC4/CyFlash.c **** 
 186:Generated_Source\PSoC4/CyFlash.c ****                     if(retValue == CY_SYS_FLASH_SUCCESS)
 187:Generated_Source\PSoC4/CyFlash.c ****                     {
 188:Generated_Source\PSoC4/CyFlash.c ****                         /* Program Row */
 189:Generated_Source\PSoC4/CyFlash.c ****                         parameters[0u]  =
 190:Generated_Source\PSoC4/CyFlash.c ****                             (uint32) (((uint32) CY_FLASH_KEY_TWO(CY_FLASH_API_OPCODE_PROGRAM_ROW) <
 191:Generated_Source\PSoC4/CyFlash.c ****                                                     CY_FLASH_PARAM_KEY_TWO_OFFSET) | CY_FLASH_KEY_O
 192:Generated_Source\PSoC4/CyFlash.c ****                         parameters[0u] |= (uint32)(rowNum << 16u);
 193:Generated_Source\PSoC4/CyFlash.c **** 
 194:Generated_Source\PSoC4/CyFlash.c ****                         CY_FLASH_CPUSS_SYSARG_REG = (uint32) &parameters[0u];
 195:Generated_Source\PSoC4/CyFlash.c ****                         CY_FLASH_CPUSS_SYSREQ_REG = CY_FLASH_CPUSS_REQ_START | CY_FLASH_API_OPCODE_
 196:Generated_Source\PSoC4/CyFlash.c ****                         CY_NOP;
 197:Generated_Source\PSoC4/CyFlash.c ****                         retValue = CY_FLASH_API_RETURN;
 198:Generated_Source\PSoC4/CyFlash.c ****                     }
 199:Generated_Source\PSoC4/CyFlash.c ****                 }
 200:Generated_Source\PSoC4/CyFlash.c ****             #endif  /* (CY_FLASH_CHECKSUM_WORKAROUND) */
 201:Generated_Source\PSoC4/CyFlash.c **** 
 202:Generated_Source\PSoC4/CyFlash.c ****             if(clkCnfRetValue == CY_SYS_FLASH_SUCCESS)
 627              		.loc 1 202 0 is_stmt 1
 628 0098 039B     		ldr	r3, [sp, #12]
 629 009a 002B     		cmp	r3, #0
 630 009c 05D1     		bne	.L11
 631              	.LVL5:
 203:Generated_Source\PSoC4/CyFlash.c ****             {
 204:Generated_Source\PSoC4/CyFlash.c ****                 clkCnfRetValue = CySysFlashClockRestore();
 632              		.loc 1 204 0
ARM GAS  C:\Users\gjl\AppData\Local\Temp\ccZWe7zS.s 			page 42


 633 009e 0393     		str	r3, [sp, #12]
 205:Generated_Source\PSoC4/CyFlash.c **** 
 206:Generated_Source\PSoC4/CyFlash.c ****                 if(clkCnfRetValue != CY_SYS_FLASH_SUCCESS)
 634              		.loc 1 206 0
 635 00a0 039B     		ldr	r3, [sp, #12]
 636 00a2 002B     		cmp	r3, #0
 637 00a4 01D0     		beq	.L11
 207:Generated_Source\PSoC4/CyFlash.c ****                 {
 208:Generated_Source\PSoC4/CyFlash.c ****                     retValue = clkCnfRetValue;
 638              		.loc 1 208 0
 639 00a6 039B     		ldr	r3, [sp, #12]
 640 00a8 0293     		str	r3, [sp, #8]
 641              	.LVL6:
 642              	.L11:
 209:Generated_Source\PSoC4/CyFlash.c ****                 }
 210:Generated_Source\PSoC4/CyFlash.c ****             }
 211:Generated_Source\PSoC4/CyFlash.c **** 
 212:Generated_Source\PSoC4/CyFlash.c ****             CyExitCriticalSection(interruptState);
 643              		.loc 1 212 0
 644 00aa FFF7FEFF 		bl	CyExitCriticalSection
 645              	.LVL7:
 646 00ae 01E0     		b	.L6
 647              	.LVL8:
 648              	.L2:
 213:Generated_Source\PSoC4/CyFlash.c ****         }
 214:Generated_Source\PSoC4/CyFlash.c ****     }
 215:Generated_Source\PSoC4/CyFlash.c ****     else
 216:Generated_Source\PSoC4/CyFlash.c ****     {
 217:Generated_Source\PSoC4/CyFlash.c ****         retValue = CY_SYS_FLASH_INVALID_ADDR;
 649              		.loc 1 217 0
 650 00b0 0423     		movs	r3, #4
 651 00b2 0293     		str	r3, [sp, #8]
 652              	.LVL9:
 653              	.L6:
 218:Generated_Source\PSoC4/CyFlash.c ****     }
 219:Generated_Source\PSoC4/CyFlash.c **** 
 220:Generated_Source\PSoC4/CyFlash.c ****     return (retValue);
 654              		.loc 1 220 0
 655 00b4 0298     		ldr	r0, [sp, #8]
 221:Generated_Source\PSoC4/CyFlash.c **** }
 656              		.loc 1 221 0
 657 00b6 27B0     		add	sp, sp, #156
 658              		@ sp needed
 659 00b8 F0BD     		pop	{r4, r5, r6, r7, pc}
 660              	.L25:
 661 00ba C046     		.align	2
 662              	.L24:
 663 00bc FF030000 		.word	1023
 664 00c0 FF010000 		.word	511
 665 00c4 B6D70000 		.word	55222
 666 00c8 B6D70001 		.word	16832438
 667 00cc 08001040 		.word	1074790408
 668 00d0 04001040 		.word	1074790404
 669 00d4 04000080 		.word	-2147483644
 670 00d8 B6D80000 		.word	55478
 671 00dc 05000080 		.word	-2147483643
 672              		.cfi_endproc
ARM GAS  C:\Users\gjl\AppData\Local\Temp\ccZWe7zS.s 			page 43


 673              	.LFE1:
 674              		.size	CySysFlashWriteRow, .-CySysFlashWriteRow
 675              		.section	.text.CySysFlashSetWaitCycles,"ax",%progbits
 676              		.align	1
 677              		.global	CySysFlashSetWaitCycles
 678              		.code	16
 679              		.thumb_func
 680              		.type	CySysFlashSetWaitCycles, %function
 681              	CySysFlashSetWaitCycles:
 682              	.LFB2:
 222:Generated_Source\PSoC4/CyFlash.c **** 
 223:Generated_Source\PSoC4/CyFlash.c **** 
 224:Generated_Source\PSoC4/CyFlash.c **** 
 225:Generated_Source\PSoC4/CyFlash.c **** #if (CY_IP_FLASH_PARALLEL_PGM_EN && (CY_IP_FLASH_MACROS > 1u))
 226:Generated_Source\PSoC4/CyFlash.c **** /*******************************************************************************
 227:Generated_Source\PSoC4/CyFlash.c **** * Function Name: CySysFlashStartWriteRow
 228:Generated_Source\PSoC4/CyFlash.c **** ****************************************************************************//**
 229:Generated_Source\PSoC4/CyFlash.c **** *
 230:Generated_Source\PSoC4/CyFlash.c **** * Initiates a write to a row of Flash. A call to this API is non-blocking. 
 231:Generated_Source\PSoC4/CyFlash.c **** * Use CySysFlashResumeWriteRow() to resume flash writes and 
 232:Generated_Source\PSoC4/CyFlash.c **** * CySysFlashGetWriteRowStatus() to ascertain status of the write operation.
 233:Generated_Source\PSoC4/CyFlash.c **** *
 234:Generated_Source\PSoC4/CyFlash.c **** * The devices require HFCLK to be sourced by 48 MHz IMO during flash write.
 235:Generated_Source\PSoC4/CyFlash.c **** * This API will modify IMO configuration; it can be later restored to original
 236:Generated_Source\PSoC4/CyFlash.c **** * configuration by calling \ref CySysFlashGetWriteRowStatus().
 237:Generated_Source\PSoC4/CyFlash.c **** *
 238:Generated_Source\PSoC4/CyFlash.c **** * \note The non-blocking operation does not return success status 
 239:Generated_Source\PSoC4/CyFlash.c **** * CY_SYS_FLASH_SUCCESS until the last \ref CySysFlashResumeWriteRow API 
 240:Generated_Source\PSoC4/CyFlash.c **** * is complete. The CPUSS_SYSARG register will be reflecting the SRAM address 
 241:Generated_Source\PSoC4/CyFlash.c **** * during an ongoing non-blocking operation.
 242:Generated_Source\PSoC4/CyFlash.c **** *    
 243:Generated_Source\PSoC4/CyFlash.c **** * \param rowNum The flash row number. The number of the flash rows is defined by
 244:Generated_Source\PSoC4/CyFlash.c **** * the \ref CY_FLASH_NUMBER_ROWS macro for the selected device. Refer to the
 245:Generated_Source\PSoC4/CyFlash.c **** * device datasheet for the details.
 246:Generated_Source\PSoC4/CyFlash.c **** * \note The target flash array is calculated based on the specified flash row.
 247:Generated_Source\PSoC4/CyFlash.c **** *
 248:Generated_Source\PSoC4/CyFlash.c **** * \param rowData Array of bytes to write. The size of the array must be equal to
 249:Generated_Source\PSoC4/CyFlash.c **** * the flash row size. The flash row size for the selected device is defined by
 250:Generated_Source\PSoC4/CyFlash.c **** * the \ref CY_FLASH_SIZEOF_ROW macro. Refer to the device datasheet for the
 251:Generated_Source\PSoC4/CyFlash.c **** * details.
 252:Generated_Source\PSoC4/CyFlash.c **** *
 253:Generated_Source\PSoC4/CyFlash.c **** * \return \ref group_flash_status_codes
 254:Generated_Source\PSoC4/CyFlash.c **** *
 255:Generated_Source\PSoC4/CyFlash.c **** *******************************************************************************/
 256:Generated_Source\PSoC4/CyFlash.c **** uint32 CySysFlashStartWriteRow(uint32 rowNum, const uint8 rowData[])
 257:Generated_Source\PSoC4/CyFlash.c **** {
 258:Generated_Source\PSoC4/CyFlash.c ****     volatile uint32 retValue = CY_SYS_FLASH_SUCCESS;
 259:Generated_Source\PSoC4/CyFlash.c ****     volatile uint32 parameters[(CY_FLASH_SIZEOF_ROW + CY_FLASH_SRAM_ROM_DATA) / sizeof(uint32)];
 260:Generated_Source\PSoC4/CyFlash.c ****     uint8  interruptState;
 261:Generated_Source\PSoC4/CyFlash.c **** 
 262:Generated_Source\PSoC4/CyFlash.c **** #if(CY_IP_SPCIF_SYNCHRONOUS)
 263:Generated_Source\PSoC4/CyFlash.c ****     volatile uint32 clkCnfRetValue = CY_SYS_FLASH_SUCCESS;
 264:Generated_Source\PSoC4/CyFlash.c **** #endif  /* (CY_IP_SPCIF_SYNCHRONOUS) */    
 265:Generated_Source\PSoC4/CyFlash.c **** 
 266:Generated_Source\PSoC4/CyFlash.c ****     if ((rowNum < CY_FLASH_NUMBER_ROWS) && (rowData != 0u))
 267:Generated_Source\PSoC4/CyFlash.c ****     {
 268:Generated_Source\PSoC4/CyFlash.c ****         /* Copy data to be written into internal variable */
ARM GAS  C:\Users\gjl\AppData\Local\Temp\ccZWe7zS.s 			page 44


 269:Generated_Source\PSoC4/CyFlash.c ****         (void)memcpy((void *)&parameters[2u], rowData, CY_FLASH_SIZEOF_ROW);
 270:Generated_Source\PSoC4/CyFlash.c **** 
 271:Generated_Source\PSoC4/CyFlash.c ****         /* Load Flash Bytes */
 272:Generated_Source\PSoC4/CyFlash.c ****         parameters[0u] = (uint32) (CY_FLASH_GET_MACRO_FROM_ROW(rowNum)        << CY_FLASH_PARAM_MAC
 273:Generated_Source\PSoC4/CyFlash.c ****                          (uint32) (CY_FLASH_PAGE_LATCH_START_ADDR             << CY_FLASH_PARAM_ADD
 274:Generated_Source\PSoC4/CyFlash.c ****                          (uint32) (CY_FLASH_KEY_TWO(CY_FLASH_API_OPCODE_LOAD) << CY_FLASH_PARAM_KEY
 275:Generated_Source\PSoC4/CyFlash.c ****                          CY_FLASH_KEY_ONE;
 276:Generated_Source\PSoC4/CyFlash.c ****         parameters[1u] = CY_FLASH_SIZEOF_ROW - 1u;
 277:Generated_Source\PSoC4/CyFlash.c **** 
 278:Generated_Source\PSoC4/CyFlash.c ****         CY_FLASH_CPUSS_SYSARG_REG = (uint32) &parameters[0u];
 279:Generated_Source\PSoC4/CyFlash.c ****         CY_FLASH_CPUSS_SYSREQ_REG = CY_FLASH_CPUSS_REQ_START | CY_FLASH_API_OPCODE_LOAD;
 280:Generated_Source\PSoC4/CyFlash.c ****         CY_NOP;
 281:Generated_Source\PSoC4/CyFlash.c ****         retValue = CY_FLASH_API_RETURN;
 282:Generated_Source\PSoC4/CyFlash.c **** 
 283:Generated_Source\PSoC4/CyFlash.c ****         if(retValue == CY_SYS_FLASH_SUCCESS)
 284:Generated_Source\PSoC4/CyFlash.c ****         {
 285:Generated_Source\PSoC4/CyFlash.c ****             /***************************************************************
 286:Generated_Source\PSoC4/CyFlash.c ****             * Mask all the exceptions to guarantee that Flash write will
 287:Generated_Source\PSoC4/CyFlash.c ****             * occur in the atomic way. It will not affect system call
 288:Generated_Source\PSoC4/CyFlash.c ****             * execution (flash row write) since it is executed in the NMI
 289:Generated_Source\PSoC4/CyFlash.c ****             * context.
 290:Generated_Source\PSoC4/CyFlash.c ****             ***************************************************************/
 291:Generated_Source\PSoC4/CyFlash.c ****             interruptState = CyEnterCriticalSection();
 292:Generated_Source\PSoC4/CyFlash.c **** 
 293:Generated_Source\PSoC4/CyFlash.c ****         #if(CY_IP_SPCIF_SYNCHRONOUS)
 294:Generated_Source\PSoC4/CyFlash.c ****             clkCnfRetValue = CySysFlashClockBackup();
 295:Generated_Source\PSoC4/CyFlash.c ****             
 296:Generated_Source\PSoC4/CyFlash.c ****             if(clkCnfRetValue == CY_SYS_FLASH_SUCCESS)
 297:Generated_Source\PSoC4/CyFlash.c ****             {
 298:Generated_Source\PSoC4/CyFlash.c ****                 retValue = CySysFlashClockConfig();
 299:Generated_Source\PSoC4/CyFlash.c ****             }
 300:Generated_Source\PSoC4/CyFlash.c ****         #else
 301:Generated_Source\PSoC4/CyFlash.c ****             (void)CySysFlashClockBackup();
 302:Generated_Source\PSoC4/CyFlash.c ****         #endif  /* (CY_IP_SPCIF_SYNCHRONOUS) */
 303:Generated_Source\PSoC4/CyFlash.c **** 
 304:Generated_Source\PSoC4/CyFlash.c ****             if(retValue == CY_SYS_FLASH_SUCCESS)
 305:Generated_Source\PSoC4/CyFlash.c ****             {
 306:Generated_Source\PSoC4/CyFlash.c ****                 /* Non-blocking Write Row */
 307:Generated_Source\PSoC4/CyFlash.c ****                 parameters[0u]  = (uint32) (((uint32) CY_FLASH_KEY_TWO(CY_FLASH_API_OPCODE_NON_BLOC
 308:Generated_Source\PSoC4/CyFlash.c ****                                                         CY_FLASH_PARAM_KEY_TWO_OFFSET) | CY_FLASH_K
 309:Generated_Source\PSoC4/CyFlash.c ****                 parameters[0u] |= (uint32)(rowNum << 16u);
 310:Generated_Source\PSoC4/CyFlash.c **** 
 311:Generated_Source\PSoC4/CyFlash.c ****                 CY_FLASH_CPUSS_SYSARG_REG = (uint32) &parameters[0u];
 312:Generated_Source\PSoC4/CyFlash.c ****                 CY_FLASH_CPUSS_SYSREQ_REG = CY_FLASH_CPUSS_REQ_START | CY_FLASH_API_OPCODE_NON_BLOC
 313:Generated_Source\PSoC4/CyFlash.c ****                 CY_NOP;
 314:Generated_Source\PSoC4/CyFlash.c ****                 retValue = CY_FLASH_API_RETURN;
 315:Generated_Source\PSoC4/CyFlash.c ****             }
 316:Generated_Source\PSoC4/CyFlash.c **** 
 317:Generated_Source\PSoC4/CyFlash.c ****             CyExitCriticalSection(interruptState);
 318:Generated_Source\PSoC4/CyFlash.c ****         }
 319:Generated_Source\PSoC4/CyFlash.c ****     }
 320:Generated_Source\PSoC4/CyFlash.c ****     else
 321:Generated_Source\PSoC4/CyFlash.c ****     {
 322:Generated_Source\PSoC4/CyFlash.c ****         retValue = CY_SYS_FLASH_INVALID_ADDR;
 323:Generated_Source\PSoC4/CyFlash.c ****     }
 324:Generated_Source\PSoC4/CyFlash.c **** 
 325:Generated_Source\PSoC4/CyFlash.c ****     return (retValue);
ARM GAS  C:\Users\gjl\AppData\Local\Temp\ccZWe7zS.s 			page 45


 326:Generated_Source\PSoC4/CyFlash.c **** }
 327:Generated_Source\PSoC4/CyFlash.c **** 
 328:Generated_Source\PSoC4/CyFlash.c **** 
 329:Generated_Source\PSoC4/CyFlash.c **** /*******************************************************************************
 330:Generated_Source\PSoC4/CyFlash.c **** * Function Name: CySysFlashGetWriteRowStatus
 331:Generated_Source\PSoC4/CyFlash.c **** ****************************************************************************//**
 332:Generated_Source\PSoC4/CyFlash.c **** *
 333:Generated_Source\PSoC4/CyFlash.c **** * Returns the current status of the flash write operation.
 334:Generated_Source\PSoC4/CyFlash.c **** *
 335:Generated_Source\PSoC4/CyFlash.c **** ** \note The non-blocking operation does not return success status 
 336:Generated_Source\PSoC4/CyFlash.c **** * CY_SYS_FLASH_SUCCESS until the last \ref CySysFlashResumeWriteRow API 
 337:Generated_Source\PSoC4/CyFlash.c **** * is complete. The CPUSS_SYSARG register will be reflecting the SRAM address 
 338:Generated_Source\PSoC4/CyFlash.c **** * during an ongoing non-blocking operation.
 339:Generated_Source\PSoC4/CyFlash.c **** * Calling this API before starting a non-blocking write row operation 
 340:Generated_Source\PSoC4/CyFlash.c **** * using the \ref CySysFlashStartWriteRow() API will cause improper operation.
 341:Generated_Source\PSoC4/CyFlash.c **** *
 342:Generated_Source\PSoC4/CyFlash.c **** * \return \ref group_flash_status_codes
 343:Generated_Source\PSoC4/CyFlash.c **** *
 344:Generated_Source\PSoC4/CyFlash.c **** *******************************************************************************/
 345:Generated_Source\PSoC4/CyFlash.c **** uint32 CySysFlashGetWriteRowStatus(void)
 346:Generated_Source\PSoC4/CyFlash.c **** {
 347:Generated_Source\PSoC4/CyFlash.c ****     volatile uint32 retValue = CY_SYS_FLASH_SUCCESS;
 348:Generated_Source\PSoC4/CyFlash.c **** 
 349:Generated_Source\PSoC4/CyFlash.c ****     CY_NOP;
 350:Generated_Source\PSoC4/CyFlash.c ****     retValue = CY_FLASH_API_RETURN;
 351:Generated_Source\PSoC4/CyFlash.c **** 
 352:Generated_Source\PSoC4/CyFlash.c ****     (void) CySysFlashClockRestore();
 353:Generated_Source\PSoC4/CyFlash.c **** 
 354:Generated_Source\PSoC4/CyFlash.c ****     return (retValue);
 355:Generated_Source\PSoC4/CyFlash.c **** }
 356:Generated_Source\PSoC4/CyFlash.c **** 
 357:Generated_Source\PSoC4/CyFlash.c **** 
 358:Generated_Source\PSoC4/CyFlash.c **** /*******************************************************************************
 359:Generated_Source\PSoC4/CyFlash.c **** * Function Name: CySysFlashResumeWriteRow
 360:Generated_Source\PSoC4/CyFlash.c **** ****************************************************************************//**
 361:Generated_Source\PSoC4/CyFlash.c **** *
 362:Generated_Source\PSoC4/CyFlash.c **** * This API must be called, once the SPC interrupt is triggered to complete the
 363:Generated_Source\PSoC4/CyFlash.c **** * non-blocking operation. It is advised not to prolong calling this API for
 364:Generated_Source\PSoC4/CyFlash.c **** * more than 25 ms.
 365:Generated_Source\PSoC4/CyFlash.c **** *
 366:Generated_Source\PSoC4/CyFlash.c **** * The non-blocking write row API \ref CySysFlashStartWriteRow() requires that
 367:Generated_Source\PSoC4/CyFlash.c **** * this API be called 3 times to complete the write. This can be done by
 368:Generated_Source\PSoC4/CyFlash.c **** * configuring SPCIF interrupt and placing a call to this API.
 369:Generated_Source\PSoC4/CyFlash.c **** *
 370:Generated_Source\PSoC4/CyFlash.c **** * For CM0 based device, a non-blocking call to program a row of macro 0
 371:Generated_Source\PSoC4/CyFlash.c **** * requires the user to set the CPUSS_CONFIG.VECS_IN_RAM bit so that the
 372:Generated_Source\PSoC4/CyFlash.c **** * interrupt vector for the SPC is fetched from the SRAM rather than the FLASH.
 373:Generated_Source\PSoC4/CyFlash.c **** *
 374:Generated_Source\PSoC4/CyFlash.c **** * For CM0+ based device, if the user wants to keep the vector table in flash
 375:Generated_Source\PSoC4/CyFlash.c **** * when performing non-blocking flash write then they need to make sure the
 376:Generated_Source\PSoC4/CyFlash.c **** * vector table is placed in the flash macro which is not getting programmed by
 377:Generated_Source\PSoC4/CyFlash.c **** * configuring the VTOR register.
 378:Generated_Source\PSoC4/CyFlash.c **** *
 379:Generated_Source\PSoC4/CyFlash.c **** * \note The non-blocking operation does not return success status 
 380:Generated_Source\PSoC4/CyFlash.c **** * CY_SYS_FLASH_SUCCESS until the last Resume API is complete. 
 381:Generated_Source\PSoC4/CyFlash.c **** * The CPUSS_SYSARG register will be reflecting the SRAM address during an 
 382:Generated_Source\PSoC4/CyFlash.c **** * ongoing non-blocking operation.
ARM GAS  C:\Users\gjl\AppData\Local\Temp\ccZWe7zS.s 			page 46


 383:Generated_Source\PSoC4/CyFlash.c **** *
 384:Generated_Source\PSoC4/CyFlash.c **** * \return \ref group_flash_status_codes
 385:Generated_Source\PSoC4/CyFlash.c **** *
 386:Generated_Source\PSoC4/CyFlash.c **** *******************************************************************************/
 387:Generated_Source\PSoC4/CyFlash.c **** uint32 CySysFlashResumeWriteRow(void)
 388:Generated_Source\PSoC4/CyFlash.c **** {
 389:Generated_Source\PSoC4/CyFlash.c ****     volatile uint32 retValue = CY_SYS_FLASH_SUCCESS;
 390:Generated_Source\PSoC4/CyFlash.c ****     static volatile uint32 parameters[1u];
 391:Generated_Source\PSoC4/CyFlash.c **** 
 392:Generated_Source\PSoC4/CyFlash.c ****     /* Resume */
 393:Generated_Source\PSoC4/CyFlash.c ****     parameters[0u] = (uint32) (((uint32) CY_FLASH_KEY_TWO(CY_FLASH_API_OPCODE_RESUME_NON_BLOCKING) 
 394:Generated_Source\PSoC4/CyFlash.c ****                                          CY_FLASH_PARAM_KEY_TWO_OFFSET) | CY_FLASH_KEY_ONE);
 395:Generated_Source\PSoC4/CyFlash.c ****     CY_FLASH_CPUSS_SYSARG_REG = (uint32) &parameters[0u];
 396:Generated_Source\PSoC4/CyFlash.c ****     CY_FLASH_CPUSS_SYSREQ_REG = CY_FLASH_CPUSS_REQ_START | CY_FLASH_API_OPCODE_RESUME_NON_BLOCKING;
 397:Generated_Source\PSoC4/CyFlash.c ****     
 398:Generated_Source\PSoC4/CyFlash.c ****     CY_NOP;
 399:Generated_Source\PSoC4/CyFlash.c ****     retValue = CY_FLASH_API_RETURN;
 400:Generated_Source\PSoC4/CyFlash.c ****     
 401:Generated_Source\PSoC4/CyFlash.c ****     return (retValue);
 402:Generated_Source\PSoC4/CyFlash.c **** }
 403:Generated_Source\PSoC4/CyFlash.c **** 
 404:Generated_Source\PSoC4/CyFlash.c **** #endif /* (CY_IP_FLASH_PARALLEL_PGM_EN && (CY_IP_FLASH_MACROS > 1u)) */
 405:Generated_Source\PSoC4/CyFlash.c **** 
 406:Generated_Source\PSoC4/CyFlash.c **** 
 407:Generated_Source\PSoC4/CyFlash.c **** /*******************************************************************************
 408:Generated_Source\PSoC4/CyFlash.c **** * Function Name: CySysFlashSetWaitCycles
 409:Generated_Source\PSoC4/CyFlash.c **** ****************************************************************************//**
 410:Generated_Source\PSoC4/CyFlash.c **** *
 411:Generated_Source\PSoC4/CyFlash.c **** * Sets the number of clock cycles the cache will wait before it samples data
 412:Generated_Source\PSoC4/CyFlash.c **** * coming back from Flash. This function must be called before increasing the
 413:Generated_Source\PSoC4/CyFlash.c **** * SYSCLK clock frequency. It can optionally be called after lowering SYSCLK
 414:Generated_Source\PSoC4/CyFlash.c **** * clock frequency in order to improve the CPU performance.
 415:Generated_Source\PSoC4/CyFlash.c **** *
 416:Generated_Source\PSoC4/CyFlash.c **** * \param freq The System clock frequency in MHz.
 417:Generated_Source\PSoC4/CyFlash.c **** *
 418:Generated_Source\PSoC4/CyFlash.c **** * \note Invalid frequency will be ignored in Release mode and the CPU will be
 419:Generated_Source\PSoC4/CyFlash.c **** * halted if project is compiled in Debug mode.
 420:Generated_Source\PSoC4/CyFlash.c **** *
 421:Generated_Source\PSoC4/CyFlash.c **** *******************************************************************************/
 422:Generated_Source\PSoC4/CyFlash.c **** void CySysFlashSetWaitCycles(uint32 freq)
 423:Generated_Source\PSoC4/CyFlash.c **** {
 683              		.loc 1 423 0
 684              		.cfi_startproc
 685              		@ args = 0, pretend = 0, frame = 0
 686              		@ frame_needed = 0, uses_anonymous_args = 0
 687              	.LVL10:
 688 0000 10B5     		push	{r4, lr}
 689              		.cfi_def_cfa_offset 8
 690              		.cfi_offset 4, -8
 691              		.cfi_offset 14, -4
 692              		.loc 1 423 0
 693 0002 0400     		movs	r4, r0
 424:Generated_Source\PSoC4/CyFlash.c ****     uint8  interruptState;
 425:Generated_Source\PSoC4/CyFlash.c **** 
 426:Generated_Source\PSoC4/CyFlash.c ****     interruptState = CyEnterCriticalSection();
 694              		.loc 1 426 0
 695 0004 FFF7FEFF 		bl	CyEnterCriticalSection
ARM GAS  C:\Users\gjl\AppData\Local\Temp\ccZWe7zS.s 			page 47


 696              	.LVL11:
 427:Generated_Source\PSoC4/CyFlash.c **** 
 428:Generated_Source\PSoC4/CyFlash.c ****     #if (CY_IP_CPUSS)
 429:Generated_Source\PSoC4/CyFlash.c **** 
 430:Generated_Source\PSoC4/CyFlash.c ****         if ( freq <= CY_FLASH_SYSCLK_BOUNDARY_MHZ )
 431:Generated_Source\PSoC4/CyFlash.c ****         {
 432:Generated_Source\PSoC4/CyFlash.c ****             CY_SYS_CLK_SELECT_REG &= (uint32)(~CY_FLASH_WAIT_STATE_EN);
 433:Generated_Source\PSoC4/CyFlash.c ****         }
 434:Generated_Source\PSoC4/CyFlash.c ****         else
 435:Generated_Source\PSoC4/CyFlash.c ****         {
 436:Generated_Source\PSoC4/CyFlash.c ****             CY_SYS_CLK_SELECT_REG |= CY_FLASH_WAIT_STATE_EN;
 437:Generated_Source\PSoC4/CyFlash.c ****         }
 438:Generated_Source\PSoC4/CyFlash.c ****     #else
 439:Generated_Source\PSoC4/CyFlash.c ****         #if (CY_IP_CPUSS_FLASHC_PRESENT)
 440:Generated_Source\PSoC4/CyFlash.c ****             /* CY_IP_FM and CY_IP_FS */
 441:Generated_Source\PSoC4/CyFlash.c ****             if (freq <= CY_FLASH_CTL_WS_0_FREQ_MAX)
 697              		.loc 1 441 0
 698 0008 102C     		cmp	r4, #16
 699 000a 04D8     		bhi	.L27
 442:Generated_Source\PSoC4/CyFlash.c ****             {
 443:Generated_Source\PSoC4/CyFlash.c ****                 CY_FLASH_CTL_REG = (CY_FLASH_CTL_REG & ~CY_FLASH_CTL_WS_MASK) | CY_FLASH_CTL_WS_0_V
 700              		.loc 1 443 0
 701 000c 0321     		movs	r1, #3
 702 000e 0C4A     		ldr	r2, .L32
 703 0010 1368     		ldr	r3, [r2]
 704 0012 8B43     		bics	r3, r1
 705 0014 0FE0     		b	.L30
 706              	.L27:
 444:Generated_Source\PSoC4/CyFlash.c ****             } else
 445:Generated_Source\PSoC4/CyFlash.c ****             if (freq <= CY_FLASH_CTL_WS_1_FREQ_MAX)
 707              		.loc 1 445 0
 708 0016 202C     		cmp	r4, #32
 709 0018 05D8     		bhi	.L29
 446:Generated_Source\PSoC4/CyFlash.c ****             {
 447:Generated_Source\PSoC4/CyFlash.c ****                 CY_FLASH_CTL_REG = (CY_FLASH_CTL_REG & ~CY_FLASH_CTL_WS_MASK) | CY_FLASH_CTL_WS_1_V
 710              		.loc 1 447 0
 711 001a 0321     		movs	r1, #3
 712 001c 084A     		ldr	r2, .L32
 713 001e 1368     		ldr	r3, [r2]
 714 0020 8B43     		bics	r3, r1
 715 0022 0239     		subs	r1, r1, #2
 716 0024 06E0     		b	.L31
 717              	.L29:
 448:Generated_Source\PSoC4/CyFlash.c ****             } else
 449:Generated_Source\PSoC4/CyFlash.c ****             #if (CY_IP_FMLT || CY_IP_FSLT)
 450:Generated_Source\PSoC4/CyFlash.c ****                 if (freq <= CY_FLASH_CTL_WS_2_FREQ_MAX)
 718              		.loc 1 450 0
 719 0026 302C     		cmp	r4, #48
 720 0028 06D8     		bhi	.L28
 451:Generated_Source\PSoC4/CyFlash.c ****                 {
 452:Generated_Source\PSoC4/CyFlash.c ****                     CY_FLASH_CTL_REG = (CY_FLASH_CTL_REG & ~CY_FLASH_CTL_WS_MASK) | CY_FLASH_CTL_WS
 721              		.loc 1 452 0
 722 002a 0321     		movs	r1, #3
 723 002c 044A     		ldr	r2, .L32
 724 002e 1368     		ldr	r3, [r2]
 725 0030 8B43     		bics	r3, r1
 726 0032 0139     		subs	r1, r1, #1
ARM GAS  C:\Users\gjl\AppData\Local\Temp\ccZWe7zS.s 			page 48


 727              	.L31:
 728 0034 0B43     		orrs	r3, r1
 729              	.L30:
 730 0036 1360     		str	r3, [r2]
 731              	.L28:
 453:Generated_Source\PSoC4/CyFlash.c ****                 }
 454:Generated_Source\PSoC4/CyFlash.c ****                 else
 455:Generated_Source\PSoC4/CyFlash.c ****             #endif  /* (CY_IP_FMLT || CY_IP_FSLT) */
 456:Generated_Source\PSoC4/CyFlash.c ****         #endif /* (CY_IP_CPUSS_FLASHC_PRESENT) */
 457:Generated_Source\PSoC4/CyFlash.c ****         {
 458:Generated_Source\PSoC4/CyFlash.c ****             /* Halt CPU in debug mode if frequency is invalid */
 459:Generated_Source\PSoC4/CyFlash.c ****             CYASSERT(0u != 0u);
 460:Generated_Source\PSoC4/CyFlash.c ****         }
 461:Generated_Source\PSoC4/CyFlash.c **** 
 462:Generated_Source\PSoC4/CyFlash.c ****     #endif  /* (CY_IP_CPUSS) */
 463:Generated_Source\PSoC4/CyFlash.c **** 
 464:Generated_Source\PSoC4/CyFlash.c ****     CyExitCriticalSection(interruptState);
 732              		.loc 1 464 0
 733 0038 FFF7FEFF 		bl	CyExitCriticalSection
 734              	.LVL12:
 465:Generated_Source\PSoC4/CyFlash.c **** }
 735              		.loc 1 465 0
 736              		@ sp needed
 737              	.LVL13:
 738 003c 10BD     		pop	{r4, pc}
 739              	.L33:
 740 003e C046     		.align	2
 741              	.L32:
 742 0040 30001040 		.word	1074790448
 743              		.cfi_endproc
 744              	.LFE2:
 745              		.size	CySysFlashSetWaitCycles, .-CySysFlashSetWaitCycles
 746              		.section	.text.CySysSFlashWriteUserRow,"ax",%progbits
 747              		.align	1
 748              		.global	CySysSFlashWriteUserRow
 749              		.code	16
 750              		.thumb_func
 751              		.type	CySysSFlashWriteUserRow, %function
 752              	CySysSFlashWriteUserRow:
 753              	.LFB3:
 466:Generated_Source\PSoC4/CyFlash.c **** 
 467:Generated_Source\PSoC4/CyFlash.c **** 
 468:Generated_Source\PSoC4/CyFlash.c **** #if (CY_SFLASH_XTRA_ROWS)
 469:Generated_Source\PSoC4/CyFlash.c **** /*******************************************************************************
 470:Generated_Source\PSoC4/CyFlash.c **** * Function Name: CySysSFlashWriteUserRow
 471:Generated_Source\PSoC4/CyFlash.c **** ****************************************************************************//**
 472:Generated_Source\PSoC4/CyFlash.c **** *
 473:Generated_Source\PSoC4/CyFlash.c **** * Writes data to a row of SFlash user configurable area.
 474:Generated_Source\PSoC4/CyFlash.c **** *
 475:Generated_Source\PSoC4/CyFlash.c **** * This API is applicable for PSoC 4100 BLE, PSoC 4200 BLE, PSoC 4100M,
 476:Generated_Source\PSoC4/CyFlash.c **** * PSoC 4200M, and PSoC 4200L family of devices.
 477:Generated_Source\PSoC4/CyFlash.c **** *
 478:Generated_Source\PSoC4/CyFlash.c **** * \param rowNum The flash row number. The flash row number. The number of the
 479:Generated_Source\PSoC4/CyFlash.c **** * flash rows is defined by the CY_SFLASH_NUMBER_USERROWS macro for the selected
 480:Generated_Source\PSoC4/CyFlash.c **** * device. Valid range is 0-3. Refer to the device TRM for details.
 481:Generated_Source\PSoC4/CyFlash.c **** *
 482:Generated_Source\PSoC4/CyFlash.c **** * \param rowData Array of bytes to write. The size of the array must be equal to
ARM GAS  C:\Users\gjl\AppData\Local\Temp\ccZWe7zS.s 			page 49


 483:Generated_Source\PSoC4/CyFlash.c **** * the flash row size. The flash row size for the selected device is defined by
 484:Generated_Source\PSoC4/CyFlash.c **** * the \ref CY_SFLASH_SIZEOF_USERROW macro. Refer to the device TRM for the
 485:Generated_Source\PSoC4/CyFlash.c **** * details.
 486:Generated_Source\PSoC4/CyFlash.c **** *
 487:Generated_Source\PSoC4/CyFlash.c **** * \return \ref group_flash_status_codes
 488:Generated_Source\PSoC4/CyFlash.c **** *
 489:Generated_Source\PSoC4/CyFlash.c **** *******************************************************************************/
 490:Generated_Source\PSoC4/CyFlash.c **** uint32 CySysSFlashWriteUserRow(uint32 rowNum, const uint8 rowData[])
 491:Generated_Source\PSoC4/CyFlash.c **** {
 754              		.loc 1 491 0
 755              		.cfi_startproc
 756              		@ args = 0, pretend = 0, frame = 152
 757              		@ frame_needed = 0, uses_anonymous_args = 0
 758              	.LVL14:
 759 0000 F0B5     		push	{r4, r5, r6, r7, lr}
 760              		.cfi_def_cfa_offset 20
 761              		.cfi_offset 4, -20
 762              		.cfi_offset 5, -16
 763              		.cfi_offset 6, -12
 764              		.cfi_offset 7, -8
 765              		.cfi_offset 14, -4
 492:Generated_Source\PSoC4/CyFlash.c ****     volatile uint32 retValue = CY_SYS_FLASH_SUCCESS;
 766              		.loc 1 492 0
 767 0002 0024     		movs	r4, #0
 491:Generated_Source\PSoC4/CyFlash.c ****     volatile uint32 retValue = CY_SYS_FLASH_SUCCESS;
 768              		.loc 1 491 0
 769 0004 A7B0     		sub	sp, sp, #156
 770              		.cfi_def_cfa_offset 176
 771              		.loc 1 492 0
 772 0006 0294     		str	r4, [sp, #8]
 491:Generated_Source\PSoC4/CyFlash.c ****     volatile uint32 retValue = CY_SYS_FLASH_SUCCESS;
 773              		.loc 1 491 0
 774 0008 0700     		movs	r7, r0
 493:Generated_Source\PSoC4/CyFlash.c ****     volatile uint32 clkCnfRetValue = CY_SYS_FLASH_SUCCESS;
 775              		.loc 1 493 0
 776 000a 0394     		str	r4, [sp, #12]
 494:Generated_Source\PSoC4/CyFlash.c ****     volatile uint32 parameters[(CY_FLASH_SIZEOF_ROW + CY_FLASH_SRAM_ROM_DATA)/4u];
 495:Generated_Source\PSoC4/CyFlash.c ****     uint8  interruptState;
 496:Generated_Source\PSoC4/CyFlash.c **** 
 497:Generated_Source\PSoC4/CyFlash.c **** 
 498:Generated_Source\PSoC4/CyFlash.c ****     if ((rowNum < CY_SFLASH_NUMBER_USERROWS) && (rowData != 0u))
 777              		.loc 1 498 0
 778 000c 0328     		cmp	r0, #3
 779 000e 40D8     		bhi	.L35
 780              		.loc 1 498 0 is_stmt 0 discriminator 1
 781 0010 A142     		cmp	r1, r4
 782 0012 3ED0     		beq	.L35
 499:Generated_Source\PSoC4/CyFlash.c ****     {
 500:Generated_Source\PSoC4/CyFlash.c ****         /* Load Flash Bytes */
 501:Generated_Source\PSoC4/CyFlash.c ****         parameters[0u] = (uint32) (CY_FLASH_GET_MACRO_FROM_ROW(rowNum)        << CY_FLASH_PARAM_MAC
 783              		.loc 1 501 0 is_stmt 1
 784 0014 214B     		ldr	r3, .L49
 785 0016 04AE     		add	r6, sp, #16
 786 0018 0493     		str	r3, [sp, #16]
 502:Generated_Source\PSoC4/CyFlash.c ****                          (uint32) (CY_FLASH_PAGE_LATCH_START_ADDR             << CY_FLASH_PARAM_ADD
 503:Generated_Source\PSoC4/CyFlash.c ****                          (uint32) (CY_FLASH_KEY_TWO(CY_FLASH_API_OPCODE_LOAD) << CY_FLASH_PARAM_KEY
 504:Generated_Source\PSoC4/CyFlash.c ****                          CY_FLASH_KEY_ONE;
ARM GAS  C:\Users\gjl\AppData\Local\Temp\ccZWe7zS.s 			page 50


 505:Generated_Source\PSoC4/CyFlash.c ****         parameters[1u] = CY_FLASH_SIZEOF_ROW - 1u;
 787              		.loc 1 505 0
 788 001a 7F23     		movs	r3, #127
 506:Generated_Source\PSoC4/CyFlash.c **** 
 507:Generated_Source\PSoC4/CyFlash.c ****         (void)memcpy((void *)&parameters[2u], rowData, CY_FLASH_SIZEOF_ROW);
 789              		.loc 1 507 0
 790 001c 8022     		movs	r2, #128
 791 001e 06A8     		add	r0, sp, #24
 792              	.LVL15:
 505:Generated_Source\PSoC4/CyFlash.c **** 
 793              		.loc 1 505 0
 794 0020 7360     		str	r3, [r6, #4]
 508:Generated_Source\PSoC4/CyFlash.c ****         CY_FLASH_CPUSS_SYSARG_REG = (uint32) &parameters[0u];
 795              		.loc 1 508 0
 796 0022 1F4D     		ldr	r5, .L49+4
 507:Generated_Source\PSoC4/CyFlash.c ****         CY_FLASH_CPUSS_SYSARG_REG = (uint32) &parameters[0u];
 797              		.loc 1 507 0
 798 0024 FFF7FEFF 		bl	memcpy
 799              	.LVL16:
 509:Generated_Source\PSoC4/CyFlash.c ****         CY_FLASH_CPUSS_SYSREQ_REG = CY_FLASH_CPUSS_REQ_START | CY_FLASH_API_OPCODE_LOAD;
 800              		.loc 1 509 0
 801 0028 1E4A     		ldr	r2, .L49+8
 802 002a 1F4B     		ldr	r3, .L49+12
 508:Generated_Source\PSoC4/CyFlash.c ****         CY_FLASH_CPUSS_SYSARG_REG = (uint32) &parameters[0u];
 803              		.loc 1 508 0
 804 002c 2E60     		str	r6, [r5]
 805              		.loc 1 509 0
 806 002e 1360     		str	r3, [r2]
 510:Generated_Source\PSoC4/CyFlash.c ****         CY_NOP;
 807              		.loc 1 510 0
 808              		.syntax divided
 809              	@ 510 "Generated_Source\PSoC4\CyFlash.c" 1
 810 0030 C046     		NOP
 811              	
 812              	@ 0 "" 2
 511:Generated_Source\PSoC4/CyFlash.c ****         retValue = CY_FLASH_API_RETURN;
 813              		.loc 1 511 0
 814              		.thumb
 815              		.syntax unified
 816 0032 2B68     		ldr	r3, [r5]
 817 0034 0192     		str	r2, [sp, #4]
 818 0036 1B0F     		lsrs	r3, r3, #28
 819 0038 0F2B     		cmp	r3, #15
 820 003a 03D0     		beq	.L47
 821              		.loc 1 511 0 is_stmt 0 discriminator 2
 822 003c 2B68     		ldr	r3, [r5]
 823 003e 1B0F     		lsrs	r3, r3, #28
 824 0040 0A2B     		cmp	r3, #10
 825 0042 01D0     		beq	.L37
 826              	.L47:
 827              		.loc 1 511 0 discriminator 4
 828 0044 2C68     		ldr	r4, [r5]
 829 0046 E4B2     		uxtb	r4, r4
 830              	.L37:
 831              		.loc 1 511 0 discriminator 8
 832 0048 0294     		str	r4, [sp, #8]
 512:Generated_Source\PSoC4/CyFlash.c **** 
ARM GAS  C:\Users\gjl\AppData\Local\Temp\ccZWe7zS.s 			page 51


 513:Generated_Source\PSoC4/CyFlash.c ****         if(retValue == CY_SYS_FLASH_SUCCESS)
 833              		.loc 1 513 0 is_stmt 1 discriminator 8
 834 004a 029C     		ldr	r4, [sp, #8]
 835 004c 002C     		cmp	r4, #0
 836 004e 22D1     		bne	.L38
 514:Generated_Source\PSoC4/CyFlash.c ****         {
 515:Generated_Source\PSoC4/CyFlash.c ****             /***************************************************************
 516:Generated_Source\PSoC4/CyFlash.c ****             * Mask all the exceptions to guarantee that Flash write will
 517:Generated_Source\PSoC4/CyFlash.c ****             * occur in the atomic way. It will not affect system call
 518:Generated_Source\PSoC4/CyFlash.c ****             * execution (flash row write) since it is executed in the NMI
 519:Generated_Source\PSoC4/CyFlash.c ****             * context.
 520:Generated_Source\PSoC4/CyFlash.c ****             ***************************************************************/
 521:Generated_Source\PSoC4/CyFlash.c ****             interruptState = CyEnterCriticalSection();
 837              		.loc 1 521 0
 838 0050 FFF7FEFF 		bl	CyEnterCriticalSection
 839              	.LVL17:
 522:Generated_Source\PSoC4/CyFlash.c **** 
 523:Generated_Source\PSoC4/CyFlash.c ****             clkCnfRetValue = CySysFlashClockBackup();
 840              		.loc 1 523 0
 841 0054 0394     		str	r4, [sp, #12]
 524:Generated_Source\PSoC4/CyFlash.c **** 
 525:Generated_Source\PSoC4/CyFlash.c ****         #if(CY_IP_SPCIF_SYNCHRONOUS)
 526:Generated_Source\PSoC4/CyFlash.c ****             if(clkCnfRetValue == CY_SYS_FLASH_SUCCESS)
 527:Generated_Source\PSoC4/CyFlash.c ****             {
 528:Generated_Source\PSoC4/CyFlash.c ****                 retValue = CySysFlashClockConfig();
 529:Generated_Source\PSoC4/CyFlash.c ****             }
 530:Generated_Source\PSoC4/CyFlash.c ****         #endif  /* (CY_IP_SPCIF_SYNCHRONOUS) */
 531:Generated_Source\PSoC4/CyFlash.c **** 
 532:Generated_Source\PSoC4/CyFlash.c ****             if(retValue == CY_SYS_FLASH_SUCCESS)
 842              		.loc 1 532 0
 843 0056 029B     		ldr	r3, [sp, #8]
 844 0058 002B     		cmp	r3, #0
 845 005a 13D1     		bne	.L39
 533:Generated_Source\PSoC4/CyFlash.c ****             {
 534:Generated_Source\PSoC4/CyFlash.c ****                 /* Write User Sflash Row */
 535:Generated_Source\PSoC4/CyFlash.c ****                 parameters[0u]  = (uint32) (((uint32) CY_FLASH_KEY_TWO(CY_FLASH_API_OPCODE_WRITE_SF
 846              		.loc 1 535 0
 847 005c 134A     		ldr	r2, .L49+16
 536:Generated_Source\PSoC4/CyFlash.c ****                 parameters[1u] = (uint32) rowNum;
 537:Generated_Source\PSoC4/CyFlash.c **** 
 538:Generated_Source\PSoC4/CyFlash.c ****                 CY_FLASH_CPUSS_SYSARG_REG = (uint32) &parameters[0u];
 539:Generated_Source\PSoC4/CyFlash.c ****                 CY_FLASH_CPUSS_SYSREQ_REG = CY_FLASH_CPUSS_REQ_START | CY_FLASH_API_OPCODE_WRITE_SF
 848              		.loc 1 539 0
 849 005e 1449     		ldr	r1, .L49+20
 850 0060 019C     		ldr	r4, [sp, #4]
 535:Generated_Source\PSoC4/CyFlash.c ****                 parameters[1u] = (uint32) rowNum;
 851              		.loc 1 535 0
 852 0062 0492     		str	r2, [sp, #16]
 536:Generated_Source\PSoC4/CyFlash.c ****                 parameters[1u] = (uint32) rowNum;
 853              		.loc 1 536 0
 854 0064 7760     		str	r7, [r6, #4]
 538:Generated_Source\PSoC4/CyFlash.c ****                 CY_FLASH_CPUSS_SYSREQ_REG = CY_FLASH_CPUSS_REQ_START | CY_FLASH_API_OPCODE_WRITE_SF
 855              		.loc 1 538 0
 856 0066 0E4A     		ldr	r2, .L49+4
 857 0068 2E60     		str	r6, [r5]
 858              		.loc 1 539 0
 859 006a 2160     		str	r1, [r4]
ARM GAS  C:\Users\gjl\AppData\Local\Temp\ccZWe7zS.s 			page 52


 540:Generated_Source\PSoC4/CyFlash.c ****                 CY_NOP;
 860              		.loc 1 540 0
 861              		.syntax divided
 862              	@ 540 "Generated_Source\PSoC4\CyFlash.c" 1
 863 006c C046     		NOP
 864              	
 865              	@ 0 "" 2
 541:Generated_Source\PSoC4/CyFlash.c ****                 retValue = CY_FLASH_API_RETURN;
 866              		.loc 1 541 0
 867              		.thumb
 868              		.syntax unified
 869 006e 2968     		ldr	r1, [r5]
 870 0070 090F     		lsrs	r1, r1, #28
 871 0072 0F29     		cmp	r1, #15
 872 0074 03D0     		beq	.L48
 873              		.loc 1 541 0 is_stmt 0 discriminator 2
 874 0076 1168     		ldr	r1, [r2]
 875 0078 090F     		lsrs	r1, r1, #28
 876 007a 0A29     		cmp	r1, #10
 877 007c 01D0     		beq	.L41
 878              	.L48:
 879              		.loc 1 541 0 discriminator 4
 880 007e 1368     		ldr	r3, [r2]
 881 0080 DBB2     		uxtb	r3, r3
 882              	.L41:
 883              		.loc 1 541 0 discriminator 8
 884 0082 0293     		str	r3, [sp, #8]
 885              	.L39:
 542:Generated_Source\PSoC4/CyFlash.c ****             }
 543:Generated_Source\PSoC4/CyFlash.c **** 
 544:Generated_Source\PSoC4/CyFlash.c ****             if(clkCnfRetValue == CY_SYS_FLASH_SUCCESS)
 886              		.loc 1 544 0 is_stmt 1
 887 0084 039B     		ldr	r3, [sp, #12]
 888 0086 002B     		cmp	r3, #0
 889 0088 00D1     		bne	.L42
 890              	.LVL18:
 545:Generated_Source\PSoC4/CyFlash.c ****             {
 546:Generated_Source\PSoC4/CyFlash.c ****                 clkCnfRetValue = CySysFlashClockRestore();
 891              		.loc 1 546 0
 892 008a 0393     		str	r3, [sp, #12]
 893              	.LVL19:
 894              	.L42:
 547:Generated_Source\PSoC4/CyFlash.c ****             }
 548:Generated_Source\PSoC4/CyFlash.c ****             CyExitCriticalSection(interruptState);
 895              		.loc 1 548 0
 896 008c FFF7FEFF 		bl	CyExitCriticalSection
 897              	.LVL20:
 898 0090 01E0     		b	.L38
 899              	.LVL21:
 900              	.L35:
 549:Generated_Source\PSoC4/CyFlash.c ****         }
 550:Generated_Source\PSoC4/CyFlash.c ****     }
 551:Generated_Source\PSoC4/CyFlash.c ****     else
 552:Generated_Source\PSoC4/CyFlash.c ****     {
 553:Generated_Source\PSoC4/CyFlash.c ****         retValue = CY_SYS_FLASH_INVALID_ADDR;
 901              		.loc 1 553 0
 902 0092 0423     		movs	r3, #4
ARM GAS  C:\Users\gjl\AppData\Local\Temp\ccZWe7zS.s 			page 53


 903 0094 0293     		str	r3, [sp, #8]
 904              	.LVL22:
 905              	.L38:
 554:Generated_Source\PSoC4/CyFlash.c ****     }
 555:Generated_Source\PSoC4/CyFlash.c **** 
 556:Generated_Source\PSoC4/CyFlash.c ****     return (retValue);
 906              		.loc 1 556 0
 907 0096 0298     		ldr	r0, [sp, #8]
 557:Generated_Source\PSoC4/CyFlash.c **** }
 908              		.loc 1 557 0
 909 0098 27B0     		add	sp, sp, #156
 910              		@ sp needed
 911              	.LVL23:
 912 009a F0BD     		pop	{r4, r5, r6, r7, pc}
 913              	.L50:
 914              		.align	2
 915              	.L49:
 916 009c B6D70000 		.word	55222
 917 00a0 08001040 		.word	1074790408
 918 00a4 04001040 		.word	1074790404
 919 00a8 04000080 		.word	-2147483644
 920 00ac B6EB0000 		.word	60342
 921 00b0 18000080 		.word	-2147483624
 922              		.cfi_endproc
 923              	.LFE3:
 924              		.size	CySysSFlashWriteUserRow, .-CySysSFlashWriteUserRow
 925              		.text
 926              	.Letext0:
 927              		.file 2 "Generated_Source\\PSoC4\\cytypes.h"
 928              		.file 3 "Generated_Source\\PSoC4\\CyLib.h"