ARM GAS  C:\Users\Greg\AppData\Local\Temp\ccVQeBG4.s 			page 1


   1              		.syntax unified
   2              		.cpu cortex-m0
   3              		.fpu softvfp
   4              		.eabi_attribute 20, 1
   5              		.eabi_attribute 21, 1
   6              		.eabi_attribute 23, 3
   7              		.eabi_attribute 24, 1
   8              		.eabi_attribute 25, 1
   9              		.eabi_attribute 26, 1
  10              		.eabi_attribute 30, 4
  11              		.eabi_attribute 34, 0
  12              		.eabi_attribute 18, 4
  13              		.thumb
  14              		.syntax unified
  15              		.file	"D10.c"
  16              		.text
  17              	.Ltext0:
  18              		.section	.gnu.lto_.profile.edc6a52b,"",%progbits
  19 0000 789C6361 		.ascii	"x\234ca`d`a`\000\222j\012\000\000\326\000Q"
  19      60646061 
  19      6000926A 
  19      0A0000D6 
  19      0051
  20              		.text
  21              		.section	.gnu.lto_.icf.edc6a52b,"",%progbits
  22 0000 789C6361 		.ascii	"x\234ca`d\000\0015\006\004`c8\260\353\3647\026\306%"
  22      60640001 
  22      35060460 
  22      6338B0EB 
  22      F43716C6 
  23 0015 5F9774B2 		.ascii	"_\227t\2623=\330\371\363;\017\363\255\263\007\3760\262"
  23      333DD8F9 
  23      F33B0FF3 
  23      ADB307FE 
  23      30B2
  24 0027 3C6F5ABA 		.ascii	"<oZ\272\231\207\365\316\205\226F\036\006\000|\253\022"
  24      9987F5CE 
  24      8596461E 
  24      06007CAB 
  24      12
  25 0038 D0       		.ascii	"\320"
  26              		.text
  27              		.section	.gnu.lto_.jmpfuncs.edc6a52b,"",%progbits
  28 0000 789C45C9 		.ascii	"x\234E\311\261\001\000 \010\300\260\026\320+\374\225"
  28      B1010020 
  28      08C0B016 
  28      D02BFC95 
  29 0010 D795C90C 		.ascii	"\327\225\311\014]Z\3108|\033\265\235\004$Thv\257\367"
  29      5D5AC838 
  29      7C1BB59D 
  29      04245468 
  29      76AFF7
  30 0023 2E215502 		.ascii	".!U\002@"
  30      40
  31              		.text
  32              		.section	.gnu.lto_.inline.edc6a52b,"",%progbits
  33 0000 789C7D8C 		.ascii	"x\234}\214\301\011\200P\014C\223\376\332_A\320\015\334"
ARM GAS  C:\Users\Greg\AppData\Local\Temp\ccVQeBG4.s 			page 2


  33      C1098050 
  33      0C4393FE 
  33      DA5F41D0 
  33      0DDC
  34 0012 C0119CD4 		.ascii	"\300\021\234\324\203\2438\202\2438\202-\202\"\202\357"
  34      83A33882 
  34      A338822D 
  34      822282EF 
  35 0022 90435E1B 		.ascii	"\220C^\033\005\221,x0\300+\011\017U|\233a\353(\220\275"
  35      05912C78 
  35      30C02B09 
  35      0F557C9B 
  35      61EB2890 
  36 0037 D7B4FC93 		.ascii	"\327\264\374\223\002k\010\261c\272\372\240|+E\353\024"
  36      026B08B1 
  36      63BAFAA0 
  36      7C2B45EB 
  36      14
  37 0048 0C31C10C 		.ascii	"\0141\301\014}\357Dty\326\240Z|\33629\001\367\007\017"
  37      7DEF4474 
  37      79D6A05A 
  37      7CDE3239 
  37      01F7070F 
  38 005c FE       		.ascii	"\376"
  39              		.text
  40              		.section	.gnu.lto_.pureconst.edc6a52b,"",%progbits
  41 0000 789C6361 		.ascii	"x\234ca`d\340e```c\220b\224b\222b\226b\221b\225\002"
  41      6064E065 
  41      60606063 
  41      90629462 
  41      92629662 
  42 0018 00059500 		.ascii	"\000\005\225\000\304"
  42      C4
  43              		.text
  44              		.section	.gnu.lto_D10_SetDriveMode.edc6a52b,"",%progbits
  45 0000 789C7D51 		.ascii	"x\234}Q=K\003A\024|\263{\271(~U\202`\004\013AlD\321"
  45      3D4B0341 
  45      147CB37B 
  45      B9287E55 
  45      8260040B 
  46 0018 7FA0602B 		.ascii	"\177\240`+\246UD\364J\015\210\326nr9\024\253@P\261P"
  46      A65544F4 
  46      4A0D88D6 
  46      6E723914 
  46      AB4050B1 
  47 002d AB10BF3F 		.ascii	"\253\020\277?\020\024\273\020\321R;K\021\205\023\254"
  47      1014BB10 
  47      D1523B4B 
  47      118513AC 
  48 003d E2170451 		.ascii	"\342\027\004Q\317\367.\251]\330\367\336\0163\303\354"
  48      CFF72EA9 
  48      5DD8F7DE 
  48      0E33C3EC 
  49 004d AE452059 		.ascii	"\256E Y\227\334:\270\267\362\206&\250\314\015Q\262F"
  49      97DC3AB8 
  49      B7F28626 
  49      A8CC0D51 
ARM GAS  C:\Users\Greg\AppData\Local\Temp\ccVQeBG4.s 			page 3


  49      B246
  50 005f 0132981A 		.ascii	"\0012\230\032\320\202\302\002>\325\217Bq\321\277P]y"
  50      D082C202 
  50      3ED58F42 
  50      71D1BF50 
  50      5D79
  51 0071 C3EBC1F3 		.ascii	"\303\353\301\363\207\223\306k\3614Q\240B'B\036]\314"
  51      8793C66B 
  51      F13451A0 
  51      4227421E 
  51      5DCC
  52 0083 7A3FCD65 		.ascii	"z?\315e\353t;\210\347\327\233\322}cg\316\230\2241\331"
  52      EB743B88 
  52      E7D79BD2 
  52      7D6367CE 
  52      989431D9 
  53 0097 31A33D0D 		.ascii	"1\243=\015lC\263\002}1\364\304\210\001\302\016:\205"
  53      6C43B302 
  53      7D31F4C4 
  53      8801C20E 
  53      3A85
  54 00a9 FC78F2BB 		.ascii	"\374x\362\273\322`\247\305\276\275b\212]\330\022\363"
  54      D260A7C5 
  54      BEBD628A 
  54      5DD812F3 
  55 00b9 68A46082 		.ascii	"h\244`\202\3005\205S\373\352\314\256U,SZ\212\005\021"
  55      C0358553 
  55      FBEACCAE 
  55      552C535A 
  55      8A0511
  56 00cc 4764B4A5 		.ascii	"Gd\264\245D\245\020\225xK\374W\245\244k\037\305\257"
  56      44A51095 
  56      784BFC57 
  56      A5A46B1F 
  56      C5AF
  57 00de E5BB755B 		.ascii	"\345\273u[\374\\-WY\365\212\267\321\017\345i\035\346"
  57      FC5C2D57 
  57      59F58AB7 
  57      D10FE569 
  57      1DE6
  58 00f0 3CBF4C3E 		.ascii	"<\277L>\253\312q)\2351\026C\231\362\211\261\266\260"
  58      ABCA7129 
  58      9D311643 
  58      99F289B1 
  58      B6B0
  59 0102 914CC3D3 		.ascii	"\221L\303\323\026\366\021\303\036b\234\351\000[ \037"
  59      16F611C3 
  59      1E629CE9 
  59      005B201F 
  60 0112 EE77D54E 		.ascii	"\356w\325NW\034S\331\315\347z\261P\010\202\240\334\204"
  60      571C53D9 
  60      CDE77AB1 
  60      500882A0 
  60      DC84
  61 0124 4366FB48 		.ascii	"Cf\373H\275E+\264\210\253-\221\225\2522\201X\366\224"
  61      BD452BB4 
  61      88AB2D91 
ARM GAS  C:\Users\Greg\AppData\Local\Temp\ccVQeBG4.s 			page 4


  61      95AA3281 
  61      58F694
  62 0137 FF5DB345 		.ascii	"\377]\263E\026A3\216B\211[\256R\242\241\271\315Pq\025"
  62      1641338E 
  62      42895BAE 
  62      52A2A1B9 
  62      CD507115 
  63 014b 02FD17EB 		.ascii	"\002\375\027\353\230c\261\204^\220*\234_+\241\207\277"
  63      9863B184 
  63      5E902A9C 
  63      5F2BA187 
  63      BF
  64 015c 52529037 		.ascii	"RR\2207\340\027i\033rf\234\331\2119gj<\236\230\237\235"
  64      E017691B 
  64      72669CD9 
  64      8939676A 
  64      3C9E989F 
  65 0171 744687E3 		.ascii	"tF\207\343\211\201\376\321\301\336\236\356I\262\246"
  65      8981FED1 
  65      C1DE9EEE 
  65      49B2A6
  66 0180 1353CE1F 		.ascii	"\023S\316\037\345\244\233\336"
  66      E5A49BDE 
  67              		.text
  68              		.section	.gnu.lto_D10_Write.edc6a52b,"",%progbits
  69 0000 789C5551 		.ascii	"x\234UQMk\023Q\024\275\347\275\371\210\206\370\007\214"
  69      4D6B1351 
  69      14BDE7BD 
  69      F98886F8 
  69      078C
  70 0012 904D2D45 		.ascii	"\220M-E\220\210.\335U\350\266Xp\025\224\320\316.X\010"
  70      90882EDD 
  70      55E8B658 
  70      701594D0 
  70      CE2E5808 
  71 0026 B6DBBE7C 		.ascii	"\266\333\276|L\002uS\027\255\213b\212\024im\253\265"
  71      4C027553 
  71      17AD8B62 
  71      8A14696D 
  71      ABB5
  72 0038 8205C1C5 		.ascii	"\202\005\301\3058\233\356\"\242\210B+\245`D7FI\251\370"
  72      389BEE22 
  72      A288422B 
  72      A5604437 
  72      4649A9F8 
  73 004c 35DE3B03 		.ascii	"5\336;\003b.\363\346\2759s\316\231s\357X\004\222\032"
  73      622EF3E6 
  73      BD3973CE 
  73      9973EF58 
  73      04921A
  74 005f 56446778 		.ascii	"VDgx?\311\013\232\240\346\332D\225\224\002\344`R\240"
  74      3FC90B9A 
  74      A0E6DA44 
  74      959402E4 
  74      6052A0
  75 0072 1985191C 		.ascii	"\031\205\031\034\252\337\012a\263\363T\015\255\030\256"
  75      AADF0A61 
ARM GAS  C:\Users\Greg\AppData\Local\Temp\ccVQeBG4.s 			page 5


  75      B3F3540D 
  75      AD18AE
  76 0081 FD0F4779 		.ascii	"\375\017Gy\263\032\300\327D\221\212\235\010+\030b\326"
  76      B31AC0D7 
  76      44918A9D 
  76      082B1862 
  76      D6
  77 0092 C767CDD7 		.ascii	"\307g\315\327\3209\020\237\033\341a7=x\317\230\2521"
  77      D039109F 
  77      1BE16137 
  77      3D78CF98 
  77      AA31
  78 00a4 7B05A37D 		.ascii	"{\005\243}\015\254B\263\002\347\263\310g\211\001\302"
  78      0DAC42B3 
  78      02E7B3C8 
  78      678901C2 
  79 00b4 7D0C0AF9 		.ascii	"}\014\012\371Sx\263\244O\307\272\235\355[\021\006\226"
  79      5378B3A4 
  79      4FC7BA9D 
  79      ED5B1106 
  79      96
  80 00c5 4517BCDA 		.ascii	"E\027\274\332\311\3346A%'\332\265\377\265R\314=\330"
  80      C9DC3641 
  80      2527DAB5 
  80      FFB552CC 
  80      3DD8
  81 00d7 FA339F71 		.ascii	"\3723\237q\352\222*\207u\014$y\260\001\207;\204 \233"
  81      EA922A87 
  81      750C2479 
  81      B001873B 
  81      84209B
  82 00ea 97031345 		.ascii	"\227\003\023E5\023\274t\237\277u\217+\376\252\322|\323"
  82      3513BC74 
  82      9FBF758F 
  82      2BFEAAD2 
  82      7CD3
  83 00fc 16C96B1B 		.ascii	"\026\311k\033\222\300\021\300\215\201\224\020\210\272"
  83      92C011C0 
  83      8D819410 
  83      88BA
  84 010a BC64085F 		.ascii	"\274d\010_\225\222]w\020\376\230m\267\246\305\272\246"
  84      95925D77 
  84      10FE986D 
  84      B7A6C5BA 
  84      A6
  85 011b 65200B7E 		.ascii	"e \013~\370\302\355)_[q\352\237\355\336\227t\362h\352"
  85      F8C2ED29 
  85      5F5B71EA 
  85      9FEDDE97 
  85      74F268EA 
  86 012f 73C66268 		.ascii	"s\306bh\361\311\366^f\011w*u\036\225\215\207\310\342"
  86      F1C9F65E 
  86      6609772A 
  86      751E958D 
  86      87C8E2
  87 0142 01383A36 		.ascii	"\0018:6\261\004\352\240\372\255\271\253\022C\315\236"
  87      B104EAA0 
ARM GAS  C:\Users\Greg\AppData\Local\Temp\ccVQeBG4.s 			page 6


  87      FAADB9AB 
  87      1243CD9E 
  88 0152 8CD47E35 		.ascii	"\214\324~5v\221 \026\203\354\261\266\274\337:&\266\032"
  88      76912016 
  88      83ECB1B6 
  88      BCDF3A26 
  88      B61A
  89 0164 11E111CB 		.ascii	"\021\341\021\313\017\020k$+\263D\324m\274i]MT|\331\254"
  89      0F106B24 
  89      2BB344D4 
  89      6DBC695D 
  89      4D547CD9 
  90 0179 EACDFA47 		.ascii	"\352\315\372GZT\016\\l\261\210Y\337\377Y\273\261\273"
  90      5A540E5C 
  90      6CB18859 
  90      DFFF59BB 
  90      B1BB
  91 018b D3EFE426 		.ascii	"\323\357\344&\201\336\267.&\244T\002\205\013wO\010\320"
  91      81DEB72E 
  91      26A45402 
  91      850B774F 
  91      08D0
  92 019d D74EC598 		.ascii	"\327N\305\230t\177G\217\271#\326\320gT\203w#\"\210\377"
  92      747F478F 
  92      B923D6D0 
  92      67548377 
  92      232288FF 
  93 01b1 505741A6 		.ascii	"PWA\246\307\263<5\342]\367\312\305\033\336\304\265\261"
  93      C7B33C35 
  93      E25DF7CA 
  93      C51BDEC4 
  93      B5B1
  94 01c3 C9A9F2B8 		.ascii	"\311\251\362\270W\030\035\233\034\276P\270t.\177v\234"
  94      57181D9B 
  94      1CBE50B8 
  94      742E7F76 
  94      9C
  95 01d4 ECE96269 		.ascii	"\354\351bi\312\263'\312W\212\245\277t\001\307'"
  95      CAB327CA 
  95      578AA5BF 
  95      7401C727 
  96              		.text
  97              		.section	.gnu.lto_D10_Read.edc6a52b,"",%progbits
  98 0000 789C2D8F 		.ascii	"x\234-\217\275K\003A\020\305\347\355^>8\360/0\242m\032"
  98      BD4B0341 
  98      10C5E7ED 
  98      5E3E38F0 
  98      2F30A26D 
  99 0015 89686365 		.ascii	"\211hce\241h+\246\223\200H\274\326@\320:\233\334]\204"
  99      A1682BA6 
  99      938048BC 
  99      D640D03A 
  99      9BDC5D84 
 100 0029 60914683 		.ascii	"`\221F\203\205\2443\211\037\210(),\344\014\001\005\301"
 100      85A43389 
 100      1F882829 
 100      2CE40C01 
ARM GAS  C:\Users\Greg\AppData\Local\Temp\ccVQeBG4.s 			page 7


 100      05C1
 101 003b 74768288 		.ascii	"tv\202\210\244\260\212!\022\0205\316\346\034\330\231"
 101      A4B08A21 
 101      121035CE 
 101      E61CD899 
 102 004b DDD9DFBE 		.ascii	"\335\331\337\2767k\020H\307\034\227q\256\243\274 \011"
 102      376B1048 
 102      C71C9771 
 102      AEA3BC20 
 102      09
 103 005c A2F84894 		.ascii	"\242\370H\224\015\013@oT\030\224\021\310\340S\374\010"
 103      0D0B406F 
 103      54189411 
 103      C8E053FC 
 103      08
 104 006d 3CF4EF77 		.ascii	"<\364\357w\315hE\251\234zq\217fKU\017\256$\032\010\302"
 104      CD6845A9 
 104      9C7A718F 
 104      664B550F 
 104      AE241A08 
 105 0082 7404B188 		.ascii	"t\004\261\210\226\250 J\214\276^\374\356\215\004\035"
 105      96A8204A 
 105      8CBE5EFC 
 105      EE8D041D 
 106 0092 C531A101 		.ascii	"\3051\241\001\276\251\"\250-\317W<5\030\330\312\273"
 106      BEA922A8 
 106      2DCF573C 
 106      3518D8CA 
 106      BB
 107 00a3 346FEB26 		.ascii	"4o\353&\267\\\311\276\234\014\235\002\244\025\251\303"
 107      B75CC9BE 
 107      9C0C9D02 
 107      A415A9C3 
 108 00b3 2FB4FF87 		.ascii	"/\264\377\207\020\272\3126\032_\205\247\332\252\026"
 108      10BACA36 
 108      1A5F85A7 
 108      DAAA16
 109 00c2 B1A56483 		.ascii	"\261\245d\203}\267\321\012\365\204+\005\264\337u\251"
 109      7DB7D10A 
 109      F5842B05 
 109      B4DF75A9 
 110 00d2 7E23FDA3 		.ascii	"~#\375\243\343\024\225\301\255\326\363A\307,\3430\353"
 110      E31495C1 
 110      ADD6F341 
 110      C72CE330 
 110      EB
 111 00e3 F09412C7 		.ascii	"\360\224\022\307\210\240\006\236\021'(\203\332\260\273"
 111      88A0069E 
 111      11272883 
 111      DAB0BB
 112 00f2 8B644BF8 		.ascii	"\213dK\370r\275\202\333\037\2767\020\302)c|\377\235"
 112      72BD82DB 
 112      1FBE3710 
 112      C229637C 
 112      FF9D
 113 0104 6F067C43 		.ascii	"o\006|C\2039\206\256\232w\371\260\206\300q6\204r\335"
 113      833986AE 
ARM GAS  C:\Users\Greg\AppData\Local\Temp\ccVQeBG4.s 			page 8


 113      9A77F9B0 
 113      86C07136 
 113      8472DD
 114 0117 9D37F850 		.ascii	"\2357\370P\2009z\207\370?\321\360\033\320\343\363g\306"
 114      80397A87 
 114      F83FD1F0 
 114      1BD0E3F3 
 114      67C6
 115 0129 96AC4D2B 		.ascii	"\226\254M+\275\276em\254\305S\333\351\244\225X\216\247"
 115      BDBE656D 
 115      ACC553DB 
 115      E9A49558 
 115      8EA7
 116 013b E667120B 		.ascii	"\346g\022\013S\261\311$\375\001\252\275rx"
 116      53B1C924 
 116      FD01AABD 
 116      7278
 117              		.text
 118              		.section	.gnu.lto_D10_ReadDataReg.edc6a52b,"",%progbits
 119 0000 789C2D8F 		.ascii	"x\234-\217;KCA\020\205\347\354\336<0\344\027\030\321"
 119      3B4B4341 
 119      1085E7EC 
 119      DE3C30E4 
 119      1718D1
 120 0013 368D44B4 		.ascii	"6\215D\264\261\262P\264\025\323I@$\336\326@\320:\233"
 120      B1B250B4 
 120      15D34940 
 120      24DED640 
 120      D03A9B
 121 0026 C78D102C 		.ascii	"\307\215\020,\322\250EP\313D\215\210\370\250c\010(\010"
 121      D2A84550 
 121      CB448D88 
 121      F8A86308 
 121      2808
 122 0038 F1170822 		.ascii	"\361\027\010\"\222\302F\015\321\200\2578\223\353\300"
 122      92C2460D 
 122      D180AF38 
 122      93EBC0
 123 0047 CEECCE7E 		.ascii	"\316\354\316~{\316\254E \211).\303\\\007yA\023T\261"
 123      7BCEAC45 
 123      2089292E 
 123      C35C0779 
 123      411354B1 
 124 005b 4994F62B 		.ascii	"I\224\366+@6\306\017J)\244\360\256~\024n\2737\233\003"
 124      4036C60F 
 124      4A29A4F0 
 124      AE7E146E 
 124      BB379B03 
 125 006f E1B23119 		.ascii	"\341\2621\031\363\340\234M\356Tjp4QO\021\306C\210\204"
 125      F3E09C4D 
 125      EE546A70 
 125      34514F11 
 125      C6438884 
 126 0083 44A28C30 		.ascii	"D\242\21401\372x\372\273\025\364\346\014\307\210\000"
 126      31FA78FA 
 126      BB15F4E6 
 126      0CC78800 
ARM GAS  C:\Users\Greg\AppData\Local\Temp\ccVQeBG4.s 			page 9


 127 0093 7C538157 		.ascii	"|S\201W,O\026j\246\327\313\232Z)p\265\027\340\226\243"
 127      2C4F166A 
 127      A6D7CB9A 
 127      5A2970B5 
 127      17E096A3 
 128 00a7 D9979325 		.ascii	"\331\227\223%\311C\242H\257\374B\374\337\224\222\252"
 128      C943A248 
 128      AFFC42FC 
 128      DF9492AA 
 129 00b7 5BA87F16 		.ascii	"[\250\177\026>\252\213\"\222\325\232\015\266\235\372"
 129      3EAA8B22 
 129      92D59A0D 
 129      B69DFA
 130 00c6 9DAFA31C 		.ascii	"\235\257\243\034\255 ~_\315\316K\300=\232\\\321X\334"
 130      AD207E5F 
 130      CDCE4BC0 
 130      3D9A5CD1 
 130      58DC
 131 00d8 2A5D5CDE 		.ascii	"*]\\\336\007\367\261\233\316\361\224\032\207\010\341"
 131      07F7B19B 
 131      CEF1941A 
 131      8708E1
 132 00e7 003C238E 		.ascii	"\000<#\216\260\017j!\333\236\245\254\206+\327)8]-\357"
 132      B00F6A21 
 132      DB9EA5AC 
 132      862BD729 
 132      385D2DEF 
 133 00fb 2DF85065 		.ascii	"-\370Pe\214\357\277\363\015\217kh1\307\320y\343:\357"
 133      8CEFBFF3 
 133      0D8F6B68 
 133      31C7D079 
 133      E33AEF
 134 010e 17081CC7 		.ascii	"\027\010\034\307}(\323\336x\202\013y\230\243g\250\377"
 134      7D28D3DE 
 134      78820B79 
 134      98A367A8 
 134      FF
 135 011f 13F5BF01 		.ascii	"\023\365\277\001\031\237?34g\257\332\311\3455{e)\232"
 135      199F3F33 
 135      3467AFDA 
 135      C9E5357B 
 135      65299A
 136 0132 584FC6ED 		.ascii	"XO\306\355\330|41=\021\233\031\213\214\306\351\017\""
 136      D87C3431 
 136      3D119B19 
 136      8B8CC6E9 
 136      0F22
 137 0144 427316   		.ascii	"Bs\026"
 138              		.text
 139              		.section	.gnu.lto_D10_SetInterruptMode.edc6a52b,"",%progbits
 140 0000 789C6D51 		.ascii	"x\234mQMk\023Q\024\275\367\275If\222\264\243\013wV\310"
 140      4D6B1351 
 140      14BDF7BD 
 140      496692B4 
 140      A30B7756 
 141 0015 A6846C8A 		.ascii	"\246\204l\212\005\375\003Vp'\305n\013R\332(Y\230H\214"
 141      05FD0356 
ARM GAS  C:\Users\Greg\AppData\Local\Temp\ccVQeBG4.s 			page 10


 141      7027C56E 
 141      0B52DA28 
 141      5998488C 
 142 0029 EBBE6426 		.ascii	"\353\276d&)\224\"\305\322\200\305PT\206T\253\366\323"
 142      299422C5 
 142      D280C550 
 142      548654AB 
 142      F6D3
 143 003b 82C5C518 		.ascii	"\202\305\305\030\020\027~Q\255\024\025D*\246P\272H\253"
 143      10177E51 
 143      AD141544 
 143      2AA650BA 
 143      48AB
 144 004d A294DAF4 		.ascii	"\242\224\332\364\336\231l\012>\230y\357\036\3169\357"
 144      DE996C0A 
 144      3E9879EF 
 144      1ECE39EF 
 145 005d DCFB3440 		.ascii	"\334\3734@\340U\021\000\247i?N\037J@1\372\026 g\010"
 145      E0551100 
 145      A7693F4E 
 145      1F4A4031 
 145      FA162067 
 146 0072 443E2803 		.ascii	"D>(\003aP\340 \376\026\377\004V\207jOE\274\242h}\373"
 146      6150E020 
 146      FE16FF04 
 146      56876A4F 
 146      45BCA268 
 147 0088 B1D1A9A6 		.ascii	"\261\321\251\246\\,H\200\206\360\234\000+\030'\326\213"
 147      5C2C4880 
 147      86F09C00 
 147      2B1827D6 
 147      8B
 148 0099 C61FF7C8 		.ascii	"\306\037\367\310/Q\220\210,z_\177]\216p)\360(\225\023"
 148      2F519088 
 148      2C7A5F7F 
 148      5D8E7029 
 148      F0289513 
 149 00ad 9B4EC994 		.ascii	"\233N\311\224Q\004:o,\336]\013\307\034\245\362J\215"
 149      51043A6F 
 149      2CDE5D0B 
 149      C71CA5F2 
 149      4A8D
 150 00bf F7A94041 		.ascii	"\367\251@AJ|\200\222\374\360>\266\341\024\266\001A\200"
 150      4A7C8092 
 150      FCF03EB6 
 150      E114B601 
 150      4180
 151 00d1 D31823F6 		.ascii	"\323\030#\366\317\005g,\"\343\236r\307r\254\226\246"
 151      CF05672C 
 151      22E39E72 
 151      C772AC96 
 151      A6
 152 00e2 72ADA97C 		.ascii	"r\255\251|\370\037\345#\2141}\305\236\275-\375H\032"
 152      F81FE523 
 152      8C317DC5 
 152      9EBD2DFD 
 152      481A
ARM GAS  C:\Users\Greg\AppData\Local\Temp\ccVQeBG4.s 			page 11


 153 00f4 95DB6F26 		.ascii	"\225\333o&\276\233~\244(\225\323\316GG\310\016\317x"
 153      BE9B7EA4 
 153      2895D3CE 
 153      4747C80E 
 153      CF78
 154 0106 F8D3CDF9 		.ascii	"\370\323\315\371\326\366{l\354~\270a\336R\256\035-H"
 154      D6F67B6C 
 154      EC7EB861 
 154      DE52AE1D 
 154      2D48
 155 0118 0D677DF3 		.ascii	"\015g}\363\0312\177L\346\274\210\275>\267?\336\032\264"
 155      19327F4C 
 155      E6BC88BD 
 155      3EB73FDE 
 155      1AB4
 156 012a 7920519C 		.ascii	"y Q\234\303v\177\0248\217A\032.22s\301U\215\206\245"
 156      C3767F14 
 156      388F411A 
 156      2E323273 
 156      C1558D86 
 157 013f DC15F3F9 		.ascii	"\334\025\363\371g\263EP\254\000\245\240\2164>\006\370"
 157      67B34550 
 157      AC00A5A0 
 157      8E343E06 
 157      F8
 158 0150 170466EA 		.ascii	"\027\004f\352\310i\015\002\202!F\303\374\003\250\223"
 158      C8690D02 
 158      822146C3 
 158      FC03A893 
 159 0160 23BFC4B6 		.ascii	"#\277\304\266\020\274\313\032Vw\207\277.w\363%\226\344"
 159      10BCCB1A 
 159      567787BF 
 159      2E77F325 
 159      96E4
 160 0172 01970AD5 		.ascii	"\001\227\012\325w:w\243{\035\224\355\227g\374j\304\036"
 160      773A77A3 
 160      7B1D94ED 
 160      9767FC6A 
 160      C41E
 161 0184 55DCEEAB 		.ascii	"U\334\356\253\325\245]s\022\3139\233\236\313\300E\352"
 161      D5A55D73 
 161      12CB399B 
 161      9ECBC045 
 161      EA
 162 0195 61817BC0 		.ascii	"a\201{\300'8\211P\303\374\316\320\236\346\373i\026M"
 162      27388950 
 162      C3FCCED0 
 162      9EE6FB69 
 162      164D
 163 01a7 8D90FDE2 		.ascii	"\215\220\375\342\226\364\221\000\201\204X{\305-\364"
 163      96F49100 
 163      8184587B 
 163      C52DF4
 164 01b6 11BE9670 		.ascii	"\021\276\226pXG\341uJ\331\011\3649\265\345gM\226AN\226"
 164      5847E175 
 164      4AD909F4 
 164      39B5E567 
ARM GAS  C:\Users\Greg\AppData\Local\Temp\ccVQeBG4.s 			page 12


 164      4D96414E 
 165 01cb D43D7BDD 		.ascii	"\324={\335\207B\2042\355oq\265i\036\366\334B\004VKw"
 165      87428432 
 165      ED6F71B5 
 165      691EF6DC 
 165      4204564B 
 166 01e0 8E317628 		.ascii	"\2161v(nN\251\310\341\304K\224\230d\260\211y\367\313"
 166      6E4EA9C8 
 166      E1C44B94 
 166      9864B089 
 166      79F7CB
 167 01f3 7916784F 		.ascii	"y\026xOQ\027\310\303\241Q\2358\227H%2}\331\304\300\305"
 167      5117C8C3 
 167      A1519D38 
 167      97482532 
 167      7DD9C4C0 
 168 0208 9EF4F54C 		.ascii	"\236\364\365L\177\242\267\273'\335u\252\367l\347\311"
 168      7FA2B7BB 
 168      27DD75AA 
 168      F76CE7C9 
 169 0218 8E7E30AE 		.ascii	"\216~0\256\246\257%\263\311tJ\273\222\036H\350\311T"
 169      A6AF25B3 
 169      C9744ABB 
 169      921E48E8 
 169      C954
 170 022a 36D375E9 		.ascii	"6\323u\351\362\0013D\353|"
 170      F2013344 
 170      EB7C
 171              		.text
 172              		.section	.gnu.lto_D10_ClearInterrupt.edc6a52b,"",%progbits
 173 0000 789C5590 		.ascii	"x\234U\220\315K[A\024\305\357\231y\361E1\344\0170B6"
 173      CD4B5B41 
 173      14C5EF99 
 173      79F14531 
 173      E40F3042 
 174 0015 2E845294 		.ascii	".\204R\224\272\260\320]\205n\213\331\012\022\364\255"
 174      BAB0D05D 
 174      856E8BD9 
 174      0A12F4AD 
 175 0025 A40DC4B8 		.ascii	"\244\015\304\270\255\023\223gE\012\315\246\012\005Q"
 175      AD139367 
 175      450ACDA6 
 175      0A0551
 176 0034 108CDF1F 		.ascii	"\020\214\337\037\013\273)\221\327P\244\255\324\202\177"
 176      0BBB2991 
 176      D750A4AD 
 176      D4827F
 177 0043 8014852C 		.ascii	"\200\024\205,\004A\2036\320\244\211\367\346u\241\003"
 177      04418336 
 177      D0A489F7 
 177      E675A103 
 178 0053 8F9939EF 		.ascii	"\217\2319\357\236\337\234{-\002\311:\345\355\021\357"
 178      9EDF9C7B 
 178      2D02C93A 
 178      E5ED11EF 
 179 0063 1DFC4113 		.ascii	"\035\374A\023T\356\230(\035T\200\034L\0204\2510\211"
 179      54EE9828 
ARM GAS  C:\Users\Greg\AppData\Local\Temp\ccVQeBG4.s 			page 13


 179      1D54801C 
 179      4C1034A9 
 179      3089
 180 0075 5BF54FE1 		.ascii	"[\365O\341\250\362\355][w\336\230)\363\333\255<\235"
 180      A8F2ED5D 
 180      5B77DE98 
 180      29F3DBAD 
 180      3C9D
 181 0087 5FF5E06A 		.ascii	"_\365\340j\242\206\"<\211\240'\"\210<\272\211K\317\267"
 181      A286223C 
 181      89A02722 
 181      883CBA89 
 181      4BCFB7
 182 009a ABF9908E 		.ascii	"\253\371\220\216B\316?W.\367\321\265,6\257\360\276}"
 182      42CE3F57 
 182      2EF7D1B5 
 182      2C36AFF0 
 182      BE7D
 183 00ac DE78E928 		.ascii	"\336x\351(\373\260\012}\337JR{\266W\377\020j\311\032"
 183      FBB00A7D 
 183      DF4A527B 
 183      B657FF10 
 183      6AC91A
 184 00bf 5E51ACA1 		.ascii	"^Q\254\241K\340L]G\013\347\204(;\203\236i42\306\373"
 184      4BE04C5D 
 184      470BE784 
 184      283B839E 
 184      693432C6 
 185 00d4 1CFE7212 		.ascii	"\034\376r\022\016*r5\347v\265\262H~\007\344n\223\344"
 185      0E2A7235 
 185      E776B5B2 
 185      487E07E4 
 185      6E93E4
 186 00e7 A22BF64A 		.ascii	"\242+\366J\027\327J\311\256K(\376\235\375Sx#\270\214"
 186      17D74AC9 
 186      AE4B28FE 
 186      9DFD5378 
 186      23B88C
 187 00fa 968EE6DC 		.ascii	"\226\216\346\334\342/\373F\271Z7\223~\254.\315\300\277"
 187      E22FFB46 
 187      B95A3793 
 187      7EAC2ECD 
 187      C0BF
 188 010c E6B23963 		.ascii	"\346\2629c\261\344\376\310\037\265.b!\235\345^-l\"\202"
 188      B1E4FEC8 
 188      1FB52E62 
 188      219DE55E 
 188      2D6C2282 
 189 0120 0D705C6C 		.ascii	"\015p\\la\021T\302T\371mM\371@\315LV2\265\351\257\360"
 189      611154C2 
 189      54F96D4D 
 189      F940CD4C 
 189      5632B5E9 
 190 0136 158B4566 		.ascii	"\025\213Ef|*}?l\023\254\202\001\266\331~\206\246G\002"
 190      7C2A7D3F 
 190      6C13AC82 
 190      01B6D97E 
ARM GAS  C:\Users\Greg\AppData\Local\Temp\ccVQeBG4.s 			page 14


 190      86A64702 
 191 014a 73958FA9 		.ascii	"s\225\217\251\027\236\371\256\200/\025\347\232\224\007"
 191      179EF9AE 
 191      802F15E7 
 191      9A9407
 192 0159 19D2C604 		.ascii	"\031\322\306\004\036\306\330\341\030l\221w\313\323\207"
 192      1EC6D8E1 
 192      186C9177 
 192      CBD387
 193 0168 07FD3EC2 		.ascii	"\007\375>\302f\004\033of\335\212\226\207\003\260\261"
 193      66041B6F 
 193      66DD8A96 
 193      8703B0B1 
 194 0178 CBF517F8 		.ascii	"\313\365\027\370\237\325\246\346| s\341)u\276p^;\311"
 194      9FD5A6E6 
 194      7C2073E1 
 194      2975BE70 
 194      5E3BC9
 195 018b 78CA191D 		.ascii	"x\312\031\035\216%&\222#\316\320\313X\342y\337\320@"
 195      8E252692 
 195      23CED0CB 
 195      58E279DF 
 195      D040
 196 019d 6FCFE311 		.ascii	"o\317\343\021j\177\025\037\037sFc\251xjb\374\016U\007"
 196      6A7F151F 
 196      1F734663 
 196      A9786A62 
 196      FC0E5507 
 197 01b1 A98B     		.ascii	"\251\213"
 198              		.text
 199              		.section	.gnu.lto_.symbol_nodes.edc6a52b,"",%progbits
 200 0000 789C6361 		.ascii	"x\234ca`d\310`\000\002&\206z\006\206\011\347\030@\324"
 200      6064C860 
 200      00022686 
 200      7A068609 
 200      E71840D4 
 201 0014 AE0645A0 		.ascii	"\256\006E\240\000c=#\252\000S=\023\252\000s=3\252\000"
 201      00633D23 
 201      AA00533D 
 201      13AA0073 
 201      3D33AA00 
 202 0028 4B3D0BAA 		.ascii	"K=\013\252\000k=+\212\000\003\000\305\333\026\342"
 202      006B3D2B 
 202      8A000300 
 202      C5DB16E2 
 203              		.text
 204              		.section	.gnu.lto_.refs.edc6a52b,"",%progbits
 205 0000 789C6361 		.ascii	"x\234ca`\004B \000\000\0009\000\007"
 205      60044220 
 205      00000039 
 205      0007
 206              		.text
 207              		.section	.gnu.lto_.decls.edc6a52b,"",%progbits
 208 0000 789C8D54 		.ascii	"x\234\215T]L\024W\024\276gfvYf\021\010!\015\017\333"
 208      5D4C1457 
 208      14BE6766 
 208      76596611 
ARM GAS  C:\Users\Greg\AppData\Local\Temp\ccVQeBG4.s 			page 15


 208      08210D0F 
 209 0015 84FAB04B 		.ascii	"\204\372\260K\322\204\210\030\355\203\017M \265M\332"
 209      D2848818 
 209      ED830F4D 
 209      20B54DDA 
 210 0025 DA486A5F 		.ascii	"\332Hj_L\314\002\023Kb\300l\027\023\337n\024\324\266"
 210      4CCC0213 
 210      4B62C06C 
 210      1713DF6E 
 210      14D4B6
 211 0038 0F8514AD 		.ascii	"\017\205\024\255X\214\254D\313\317* \177\373\243\335"
 211      588CAC44 
 211      CBCF2A20 
 211      7FFBA3DD 
 212 0048 A5C28288 		.ascii	"\245\302\202\210\362\343\2231U\343j\214\332\244\370"
 212      F2E39331 
 212      55E36A8C 
 212      DAA4F8
 213 0057 9334D8E2 		.ascii	"\2234\330\342\366\334{gvF\273\244\334\354\271\277\347"
 213      F6DC7B67 
 213      7646BBA4 
 213      DCECB9BF 
 213      E7
 214 0068 7CE73BDF 		.ascii	"|\347;\337\234\254B\200\260\241\330\011\211\343\032"
 214      9CAC4280 
 214      B0A1D809 
 214      89E31A
 215 0077 C4630A47 		.ascii	"\304c\012G\026\356w\022s\3403\031B\033A\013\241E\320"
 215      16EE7712 
 215      73E03319 
 215      421B410B 
 215      A145D0
 216 008a 26D012E4 		.ascii	"&\320\022\344\277cH\367g\361\027\320<h\213h\363h\333"
 216      BF6348F7 
 216      67F117D0 
 216      3C688B68 
 216      F368DB
 217 009d 751FD0FD 		.ascii	"u\037\320\375\336\036\014?\353\255X\327*\361#\031\342"
 217      DE1E0C3F 
 217      EBAD58D7 
 217      2AF12319 
 217      E2
 218 00ae 1937DBFF 		.ascii	"\0317\333\377\344\015e\210\213\254!.\222!\216i\220\255"
 218      E40D6588 
 218      8BAC212E 
 218      92218E69 
 218      90AD
 219 00c0 F32D402B 		.ascii	"\363-@+D\213\241\315\3528n\013\226\2013\221\001\207"
 219      448BA1CD 
 219      EA386E0B 
 219      96813391 
 219      0187
 220 00d2 E9685F43 		.ascii	"\351h_C\315\231\364^\221`\276)1\346\270\015\267@\002"
 220      CD99F45E 
 220      9160BE29 
 220      31E6B80D 
 220      B74002
ARM GAS  C:\Users\Greg\AppData\Local\Temp\ccVQeBG4.s 			page 16


 221 00e5 FD831200 		.ascii	"\375\203\022\0001\0037\"\214\037q#\361\231\244\257\322"
 221      31033722 
 221      8C1F7123 
 221      F199A4AF 
 221      D2
 222 00f6 0B613311 		.ascii	"\013a3\021\376\374\316\004\343?cM\031\203\203\230\350"
 222      FEFCCE04 
 222      E33F634D 
 222      19838398 
 222      E8
 223 0107 A007419A 		.ascii	"\240\007A\232\201\210\022\357\222\201*\026\311\014\260"
 223      818812EF 
 223      92812A16 
 223      C90CB0
 224 0116 E009BA16 		.ascii	"\340\011\272\026N\360fM`\024\375\372\312\324\343\\\031"
 224      4EF0664D 
 224      6014FDFA 
 224      CAD4E35C 
 224      19
 225 0127 2BC6FDDD 		.ascii	"+\306\375\335\345\356\217J\203\024G\013\245\322\373"
 225      E5EE8F4A 
 225      8314470B 
 225      A5D2FB
 226 0136 A632FDCD 		.ascii	"\2462\375\315\017z\034/%p\251\220\002v\376#\274\274"
 226      0F7A1C2F 
 226      2570A990 
 226      0276FE23 
 226      BCBC
 227 0148 4E9CD973 		.ascii	"N\234\331s{k\362\265Sv\261\275t3\331\367X\201\022\365"
 227      7B6BF2B5 
 227      5376B1BD 
 227      7433D9F7 
 227      588112F5 
 228 015c 1C83B977 		.ascii	"\034\203\271wleK\230\322|\270\000*\004A\206\036(e\311"
 228      6C654B98 
 228      D27CB800 
 228      2A044186 
 228      1E2865C9 
 229 0170 5D2ACE47 		.ascii	"]*\316G)=H\227\316P{\021\201r\027lp\0218\017%\014\223"
 229      293D4897 
 229      CE507B11 
 229      8172176C 
 229      7011380F 
 230 0187 79411FB8 		.ascii	"yA\037\270\240\027\\\014\377\341O\247\237\332\025\011"
 230      A0175C0C 
 230      FFE14FA7 
 230      9FDA1509 
 231 0197 03194EB5 		.ascii	"\003\031N\265\302\356&S\177\305\363\220B\201\012\022"
 231      C2EE2653 
 231      7FC5F390 
 231      42810A12 
 232 01a7 1E179766 		.ascii	"\036\027\227fO9\361X\250B>\036o\264\335Z\204\242\343"
 232      4F39F158 
 232      A8423E1E 
 232      6FB4DD5A 
 232      84A2E3
 233 01ba 8C033D44 		.ascii	"\214\003=D\213%\330\371\016\014\"\340\000\002\022\270"
ARM GAS  C:\Users\Greg\AppData\Local\Temp\ccVQeBG4.s 			page 17


 233      8B25D8F9 
 233      0E0C22E0 
 233      000212B8 
 234 01ca 084538F7 		.ascii	"\010E8\367\203\242K\020M>\317^\337I;\007\350\275\366"
 234      83A24B10 
 234      4D3ECF5E 
 234      DF493B07 
 234      E8BDF6
 235 01dd C39F06BA 		.ascii	"\303\237\006\272\016\323y\214\373\220;B\267I\033\267"
 235      0ED3798C 
 235      FB903B42 
 235      B7491BB7 
 236 01ed 6CF9056E 		.ascii	"l\371\005n\243\230C\260\036c\177<2\276\262N\256\346"
 236      A39843B0 
 236      1E637F3C 
 236      32BEB24E 
 236      AEE6
 237 01ff 32B4765D 		.ascii	"2\264v]\216(\002'\036;\"\267\323\370A\204\2218\312\260"
 237      8E280227 
 237      1E3B22B7 
 237      D3F84184 
 237      9138CAB0 
 238 0213 89326C45 		.ascii	"\2112lE\031\341(\235\263\261\220S\336\313QN\265t\365"
 238      19E1289D 
 238      B3B19053 
 238      DECB514E 
 238      B574F5
 239 0226 3AADD459 		.ascii	":\255\324Y\315&\3671\316\275Z\247>\370}\347\035UO98"
 239      CD26F731 
 239      CEBD5AA7 
 239      3EF87DE7 
 239      1D554F39 
 240 023b 63A6442F 		.ascii	"c\246D/\0305S\216ZS\206x\312\340\317\317\036\344\310"
 240      1835538E 
 240      5A538678 
 240      CAE0CFCF 
 240      1EE4C8
 241 024e 8D3C65A0 		.ascii	"\215<e\240-\372D\027 ~\342Z\216\250\236c\204M\214\260"
 241      2DFA4417 
 241      207EE25A 
 241      8EA89E63 
 241      844D8CB0 
 242 0262 1523C231 		.ascii	"\025#\3021~\230jM:\345f\340 g_\375\275$\343\027pc\217"
 242      7E986A4D 
 242      3AE566E0 
 242      20675FFD 
 242      BD24E317 
 243 0279 A4644B93 		.ascii	"\244dK\223\270E\223t\007\022C\252|\222;K\035m\343\347"
 243      B8459374 
 243      071243AA 
 243      7C923B4B 
 243      1D6DE3E7 
 244 028d EDA096F0 		.ascii	"\355\240\226\360\036\3002\325\356\\\222.\022\342\330"
 244      1EC032D5 
 244      EE5C922E 
 244      12E2D8
 245 029c 066EBD0D 		.ascii	"\006n\275\015.\343\345%\274\324\373)\260\225\367S\014"
ARM GAS  C:\Users\Greg\AppData\Local\Temp\ccVQeBG4.s 			page 18


 245      2EE3E525 
 245      BCD4FB29 
 245      B095F753 
 245      0C
 246 02ad 35F9D5E4 		.ascii	"5\371\325\344\346V\205\034\307o\276\\\006\336(\261t"
 246      E656851C 
 246      C76FBE5C 
 246      06DE28B1 
 246      74
 247 02be A39CF9F3 		.ascii	"\243\234\371\363E\253#}7\016\374\262\367\311r\314\276"
 247      45AB237D 
 247      370EFCB2 
 247      F7C972CC 
 247      BE
 248 02cf 6A7F5CE1 		.ascii	"j\177\\\341\032\377f\364G{\357\325o\035F\177$\266'/"
 248      1AFF66F4 
 248      477BEFD5 
 248      6F1D467F 
 248      24B6272F 
 249 02e3 52DA8C71 		.ascii	"R\332\214q\012\363\203\250\311\"jUh\202+4\367\352\376"
 249      0AF383A8 
 249      C9226A55 
 249      68822B34 
 249      F7EAFE
 250 02f6 3F200784 		.ascii	"? \007\204B\347\356\267\0343d\016\317\275\371\261&M"
 250      42E7EEB7 
 250      1C33640E 
 250      CFBDF9B1 
 250      264D
 251 0308 98492B4C 		.ascii	"\230I+L\202\303,4\015t\310\242\331\025<>\273~2\231+"
 251      82C32C34 
 251      0D74C8A2 
 251      D9153C3E 
 251      BB7E3299 
 252 031d 9ABD188F 		.ascii	"\232\275\030\217\277O\367\364\261W\017S>\225\312\263"
 252      BF4FF7F4 
 252      B1570F53 
 252      3E95CAB3 
 253 032d 68EF11DA 		.ascii	"h\357\021\332\317\334}\370<[\036\026\332\217v\235~a"
 253      CFDC7DF8 
 253      3C5B1E16 
 253      DA8F769D 
 253      7E61
 254 033f 33B46F39 		.ascii	"3\264o9D\013\246Q\373i,~\212i\177\035\265\367\350\332"
 254      440BA651 
 254      FB692C7E 
 254      8A697F1D 
 254      B5F7E8DA 
 255 0353 CFE0E555 		.ascii	"\317\340\345US\373\263B\373Y\224\361\232I\327\243k\037"
 255      53FBB342 
 255      FB5994F1 
 255      9A49D7A3 
 255      6B1F
 256 0365 09F69F90 		.ascii	"\011\366\237\220\325\243L\3175\201\262\220;\264\303"
 256      D5A34CCF 
 256      3581B290 
 256      3BB4C3
ARM GAS  C:\Users\Greg\AppData\Local\Temp\ccVQeBG4.s 			page 19


 257 0374 264705AD 		.ascii	"&G\005\255p\350i0W\320\312\200\260\260\032\255\370\330"
 257      70E86930 
 257      57D0CA80 
 257      B0B01AAD 
 257      F8D8
 258 0386 A38F9B28 		.ascii	"\243\217\233(\005\230GZs&\255\033\240\363\032\235^\030"
 258      0598475A 
 258      7326AD1B 
 258      A0F31A9D 
 258      5E18
 259 0398 C9CAF9CE 		.ascii	"\311\312\371\316,\226{\032\300\004\026!\207\377+\262"
 259      2C967B1A 
 259      C0041621 
 259      87FF2BB2 
 260 03a8 35BFB26C 		.ascii	"5\277\262l\303\356*\315_\351\253\333\257}\326P\2539"
 260      C3EE2ACD 
 260      5FE9ABDB 
 260      AF7DD650 
 260      AB39
 261 03ba B67DFE65 		.ascii	"\266}\376eqEY\031\2615\326\325\373?xo\233V\257\371\274"
 261      71455919 
 261      B135D6D5 
 261      FB3F786F 
 261      9B56AFF9 
 262 03cf 7EAD7677 		.ascii	"~\255vwUC\243\257F\333\365EUC\305\246]5\007\374\007"
 262      5543A3AF 
 262      46DBF545 
 262      5543C5A6 
 262      5D3507FC 
 263 03e4 F669DF94 		.ascii	"\366i\337\224~M\336]\305\003\201KkH6\303\377\312W\347"
 263      7E4DDE5D 
 263      C503814B 
 263      6B4836C3 
 263      FFCA57E7 
 264 03f8 D71C6CB7 		.ascii	"\327\034l\267C\363\326\346\031\233J\257\337\273C\333"
 264      43F3D6E6 
 264      199B4AAF 
 264      DFBB43DB 
 265 0408 53A853F8 		.ascii	"S\250S\370\244\336\257\371|\215\373\374\214\206\235"
 265      A4DEAFF9 
 265      7C8DFBFC 
 265      8C869D
 266 0417 652FDB5C 		.ascii	"e/\333\\\300\336*\366j^_\372\225\277\224o\264\371\264"
 266      C0DE2AF6 
 266      6A5E5FFA 
 266      95BF946F 
 266      B4F9B4
 267 042a 3DE51BFF 		.ascii	"=\345\033\377\0054G\017\243"
 267      0534470F 
 267      A3
 268              		.text
 269              		.section	.gnu.lto_.symtab.edc6a52b,"",%progbits
 270 0000 4431305F 		.ascii	"D10_SetDriveMode\000"
 270      53657444 
 270      72697665 
 270      4D6F6465 
 270      00
ARM GAS  C:\Users\Greg\AppData\Local\Temp\ccVQeBG4.s 			page 20


 271 0011 00       		.ascii	"\000"
 272 0012 00       		.ascii	"\000"
 273 0013 00       		.ascii	"\000"
 274 0014 00000000 		.ascii	"\000\000\000\000\000\000\000\000"
 274      00000000 
 275 001c B3000000 		.ascii	"\263\000\000\000"
 276 0020 4431305F 		.ascii	"D10_Write\000"
 276      57726974 
 276      6500
 277 002a 00       		.ascii	"\000"
 278 002b 00       		.ascii	"\000"
 279 002c 00       		.ascii	"\000"
 280 002d 00000000 		.ascii	"\000\000\000\000\000\000\000\000"
 280      00000000 
 281 0035 B5000000 		.ascii	"\265\000\000\000"
 282 0039 4431305F 		.ascii	"D10_Read\000"
 282      52656164 
 282      00
 283 0042 00       		.ascii	"\000"
 284 0043 00       		.ascii	"\000"
 285 0044 00       		.ascii	"\000"
 286 0045 00000000 		.ascii	"\000\000\000\000\000\000\000\000"
 286      00000000 
 287 004d B8000000 		.ascii	"\270\000\000\000"
 288 0051 4431305F 		.ascii	"D10_ReadDataReg\000"
 288      52656164 
 288      44617461 
 288      52656700 
 289 0061 00       		.ascii	"\000"
 290 0062 00       		.ascii	"\000"
 291 0063 00       		.ascii	"\000"
 292 0064 00000000 		.ascii	"\000\000\000\000\000\000\000\000"
 292      00000000 
 293 006c BA000000 		.ascii	"\272\000\000\000"
 294 0070 4431305F 		.ascii	"D10_SetInterruptMode\000"
 294      53657449 
 294      6E746572 
 294      72757074 
 294      4D6F6465 
 295 0085 00       		.ascii	"\000"
 296 0086 00       		.ascii	"\000"
 297 0087 00       		.ascii	"\000"
 298 0088 00000000 		.ascii	"\000\000\000\000\000\000\000\000"
 298      00000000 
 299 0090 C4000000 		.ascii	"\304\000\000\000"
 300 0094 4431305F 		.ascii	"D10_ClearInterrupt\000"
 300      436C6561 
 300      72496E74 
 300      65727275 
 300      707400
 301 00a7 00       		.ascii	"\000"
 302 00a8 00       		.ascii	"\000"
 303 00a9 00       		.ascii	"\000"
 304 00aa 00000000 		.ascii	"\000\000\000\000\000\000\000\000"
 304      00000000 
 305 00b2 C6000000 		.ascii	"\306\000\000\000"
 306              		.text
ARM GAS  C:\Users\Greg\AppData\Local\Temp\ccVQeBG4.s 			page 21


 307              		.section	.gnu.lto_.opts,"",%progbits
 308 0000 272D666D 		.ascii	"'-fmath-errno' '-fsigned-zeros' '-ftrapping-math' '"
 308      6174682D 
 308      6572726E 
 308      6F272027 
 308      2D667369 
 309 0033 2D666E6F 		.ascii	"-fno-trapv' '-fno-openmp' '-fno-openacc' '-mcpu=cor"
 309      2D747261 
 309      70762720 
 309      272D666E 
 309      6F2D6F70 
 310 0066 7465782D 		.ascii	"tex-m0' '-mthumb' '-g' '-Os' '-ffunction-sections' "
 310      6D302720 
 310      272D6D74 
 310      68756D62 
 310      2720272D 
 311 0099 272D6666 		.ascii	"'-ffat-lto-objects' '-flto'\000"
 311      61742D6C 
 311      746F2D6F 
 311      626A6563 
 311      74732720 
 312              		.text
 313              		.cfi_sections	.debug_frame
 314              		.section	.text.D10_SetDriveMode,"ax",%progbits
 315              		.align	1
 316              		.global	D10_SetDriveMode
 317              		.code	16
 318              		.thumb_func
 319              		.type	D10_SetDriveMode, %function
 320              	D10_SetDriveMode:
 321              	.LFB0:
 322              		.file 1 "Generated_Source\\PSoC4\\D10.c"
   1:Generated_Source\PSoC4/D10.c **** /*******************************************************************************
   2:Generated_Source\PSoC4/D10.c **** * File Name: D10.c  
   3:Generated_Source\PSoC4/D10.c **** * Version 2.20
   4:Generated_Source\PSoC4/D10.c **** *
   5:Generated_Source\PSoC4/D10.c **** * Description:
   6:Generated_Source\PSoC4/D10.c **** *  This file contains API to enable firmware control of a Pins component.
   7:Generated_Source\PSoC4/D10.c **** *
   8:Generated_Source\PSoC4/D10.c **** ********************************************************************************
   9:Generated_Source\PSoC4/D10.c **** * Copyright 2008-2015, Cypress Semiconductor Corporation.  All rights reserved.
  10:Generated_Source\PSoC4/D10.c **** * You may use this file only in accordance with the license, terms, conditions, 
  11:Generated_Source\PSoC4/D10.c **** * disclaimers, and limitations in the end user license agreement accompanying 
  12:Generated_Source\PSoC4/D10.c **** * the software package with which this file was provided.
  13:Generated_Source\PSoC4/D10.c **** *******************************************************************************/
  14:Generated_Source\PSoC4/D10.c **** 
  15:Generated_Source\PSoC4/D10.c **** #include "cytypes.h"
  16:Generated_Source\PSoC4/D10.c **** #include "D10.h"
  17:Generated_Source\PSoC4/D10.c **** 
  18:Generated_Source\PSoC4/D10.c **** 
  19:Generated_Source\PSoC4/D10.c **** #if defined(D10__PC)
  20:Generated_Source\PSoC4/D10.c ****     #define D10_SetP4PinDriveMode(shift, mode)  \
  21:Generated_Source\PSoC4/D10.c ****     do { \
  22:Generated_Source\PSoC4/D10.c ****         D10_PC =   (D10_PC & \
  23:Generated_Source\PSoC4/D10.c ****                                 (uint32)(~(uint32)(D10_DRIVE_MODE_IND_MASK << \
  24:Generated_Source\PSoC4/D10.c ****                                 (D10_DRIVE_MODE_BITS * (shift))))) | \
  25:Generated_Source\PSoC4/D10.c ****                                 (uint32)((uint32)(mode) << \
ARM GAS  C:\Users\Greg\AppData\Local\Temp\ccVQeBG4.s 			page 22


  26:Generated_Source\PSoC4/D10.c ****                                 (D10_DRIVE_MODE_BITS * (shift))); \
  27:Generated_Source\PSoC4/D10.c ****     } while (0)
  28:Generated_Source\PSoC4/D10.c **** #else
  29:Generated_Source\PSoC4/D10.c ****     #if (CY_PSOC4_4200L)
  30:Generated_Source\PSoC4/D10.c ****         #define D10_SetP4PinDriveMode(shift, mode)  \
  31:Generated_Source\PSoC4/D10.c ****         do { \
  32:Generated_Source\PSoC4/D10.c ****             D10_USBIO_CTRL_REG = (D10_USBIO_CTRL_REG & \
  33:Generated_Source\PSoC4/D10.c ****                                     (uint32)(~(uint32)(D10_DRIVE_MODE_IND_MASK << \
  34:Generated_Source\PSoC4/D10.c ****                                     (D10_DRIVE_MODE_BITS * (shift))))) | \
  35:Generated_Source\PSoC4/D10.c ****                                     (uint32)((uint32)(mode) << \
  36:Generated_Source\PSoC4/D10.c ****                                     (D10_DRIVE_MODE_BITS * (shift))); \
  37:Generated_Source\PSoC4/D10.c ****         } while (0)
  38:Generated_Source\PSoC4/D10.c ****     #endif
  39:Generated_Source\PSoC4/D10.c **** #endif
  40:Generated_Source\PSoC4/D10.c ****   
  41:Generated_Source\PSoC4/D10.c **** 
  42:Generated_Source\PSoC4/D10.c **** #if defined(D10__PC) || (CY_PSOC4_4200L) 
  43:Generated_Source\PSoC4/D10.c ****     /*******************************************************************************
  44:Generated_Source\PSoC4/D10.c ****     * Function Name: D10_SetDriveMode
  45:Generated_Source\PSoC4/D10.c ****     ****************************************************************************//**
  46:Generated_Source\PSoC4/D10.c ****     *
  47:Generated_Source\PSoC4/D10.c ****     * \brief Sets the drive mode for each of the Pins component's pins.
  48:Generated_Source\PSoC4/D10.c ****     * 
  49:Generated_Source\PSoC4/D10.c ****     * <b>Note</b> This affects all pins in the Pins component instance. Use the
  50:Generated_Source\PSoC4/D10.c ****     * Per-Pin APIs if you wish to control individual pin's drive modes.
  51:Generated_Source\PSoC4/D10.c ****     *
  52:Generated_Source\PSoC4/D10.c ****     * <b>Note</b> USBIOs have limited drive functionality. Refer to the Drive Mode
  53:Generated_Source\PSoC4/D10.c ****     * parameter for more information.
  54:Generated_Source\PSoC4/D10.c ****     *
  55:Generated_Source\PSoC4/D10.c ****     * \param mode
  56:Generated_Source\PSoC4/D10.c ****     *  Mode for the selected signals. Valid options are documented in 
  57:Generated_Source\PSoC4/D10.c ****     *  \ref driveMode.
  58:Generated_Source\PSoC4/D10.c ****     *
  59:Generated_Source\PSoC4/D10.c ****     * \return
  60:Generated_Source\PSoC4/D10.c ****     *  None
  61:Generated_Source\PSoC4/D10.c ****     *
  62:Generated_Source\PSoC4/D10.c ****     * \sideeffect
  63:Generated_Source\PSoC4/D10.c ****     *  If you use read-modify-write operations that are not atomic, the ISR can
  64:Generated_Source\PSoC4/D10.c ****     *  cause corruption of this function. An ISR that interrupts this function 
  65:Generated_Source\PSoC4/D10.c ****     *  and performs writes to the Pins component Drive Mode registers can cause 
  66:Generated_Source\PSoC4/D10.c ****     *  corrupted port data. To avoid this issue, you should either use the Per-Pin
  67:Generated_Source\PSoC4/D10.c ****     *  APIs (primary method) or disable interrupts around this function.
  68:Generated_Source\PSoC4/D10.c ****     *
  69:Generated_Source\PSoC4/D10.c ****     * \funcusage
  70:Generated_Source\PSoC4/D10.c ****     *  \snippet D10_SUT.c usage_D10_SetDriveMode
  71:Generated_Source\PSoC4/D10.c ****     *******************************************************************************/
  72:Generated_Source\PSoC4/D10.c ****     void D10_SetDriveMode(uint8 mode)
  73:Generated_Source\PSoC4/D10.c ****     {
 323              		.loc 1 73 0
 324              		.cfi_startproc
 325              		@ args = 0, pretend = 0, frame = 0
 326              		@ frame_needed = 0, uses_anonymous_args = 0
 327              		@ link register save eliminated.
 328              	.LVL0:
  74:Generated_Source\PSoC4/D10.c **** 		D10_SetP4PinDriveMode(D10__0__SHIFT, mode);
 329              		.loc 1 74 0
 330 0000 034A     		ldr	r2, .L2
ARM GAS  C:\Users\Greg\AppData\Local\Temp\ccVQeBG4.s 			page 23


 331 0002 044B     		ldr	r3, .L2+4
 332 0004 1168     		ldr	r1, [r2]
 333 0006 4005     		lsls	r0, r0, #21
 334              	.LVL1:
 335 0008 0B40     		ands	r3, r1
 336 000a 1843     		orrs	r0, r3
 337 000c 1060     		str	r0, [r2]
  75:Generated_Source\PSoC4/D10.c ****     }
 338              		.loc 1 75 0
 339              		@ sp needed
 340 000e 7047     		bx	lr
 341              	.L3:
 342              		.align	2
 343              	.L2:
 344 0010 08020440 		.word	1074004488
 345 0014 FFFF1FFF 		.word	-14680065
 346              		.cfi_endproc
 347              	.LFE0:
 348              		.size	D10_SetDriveMode, .-D10_SetDriveMode
 349              		.section	.text.D10_Write,"ax",%progbits
 350              		.align	1
 351              		.global	D10_Write
 352              		.code	16
 353              		.thumb_func
 354              		.type	D10_Write, %function
 355              	D10_Write:
 356              	.LFB1:
  76:Generated_Source\PSoC4/D10.c **** #endif
  77:Generated_Source\PSoC4/D10.c **** 
  78:Generated_Source\PSoC4/D10.c **** 
  79:Generated_Source\PSoC4/D10.c **** /*******************************************************************************
  80:Generated_Source\PSoC4/D10.c **** * Function Name: D10_Write
  81:Generated_Source\PSoC4/D10.c **** ****************************************************************************//**
  82:Generated_Source\PSoC4/D10.c **** *
  83:Generated_Source\PSoC4/D10.c **** * \brief Writes the value to the physical port (data output register), masking
  84:Generated_Source\PSoC4/D10.c **** *  and shifting the bits appropriately. 
  85:Generated_Source\PSoC4/D10.c **** *
  86:Generated_Source\PSoC4/D10.c **** * The data output register controls the signal applied to the physical pin in 
  87:Generated_Source\PSoC4/D10.c **** * conjunction with the drive mode parameter. This function avoids changing 
  88:Generated_Source\PSoC4/D10.c **** * other bits in the port by using the appropriate method (read-modify-write or
  89:Generated_Source\PSoC4/D10.c **** * bit banding).
  90:Generated_Source\PSoC4/D10.c **** *
  91:Generated_Source\PSoC4/D10.c **** * <b>Note</b> This function should not be used on a hardware digital output pin 
  92:Generated_Source\PSoC4/D10.c **** * as it is driven by the hardware signal attached to it.
  93:Generated_Source\PSoC4/D10.c **** *
  94:Generated_Source\PSoC4/D10.c **** * \param value
  95:Generated_Source\PSoC4/D10.c **** *  Value to write to the component instance.
  96:Generated_Source\PSoC4/D10.c **** *
  97:Generated_Source\PSoC4/D10.c **** * \return 
  98:Generated_Source\PSoC4/D10.c **** *  None 
  99:Generated_Source\PSoC4/D10.c **** *
 100:Generated_Source\PSoC4/D10.c **** * \sideeffect
 101:Generated_Source\PSoC4/D10.c **** *  If you use read-modify-write operations that are not atomic; the Interrupt 
 102:Generated_Source\PSoC4/D10.c **** *  Service Routines (ISR) can cause corruption of this function. An ISR that 
 103:Generated_Source\PSoC4/D10.c **** *  interrupts this function and performs writes to the Pins component data 
 104:Generated_Source\PSoC4/D10.c **** *  register can cause corrupted port data. To avoid this issue, you should 
 105:Generated_Source\PSoC4/D10.c **** *  either use the Per-Pin APIs (primary method) or disable interrupts around 
ARM GAS  C:\Users\Greg\AppData\Local\Temp\ccVQeBG4.s 			page 24


 106:Generated_Source\PSoC4/D10.c **** *  this function.
 107:Generated_Source\PSoC4/D10.c **** *
 108:Generated_Source\PSoC4/D10.c **** * \funcusage
 109:Generated_Source\PSoC4/D10.c **** *  \snippet D10_SUT.c usage_D10_Write
 110:Generated_Source\PSoC4/D10.c **** *******************************************************************************/
 111:Generated_Source\PSoC4/D10.c **** void D10_Write(uint8 value)
 112:Generated_Source\PSoC4/D10.c **** {
 357              		.loc 1 112 0
 358              		.cfi_startproc
 359              		@ args = 0, pretend = 0, frame = 0
 360              		@ frame_needed = 0, uses_anonymous_args = 0
 361              		@ link register save eliminated.
 362              	.LVL2:
 113:Generated_Source\PSoC4/D10.c ****     uint8 drVal = (uint8)(D10_DR & (uint8)(~D10_MASK));
 363              		.loc 1 113 0
 364 0000 7F23     		movs	r3, #127
 365 0002 044A     		ldr	r2, .L5
 114:Generated_Source\PSoC4/D10.c ****     drVal = (drVal | ((uint8)(value << D10_SHIFT) & D10_MASK));
 115:Generated_Source\PSoC4/D10.c ****     D10_DR = (uint32)drVal;
 366              		.loc 1 115 0
 367 0004 C001     		lsls	r0, r0, #7
 368              	.LVL3:
 113:Generated_Source\PSoC4/D10.c ****     uint8 drVal = (uint8)(D10_DR & (uint8)(~D10_MASK));
 369              		.loc 1 113 0
 370 0006 1168     		ldr	r1, [r2]
 116:Generated_Source\PSoC4/D10.c **** }
 371              		.loc 1 116 0
 372              		@ sp needed
 113:Generated_Source\PSoC4/D10.c ****     uint8 drVal = (uint8)(D10_DR & (uint8)(~D10_MASK));
 373              		.loc 1 113 0
 374 0008 0B40     		ands	r3, r1
 115:Generated_Source\PSoC4/D10.c **** }
 375              		.loc 1 115 0
 376 000a 1843     		orrs	r0, r3
 377 000c C0B2     		uxtb	r0, r0
 378 000e 1060     		str	r0, [r2]
 379              		.loc 1 116 0
 380 0010 7047     		bx	lr
 381              	.L6:
 382 0012 C046     		.align	2
 383              	.L5:
 384 0014 00020440 		.word	1074004480
 385              		.cfi_endproc
 386              	.LFE1:
 387              		.size	D10_Write, .-D10_Write
 388              		.section	.text.D10_Read,"ax",%progbits
 389              		.align	1
 390              		.global	D10_Read
 391              		.code	16
 392              		.thumb_func
 393              		.type	D10_Read, %function
 394              	D10_Read:
 395              	.LFB2:
 117:Generated_Source\PSoC4/D10.c **** 
 118:Generated_Source\PSoC4/D10.c **** 
 119:Generated_Source\PSoC4/D10.c **** /*******************************************************************************
 120:Generated_Source\PSoC4/D10.c **** * Function Name: D10_Read
ARM GAS  C:\Users\Greg\AppData\Local\Temp\ccVQeBG4.s 			page 25


 121:Generated_Source\PSoC4/D10.c **** ****************************************************************************//**
 122:Generated_Source\PSoC4/D10.c **** *
 123:Generated_Source\PSoC4/D10.c **** * \brief Reads the associated physical port (pin status register) and masks 
 124:Generated_Source\PSoC4/D10.c **** *  the required bits according to the width and bit position of the component
 125:Generated_Source\PSoC4/D10.c **** *  instance. 
 126:Generated_Source\PSoC4/D10.c **** *
 127:Generated_Source\PSoC4/D10.c **** * The pin's status register returns the current logic level present on the 
 128:Generated_Source\PSoC4/D10.c **** * physical pin.
 129:Generated_Source\PSoC4/D10.c **** *
 130:Generated_Source\PSoC4/D10.c **** * \return 
 131:Generated_Source\PSoC4/D10.c **** *  The current value for the pins in the component as a right justified number.
 132:Generated_Source\PSoC4/D10.c **** *
 133:Generated_Source\PSoC4/D10.c **** * \funcusage
 134:Generated_Source\PSoC4/D10.c **** *  \snippet D10_SUT.c usage_D10_Read  
 135:Generated_Source\PSoC4/D10.c **** *******************************************************************************/
 136:Generated_Source\PSoC4/D10.c **** uint8 D10_Read(void)
 137:Generated_Source\PSoC4/D10.c **** {
 396              		.loc 1 137 0
 397              		.cfi_startproc
 398              		@ args = 0, pretend = 0, frame = 0
 399              		@ frame_needed = 0, uses_anonymous_args = 0
 400              		@ link register save eliminated.
 138:Generated_Source\PSoC4/D10.c ****     return (uint8)((D10_PS & D10_MASK) >> D10_SHIFT);
 401              		.loc 1 138 0
 402 0000 024B     		ldr	r3, .L8
 139:Generated_Source\PSoC4/D10.c **** }
 403              		.loc 1 139 0
 404              		@ sp needed
 138:Generated_Source\PSoC4/D10.c ****     return (uint8)((D10_PS & D10_MASK) >> D10_SHIFT);
 405              		.loc 1 138 0
 406 0002 1868     		ldr	r0, [r3]
 407 0004 0006     		lsls	r0, r0, #24
 408 0006 C00F     		lsrs	r0, r0, #31
 409              		.loc 1 139 0
 410 0008 7047     		bx	lr
 411              	.L9:
 412 000a C046     		.align	2
 413              	.L8:
 414 000c 04020440 		.word	1074004484
 415              		.cfi_endproc
 416              	.LFE2:
 417              		.size	D10_Read, .-D10_Read
 418              		.section	.text.D10_ReadDataReg,"ax",%progbits
 419              		.align	1
 420              		.global	D10_ReadDataReg
 421              		.code	16
 422              		.thumb_func
 423              		.type	D10_ReadDataReg, %function
 424              	D10_ReadDataReg:
 425              	.LFB3:
 140:Generated_Source\PSoC4/D10.c **** 
 141:Generated_Source\PSoC4/D10.c **** 
 142:Generated_Source\PSoC4/D10.c **** /*******************************************************************************
 143:Generated_Source\PSoC4/D10.c **** * Function Name: D10_ReadDataReg
 144:Generated_Source\PSoC4/D10.c **** ****************************************************************************//**
 145:Generated_Source\PSoC4/D10.c **** *
 146:Generated_Source\PSoC4/D10.c **** * \brief Reads the associated physical port's data output register and masks 
ARM GAS  C:\Users\Greg\AppData\Local\Temp\ccVQeBG4.s 			page 26


 147:Generated_Source\PSoC4/D10.c **** *  the correct bits according to the width and bit position of the component 
 148:Generated_Source\PSoC4/D10.c **** *  instance. 
 149:Generated_Source\PSoC4/D10.c **** *
 150:Generated_Source\PSoC4/D10.c **** * The data output register controls the signal applied to the physical pin in 
 151:Generated_Source\PSoC4/D10.c **** * conjunction with the drive mode parameter. This is not the same as the 
 152:Generated_Source\PSoC4/D10.c **** * preferred D10_Read() API because the 
 153:Generated_Source\PSoC4/D10.c **** * D10_ReadDataReg() reads the data register instead of the status 
 154:Generated_Source\PSoC4/D10.c **** * register. For output pins this is a useful function to determine the value 
 155:Generated_Source\PSoC4/D10.c **** * just written to the pin.
 156:Generated_Source\PSoC4/D10.c **** *
 157:Generated_Source\PSoC4/D10.c **** * \return 
 158:Generated_Source\PSoC4/D10.c **** *  The current value of the data register masked and shifted into a right 
 159:Generated_Source\PSoC4/D10.c **** *  justified number for the component instance.
 160:Generated_Source\PSoC4/D10.c **** *
 161:Generated_Source\PSoC4/D10.c **** * \funcusage
 162:Generated_Source\PSoC4/D10.c **** *  \snippet D10_SUT.c usage_D10_ReadDataReg 
 163:Generated_Source\PSoC4/D10.c **** *******************************************************************************/
 164:Generated_Source\PSoC4/D10.c **** uint8 D10_ReadDataReg(void)
 165:Generated_Source\PSoC4/D10.c **** {
 426              		.loc 1 165 0
 427              		.cfi_startproc
 428              		@ args = 0, pretend = 0, frame = 0
 429              		@ frame_needed = 0, uses_anonymous_args = 0
 430              		@ link register save eliminated.
 166:Generated_Source\PSoC4/D10.c ****     return (uint8)((D10_DR & D10_MASK) >> D10_SHIFT);
 431              		.loc 1 166 0
 432 0000 024B     		ldr	r3, .L11
 167:Generated_Source\PSoC4/D10.c **** }
 433              		.loc 1 167 0
 434              		@ sp needed
 166:Generated_Source\PSoC4/D10.c ****     return (uint8)((D10_DR & D10_MASK) >> D10_SHIFT);
 435              		.loc 1 166 0
 436 0002 1868     		ldr	r0, [r3]
 437 0004 0006     		lsls	r0, r0, #24
 438 0006 C00F     		lsrs	r0, r0, #31
 439              		.loc 1 167 0
 440 0008 7047     		bx	lr
 441              	.L12:
 442 000a C046     		.align	2
 443              	.L11:
 444 000c 00020440 		.word	1074004480
 445              		.cfi_endproc
 446              	.LFE3:
 447              		.size	D10_ReadDataReg, .-D10_ReadDataReg
 448              		.section	.text.D10_SetInterruptMode,"ax",%progbits
 449              		.align	1
 450              		.global	D10_SetInterruptMode
 451              		.code	16
 452              		.thumb_func
 453              		.type	D10_SetInterruptMode, %function
 454              	D10_SetInterruptMode:
 455              	.LFB4:
 168:Generated_Source\PSoC4/D10.c **** 
 169:Generated_Source\PSoC4/D10.c **** 
 170:Generated_Source\PSoC4/D10.c **** /*******************************************************************************
 171:Generated_Source\PSoC4/D10.c **** * Function Name: D10_SetInterruptMode
 172:Generated_Source\PSoC4/D10.c **** ****************************************************************************//**
ARM GAS  C:\Users\Greg\AppData\Local\Temp\ccVQeBG4.s 			page 27


 173:Generated_Source\PSoC4/D10.c **** *
 174:Generated_Source\PSoC4/D10.c **** * \brief Configures the interrupt mode for each of the Pins component's
 175:Generated_Source\PSoC4/D10.c **** *  pins. Alternatively you may set the interrupt mode for all the pins
 176:Generated_Source\PSoC4/D10.c **** *  specified in the Pins component.
 177:Generated_Source\PSoC4/D10.c **** *
 178:Generated_Source\PSoC4/D10.c **** *  <b>Note</b> The interrupt is port-wide and therefore any enabled pin
 179:Generated_Source\PSoC4/D10.c **** *  interrupt may trigger it.
 180:Generated_Source\PSoC4/D10.c **** *
 181:Generated_Source\PSoC4/D10.c **** * \param position
 182:Generated_Source\PSoC4/D10.c **** *  The pin position as listed in the Pins component. You may OR these to be 
 183:Generated_Source\PSoC4/D10.c **** *  able to configure the interrupt mode of multiple pins within a Pins 
 184:Generated_Source\PSoC4/D10.c **** *  component. Or you may use D10_INTR_ALL to configure the
 185:Generated_Source\PSoC4/D10.c **** *  interrupt mode of all the pins in the Pins component.       
 186:Generated_Source\PSoC4/D10.c **** *  - D10_0_INTR       (First pin in the list)
 187:Generated_Source\PSoC4/D10.c **** *  - D10_1_INTR       (Second pin in the list)
 188:Generated_Source\PSoC4/D10.c **** *  - ...
 189:Generated_Source\PSoC4/D10.c **** *  - D10_INTR_ALL     (All pins in Pins component)
 190:Generated_Source\PSoC4/D10.c **** *
 191:Generated_Source\PSoC4/D10.c **** * \param mode
 192:Generated_Source\PSoC4/D10.c **** *  Interrupt mode for the selected pins. Valid options are documented in
 193:Generated_Source\PSoC4/D10.c **** *  \ref intrMode.
 194:Generated_Source\PSoC4/D10.c **** *
 195:Generated_Source\PSoC4/D10.c **** * \return 
 196:Generated_Source\PSoC4/D10.c **** *  None
 197:Generated_Source\PSoC4/D10.c **** *  
 198:Generated_Source\PSoC4/D10.c **** * \sideeffect
 199:Generated_Source\PSoC4/D10.c **** *  It is recommended that the interrupt be disabled before calling this 
 200:Generated_Source\PSoC4/D10.c **** *  function to avoid unintended interrupt requests. Note that the interrupt
 201:Generated_Source\PSoC4/D10.c **** *  type is port wide, and therefore will trigger for any enabled pin on the 
 202:Generated_Source\PSoC4/D10.c **** *  port.
 203:Generated_Source\PSoC4/D10.c **** *
 204:Generated_Source\PSoC4/D10.c **** * \funcusage
 205:Generated_Source\PSoC4/D10.c **** *  \snippet D10_SUT.c usage_D10_SetInterruptMode
 206:Generated_Source\PSoC4/D10.c **** *******************************************************************************/
 207:Generated_Source\PSoC4/D10.c **** void D10_SetInterruptMode(uint16 position, uint16 mode)
 208:Generated_Source\PSoC4/D10.c **** {
 456              		.loc 1 208 0
 457              		.cfi_startproc
 458              		@ args = 0, pretend = 0, frame = 0
 459              		@ frame_needed = 0, uses_anonymous_args = 0
 460              		@ link register save eliminated.
 461              	.LVL4:
 209:Generated_Source\PSoC4/D10.c ****     uint32 intrCfg;
 210:Generated_Source\PSoC4/D10.c ****     
 211:Generated_Source\PSoC4/D10.c ****     intrCfg =  D10_INTCFG & (uint32)(~(uint32)position);
 462              		.loc 1 211 0
 463 0000 034A     		ldr	r2, .L14
 212:Generated_Source\PSoC4/D10.c ****     D10_INTCFG = intrCfg | ((uint32)position & (uint32)mode);
 213:Generated_Source\PSoC4/D10.c **** }
 464              		.loc 1 213 0
 465              		@ sp needed
 211:Generated_Source\PSoC4/D10.c ****     D10_INTCFG = intrCfg | ((uint32)position & (uint32)mode);
 466              		.loc 1 211 0
 467 0002 1368     		ldr	r3, [r2]
 468              	.LVL5:
 212:Generated_Source\PSoC4/D10.c ****     D10_INTCFG = intrCfg | ((uint32)position & (uint32)mode);
 469              		.loc 1 212 0
ARM GAS  C:\Users\Greg\AppData\Local\Temp\ccVQeBG4.s 			page 28


 470 0004 8343     		bics	r3, r0
 471              	.LVL6:
 472 0006 0840     		ands	r0, r1
 473              	.LVL7:
 474 0008 1843     		orrs	r0, r3
 475 000a 1060     		str	r0, [r2]
 476              		.loc 1 213 0
 477 000c 7047     		bx	lr
 478              	.L15:
 479 000e C046     		.align	2
 480              	.L14:
 481 0010 0C020440 		.word	1074004492
 482              		.cfi_endproc
 483              	.LFE4:
 484              		.size	D10_SetInterruptMode, .-D10_SetInterruptMode
 485              		.section	.text.D10_ClearInterrupt,"ax",%progbits
 486              		.align	1
 487              		.global	D10_ClearInterrupt
 488              		.code	16
 489              		.thumb_func
 490              		.type	D10_ClearInterrupt, %function
 491              	D10_ClearInterrupt:
 492              	.LFB5:
 214:Generated_Source\PSoC4/D10.c **** 
 215:Generated_Source\PSoC4/D10.c **** 
 216:Generated_Source\PSoC4/D10.c **** /*******************************************************************************
 217:Generated_Source\PSoC4/D10.c **** * Function Name: D10_ClearInterrupt
 218:Generated_Source\PSoC4/D10.c **** ****************************************************************************//**
 219:Generated_Source\PSoC4/D10.c **** *
 220:Generated_Source\PSoC4/D10.c **** * \brief Clears any active interrupts attached with the component and returns 
 221:Generated_Source\PSoC4/D10.c **** *  the value of the interrupt status register allowing determination of which
 222:Generated_Source\PSoC4/D10.c **** *  pins generated an interrupt event.
 223:Generated_Source\PSoC4/D10.c **** *
 224:Generated_Source\PSoC4/D10.c **** * \return 
 225:Generated_Source\PSoC4/D10.c **** *  The right-shifted current value of the interrupt status register. Each pin 
 226:Generated_Source\PSoC4/D10.c **** *  has one bit set if it generated an interrupt event. For example, bit 0 is 
 227:Generated_Source\PSoC4/D10.c **** *  for pin 0 and bit 1 is for pin 1 of the Pins component.
 228:Generated_Source\PSoC4/D10.c **** *  
 229:Generated_Source\PSoC4/D10.c **** * \sideeffect
 230:Generated_Source\PSoC4/D10.c **** *  Clears all bits of the physical port's interrupt status register, not just
 231:Generated_Source\PSoC4/D10.c **** *  those associated with the Pins component.
 232:Generated_Source\PSoC4/D10.c **** *
 233:Generated_Source\PSoC4/D10.c **** * \funcusage
 234:Generated_Source\PSoC4/D10.c **** *  \snippet D10_SUT.c usage_D10_ClearInterrupt
 235:Generated_Source\PSoC4/D10.c **** *******************************************************************************/
 236:Generated_Source\PSoC4/D10.c **** uint8 D10_ClearInterrupt(void)
 237:Generated_Source\PSoC4/D10.c **** {
 493              		.loc 1 237 0
 494              		.cfi_startproc
 495              		@ args = 0, pretend = 0, frame = 0
 496              		@ frame_needed = 0, uses_anonymous_args = 0
 497              		@ link register save eliminated.
 238:Generated_Source\PSoC4/D10.c **** 	uint8 maskedStatus = (uint8)(D10_INTSTAT & D10_MASK);
 498              		.loc 1 238 0
 499 0000 7F22     		movs	r2, #127
 500 0002 034B     		ldr	r3, .L17
 239:Generated_Source\PSoC4/D10.c **** 	D10_INTSTAT = maskedStatus;
ARM GAS  C:\Users\Greg\AppData\Local\Temp\ccVQeBG4.s 			page 29


 240:Generated_Source\PSoC4/D10.c ****     return maskedStatus >> D10_SHIFT;
 241:Generated_Source\PSoC4/D10.c **** }
 501              		.loc 1 241 0
 502              		@ sp needed
 238:Generated_Source\PSoC4/D10.c **** 	uint8 maskedStatus = (uint8)(D10_INTSTAT & D10_MASK);
 503              		.loc 1 238 0
 504 0004 1868     		ldr	r0, [r3]
 505 0006 9043     		bics	r0, r2
 506 0008 C0B2     		uxtb	r0, r0
 507              	.LVL8:
 239:Generated_Source\PSoC4/D10.c **** 	D10_INTSTAT = maskedStatus;
 508              		.loc 1 239 0
 509 000a 1860     		str	r0, [r3]
 240:Generated_Source\PSoC4/D10.c **** }
 510              		.loc 1 240 0
 511 000c C009     		lsrs	r0, r0, #7
 512              	.LVL9:
 513              		.loc 1 241 0
 514 000e 7047     		bx	lr
 515              	.L18:
 516              		.align	2
 517              	.L17:
 518 0010 10020440 		.word	1074004496
 519              		.cfi_endproc
 520              	.LFE5:
 521              		.size	D10_ClearInterrupt, .-D10_ClearInterrupt
 522              		.text
 523              	.Letext0:
 524              		.file 2 "Generated_Source\\PSoC4\\cytypes.h"