ARM GAS  C:\Users\gjl\AppData\Local\Temp\ccOyra6S.s 			page 1


   1              		.syntax unified
   2              		.cpu cortex-m0
   3              		.fpu softvfp
   4              		.eabi_attribute 20, 1
   5              		.eabi_attribute 21, 1
   6              		.eabi_attribute 23, 3
   7              		.eabi_attribute 24, 1
   8              		.eabi_attribute 25, 1
   9              		.eabi_attribute 26, 1
  10              		.eabi_attribute 30, 4
  11              		.eabi_attribute 34, 0
  12              		.eabi_attribute 18, 4
  13              		.thumb
  14              		.syntax unified
  15              		.file	"D11.c"
  16              		.text
  17              	.Ltext0:
  18              		.section	.gnu.lto_.profile.1a3d500,"",%progbits
  19 0000 789C6361 		.ascii	"x\234ca`d`a`\000\222J2\000\000\312\000I"
  19      60646061 
  19      6000924A 
  19      320000CA 
  19      0049
  20              		.text
  21              		.section	.gnu.lto_.icf.1a3d500,"",%progbits
  22 0000 789C6361 		.ascii	"x\234ca`d\000\0015\006\004`c8\261\353\373O&\306\303"
  22      60640001 
  22      35060460 
  22      6338B1EB 
  22      FB4F26C6 
  23 0015 474FEEE4 		.ascii	"GO\356\344fz8\271g\037\013\363\266\211\335\017\231X"
  23      667A38B9 
  23      671F0BF3 
  23      B689DD0F 
  23      9958
  24 0027 EE36FF9F 		.ascii	"\3566\377\237\301\311:\347\301\213~V\006\000p\254\022"
  24      C1C93AE7 
  24      C18B7E56 
  24      060070AC 
  24      12
  25 0038 39       		.ascii	"9"
  26              		.text
  27              		.section	.gnu.lto_.jmpfuncs.1a3d500,"",%progbits
  28 0000 789C45C9 		.ascii	"x\234E\311\261\001\000 \010\300\260\026\320+\374\225"
  28      B1010020 
  28      08C0B016 
  28      D02BFC95 
  29 0010 D795C90C 		.ascii	"\327\225\311\014]Z\3108|\033\265\235\004$Thv\257\367"
  29      5D5AC838 
  29      7C1BB59D 
  29      04245468 
  29      76AFF7
  30 0023 2E215502 		.ascii	".!U\002@"
  30      40
  31              		.text
  32              		.section	.gnu.lto_.inline.1a3d500,"",%progbits
  33 0000 789C658C 		.ascii	"x\234e\214\313\015\2000\014C\2354M\213\204\004\033t"
ARM GAS  C:\Users\gjl\AppData\Local\Temp\ccOyra6S.s 			page 2


  33      CB0D8030 
  33      0C439D34 
  33      4D8B8404 
  33      1B74
  34 0012 0346E89A 		.ascii	"\003F\350\232\\;\012#0\012#\220H(\010\341\203\017\317"
  34      5C3B0A23 
  34      300A2390 
  34      482808E1 
  34      830FCF
  35 0025 1F01C1B5 		.ascii	"\037\001\301\265\343\225\002E\211P-\342zt\350h\354\201"
  35      E3950245 
  35      89502DE2 
  35      7A74E868 
  35      EC81
  36 0037 A1F2F014 		.ascii	"\241\362\360\024\234\317E<dd!\260\214\026\375\364G\202"
  36      9CCF453C 
  36      646421B0 
  36      8C16FDF4 
  36      4782
  37 0049 A91263B5 		.ascii	"\251\022c\265\013r\223\357\217\331\354\265\014\315\266"
  37      0B7293EF 
  37      8FD9ECB5 
  37      0CCDB6
  38 0058 D46B8B25 		.ascii	"\324k\213%n2B\016g"
  38      6E32420E 
  38      67
  39              		.text
  40              		.section	.gnu.lto_.pureconst.1a3d500,"",%progbits
  41 0000 789C6361 		.ascii	"x\234ca`d\340e```c\220b\224b\222b\226b\221b\225\002"
  41      6064E065 
  41      60606063 
  41      90629462 
  41      92629662 
  42 0018 00059500 		.ascii	"\000\005\225\000\304"
  42      C4
  43              		.text
  44              		.section	.gnu.lto_D11_SetDriveMode.1a3d500,"",%progbits
  45 0000 789C7D50 		.ascii	"x\234}P\313+Da\024?\277\357\273s\215\274\266\312\250"
  45      CB2B4461 
  45      143FBFEF 
  45      BB738DBC 
  45      B6CAA8
  46 0013 5928D988 		.ascii	"Y(\331\210\370\017([\261%\211\273dJ\254\347\233\307"
  46      F80F285B 
  46      B12589BB 
  46      644AACE7 
  46      9BC7
  47 0025 CD238BA9 		.ascii	"\315#\213\251\211\222dC\336$Ev\323\024\013\213\261\221"
  47      89926443 
  47      DE244576 
  47      D3140B8B 
  47      B191
  48 0037 A564718B 		.ascii	"\245dq\213\325\214\241&\257\353\234\271\326N\235\307"
  48      D58CA126 
  48      AFEB9CB9 
  48      D64E9DC7 
  49 0047 77FAFD7E 		.ascii	"w\372\375~\347\234\317\"\220\330:\2476\316-\354\320"
ARM GAS  C:\Users\gjl\AppData\Local\Temp\ccOyra6S.s 			page 3


  49      E79CCF22 
  49      90D83AA7 
  49      36CE2DEC 
  49      D0
  50 0058 04952910 		.ascii	"\004\225)\020%\302\012\220\302\204Aq\2058\336\325\267"
  50      25C20A90 
  50      C2844171 
  50      8538DED5 
  50      B7
  51 0069 427EDEBB 		.ascii	"B~\336\273T\035;\206\355\321\365\006\023\306mv5\221"
  51      541D3B86 
  51      EDD1F506 
  51      13C66D76 
  51      3591
  52 007b AFAA4A84 		.ascii	"\257\252J\204\035t0\252|\266\235\255\323Q\020\327\245"
  52      1D7430AA 
  52      7CB69DAD 
  52      D35110D7 
  52      A5
  53 008c 42F1A1B1 		.ascii	"B\361\241\261}\333\230\2441\331Q\243]\015\354B3\003"
  53      7DDB98A4 
  53      31D951A3 
  53      5D0DEC42 
  53      3303
  54 009e 3D117445 		.ascii	"=\021tE\210\033\204=\264\013\370\351\364g\245\301N\213"
  54      881B843D 
  54      B40BF8E9 
  54      F467A5C1 
  54      4E8B
  55 00b0 7C3410C5 		.ascii	"|4\020\305>lY\363d(g|?erg\366\325\271\035VLSZ\202\005"
  55      3E6C59F3 
  55      6428677C 
  55      3F657267 
  55      F6D5B91D 
  56 00ca 2187A4B4 		.ascii	"!\207\244\264%\020\025\331e\363\222R\222\265\207\374"
  56      251015D9 
  56      65F39252 
  56      92B587FC 
  57 00da C7D2FD9A 		.ascii	"\307\322\375\232-R)-W\254\272\371\333\2327\345j]]q\261"
  57      2D52292D 
  57      57ACBAF9 
  57      DB9A37E5 
  57      6A5D5D71 
  58 00ef 7C73501F 		.ascii	"|sP\037<\027\2263\306\342\326\2631\237\366&6\022i\270"
  58      3C179633 
  58      C6E2D6B3 
  58      319FF626 
  58      361269B8 
  59 0103 DAC22122 		.ascii	"\332\302!\"8@\204\3279\302&\310C\352\353ON\007\212w"
  59      384084D7 
  59      39C226C8 
  59      43EAEB4F 
  59      4E078A77 
  60 0117 E9AD875A 		.ascii	"\351\255\207Z\221P\250\370\276\337\204cF{H\276\326\004"
  60      9150A8F8 
  60      BEDF8463 
  60      467B48BE 
ARM GAS  C:\Users\gjl\AppData\Local\Temp\ccOyra6S.s 			page 4


  60      D604
  61 0129 B0504A5B 		.ascii	"\260PJ[B\253\374\321\002f\210[\371UH\353\277\231'<\223"
  61      42ABFCD1 
  61      0266885B 
  61      F95548EB 
  61      BF99273C 
  62 013e 29F48264 		.ascii	")\364\202d\356\342Z\011\274\372\333E\0059\220\317m\035"
  62      EEE25A09 
  62      BCFADB45 
  62      053990CF 
  62      6D1D
  63 0150 70A69D99 		.ascii	"p\246\235\231\361Ygrl8673\341\214\014\016\307\372zG"
  63      F1596772 
  63      6C383637 
  63      33E18C0C 
  63      0EC7FA7A 
  64 0165 FABBBB3B 		.ascii	"\372\273\273;'\310\232\212M:\277N2\221%"
  64      27C89A8A 
  64      4D3ABF4E 
  64      329125
  65              		.text
  66              		.section	.gnu.lto_D11_Write.1a3d500,"",%progbits
  67 0000 789C5551 		.ascii	"x\234UQ\317KTQ\030\375\316\275\357\307\340`\377@S\314"
  67      CF4B5451 
  67      18FDCEBD 
  67      EFC7E060 
  67      FF4053CC 
  68 0014 C6448450 		.ascii	"\306D\204Pl\331\"(p\033\011\255\006b\320\267\033\022"
  68      6CD92228 
  68      701B09AD 
  68      0662D0B7 
  68      1B12
  69 0026 0675EB9D 		.ascii	"\006u\353\235\031\307\001k\241\213\246ZdD\204\366\323"
  69      19C7016B 
  69      A18BA65A 
  69      644484F6 
  69      D3
  70 0037 26D0085A 		.ascii	"&\320\010Z<\337\306\205ad-\214,Dh\372\265\031#)\242"
  70      3CDFC685 
  70      61642D8C 
  70      2C4468FA 
  70      B5192329 
  71 004c 7C7DDFBB 		.ascii	"|}\337\273\233\346\343\335w\357;\367\234\363\316\375"
  71      9BE6E3DD 
  71      77EF3BF7 
  71      9CF3CEFD 
  72 005c AE4320A9 		.ascii	"\256C \251S\212\250\227\347\303<\240\011jv\203\250\224"
  72      538AA897 
  72      E7C33CA0 
  72      096A7683 
  72      A894
  73 006e 52802C4C 		.ascii	"R\200,L\0124\2510\211}\365W!\2525\237\251\236\005\303"
  73      0A34A930 
  73      897DF557 
  73      21AA359F 
  73      A99E05C3 
  74 0082 B5F3F167 		.ascii	"\265\363\361g\237Y\014Q\325D\261J\234\010\013\350a\326"
ARM GAS  C:\Users\gjl\AppData\Local\Temp\ccOyra6S.s 			page 5


  74      9F590C51 
  74      D544B14A 
  74      9C080BE8 
  74      61D6
  75 0094 A7E7B537 		.ascii	"\247\347\2657\320Y\020\257\247\243\375V\272\373\216"
  75      D05910AF 
  75      A7A3FD56 
  75      BAFB8E
  76 00a3 316563DE 		.ascii	"1ec\336\347\214\256j`\021\232\025\030\310\240/C\014"
  76      E78CAE6A 
  76      60119A15 
  76      18C8A02F 
  76      430C
  77 00b5 10EEA25B 		.ascii	"\020\356\242[\310_\242K\005},\321\255\255\314\305\350"
  77      C85FA24B 
  77      057D2CD1 
  77      ADADCCC5 
  77      E8
  78 00c6 BA2DBAF0 		.ascii	"\272-\272\360\365Z\347U\023\226\262\242\275\367\277"
  78      F55AE755 
  78      1396B2A2 
  78      BDF7BF
  79 00d5 568AB9BB 		.ascii	"V\212\271\273\215\203+\235\336\224\244\312\342>\272"
  79      8D832B9D 
  79      DE94A4CA 
  79      E23EBA
  80 00e4 6C1E3C80 		.ascii	"l\036<\200\307'\204 K\347B\023\307\025\023\276\362W"
  80      C7278420 
  80      4BE74213 
  80      C71513BE 
  80      F257
  81 00f6 B7FC0EC5 		.ascii	"\267\374\016\305\177U\232_\332!\331v!\011<\001\374\004"
  81      7F559A5F 
  81      DA21D976 
  81      21093C01 
  81      FC04
  82 0108 480981A8 		.ascii	"H\011\201\250\305C\232\260\247\224\314\272\211\350\367"
  82      C5439AB0 
  82      A794CCBA 
  82      89E8F7
  83 0117 CCC6FC84 		.ascii	"\314\306\374\204XW\2644\244^\215^\372?TU;I\352r\375"
  83      5857B434 
  83      A45E8D5E 
  83      FA3F5455 
  83      3B49EA72 
  84 012c F353C77E 		.ascii	"\363S\307~\232\313\263\306a\350\372\273\370\032n\342"
  84      9ACBB3C6 
  84      61E8FABB 
  84      F81A6EE2 
  85 013c 46698A5B 		.ascii	"Fi\212[\345\342\0212x\010\216\216%F\251\211\362\367"
  85      E5E21132 
  85      78088E8E 
  85      2546A989 
  85      F2F7
  86 014e DAB6B286 		.ascii	"\332\266\262\206\232=\031\251\374\231\336\206E\034\006"
  86      9A3D19A9 
  86      FC99DE86 
ARM GAS  C:\Users\gjl\AppData\Local\Temp\ccOyra6S.s 			page 6


  86      451C06
  87 015d D963EBDB 		.ascii	"\331c\353\333\346zZl5\016\200\307,\337E\242\221\254"
  87      E67A5A6C 
  87      350E80C7 
  87      2CDF45A2 
  87      91AC
  88 016f CCB2A2CD 		.ascii	"\314\262\242\315\243V\304\217\313\242\345\332\213F\207"
  88      A356C48F 
  88      CBA2E5DA 
  88      8B4687
  89 017e 88C0D560 		.ascii	"\210\300\325`\015\223~y\226\342'\326^\273\215o\323|"
  89      0D937E79 
  89      96E227D6 
  89      5EBB8D6F 
  89      D37C
  90 0190 983F6949 		.ascii	"\230?iI)\013E\365[\207\004h;K\311\230t\373q\236\360"
  90      290B45F5 
  90      5B870468 
  90      3B4BC998 
  90      74FB719E 
  91 01a5 066BE82B 		.ascii	"\006k\350+\312\341\333A\021$\327\323R\220\326q#\217"
  91      CAE1DB41 
  91      1124D7D3 
  91      5290D671 
  91      238F
  92 01b7 0C061783 		.ascii	"\014\006\027\203b~,\030\27104:^\034\016rg\207FO\237"
  92      627E2C18 
  92      B930343A 
  92      5E1C0E72 
  92      6787464F 
  93 01cc C89DE9EF 		.ascii	"\310\235\351\357?>L\356D\2760\036\270#\305\363\371\302"
  93      3F3E4CEE 
  93      44BE301E 
  93      B823C5F3 
  93      F9C2
  94 01de 3F7C73C4 		.ascii	"?|s\304\210"
  94      88
  95              		.text
  96              		.section	.gnu.lto_D11_Read.1a3d500,"",%progbits
  97 0000 789C2D4E 		.ascii	"x\234-N1HBQ\024\275\347\276\237\311\207\366 \243V\227"
  97      31484251 
  97      14BDE7BE 
  97      9FC987F6 
  97      20A35697 
  98 0014 486A692E 		.ascii	"Hji.h\215\334B\210\260\277&H\315>\375~\2040\220\240"
  98      688DDC42 
  98      88B0BF26 
  98      48CD3EFD 
  98      7E843090 
  99 0029 9ACA2148 		.ascii	"\232\312!H\315 $j6\247\240\250\3159\"\034\232*\262 "
  99      CD20246A 
  99      36A7A0A8 
  99      CD39221C 
  99      9A2AB220 
 100 003d 2ABB37BB 		.ascii	"*\2737\273\360\270\367\236w\3569\307!\220\326\260\264"
 100      F0B8F79E 
 100      77EE39C7 
ARM GAS  C:\Users\gjl\AppData\Local\Temp\ccOyra6S.s 			page 7


 100      2190D6B0 
 100      B4
 101 004e 31E923F2 		.ascii	"1\351#\362`\010\\\272%\312\206\031\320\301\206A\031"
 101      60085CBA 
 101      25CA8619 
 101      D0C18641 
 101      19
 102 005f 46065DFE 		.ascii	"F\006]\376f\\\177\\\025\335h\305\332\234\275\017\216"
 102      665C7F5C 
 102      15DD68C5 
 102      DA9CBD0F 
 102      8E
 103 0070 66F6AA4D 		.ascii	"f\366\252M\004\206\250\307\204\251\010&#*QA\224\204"
 103      0486A8C7 
 103      84A90826 
 103      232A5141 
 103      9484
 104 0082 FAD0F8D9 		.ascii	"\372\320\370\331\031\012\345\255\324\270\022\344\247"
 104      190AE5AD 
 104      D4B812E4 
 104      A7
 105 008f 8A905A9E 		.ascii	"\212\220Z\236.6m\257\347\333\346\231{y\341\0160\005"
 105      2E366DAF 
 105      E7DBE699 
 105      7B79E10E 
 105      3005
 106 00a1 467C03C3 		.ascii	"F|\003\303\016\251\030=\013Y\255_\230\265\233\016Z\237"
 106      0EA9183D 
 106      0B59AD5F 
 106      98B59B0E 
 106      5A9F
 107 00b3 9BEDDA92 		.ascii	"\233\355\332\222\336\373Fc\354\006\255\273\3017\016"
 107      DEFB4663 
 107      EC06ADBB 
 107      C1370E
 108 00c2 8C815ABD 		.ascii	"\214\201Z\275\037l\037\242\277\346\213%\353\010T\357"
 108      1F6C1FA2 
 108      BFE68B25 
 108      EB0854EF 
 109 00d2 B6B7B88C 		.ascii	"\266\267\270\214\375l^\002:8F\0045H<\324Q\006u\220{"
 109      FD6C5E02 
 109      3A384604 
 109      35483CD4 
 109      51067590 
 110 00e7 2D3CA22F 		.ascii	"-<\242/hDS\020\377+\324\337\035\201D\341\274p\323pU"
 110      68445310 
 110      FF2BD4DF 
 110      1D8144E1 
 110      BC70D370 
 111 00fc 94009CC8 		.ascii	"\224\000\234\310\355\023\370\237@\177!\241\341$\352"
 111      ED13F89F 
 111      407F21A1 
 111      E124EA
 112 010b E8BCB7E6 		.ascii	"\350\274\267\346\245W\326\275\325\345xj#\235\364\022"
 112      A557D6BD 
 112      D5E5786A 
 112      239DF412 
ARM GAS  C:\Users\gjl\AppData\Local\Temp\ccOyra6S.s 			page 8


 113 011b 0BF1D4EC 		.ascii	"\013\361\324\354tb.\026\233H\322/\356Sf<"
 113      74622E16 
 113      9B48D22F 
 113      EE53663C 
 114              		.text
 115              		.section	.gnu.lto_D11_ReadDataReg.1a3d500,"",%progbits
 116 0000 789C2D4E 		.ascii	"x\234-N=K\003Q\020\334y\357\214!\301^\360D\3334b\320"
 116      3D4B0351 
 116      10DC79EF 
 116      8C21C15E 
 116      F044DB34 
 117 0016 C65AC156 		.ascii	"\306Z\301VL\027\002\"\361Z\003A\353\274\334\345\010"
 117      4C170222 
 117      F15A0341 
 117      EBBCDCE5 
 117      08
 118 0027 488A3446 		.ascii	"H\2124FE\3242Q\003\022Dl\317T\202\242?\300FD\202X\251"
 118      45D43251 
 118      0312446C 
 118      CF5482A2 
 118      3FC04644 
 119 003e F801A29E 		.ascii	"\370\001\242\236\273\236\013\217\335\2357;3\026\201"
 119      BB9E0B8F 
 119      DD9D373B 
 119      331681
 120 004d A406B98D 		.ascii	"\244\006\271\215p\037\342\007MP\365+\242r\\\0012\230"
 120      701FE207 
 120      4D50F52B 
 120      A2725C01 
 120      3298
 121 005f 38A8A450 		.ascii	"8\250\244P\302\233\372V\270\3708\257%RMc\\s\353\037"
 121      C29BFA56 
 121      B8F838AF 
 121      25524D63 
 121      5C73EB1F 
 122 0073 4F6DB402 		.ascii	"Om\264\002\370\232(T\204\011\033\343\266H4\221\"\246"
 122      F89A2854 
 122      84091BE3 
 122      B6483491 
 122      22A6
 123 0085 DE757ED6 		.ascii	"\336u~\326\007b\025\3035*\004\376i!&\226G\363\201\011"
 123      076215C3 
 123      352A04FE 
 123      69212696 
 123      47F38109 
 124 0099 43CF04DB 		.ascii	"C\317\004\333\311\263\335d\237\"_\263\257\257\225E\""
 124      C9B3DD64 
 124      9F225FB3 
 124      AFAF9545 
 124      22
 125 00aa 464F4C16 		.ascii	"FOL\026\353g\245\244\353\036\272\237k\357\355\254\334"
 125      EB67A5A4 
 125      EB1EBA9F 
 125      6BEFEDAC 
 125      DC
 126 00bb 7B5A6234 		.ascii	"{Zb4\374\356u\377\253\362\265\206X\271\215\207S+ZM\255"
 126      FCEE75FF 
ARM GAS  C:\Users\gjl\AppData\Local\Temp\ccOyra6S.s 			page 9


 126      ABF2B586 
 126      58B98D87 
 126      532B5A4D 
 127 00d0 6E2C86B6 		.ascii	"n,\206\266n\302M\354a\247\\\341\200\026\016`c\037\034"
 127      6EC24DEC 
 127      61A75CE1 
 127      80160E60 
 127      631F1C
 128 00e3 0F878C52 		.ascii	"\017\207\214R\017\356K\365\036\221\240fMF\274\257X\264"
 128      0FEE4BF5 
 128      1E91A066 
 128      4D46BCAF 
 128      58B4
 129 00f5 5B0CB1C2 		.ascii	"[\014\261\302I\365\262\223\020Q\002\320\346\333G\250"
 129      49F5B293 
 129      105102D0 
 129      E6DB47A8 
 130 0105 7F02FD85 		.ascii	"\177\002\375\205\204\204\343\250\303\263\316\262S\\"
 130      8484E3A8 
 130      C3B3CEB2 
 130      535C
 131 0113 5C719616 		.ascii	"\\q\226\0262\205\325b\336\311\315e\012\323\223\271\231"
 131      3285D562 
 131      DEC9CD65 
 131      0AD393B9 
 131      99
 132 0124 747A2C4F 		.ascii	"tz,O\277\344\272f2"
 132      BFE4BA66 
 132      32
 133              		.text
 134              		.section	.gnu.lto_D11_SetInterruptMode.1a3d500,"",%progbits
 135 0000 789C6D51 		.ascii	"x\234mQMk\023Q\024\275\367\275If\362\321\350\302\235"
 135      4D6B1351 
 135      14BDF7BD 
 135      4966F2D1 
 135      E8C29D
 136 0013 15B22921 		.ascii	"\025\262)!\233B@\177A\005wR\354\266 \245\035%\0133\022"
 136      9B42407F 
 136      41057752 
 136      ECB620A5 
 136      1D250B33 
 137 0028 E3BA2F99 		.ascii	"\343\272/\231$\205R\264(\015X,Eeh\264j?\025\254.\306"
 137      248552B4 
 137      280D582C 
 137      456568B4 
 137      6A3F15AC 
 138 003e 803B3FA8 		.ascii	"\200;?\250U\212\012\"\025S(Y\244\265E\221\332x\357L"
 138      558A0A22 
 138      15532859 
 138      A4B54591 
 138      DA78EF4C 
 139 0052 36051FCC 		.ascii	"6\005\037\314\274w\017\347\234w\356}\032 \360\252\012"
 139      BC770FE7 
 139      9C77EE7D 
 139      1A20F0AA 
 139      0A
 140 0063 8053B41F 		.ascii	"\200S\264\037\247\017%\240\030\177\013\2207\004\"\037"
ARM GAS  C:\Users\gjl\AppData\Local\Temp\ccOyra6S.s 			page 10


 140      A70F25A0 
 140      187F0B90 
 140      3704221F 
 141 0073 9481302C 		.ascii	"\224\2010,p\030\367\304_\201\265\221\3723\221\234Q\264"
 141      7018F7C4 
 141      5F81B591 
 141      FA33919C 
 141      51B4
 142 0085 BEFDD84C 		.ascii	"\276\375\330L\251\252\213%\011\320\022\236\023\340\014"
 142      A9AA8B25 
 142      09D0129E 
 142      13E00C
 143 0094 2689F5AA 		.ascii	"&\211\365\252\365\313=\262+J\022\221E\357\233\257\247"
 143      F5CB3DB2 
 143      2B4A1291 
 143      45EF9BAF 
 143      A7
 144 00a5 225C0A3C 		.ascii	"\"\\\012<J\345\344\226S\211\3118\002\2357\227\357\256"
 144      4AE5E496 
 144      5389C938 
 144      029D3797 
 144      EFAE
 145 00b7 87138E52 		.ascii	"\207\023\216R\005\245&\006T\240$%>@I~x\037;\261\212"
 145      05A52606 
 145      54A02425 
 145      3E40497E 
 145      781F3BB1 
 146 00cc 9D4010E0 		.ascii	"\235@\020\340,&\210\375s\311\271\031\221IO\271c;v\264"
 146      2C2688FD 
 146      73C9B919 
 146      91494FB9 
 146      633B76B4 
 147 00e0 AD5C6F2B 		.ascii	"\255\\o+\037\376G\371\010\023L_-\316\337\226~$\215\312"
 147      1FFE47F9 
 147      08134C5F 
 147      2DCEDF96 
 147      7E248DCA 
 148 00f4 ED3793DF 		.ascii	"\3557\223\337c~\2448\225\263\316GG\310n\317x\364\323"
 148      637EA438 
 148      95B3CE47 
 148      47C86ECF 
 148      78F4D3
 149 0107 8DC58EAE 		.ascii	"\215\305\216\256{l\354\256]\213\335Rn1^\222\032\316"
 149      7B6CECAE 
 149      5D8BDD52 
 149      6E315E92 
 149      1ACE
 150 0119 FBE67364 		.ascii	"\373\346sd\376\230\314y\021{c\341`\242#X\344\201\304"
 150      FE98CC79 
 150      117B63E1 
 150      60A22358 
 150      E481C4
 151 012c 7101BBFC 		.ascii	"q\001\273\374Q\340\"\006i\270\310\310\3349W\265Z\266"
 151      51E02206 
 151      69B8C8C8 
 151      DC3957B5 
 151      5AB6
ARM GAS  C:\Users\gjl\AppData\Local\Temp\ccOyra6S.s 			page 11


 152 013e 7257632F 		.ascii	"rWc/?\307\242\202b\005(\005u\244\3611\300\277 0SGNk"
 152      3FC7A282 
 152      62052805 
 152      75A4F131 
 152      C0BF2030 
 153 0156 10100C31 		.ascii	"\020\020\0141\032\346\037@\223\034\371%\266\205\340"
 153      1AE61F40 
 153      931CF925 
 153      B685E0
 154 0165 5DD6B1F6 		.ascii	"]\326\261\366g\364\353J/_bK\036p\245T{\247s7\272\327"
 154      67F4EB4A 
 154      2F5F624B 
 154      1E70A554 
 154      7BA77337 
 155 017b C1DEDAF3 		.ascii	"\301\336\332\363B\324/\307\306\306\025\367\273\333\250"
 155      42D42FC7 
 155      C6C615F7 
 155      BBDBA8
 156 018a 5CD7A671 		.ascii	"\\\327\246q*_\244\3672p\231\232X\342&\360\011N#\324"
 156      2A5FA4F7 
 156      3270999A 
 156      58E226F0 
 156      094E23D4 
 157 019e B1B033B2 		.ascii	"\261\2603\262\257\371\206\232Mc#\344\240\334\220>\022"
 157      AFF9869A 
 157      4D6323E4 
 157      A0DC903E 
 157      12
 158 01af 2090107B 		.ascii	" \220\020{\277\334@\037\341{\011\207\015\024^\253\024"
 158      BFDC401F 
 158      E17B0987 
 158      0D145EAB 
 158      14
 159 01c0 9E409F53 		.ascii	"\236@\237S_y\321f\031\344dK\335\263\327}(D(\323~\227"
 159      5F79D166 
 159      19E4644B 
 159      DDB3D77D 
 159      284428D3 
 160 01d6 3FB4CDC3 		.ascii	"?\264\315\303\236[\210\300Z\345\3161\306\016\305\315"
 160      9E5B88C0 
 160      5AE5CE31 
 160      C60EC5CD 
 161 01e6 2B15399C 		.ascii	"+\0259\234\370)%&\031la\301\375r\226\005\336[4\005\362"
 161      F8292526 
 161      196C61C1 
 161      FD729605 
 161      DE5B3405 
 162 01fb 74685627 		.ascii	"thV'\316\230\0313;\2203\207\316\367YW\263\203f\177o"
 162      CE981933 
 162      3B903387 
 162      CEF75957 
 162      B383667F 
 163 0210 9FD573B2 		.ascii	"\237\325s\262\377t*\325=\010\306e\353J:\227\2662\332"
 163      FF742AD5 
 163      3D08C665 
 163      EB4A3A97 
 163      B632DA
ARM GAS  C:\Users\gjl\AppData\Local\Temp\ccOyra6S.s 			page 12


 164 0223 256BC8D4 		.ascii	"%k\310\324\323\231\\\266\347\302\305\177a\346\353\305"
 164      D3995CB6 
 164      E7C2C57F 
 164      61E6EBC5 
 165              		.text
 166              		.section	.gnu.lto_D11_ClearInterrupt.1a3d500,"",%progbits
 167 0000 789C5590 		.ascii	"x\234U\220\275KcA\024\305\357\231y\211q\321\365\017"
 167      BD4B6341 
 167      14C5EF99 
 167      798971D1 
 167      F50F
 168 0012 30421A0B 		.ascii	"0B\032\013A\226\015\332\010\333\255`+\246\025$\350\253"
 168      41960DDA 
 168      08DBAD60 
 168      2BA61524 
 168      E8AB
 169 0024 44054D5A 		.ascii	"D\005MZ\235$>\205E0\026j%)\004\023\277\021\324F\002"
 169      9D243E85 
 169      4530166A 
 169      25290413 
 169      BF11D446 
 170 0039 CF202888 		.ascii	"\317 (\210\021\375\013$\013\026\212\250\313\252\340"
 170      11FD0B24 
 170      0B168AA8 
 170      CBAAE0
 171 0048 57F6DEBC 		.ascii	"W\366\336\274-t\34013\347\335\363\233s\257E Y\273\274"
 171      2D74E031 
 171      33E7DDF3 
 171      9B73AF45 
 171      2059BBBC 
 172 005c 35F35ECF 		.ascii	"5\363^\317\0374A\245\213D\211\200\002\344`\002\2401"
 172      1F3441A5 
 172      8B448980 
 172      02E46002 
 172      A031
 173 006e 85313CA8 		.ascii	"\2051<\2507\205\343\247\243\251/MYc\222\346\302yj\233"
 173      3785E3A7 
 173      A3A92F4D 
 173      596392E6 
 173      C2796A9B 
 174 0082 CFB97034 		.ascii	"\317\271p4QY\021Z\202\370\036\024D\026M\304\245\277"
 174      5159115A 
 174      82F81E14 
 174      44164DC4 
 174      A5BF
 175 0094 375EB2B5 		.ascii	"7^\262\265:\0049\237,\335\354\240qQln~\272f\336\270"
 175      3A04399F 
 175      2CDDECA0 
 175      71516C6E 
 175      7EBA66DE 
 176 00a9 8910FB90 		.ascii	"\211\020\373\220\203\376h%\251-m\275\317\326\372\307"
 176      83FE6825 
 176      A92D6DBD 
 176      CFD6FAC7 
 177 00b9 0DAF1096 		.ascii	"\015\257\020\226\321(p\246\256\300\3179!\312f\227k\312"
 177      D12870A6 
 177      AEC0CF39 
ARM GAS  C:\Users\gjl\AppData\Local\Temp\ccOyra6S.s 			page 13


 177      21CA6697 
 177      6BCA
 178 00cb E59471F7 		.ascii	"\345\224q\367\352\366\317\353\252\0249\232s;ZY$\277"
 178      EAF6CFEB 
 178      AA14399A 
 178      733B5A59 
 178      24BF
 179 00dd 7D7227BA 		.ascii	"}r'\272c\2334p\257\224\354\372\022\205\347_\217\371"
 179      639B3470 
 179      AF94ECFA 
 179      1285E75F 
 179      8FF9
 180 00ef 5121A5B4 		.ascii	"Q!\245\26443\347\024N\253\376*G\353J\310\231\342u\256"
 180      3433E714 
 180      4EABFE2A 
 180      47EB4AC8 
 180      99E275AE 
 181 0103 DABBA6A7 		.ascii	"\332\273\246\247\322\306b)sen\375\031,$\306\271M\013"
 181      D2C66229 
 181      73656EFD 
 181      192C24C6 
 181      B94D0B
 182 0116 6B086215 		.ascii	"k\010b\025\234\024\353\310\200.\221\3743\371\252<\240"
 182      9C14EBC8 
 182      802E91FC 
 182      33F9AA3C 
 182      A0
 183 0127 66262BA9 		.ascii	"f&+\251\327\211\003x\212\305\"3\266\017\016'\002\202"
 183      D7890378 
 183      8AC52233 
 183      B60F0E27 
 183      0282
 184 0139 E5816283 		.ascii	"\345\201b\203\335%T,\022\225\213<\312{\376\207g\362"
 184      DD25542C 
 184      12958B3C 
 184      CA7BFE87 
 184      67F2
 185 014b 795261AE 		.ascii	"yRa\256\002\371\024!a\214\357s\212MN\301\026\272B\322"
 185      02F91421 
 185      618CEF73 
 185      8A4D4EC1 
 185      16BA42D2 
 186 015f 3D9BFEFA 		.ascii	"=\233\376\372\377Y\231\343\235\2024\315#h\350\260\007"
 186      FF5999E3 
 186      9D8234CD 
 186      2368E8B0 
 186      07
 187 0170 EDE168CC 		.ascii	"\355\341h\314\356\353\211\014\305\207{\355\356\316\310"
 187      EEEB890C 
 187      C5877BED 
 187      EECEC8
 188 017f D0CFD6EE 		.ascii	"\320\317\326\356\366p\370[/\325\014DG\372\355\276H,"
 188      F670F85B 
 188      2FD50C44 
 188      47FAEDBE 
 188      482C
 189 0191 1A8B8FFC 		.ascii	"\032\213\217\374\003\246.\236\207"
ARM GAS  C:\Users\gjl\AppData\Local\Temp\ccOyra6S.s 			page 14


 189      03A62E9E 
 189      87
 190              		.text
 191              		.section	.gnu.lto_.symbol_nodes.1a3d500,"",%progbits
 192 0000 789C6361 		.ascii	"x\234ca`d\310`\000\002&\206z\006\206\011\347\030@\324"
 192      6064C860 
 192      00022686 
 192      7A068609 
 192      E71840D4 
 193 0014 AE0645A0 		.ascii	"\256\006E\240\000c=#\252\000S=\023\252\000s=3\252\000"
 193      00633D23 
 193      AA00533D 
 193      13AA0073 
 193      3D33AA00 
 194 0028 4B3D0BAA 		.ascii	"K=\013\252\000k=+\212\000\003\000\305\333\026\342"
 194      006B3D2B 
 194      8A000300 
 194      C5DB16E2 
 195              		.text
 196              		.section	.gnu.lto_.refs.1a3d500,"",%progbits
 197 0000 789C6361 		.ascii	"x\234ca`\004B \000\000\0009\000\007"
 197      60044220 
 197      00000039 
 197      0007
 198              		.text
 199              		.section	.gnu.lto_.decls.1a3d500,"",%progbits
 200 0000 789C8D54 		.ascii	"x\234\215TmH[g\024~\317\275I\214W\253\"2\374\221\201"
 200      6D485B67 
 200      147ECFBD 
 200      498C57AB 
 200      2232FC91 
 201 0015 EB8F4418 		.ascii	"\353\217D\030\310RG\351\237\301@Y7\330\027\225u\177"
 201      C85247E9 
 201      9FC14059 
 201      37D81795 
 201      757F
 202 0027 0A25EAA5 		.ascii	"\012%\352\245\023\212\226,\016\372\357\245\365\243\335"
 202      138A962C 
 202      0EFAEFA5 
 202      F5A3DD
 203 0036 2F0B5DAB 		.ascii	"/\013]\253bW?\350f\214\032\277\222&qk\322M3\353G\033"
 203      62573FE8 
 203      668C1ABF 
 203      9226716B 
 203      D24D33EB 
 204 004c 757493D2 		.ascii	"ut\223\322\265\314uc\353\240\256-l\256k\323\363\276"
 204      B5CC7563 
 204      EBA0AE2D 
 204      6CAE6BD3 
 204      F3BE
 205 005e EFBDB9B7 		.ascii	"\357\275\271\267[\034\276\344\274\237\347<\3479\317"
 205      5B1CBEE4 
 205      BC9FE73C 
 205      E739CF
 206 006d 3DC44280 		.ascii	"=\304B\200\260a\261\021\222\300\265\027\217i\0349\270"
 206      B061B111 
 206      92C0B517 
ARM GAS  C:\Users\gjl\AppData\Local\Temp\ccOyra6S.s 			page 15


 206      8F691C39 
 206      B8
 207 007e DF4F8C81 		.ascii	"\337O\214\201\317d\022-\204\026A\213\241\315\240%\311"
 207      CF64122D 
 207      8416418B 
 207      A1CDA025 
 207      C9
 208 008f 7F07F3B3 		.ascii	"\177\007\363\263j\361\243h.\264\025\264\224\366\016"
 208      6AF1A368 
 208      2EB415B4 
 208      94F60E
 209 009e 9ACFBF47 		.ascii	"\232\317\277GH\313c\216sd\211\015e\211\215h9\377/.\222"
 209      48CB638E 
 209      7364890D 
 209      65898D68 
 209      39FF2F2E 
 210 00b3 252EB68D 		.ascii	"%.\266\215\270X\2268V{\256\306\265\030\255\004-\216"
 210      B8589638 
 210      567BAEC6 
 210      B518AD04 
 210      2D8E
 211 00c5 B6A8E138 		.ascii	"\266\250\3418\263\340\314d\301In#\1776\215\037K\220"
 211      B3E0CC64 
 211      C1496E23 
 211      7F368D1F 
 211      4B90
 212 00d7 6A495EB4 		.ascii	"jI^\264\337\2005\220@\373\210\004@\314\300\215\010\343"
 212      DF803590 
 212      40FB8804 
 212      40CCC08D 
 212      08E3
 213 00e9 47DC487C 		.ascii	"G\334H|&\231\253\314B\330L\204?\2773\300\370O_\323\372"
 213      2699ABCC 
 213      42D84C84 
 213      3FBF33C0 
 213      F84F5FD3 
 214 00fe E020063A 		.ascii	"\340 \006:hA\220a \242\304\273\244\243\212E2\002Lx\202"
 214      68419061 
 214      20A2C4BB 
 214      A4A38A45 
 214      32024C78 
 215 0113 AE89133C 		.ascii	"\256\211\023<[\023\350E_\212]\031\265\310X1\356om\016"
 215      5B13E845 
 215      5F8A5D19 
 215      B5C85831 
 215      EE6F6D0E 
 216 0127 BE56314C 		.ascii	"\276V1LqtP*\275h(\023l\375\311o\177(\201C\2014\260\363"
 216      7174502A 
 216      BD682813 
 216      6CFDC96F 
 216      7F288143 
 217 013f EFD1CD1D 		.ascii	"\357\321\315\035\342\314\236\273N\255?\311\223\035l"
 217      E2CC9EBB 
 217      4EAD3FC9 
 217      931D6C
 218 014e 2FADAE07 		.ascii	"/\255\256\007~\265@\271\362\031\203\271\375\211\377"
 218      7EB540B9 
ARM GAS  C:\Users\gjl\AppData\Local\Temp\ccOyra6S.s 			page 16


 218      F21983B9 
 218      FD89FF
 219 015d 9528A545 		.ascii	"\225(\245E0\012\012\014\203\014~\250`\311\035\012\316"
 219      300A0A0C 
 219      830C7EA8 
 219      60C91D0A 
 219      CE
 220 016e 27283D46 		.ascii	"'(=F7\372\251\255\224@\245\003^r\020\030\201r\206\311"
 220      37FAA9AD 
 220      9440A503 
 220      5E721018 
 220      817286C9 
 221 0182 BC20000E 		.ascii	"\274 \000\016\030\002\007\303\277s\366\374]\233E\302"
 221      180207C3 
 221      BF73F6FC 
 221      5D9B45C2 
 222 0192 4086536B 		.ascii	"@\206Skaw\263\351?\023\205H\241X\001\011\217+\033\213"
 222      6177B3E9 
 222      3F138548 
 222      A1580109 
 222      8F2B1B8B 
 223 01a6 E7F2F058 		.ascii	"\347\362\360X\242@\021\036\257\236^[\201\3223\214\003"
 223      A240111E 
 223      AF9E5E5B 
 223      81D2338C 
 223      03
 224 01b7 3D4ECB24 		.ascii	"=N\313$\330\377\034\214#\340\030\002\022\230\200R\234"
 224      D8FF1C8C 
 224      23E01802 
 224      12988052 
 224      9C
 225 01c8 8360D1AA 		.ascii	"\203`\321\252[]\366\347\354\354\245\275c\364vW\333\233"
 225      5B5DF6E7 
 225      ECECA5BD 
 225      63F47657 
 225      DB9B
 226 01da 7D036D34 		.ascii	"}\003m4\205q\257rG\0304h\343\226-\237\303\015\024s\022"
 226      8571AF72 
 226      47183468 
 226      E3962D9F 
 226      C30D1473 
 227 01ef 76626CE7 		.ascii	"vbl\347\302\217\327\363\344Z.\303\247\201\245\224,p"
 227      C28FD7F3 
 227      E45A2EC3 
 227      A781A594 
 227      2C70
 228 0201 12F176B9 		.ascii	"\022\361v\271\213&\216!\214\304Q\246\014\224)3J\210"
 228      8B268E21 
 228      8CC451A6 
 228      0C942933 
 228      4A88
 229 0213 A3840341 		.ascii	"\243\204\003A\024\3600G9\32710\224g\246\316j6\270_\344"
 229      14F03047 
 229      39D73130 
 229      9467A6CE 
 229      6A36B85F 
 230 0228 DC6B35EA 		.ascii	"\334k5\352\355?\237\274`\327R\216\317\033)\321\013\302"
ARM GAS  C:\Users\gjl\AppData\Local\Temp\ccOyra6S.s 			page 17


 230      ED3F9FBC 
 230      60D7528E 
 230      CF1B29D1 
 230      0BC2
 231 023a 46CAB039 		.ascii	"F\312\2609e\204\247<\371(:\261Cn\346)\277O\254uk\002"
 231      6584A73C 
 231      F9283AB1 
 231      436EE629 
 231      BF4FAC75 
 232 0250 243A17F2 		.ascii	"$:\027\362E\365\034#j`D\315\0301\216\321\265q\266\337"
 232      45F51C23 
 232      6A6044CD 
 232      18318ED1 
 232      B571B6DF 
 233 0264 2EB70207 		.ascii	".\267\002\007\271\360\367\243\015\031\277\200\023{$"
 233      B9F0F7A3 
 233      0D19BF80 
 233      137B24
 234 0273 2D9B9AC4 		.ascii	"-\233\232\304)\232d\260/9\251\310\335\334Y\3529}y\304"
 234      299A64B0 
 234      2F39A9C8 
 234      DDDC59EA 
 234      397D79C4 
 235 0287 064A39EF 		.ascii	"\006J9\357\001,S\031, \231\"!\201m\340\324\332\340K"
 235      012C5319 
 235      2C209922 
 235      21816DE0 
 235      D4DAE04B 
 236 029b BCFC022F 		.ascii	"\274\374\002/\265~\032\021\375\024GM.\031\334\234\212"
 236      B57E1A11 
 236      FD14474D 
 236      2E19DC9C 
 236      8A
 237 02ac 90E3CCEA 		.ascii	"\220\343\314\352\303M\340\215\022\3174J\377\275\007"
 237      C34DE08D 
 237      12CF344A 
 237      FFBD07
 238 02bb A7EC99BB 		.ascii	"\247\354\231\273\313\300/\207~\333\214\333\266\354\217"
 238      CBC02F87 
 238      7EDB8CDB 
 238      B6EC8F
 239 02ca AFB9C65F 		.ascii	"\257\271\306_\351\3751\035l\037\262\351\375\221|g}\202"
 239      E9FD311D 
 239      6C1FB2E9 
 239      FD917C67 
 239      7D82
 240 02dc D2568CB3 		.ascii	"\322V\214\2630?\2306XL\233\025\232\341\012\365\377\323"
 240      303F9836 
 240      584C9B15 
 240      9AE10AF5 
 240      FFD3
 241 02ee F65781DC 		.ascii	"\366W\201\334'\024\372\366\273{\367u\231\243\327\236"
 241      2714FAF6 
 241      BB7BF775 
 241      99A3D79E 
 242 02fe FD58B306 		.ascii	"\375X\263\006\314\254\031&\311a\226[\306zd\321\354\026"
 242      CCAC1926 
ARM GAS  C:\Users\gjl\AppData\Local\Temp\ccOyra6S.s 			page 18


 242      C961965B 
 242      C67A64D1 
 242      EC16
 243 0310 3CFEB1D4 		.ascii	"<\376\261\324\275^ \232\275\014\2177\347\374\001\366"
 243      BD5E209A 
 243      BD0C8F37 
 243      E7FC01F6 
 244 0320 EA62CAA7 		.ascii	"\352b\312\247\323\205&\355]B\373\371[w\356\347\312S"
 244      D38526ED 
 244      5D42FBF9 
 244      5B77EEE7 
 244      CA53
 245 0332 42FBF0C0 		.ascii	"B\373\360\300\371\007V]\373\216\343\264x\016\265\237"
 245      F907565D 
 245      FB8EE3B4 
 245      780EB59F 
 246 0342 C3E2BF61 		.ascii	"\303\342\277a\332/\241\366.M\373y\274\274bh?.\264_D"
 246      DA2FA1F6 
 246      2E4DFB79 
 246      BCBC6268 
 246      3F2EB45F 
 247 0357 19170CBA 		.ascii	"\031\027\014\272.M\373\330p\260SVN0=\267\005\312B~\240"
 247      2E4DFBD8 
 247      70B05356 
 247      4E303DB7 
 247      05CA427E 
 248 036c 3D56795A 		.ascii	"=VyZ\320\212F\356\016\027\010ZY\020\226\267\242\225"
 248      D08A46EE 
 248      0E17085A 
 248      591096B7 
 248      A295
 249 037e 78FCCBEB 		.ascii	"x\374\313\353-\224\002\244\220\3265\203\326U\320x\205"
 249      2D9402A4 
 249      90D63583 
 249      D655D078 
 249      85
 250 038f E7964339 		.ascii	"\347\226C9\371\037\033\305rO\035\230\300\012\344\363"
 250      F91F1BC5 
 250      724F1D98 
 250      C00AE4F3 
 251 039f 7F45B616 		.ascii	"\177E\266\026U\273\335\007kT_\265\267\341#\365\255\246"
 251      55BBDD07 
 251      6B545FB5 
 251      B7E123F5 
 251      ADA6
 252 03b1 7AD5BEF7 		.ascii	"z\325\276\367\355\367\312\252\334nbmnh\364\355ya\257"
 252      EDF7CAAA 
 252      DC6E626D 
 252      6E68F4ED 
 252      7961AF
 253 03c4 DAA87A3D 		.ascii	"\332\250z=>\265\376`MS\263\267N=\360nMS\325\313\007"
 253      3EB5FE60 
 253      4D53B3B7 
 253      4E3DF06E 
 253      4D53D5CB 
 254 03d9 EA8EFA8E 		.ascii	"\352\216\372\216\036Q?\254\370\200<\277\205\007\002"
 254      1E513FAC 
ARM GAS  C:\Users\gjl\AppData\Local\Temp\ccOyra6S.s 			page 19


 254      F8803CBF 
 254      850702
 255 03e8 57D4915C 		.ascii	"W\324\221\\\206\377\276\267\301\247\332\331n\237\352"
 255      86FFBEB7 
 255      C1A7DAD9 
 255      6E9FEA
 256 03f7 A92FD437 		.ascii	"\251/\3247\325\036\237g\237z\250D\243\360F\243O\365"
 256      D51E9F67 
 256      9F7AA844 
 256      A3F046A3 
 256      4FF5
 257 0409 7A9B8FF8 		.ascii	"z\233\217\370\030\015\033\313\356\336]\314\336\252\016"
 257      180D1BCB 
 257      EEDE5DCC 
 257      DEAA0E
 258 0418 AB1E6FE6 		.ascii	"\253\036o\346\225\277T\356\262z\325C\225\273\236\002"
 258      95BF54EE 
 258      B27AD543 
 258      95BB9E02 
 259 0428 AEAB0E1A 		.ascii	"\256\253\016\032"
 260              		.text
 261              		.section	.gnu.lto_.symtab.1a3d500,"",%progbits
 262 0000 4431315F 		.ascii	"D11_SetDriveMode\000"
 262      53657444 
 262      72697665 
 262      4D6F6465 
 262      00
 263 0011 00       		.ascii	"\000"
 264 0012 00       		.ascii	"\000"
 265 0013 00       		.ascii	"\000"
 266 0014 00000000 		.ascii	"\000\000\000\000\000\000\000\000"
 266      00000000 
 267 001c B3000000 		.ascii	"\263\000\000\000"
 268 0020 4431315F 		.ascii	"D11_Write\000"
 268      57726974 
 268      6500
 269 002a 00       		.ascii	"\000"
 270 002b 00       		.ascii	"\000"
 271 002c 00       		.ascii	"\000"
 272 002d 00000000 		.ascii	"\000\000\000\000\000\000\000\000"
 272      00000000 
 273 0035 B5000000 		.ascii	"\265\000\000\000"
 274 0039 4431315F 		.ascii	"D11_Read\000"
 274      52656164 
 274      00
 275 0042 00       		.ascii	"\000"
 276 0043 00       		.ascii	"\000"
 277 0044 00       		.ascii	"\000"
 278 0045 00000000 		.ascii	"\000\000\000\000\000\000\000\000"
 278      00000000 
 279 004d B8000000 		.ascii	"\270\000\000\000"
 280 0051 4431315F 		.ascii	"D11_ReadDataReg\000"
 280      52656164 
 280      44617461 
 280      52656700 
 281 0061 00       		.ascii	"\000"
 282 0062 00       		.ascii	"\000"
ARM GAS  C:\Users\gjl\AppData\Local\Temp\ccOyra6S.s 			page 20


 283 0063 00       		.ascii	"\000"
 284 0064 00000000 		.ascii	"\000\000\000\000\000\000\000\000"
 284      00000000 
 285 006c BA000000 		.ascii	"\272\000\000\000"
 286 0070 4431315F 		.ascii	"D11_SetInterruptMode\000"
 286      53657449 
 286      6E746572 
 286      72757074 
 286      4D6F6465 
 287 0085 00       		.ascii	"\000"
 288 0086 00       		.ascii	"\000"
 289 0087 00       		.ascii	"\000"
 290 0088 00000000 		.ascii	"\000\000\000\000\000\000\000\000"
 290      00000000 
 291 0090 C4000000 		.ascii	"\304\000\000\000"
 292 0094 4431315F 		.ascii	"D11_ClearInterrupt\000"
 292      436C6561 
 292      72496E74 
 292      65727275 
 292      707400
 293 00a7 00       		.ascii	"\000"
 294 00a8 00       		.ascii	"\000"
 295 00a9 00       		.ascii	"\000"
 296 00aa 00000000 		.ascii	"\000\000\000\000\000\000\000\000"
 296      00000000 
 297 00b2 C6000000 		.ascii	"\306\000\000\000"
 298              		.text
 299              		.section	.gnu.lto_.opts,"",%progbits
 300 0000 272D666D 		.ascii	"'-fmath-errno' '-fsigned-zeros' '-ftrapping-math' '"
 300      6174682D 
 300      6572726E 
 300      6F272027 
 300      2D667369 
 301 0033 2D666E6F 		.ascii	"-fno-trapv' '-fno-openmp' '-fno-openacc' '-mcpu=cor"
 301      2D747261 
 301      70762720 
 301      272D666E 
 301      6F2D6F70 
 302 0066 7465782D 		.ascii	"tex-m0' '-mthumb' '-g' '-Os' '-ffunction-sections' "
 302      6D302720 
 302      272D6D74 
 302      68756D62 
 302      2720272D 
 303 0099 272D6666 		.ascii	"'-ffat-lto-objects' '-flto'\000"
 303      61742D6C 
 303      746F2D6F 
 303      626A6563 
 303      74732720 
 304              		.text
 305              		.cfi_sections	.debug_frame
 306              		.section	.text.D11_SetDriveMode,"ax",%progbits
 307              		.align	1
 308              		.global	D11_SetDriveMode
 309              		.code	16
 310              		.thumb_func
 311              		.type	D11_SetDriveMode, %function
 312              	D11_SetDriveMode:
ARM GAS  C:\Users\gjl\AppData\Local\Temp\ccOyra6S.s 			page 21


 313              	.LFB0:
 314              		.file 1 "Generated_Source\\PSoC4\\D11.c"
   1:Generated_Source\PSoC4/D11.c **** /*******************************************************************************
   2:Generated_Source\PSoC4/D11.c **** * File Name: D11.c  
   3:Generated_Source\PSoC4/D11.c **** * Version 2.20
   4:Generated_Source\PSoC4/D11.c **** *
   5:Generated_Source\PSoC4/D11.c **** * Description:
   6:Generated_Source\PSoC4/D11.c **** *  This file contains API to enable firmware control of a Pins component.
   7:Generated_Source\PSoC4/D11.c **** *
   8:Generated_Source\PSoC4/D11.c **** ********************************************************************************
   9:Generated_Source\PSoC4/D11.c **** * Copyright 2008-2015, Cypress Semiconductor Corporation.  All rights reserved.
  10:Generated_Source\PSoC4/D11.c **** * You may use this file only in accordance with the license, terms, conditions, 
  11:Generated_Source\PSoC4/D11.c **** * disclaimers, and limitations in the end user license agreement accompanying 
  12:Generated_Source\PSoC4/D11.c **** * the software package with which this file was provided.
  13:Generated_Source\PSoC4/D11.c **** *******************************************************************************/
  14:Generated_Source\PSoC4/D11.c **** 
  15:Generated_Source\PSoC4/D11.c **** #include "cytypes.h"
  16:Generated_Source\PSoC4/D11.c **** #include "D11.h"
  17:Generated_Source\PSoC4/D11.c **** 
  18:Generated_Source\PSoC4/D11.c **** 
  19:Generated_Source\PSoC4/D11.c **** #if defined(D11__PC)
  20:Generated_Source\PSoC4/D11.c ****     #define D11_SetP4PinDriveMode(shift, mode)  \
  21:Generated_Source\PSoC4/D11.c ****     do { \
  22:Generated_Source\PSoC4/D11.c ****         D11_PC =   (D11_PC & \
  23:Generated_Source\PSoC4/D11.c ****                                 (uint32)(~(uint32)(D11_DRIVE_MODE_IND_MASK << \
  24:Generated_Source\PSoC4/D11.c ****                                 (D11_DRIVE_MODE_BITS * (shift))))) | \
  25:Generated_Source\PSoC4/D11.c ****                                 (uint32)((uint32)(mode) << \
  26:Generated_Source\PSoC4/D11.c ****                                 (D11_DRIVE_MODE_BITS * (shift))); \
  27:Generated_Source\PSoC4/D11.c ****     } while (0)
  28:Generated_Source\PSoC4/D11.c **** #else
  29:Generated_Source\PSoC4/D11.c ****     #if (CY_PSOC4_4200L)
  30:Generated_Source\PSoC4/D11.c ****         #define D11_SetP4PinDriveMode(shift, mode)  \
  31:Generated_Source\PSoC4/D11.c ****         do { \
  32:Generated_Source\PSoC4/D11.c ****             D11_USBIO_CTRL_REG = (D11_USBIO_CTRL_REG & \
  33:Generated_Source\PSoC4/D11.c ****                                     (uint32)(~(uint32)(D11_DRIVE_MODE_IND_MASK << \
  34:Generated_Source\PSoC4/D11.c ****                                     (D11_DRIVE_MODE_BITS * (shift))))) | \
  35:Generated_Source\PSoC4/D11.c ****                                     (uint32)((uint32)(mode) << \
  36:Generated_Source\PSoC4/D11.c ****                                     (D11_DRIVE_MODE_BITS * (shift))); \
  37:Generated_Source\PSoC4/D11.c ****         } while (0)
  38:Generated_Source\PSoC4/D11.c ****     #endif
  39:Generated_Source\PSoC4/D11.c **** #endif
  40:Generated_Source\PSoC4/D11.c ****   
  41:Generated_Source\PSoC4/D11.c **** 
  42:Generated_Source\PSoC4/D11.c **** #if defined(D11__PC) || (CY_PSOC4_4200L) 
  43:Generated_Source\PSoC4/D11.c ****     /*******************************************************************************
  44:Generated_Source\PSoC4/D11.c ****     * Function Name: D11_SetDriveMode
  45:Generated_Source\PSoC4/D11.c ****     ****************************************************************************//**
  46:Generated_Source\PSoC4/D11.c ****     *
  47:Generated_Source\PSoC4/D11.c ****     * \brief Sets the drive mode for each of the Pins component's pins.
  48:Generated_Source\PSoC4/D11.c ****     * 
  49:Generated_Source\PSoC4/D11.c ****     * <b>Note</b> This affects all pins in the Pins component instance. Use the
  50:Generated_Source\PSoC4/D11.c ****     * Per-Pin APIs if you wish to control individual pin's drive modes.
  51:Generated_Source\PSoC4/D11.c ****     *
  52:Generated_Source\PSoC4/D11.c ****     * <b>Note</b> USBIOs have limited drive functionality. Refer to the Drive Mode
  53:Generated_Source\PSoC4/D11.c ****     * parameter for more information.
  54:Generated_Source\PSoC4/D11.c ****     *
  55:Generated_Source\PSoC4/D11.c ****     * \param mode
ARM GAS  C:\Users\gjl\AppData\Local\Temp\ccOyra6S.s 			page 22


  56:Generated_Source\PSoC4/D11.c ****     *  Mode for the selected signals. Valid options are documented in 
  57:Generated_Source\PSoC4/D11.c ****     *  \ref driveMode.
  58:Generated_Source\PSoC4/D11.c ****     *
  59:Generated_Source\PSoC4/D11.c ****     * \return
  60:Generated_Source\PSoC4/D11.c ****     *  None
  61:Generated_Source\PSoC4/D11.c ****     *
  62:Generated_Source\PSoC4/D11.c ****     * \sideeffect
  63:Generated_Source\PSoC4/D11.c ****     *  If you use read-modify-write operations that are not atomic, the ISR can
  64:Generated_Source\PSoC4/D11.c ****     *  cause corruption of this function. An ISR that interrupts this function 
  65:Generated_Source\PSoC4/D11.c ****     *  and performs writes to the Pins component Drive Mode registers can cause 
  66:Generated_Source\PSoC4/D11.c ****     *  corrupted port data. To avoid this issue, you should either use the Per-Pin
  67:Generated_Source\PSoC4/D11.c ****     *  APIs (primary method) or disable interrupts around this function.
  68:Generated_Source\PSoC4/D11.c ****     *
  69:Generated_Source\PSoC4/D11.c ****     * \funcusage
  70:Generated_Source\PSoC4/D11.c ****     *  \snippet D11_SUT.c usage_D11_SetDriveMode
  71:Generated_Source\PSoC4/D11.c ****     *******************************************************************************/
  72:Generated_Source\PSoC4/D11.c ****     void D11_SetDriveMode(uint8 mode)
  73:Generated_Source\PSoC4/D11.c ****     {
 315              		.loc 1 73 0
 316              		.cfi_startproc
 317              		@ args = 0, pretend = 0, frame = 0
 318              		@ frame_needed = 0, uses_anonymous_args = 0
 319              		@ link register save eliminated.
 320              	.LVL0:
  74:Generated_Source\PSoC4/D11.c **** 		D11_SetP4PinDriveMode(D11__0__SHIFT, mode);
 321              		.loc 1 74 0
 322 0000 0721     		movs	r1, #7
 323 0002 034A     		ldr	r2, .L2
  75:Generated_Source\PSoC4/D11.c ****     }
 324              		.loc 1 75 0
 325              		@ sp needed
  74:Generated_Source\PSoC4/D11.c **** 		D11_SetP4PinDriveMode(D11__0__SHIFT, mode);
 326              		.loc 1 74 0
 327 0004 1368     		ldr	r3, [r2]
 328 0006 8B43     		bics	r3, r1
 329 0008 1843     		orrs	r0, r3
 330              	.LVL1:
 331 000a 1060     		str	r0, [r2]
 332              		.loc 1 75 0
 333 000c 7047     		bx	lr
 334              	.L3:
 335 000e C046     		.align	2
 336              	.L2:
 337 0010 08060440 		.word	1074005512
 338              		.cfi_endproc
 339              	.LFE0:
 340              		.size	D11_SetDriveMode, .-D11_SetDriveMode
 341              		.section	.text.D11_Write,"ax",%progbits
 342              		.align	1
 343              		.global	D11_Write
 344              		.code	16
 345              		.thumb_func
 346              		.type	D11_Write, %function
 347              	D11_Write:
 348              	.LFB1:
  76:Generated_Source\PSoC4/D11.c **** #endif
  77:Generated_Source\PSoC4/D11.c **** 
ARM GAS  C:\Users\gjl\AppData\Local\Temp\ccOyra6S.s 			page 23


  78:Generated_Source\PSoC4/D11.c **** 
  79:Generated_Source\PSoC4/D11.c **** /*******************************************************************************
  80:Generated_Source\PSoC4/D11.c **** * Function Name: D11_Write
  81:Generated_Source\PSoC4/D11.c **** ****************************************************************************//**
  82:Generated_Source\PSoC4/D11.c **** *
  83:Generated_Source\PSoC4/D11.c **** * \brief Writes the value to the physical port (data output register), masking
  84:Generated_Source\PSoC4/D11.c **** *  and shifting the bits appropriately. 
  85:Generated_Source\PSoC4/D11.c **** *
  86:Generated_Source\PSoC4/D11.c **** * The data output register controls the signal applied to the physical pin in 
  87:Generated_Source\PSoC4/D11.c **** * conjunction with the drive mode parameter. This function avoids changing 
  88:Generated_Source\PSoC4/D11.c **** * other bits in the port by using the appropriate method (read-modify-write or
  89:Generated_Source\PSoC4/D11.c **** * bit banding).
  90:Generated_Source\PSoC4/D11.c **** *
  91:Generated_Source\PSoC4/D11.c **** * <b>Note</b> This function should not be used on a hardware digital output pin 
  92:Generated_Source\PSoC4/D11.c **** * as it is driven by the hardware signal attached to it.
  93:Generated_Source\PSoC4/D11.c **** *
  94:Generated_Source\PSoC4/D11.c **** * \param value
  95:Generated_Source\PSoC4/D11.c **** *  Value to write to the component instance.
  96:Generated_Source\PSoC4/D11.c **** *
  97:Generated_Source\PSoC4/D11.c **** * \return 
  98:Generated_Source\PSoC4/D11.c **** *  None 
  99:Generated_Source\PSoC4/D11.c **** *
 100:Generated_Source\PSoC4/D11.c **** * \sideeffect
 101:Generated_Source\PSoC4/D11.c **** *  If you use read-modify-write operations that are not atomic; the Interrupt 
 102:Generated_Source\PSoC4/D11.c **** *  Service Routines (ISR) can cause corruption of this function. An ISR that 
 103:Generated_Source\PSoC4/D11.c **** *  interrupts this function and performs writes to the Pins component data 
 104:Generated_Source\PSoC4/D11.c **** *  register can cause corrupted port data. To avoid this issue, you should 
 105:Generated_Source\PSoC4/D11.c **** *  either use the Per-Pin APIs (primary method) or disable interrupts around 
 106:Generated_Source\PSoC4/D11.c **** *  this function.
 107:Generated_Source\PSoC4/D11.c **** *
 108:Generated_Source\PSoC4/D11.c **** * \funcusage
 109:Generated_Source\PSoC4/D11.c **** *  \snippet D11_SUT.c usage_D11_Write
 110:Generated_Source\PSoC4/D11.c **** *******************************************************************************/
 111:Generated_Source\PSoC4/D11.c **** void D11_Write(uint8 value)
 112:Generated_Source\PSoC4/D11.c **** {
 349              		.loc 1 112 0
 350              		.cfi_startproc
 351              		@ args = 0, pretend = 0, frame = 0
 352              		@ frame_needed = 0, uses_anonymous_args = 0
 353              		@ link register save eliminated.
 354              	.LVL2:
 113:Generated_Source\PSoC4/D11.c ****     uint8 drVal = (uint8)(D11_DR & (uint8)(~D11_MASK));
 355              		.loc 1 113 0
 356 0000 0123     		movs	r3, #1
 357 0002 0449     		ldr	r1, .L5
 114:Generated_Source\PSoC4/D11.c ****     drVal = (drVal | ((uint8)(value << D11_SHIFT) & D11_MASK));
 115:Generated_Source\PSoC4/D11.c ****     D11_DR = (uint32)drVal;
 116:Generated_Source\PSoC4/D11.c **** }
 358              		.loc 1 116 0
 359              		@ sp needed
 113:Generated_Source\PSoC4/D11.c ****     uint8 drVal = (uint8)(D11_DR & (uint8)(~D11_MASK));
 360              		.loc 1 113 0
 361 0004 0A68     		ldr	r2, [r1]
 362 0006 9A43     		bics	r2, r3
 363 0008 D2B2     		uxtb	r2, r2
 364              	.LVL3:
 115:Generated_Source\PSoC4/D11.c **** }
ARM GAS  C:\Users\gjl\AppData\Local\Temp\ccOyra6S.s 			page 24


 365              		.loc 1 115 0
 366 000a 0340     		ands	r3, r0
 367 000c 1343     		orrs	r3, r2
 368 000e 0B60     		str	r3, [r1]
 369              		.loc 1 116 0
 370 0010 7047     		bx	lr
 371              	.L6:
 372 0012 C046     		.align	2
 373              	.L5:
 374 0014 00060440 		.word	1074005504
 375              		.cfi_endproc
 376              	.LFE1:
 377              		.size	D11_Write, .-D11_Write
 378              		.section	.text.D11_Read,"ax",%progbits
 379              		.align	1
 380              		.global	D11_Read
 381              		.code	16
 382              		.thumb_func
 383              		.type	D11_Read, %function
 384              	D11_Read:
 385              	.LFB2:
 117:Generated_Source\PSoC4/D11.c **** 
 118:Generated_Source\PSoC4/D11.c **** 
 119:Generated_Source\PSoC4/D11.c **** /*******************************************************************************
 120:Generated_Source\PSoC4/D11.c **** * Function Name: D11_Read
 121:Generated_Source\PSoC4/D11.c **** ****************************************************************************//**
 122:Generated_Source\PSoC4/D11.c **** *
 123:Generated_Source\PSoC4/D11.c **** * \brief Reads the associated physical port (pin status register) and masks 
 124:Generated_Source\PSoC4/D11.c **** *  the required bits according to the width and bit position of the component
 125:Generated_Source\PSoC4/D11.c **** *  instance. 
 126:Generated_Source\PSoC4/D11.c **** *
 127:Generated_Source\PSoC4/D11.c **** * The pin's status register returns the current logic level present on the 
 128:Generated_Source\PSoC4/D11.c **** * physical pin.
 129:Generated_Source\PSoC4/D11.c **** *
 130:Generated_Source\PSoC4/D11.c **** * \return 
 131:Generated_Source\PSoC4/D11.c **** *  The current value for the pins in the component as a right justified number.
 132:Generated_Source\PSoC4/D11.c **** *
 133:Generated_Source\PSoC4/D11.c **** * \funcusage
 134:Generated_Source\PSoC4/D11.c **** *  \snippet D11_SUT.c usage_D11_Read  
 135:Generated_Source\PSoC4/D11.c **** *******************************************************************************/
 136:Generated_Source\PSoC4/D11.c **** uint8 D11_Read(void)
 137:Generated_Source\PSoC4/D11.c **** {
 386              		.loc 1 137 0
 387              		.cfi_startproc
 388              		@ args = 0, pretend = 0, frame = 0
 389              		@ frame_needed = 0, uses_anonymous_args = 0
 390              		@ link register save eliminated.
 138:Generated_Source\PSoC4/D11.c ****     return (uint8)((D11_PS & D11_MASK) >> D11_SHIFT);
 391              		.loc 1 138 0
 392 0000 024B     		ldr	r3, .L8
 139:Generated_Source\PSoC4/D11.c **** }
 393              		.loc 1 139 0
 394              		@ sp needed
 138:Generated_Source\PSoC4/D11.c ****     return (uint8)((D11_PS & D11_MASK) >> D11_SHIFT);
 395              		.loc 1 138 0
 396 0002 1868     		ldr	r0, [r3]
 397 0004 0123     		movs	r3, #1
ARM GAS  C:\Users\gjl\AppData\Local\Temp\ccOyra6S.s 			page 25


 398 0006 1840     		ands	r0, r3
 399              		.loc 1 139 0
 400 0008 7047     		bx	lr
 401              	.L9:
 402 000a C046     		.align	2
 403              	.L8:
 404 000c 04060440 		.word	1074005508
 405              		.cfi_endproc
 406              	.LFE2:
 407              		.size	D11_Read, .-D11_Read
 408              		.section	.text.D11_ReadDataReg,"ax",%progbits
 409              		.align	1
 410              		.global	D11_ReadDataReg
 411              		.code	16
 412              		.thumb_func
 413              		.type	D11_ReadDataReg, %function
 414              	D11_ReadDataReg:
 415              	.LFB3:
 140:Generated_Source\PSoC4/D11.c **** 
 141:Generated_Source\PSoC4/D11.c **** 
 142:Generated_Source\PSoC4/D11.c **** /*******************************************************************************
 143:Generated_Source\PSoC4/D11.c **** * Function Name: D11_ReadDataReg
 144:Generated_Source\PSoC4/D11.c **** ****************************************************************************//**
 145:Generated_Source\PSoC4/D11.c **** *
 146:Generated_Source\PSoC4/D11.c **** * \brief Reads the associated physical port's data output register and masks 
 147:Generated_Source\PSoC4/D11.c **** *  the correct bits according to the width and bit position of the component 
 148:Generated_Source\PSoC4/D11.c **** *  instance. 
 149:Generated_Source\PSoC4/D11.c **** *
 150:Generated_Source\PSoC4/D11.c **** * The data output register controls the signal applied to the physical pin in 
 151:Generated_Source\PSoC4/D11.c **** * conjunction with the drive mode parameter. This is not the same as the 
 152:Generated_Source\PSoC4/D11.c **** * preferred D11_Read() API because the 
 153:Generated_Source\PSoC4/D11.c **** * D11_ReadDataReg() reads the data register instead of the status 
 154:Generated_Source\PSoC4/D11.c **** * register. For output pins this is a useful function to determine the value 
 155:Generated_Source\PSoC4/D11.c **** * just written to the pin.
 156:Generated_Source\PSoC4/D11.c **** *
 157:Generated_Source\PSoC4/D11.c **** * \return 
 158:Generated_Source\PSoC4/D11.c **** *  The current value of the data register masked and shifted into a right 
 159:Generated_Source\PSoC4/D11.c **** *  justified number for the component instance.
 160:Generated_Source\PSoC4/D11.c **** *
 161:Generated_Source\PSoC4/D11.c **** * \funcusage
 162:Generated_Source\PSoC4/D11.c **** *  \snippet D11_SUT.c usage_D11_ReadDataReg 
 163:Generated_Source\PSoC4/D11.c **** *******************************************************************************/
 164:Generated_Source\PSoC4/D11.c **** uint8 D11_ReadDataReg(void)
 165:Generated_Source\PSoC4/D11.c **** {
 416              		.loc 1 165 0
 417              		.cfi_startproc
 418              		@ args = 0, pretend = 0, frame = 0
 419              		@ frame_needed = 0, uses_anonymous_args = 0
 420              		@ link register save eliminated.
 166:Generated_Source\PSoC4/D11.c ****     return (uint8)((D11_DR & D11_MASK) >> D11_SHIFT);
 421              		.loc 1 166 0
 422 0000 024B     		ldr	r3, .L11
 167:Generated_Source\PSoC4/D11.c **** }
 423              		.loc 1 167 0
 424              		@ sp needed
 166:Generated_Source\PSoC4/D11.c ****     return (uint8)((D11_DR & D11_MASK) >> D11_SHIFT);
 425              		.loc 1 166 0
ARM GAS  C:\Users\gjl\AppData\Local\Temp\ccOyra6S.s 			page 26


 426 0002 1868     		ldr	r0, [r3]
 427 0004 0123     		movs	r3, #1
 428 0006 1840     		ands	r0, r3
 429              		.loc 1 167 0
 430 0008 7047     		bx	lr
 431              	.L12:
 432 000a C046     		.align	2
 433              	.L11:
 434 000c 00060440 		.word	1074005504
 435              		.cfi_endproc
 436              	.LFE3:
 437              		.size	D11_ReadDataReg, .-D11_ReadDataReg
 438              		.section	.text.D11_SetInterruptMode,"ax",%progbits
 439              		.align	1
 440              		.global	D11_SetInterruptMode
 441              		.code	16
 442              		.thumb_func
 443              		.type	D11_SetInterruptMode, %function
 444              	D11_SetInterruptMode:
 445              	.LFB4:
 168:Generated_Source\PSoC4/D11.c **** 
 169:Generated_Source\PSoC4/D11.c **** 
 170:Generated_Source\PSoC4/D11.c **** /*******************************************************************************
 171:Generated_Source\PSoC4/D11.c **** * Function Name: D11_SetInterruptMode
 172:Generated_Source\PSoC4/D11.c **** ****************************************************************************//**
 173:Generated_Source\PSoC4/D11.c **** *
 174:Generated_Source\PSoC4/D11.c **** * \brief Configures the interrupt mode for each of the Pins component's
 175:Generated_Source\PSoC4/D11.c **** *  pins. Alternatively you may set the interrupt mode for all the pins
 176:Generated_Source\PSoC4/D11.c **** *  specified in the Pins component.
 177:Generated_Source\PSoC4/D11.c **** *
 178:Generated_Source\PSoC4/D11.c **** *  <b>Note</b> The interrupt is port-wide and therefore any enabled pin
 179:Generated_Source\PSoC4/D11.c **** *  interrupt may trigger it.
 180:Generated_Source\PSoC4/D11.c **** *
 181:Generated_Source\PSoC4/D11.c **** * \param position
 182:Generated_Source\PSoC4/D11.c **** *  The pin position as listed in the Pins component. You may OR these to be 
 183:Generated_Source\PSoC4/D11.c **** *  able to configure the interrupt mode of multiple pins within a Pins 
 184:Generated_Source\PSoC4/D11.c **** *  component. Or you may use D11_INTR_ALL to configure the
 185:Generated_Source\PSoC4/D11.c **** *  interrupt mode of all the pins in the Pins component.       
 186:Generated_Source\PSoC4/D11.c **** *  - D11_0_INTR       (First pin in the list)
 187:Generated_Source\PSoC4/D11.c **** *  - D11_1_INTR       (Second pin in the list)
 188:Generated_Source\PSoC4/D11.c **** *  - ...
 189:Generated_Source\PSoC4/D11.c **** *  - D11_INTR_ALL     (All pins in Pins component)
 190:Generated_Source\PSoC4/D11.c **** *
 191:Generated_Source\PSoC4/D11.c **** * \param mode
 192:Generated_Source\PSoC4/D11.c **** *  Interrupt mode for the selected pins. Valid options are documented in
 193:Generated_Source\PSoC4/D11.c **** *  \ref intrMode.
 194:Generated_Source\PSoC4/D11.c **** *
 195:Generated_Source\PSoC4/D11.c **** * \return 
 196:Generated_Source\PSoC4/D11.c **** *  None
 197:Generated_Source\PSoC4/D11.c **** *  
 198:Generated_Source\PSoC4/D11.c **** * \sideeffect
 199:Generated_Source\PSoC4/D11.c **** *  It is recommended that the interrupt be disabled before calling this 
 200:Generated_Source\PSoC4/D11.c **** *  function to avoid unintended interrupt requests. Note that the interrupt
 201:Generated_Source\PSoC4/D11.c **** *  type is port wide, and therefore will trigger for any enabled pin on the 
 202:Generated_Source\PSoC4/D11.c **** *  port.
 203:Generated_Source\PSoC4/D11.c **** *
 204:Generated_Source\PSoC4/D11.c **** * \funcusage
ARM GAS  C:\Users\gjl\AppData\Local\Temp\ccOyra6S.s 			page 27


 205:Generated_Source\PSoC4/D11.c **** *  \snippet D11_SUT.c usage_D11_SetInterruptMode
 206:Generated_Source\PSoC4/D11.c **** *******************************************************************************/
 207:Generated_Source\PSoC4/D11.c **** void D11_SetInterruptMode(uint16 position, uint16 mode)
 208:Generated_Source\PSoC4/D11.c **** {
 446              		.loc 1 208 0
 447              		.cfi_startproc
 448              		@ args = 0, pretend = 0, frame = 0
 449              		@ frame_needed = 0, uses_anonymous_args = 0
 450              		@ link register save eliminated.
 451              	.LVL4:
 209:Generated_Source\PSoC4/D11.c ****     uint32 intrCfg;
 210:Generated_Source\PSoC4/D11.c ****     
 211:Generated_Source\PSoC4/D11.c ****     intrCfg =  D11_INTCFG & (uint32)(~(uint32)position);
 452              		.loc 1 211 0
 453 0000 034A     		ldr	r2, .L14
 212:Generated_Source\PSoC4/D11.c ****     D11_INTCFG = intrCfg | ((uint32)position & (uint32)mode);
 213:Generated_Source\PSoC4/D11.c **** }
 454              		.loc 1 213 0
 455              		@ sp needed
 211:Generated_Source\PSoC4/D11.c ****     D11_INTCFG = intrCfg | ((uint32)position & (uint32)mode);
 456              		.loc 1 211 0
 457 0002 1368     		ldr	r3, [r2]
 458              	.LVL5:
 212:Generated_Source\PSoC4/D11.c ****     D11_INTCFG = intrCfg | ((uint32)position & (uint32)mode);
 459              		.loc 1 212 0
 460 0004 8343     		bics	r3, r0
 461              	.LVL6:
 462 0006 0840     		ands	r0, r1
 463              	.LVL7:
 464 0008 1843     		orrs	r0, r3
 465 000a 1060     		str	r0, [r2]
 466              		.loc 1 213 0
 467 000c 7047     		bx	lr
 468              	.L15:
 469 000e C046     		.align	2
 470              	.L14:
 471 0010 0C060440 		.word	1074005516
 472              		.cfi_endproc
 473              	.LFE4:
 474              		.size	D11_SetInterruptMode, .-D11_SetInterruptMode
 475              		.section	.text.D11_ClearInterrupt,"ax",%progbits
 476              		.align	1
 477              		.global	D11_ClearInterrupt
 478              		.code	16
 479              		.thumb_func
 480              		.type	D11_ClearInterrupt, %function
 481              	D11_ClearInterrupt:
 482              	.LFB5:
 214:Generated_Source\PSoC4/D11.c **** 
 215:Generated_Source\PSoC4/D11.c **** 
 216:Generated_Source\PSoC4/D11.c **** /*******************************************************************************
 217:Generated_Source\PSoC4/D11.c **** * Function Name: D11_ClearInterrupt
 218:Generated_Source\PSoC4/D11.c **** ****************************************************************************//**
 219:Generated_Source\PSoC4/D11.c **** *
 220:Generated_Source\PSoC4/D11.c **** * \brief Clears any active interrupts attached with the component and returns 
 221:Generated_Source\PSoC4/D11.c **** *  the value of the interrupt status register allowing determination of which
 222:Generated_Source\PSoC4/D11.c **** *  pins generated an interrupt event.
ARM GAS  C:\Users\gjl\AppData\Local\Temp\ccOyra6S.s 			page 28


 223:Generated_Source\PSoC4/D11.c **** *
 224:Generated_Source\PSoC4/D11.c **** * \return 
 225:Generated_Source\PSoC4/D11.c **** *  The right-shifted current value of the interrupt status register. Each pin 
 226:Generated_Source\PSoC4/D11.c **** *  has one bit set if it generated an interrupt event. For example, bit 0 is 
 227:Generated_Source\PSoC4/D11.c **** *  for pin 0 and bit 1 is for pin 1 of the Pins component.
 228:Generated_Source\PSoC4/D11.c **** *  
 229:Generated_Source\PSoC4/D11.c **** * \sideeffect
 230:Generated_Source\PSoC4/D11.c **** *  Clears all bits of the physical port's interrupt status register, not just
 231:Generated_Source\PSoC4/D11.c **** *  those associated with the Pins component.
 232:Generated_Source\PSoC4/D11.c **** *
 233:Generated_Source\PSoC4/D11.c **** * \funcusage
 234:Generated_Source\PSoC4/D11.c **** *  \snippet D11_SUT.c usage_D11_ClearInterrupt
 235:Generated_Source\PSoC4/D11.c **** *******************************************************************************/
 236:Generated_Source\PSoC4/D11.c **** uint8 D11_ClearInterrupt(void)
 237:Generated_Source\PSoC4/D11.c **** {
 483              		.loc 1 237 0
 484              		.cfi_startproc
 485              		@ args = 0, pretend = 0, frame = 0
 486              		@ frame_needed = 0, uses_anonymous_args = 0
 487              		@ link register save eliminated.
 238:Generated_Source\PSoC4/D11.c **** 	uint8 maskedStatus = (uint8)(D11_INTSTAT & D11_MASK);
 488              		.loc 1 238 0
 489 0000 0123     		movs	r3, #1
 490 0002 024A     		ldr	r2, .L17
 239:Generated_Source\PSoC4/D11.c **** 	D11_INTSTAT = maskedStatus;
 240:Generated_Source\PSoC4/D11.c ****     return maskedStatus >> D11_SHIFT;
 241:Generated_Source\PSoC4/D11.c **** }
 491              		.loc 1 241 0
 492              		@ sp needed
 238:Generated_Source\PSoC4/D11.c **** 	uint8 maskedStatus = (uint8)(D11_INTSTAT & D11_MASK);
 493              		.loc 1 238 0
 494 0004 1068     		ldr	r0, [r2]
 495 0006 1840     		ands	r0, r3
 496              	.LVL8:
 239:Generated_Source\PSoC4/D11.c **** 	D11_INTSTAT = maskedStatus;
 497              		.loc 1 239 0
 498 0008 1060     		str	r0, [r2]
 499              		.loc 1 241 0
 500 000a 7047     		bx	lr
 501              	.L18:
 502              		.align	2
 503              	.L17:
 504 000c 10060440 		.word	1074005520
 505              		.cfi_endproc
 506              	.LFE5:
 507              		.size	D11_ClearInterrupt, .-D11_ClearInterrupt
 508              		.text
 509              	.Letext0:
 510              		.file 2 "Generated_Source\\PSoC4\\cytypes.h"