ARM GAS  C:\Users\gjl\AppData\Local\Temp\ccjpp5uf.s 			page 1


   1              		.syntax unified
   2              		.cpu cortex-m0
   3              		.fpu softvfp
   4              		.eabi_attribute 20, 1
   5              		.eabi_attribute 21, 1
   6              		.eabi_attribute 23, 3
   7              		.eabi_attribute 24, 1
   8              		.eabi_attribute 25, 1
   9              		.eabi_attribute 26, 1
  10              		.eabi_attribute 30, 4
  11              		.eabi_attribute 34, 0
  12              		.eabi_attribute 18, 4
  13              		.thumb
  14              		.syntax unified
  15              		.file	"D12.c"
  16              		.text
  17              	.Ltext0:
  18              		.section	.gnu.lto_.profile.50a2b3db,"",%progbits
  19 0000 789C6361 		.ascii	"x\234ca`d`a`\000\222\352\212\000\000\331\000S"
  19      60646061 
  19      600092EA 
  19      8A0000D9 
  19      0053
  20              		.text
  21              		.section	.gnu.lto_.icf.50a2b3db,"",%progbits
  22 0000 789C6361 		.ascii	"x\234ca`d\000\0015\006\004`c8\271\177\312Cf\306'\317"
  22      60640001 
  22      35060460 
  22      6338B97F 
  22      CA4366C6 
  23 0016 8FFD6364 		.ascii	"\217\375cd\372}\350\306\031.\346\335\213\356\255\345"
  23      FA7DE8C6 
  23      192EE6DD 
  23      8BEEADE5 
  24 0026 67B9DBFC 		.ascii	"g\271\333\374\177\006'\353\217\365?ws1\000\000\2041"
  24      7F0627EB 
  24      8FF53F77 
  24      73310000 
  24      8431
  25 0038 1398     		.ascii	"\023\230"
  26              		.text
  27              		.section	.gnu.lto_.jmpfuncs.50a2b3db,"",%progbits
  28 0000 789C45C9 		.ascii	"x\234E\311\261\001\000 \010\300\260\026\320+\374\225"
  28      B1010020 
  28      08C0B016 
  28      D02BFC95 
  29 0010 D795C90C 		.ascii	"\327\225\311\014]Z\3108|\033\265\235\004$Thv\257\367"
  29      5D5AC838 
  29      7C1BB59D 
  29      04245468 
  29      76AFF7
  30 0023 2E215502 		.ascii	".!U\002@"
  30      40
  31              		.text
  32              		.section	.gnu.lto_.inline.50a2b3db,"",%progbits
  33 0000 789C658D 		.ascii	"x\234e\215\311\015\2000\014\004\327\216\343\030\011"
  33      C90D8030 
ARM GAS  C:\Users\gjl\AppData\Local\Temp\ccjpp5uf.s 			page 2


  33      0C04D78E 
  33      E31809
  34 000f 093A4807 		.ascii	"\011:H\007\224@\245<R\012%P\012%`\203\004B\231\307>"
  34      9440A53C 
  34      520A2550 
  34      0A256083 
  34      044299C7 
  35 0024 767C0808 		.ascii	"v|\010\010\301\206\017\005\254\020\301\\%\333Wh\253"
  35      C1860F05 
  35      AC10C15C 
  35      25DB5768 
  35      AB
  36 0035 0C3E2609 		.ascii	"\014>&\011K\030\254\223\322\352-\031\232\011\254\347"
  36      4B18AC93 
  36      D2EA2D19 
  36      9A09ACE7 
  37 0045 F2F44EEA 		.ascii	"\362\364N\352+\211\023\214\331OP\204\374\237x\2141\226"
  37      2B89138C 
  37      D94F5084 
  37      FC9F788C 
  37      3196
  38 0057 51D4375F 		.ascii	"Q\3247_\031\\\353\300\017\342"
  38      195CEBC0 
  38      0FE2
  39              		.text
  40              		.section	.gnu.lto_.pureconst.50a2b3db,"",%progbits
  41 0000 789C6361 		.ascii	"x\234ca`d\340e```c\220b\224b\222b\226b\221b\225\002"
  41      6064E065 
  41      60606063 
  41      90629462 
  41      92629662 
  42 0018 00059500 		.ascii	"\000\005\225\000\304"
  42      C4
  43              		.text
  44              		.section	.gnu.lto_D12_SetDriveMode.50a2b3db,"",%progbits
  45 0000 789C7D51 		.ascii	"x\234}Q9K\003a\020\235\367}\233\215\342\325\012F\260"
  45      394B0361 
  45      109DF77D 
  45      9B8DE2D5 
  45      0A46B0
  46 0013 10C446BC 		.ascii	"\020\304F\274\376\201\202\255\230V\021\321-5 Z\373%"
  46      FE8182AD 
  46      985611D1 
  46      2D35205A 
  46      FB25
  47 0025 EBE28185 		.ascii	"\353\342\201\205 \012\026b%\211\267\"xt!\242\202\205"
  47      200A1662 
  47      2589B722 
  47      787421A2 
  47      8285
  48 0037 76962216 		.ascii	"v\226\"\026+Z\305\013\304k\235\331\244\366\203of\366"
  48      2B5AC50B 
  48      C46B9DD9 
  48      A4F6836F 
  48      66F6
  49 0049 F1DEDBB7 		.ascii	"\361\336\333\267\263\026\201\344\234r\253\347^\303\027"
  49      B31681E4 
ARM GAS  C:\Users\gjl\AppData\Local\Temp\ccjpp5uf.s 			page 3


  49      9C72ABE7 
  49      5EC317
  50 0058 9AA0E6AF 		.ascii	"\232\240\346\257\210\222%\012\220\301\224\200&\024&"
  50      8892250A 
  50      90C19480 
  50      261426
  51 0067 F0AE7E14 		.ascii	"\360\256~\024rS\376\211jL\033>w\236\337\2354^\265\247"
  51      7253FE89 
  51      6A4C1B3E 
  51      779EDF9D 
  51      345EB5A7 
  52 007b 8902153A 		.ascii	"\211\002\025:\021\322hd\326\353\301\332B\231\256\003"
  52      11D26864 
  52      D6EBC1DA 
  52      4299AE03 
  53 008b F1FC7C95 		.ascii	"\361\374|\225\277\255lX3&e\314B\237\321\236\0062\320"
  53      BFAD6C58 
  53      332665CC 
  53      429FD19E 
  53      0632D0
  54 009e AC405B0C 		.ascii	"\254@[\014\3151b\200\260\216\006!\337\357\377.V\330"
  54      CD316280 
  54      B08E0621 
  54      DFEFFF2E 
  54      56D8
  55 00b0 93625F57 		.ascii	"\223b_W0\305\006l\211\271\333\2235A\340\232\354\201"
  55      30C5066C 
  55      89B9DB93 
  55      3541E09A 
  55      EC81
  56 00c2 7D766897 		.ascii	"}vh\227*\226)-\305\202\210#2\332R\242R\210\362|%\376"
  56      2A96292D 
  56      C5828823 
  56      32DA52A2 
  56      5288F27C 
  57 00d8 B352D2B5 		.ascii	"\263R\322\265\217\334\347\354\315\262-~\256\226OY\362"
  57      8FDCE7EC 
  57      CDB22D7E 
  57      AE964F59 
  57      F2
  58 00e9 72D7D137 		.ascii	"r\327\3217\345i\035\346\234y\275\334,/<N\317\315\033"
  58      E5691DE6 
  58      9C79BDDC 
  58      2C2F3C4E 
  58      CFCD1B
  59 00fc 8BA14763 		.ascii	"\213\241Gc\276\354U\254$'\341i\013[\210a\0231\316\264"
  59      BEEC55AC 
  59      2427E169 
  59      0B5B8861 
  59      1331CEB4 
  60 0110 8D55900F 		.ascii	"\215U\220\017\367\273h\247\013\216\017\307\033\2312"
  60      F7BB68A7 
  60      0B8E0FC7 
  60      1B9932
  61 011f B150B808 		.ascii	"\261P\270\010\202\240\012;\314\366\221z\211\026h\021"
  61      82A00A3B 
  61      CCF6917A 
ARM GAS  C:\Users\gjl\AppData\Local\Temp\ccjpp5uf.s 			page 4


  61      89166811 
  62 012f 575B22CB 		.ascii	"W[\"\313\027e\002\311N_\366\322\341\233#\320\330\015"
  62      176502C9 
  62      4E5FF6D2 
  62      E19B23D0 
  62      D80D
  63 0141 25EE4791 		.ascii	"%\356G\221\022\015\315m\206rK\020\350\277X{\034\213"
  63      120DCD6D 
  63      86724B10 
  63      E8BF587B 
  63      1C8B
  64 0153 25F48454 		.ascii	"%\364\204T\366\350\\\011=\374+y\005\331\001o\244\266"
  64      F6E85C09 
  64      3DFC2B79 
  64      05D9016F 
  64      A4B6
  65 0165 CB197146 		.ascii	"\313\031qF\007\306\234\241\376xb|t\320\351\355\216'"
  65      07C69CA1 
  65      FE78627C 
  65      74D0E9ED 
  65      8E27
  66 0177 3ADA7B3B 		.ascii	":\332{;[Z\233\006\311\032N\0149\177O\242\234`"
  66      5B5A9B06 
  66      C91A4E0C 
  66      397F4FA2 
  66      9C60
  67              		.text
  68              		.section	.gnu.lto_D12_Write.50a2b3db,"",%progbits
  69 0000 789C5551 		.ascii	"x\234UQ\315k\023A\034\375\275\231\335\354\326X\377\001"
  69      CD6B1341 
  69      1CFDBD99 
  69      DDECD658 
  69      FF01
  70 0012 23E4524B 		.ascii	"#\344RK\021\244~\034\275)\364*\026<\005%\264{2X\010"
  70      11A47E1C 
  70      BD29F42A 
  70      163C0525 
  70      B47B3258 
  71 0027 B6D74E92 		.ascii	"\266\327N\222&\201Z\241\036\214z0ED\332\372U\253\242"
  71      26815AA1 
  71      1E8C7A30 
  71      4544DAFA 
  71      55ABA2
  72 003a 083DAC8B 		.ascii	"\010=\254\213\220\223\025QD\261\212\024\214\037\247"
  72      90931551 
  72      44B18A14 
  72      8C1FA7
  73 0049 282D8A58 		.ascii	"(-\212X\327\337o\347b\206\235\217}\363\336\2337\277"
  73      D7DF6FE7 
  73      62869D8F 
  73      7DF3DE9B 
  73      37BF
  74 005b 710824ED 		.ascii	"q\010$\355\224\"\332\303\363N\356\320\0045\273JT\362"
  74      9422DAC3 
  74      F34EEED0 
  74      0435BB4A 
  74      54F2
ARM GAS  C:\Users\gjl\AppData\Local\Temp\ccjpp5uf.s 			page 5


  75 006d 15200BE3 		.ascii	"\025 \013\343\203&\025&\261\251\266\024\242z\373\261"
  75      83261526 
  75      B1A9B614 
  75      A27AFBB1 
  76 007d 1A9837DC 		.ascii	"\032\2307\334>~\3729h\026BT5Q\254\022'\302<\006\230"
  76      3E7EFA39 
  76      68164254 
  76      3551AC12 
  76      27C23C06 
  77 0092 F579A5FE 		.ascii	"\365y\245\376\012:\013\342u-\332\354\244\373\257\033"
  77      0A3A0BE2 
  77      752DDAEC 
  77      A4FBAF1B 
  78 00a2 5336E67D 		.ascii	"S6\346}\316\350\252\006\026\240Y\201\003\031\014f\210"
  78      CEE8AA06 
  78      16A05981 
  78      03190C66 
  78      88
  79 00b3 01C222FA 		.ascii	"\001\302\"\372\205\3745:[\320\273\023]\353\341\371\030"
  79      85FC353A 
  79      5BD0BB13 
  79      5DEBE1F9 
  79      18
  80 00c4 7DD74417 		.ascii	"}\327D\027\276l\365^4a)+\332\033\377k\2451w}\371\357"
  80      BE6CF55E 
  80      3461292B 
  80      DA1BFF6B 
  80      A531777D 
  81 00da 85DED494 		.ascii	"\205\336\324\224\244\312\342&\372l\036\334B\212o\010"
  81      A4CAE226 
  81      FA6C1EDC 
  81      428A6F08 
  82 00ea 41968E85 		.ascii	"A\226\216\205&\216+&|\341=y\343\245\025\237\2524\017"
  82      268E2B26 
  82      7CE13D79 
  82      E3A5159F 
  82      AA340F
  83 00fd DA21D976 		.ascii	"\332!\331v!\011R\002x2\370\011\332#,\242\016w\251\304"
  83      21095202 
  83      7832F809 
  83      DA232CA2 
  83      0E77A9C4 
  84 0111 77A564D6 		.ascii	"w\245d\326mD\277\247W\233\023\342_\321R\225F5z\356m"
  84      6D44BFA7 
  84      579B13E2 
  84      5FD15295 
  84      46357AEE 
  85 0126 A8AA7692 		.ascii	"\250\252v\222\350\345\306\227G\216\37553\263\306a\350"
  85      E8E5C697 
  85      478EFD35 
  85      33B3C661 
  85      E8
  86 0137 F2BBF812 		.ascii	"\362\273\370\022\346p\2454\305\365rq\007\031\334\006"
  86      E670A534 
  86      C5F57271 
  86      0719DC06 
  87 0147 E7C712A3 		.ascii	"\347\307\022\243\324F\371G}MYC\315\236\214T\376\324"
ARM GAS  C:\Users\gjl\AppData\Local\Temp\ccjpp5uf.s 			page 6


  87      D446F947 
  87      7D4D5943 
  87      CD9E8C54 
  87      FED4
  88 0159 D6601187 		.ascii	"\326`\021\207A\3668\2671\375l\273\330jl\001wY\276\216"
  88      41F638B7 
  88      31FD6CBB 
  88      D86A6C01 
  88      7759BE8E 
  89 016d 44235999 		.ascii	"D#Y\231%\242N\355u\363\204U\361\347\262\352\301\323"
  89      25A24EED 
  89      75F38455 
  89      F1E7B2EA 
  89      C1D3
  90 017f 56CD1755 		.ascii	"V\315\027U\012\3002\213\272\254=\3461ienfq\233\220\300"
  90      0AC0328B 
  90      BAAC3DE6 
  90      3169656E 
  90      66719B90 
  91 0194 8EF72CE9 		.ascii	"\216\367,\351W\312R\374$\200\327}\230o3\177h\036\262"
  91      57CA52FC 
  91      2480D77D 
  91      986F337F 
  91      681EB2
  92 01a7 A41E0B45 		.ascii	"\244\036\013E\215\253;\004\350\272q\311\230t\367\245"
  92      8DAB3B04 
  92      E8BA71C9 
  92      9874F7A5 
  93 01b7 EFF3066B 		.ascii	"\357\363\006k\350\033\312\341\333!\021$/\331Q\220\002"
  93      E81BCAE1 
  93      DB211124 
  93      2FD95190 
  93      02
  94 01c8 73B9770D 		.ascii	"s\271w\015\005\247\203b\376L0zrxl\2748\022\344\216\016"
  94      05A78362 
  94      FE4C307A 
  94      72786CBC 
  94      3812E48E 
  95 01dd 8F1D3E98 		.ascii	"\217\035>\230;\262o\377\336\021r'\362\205\361\300\035"
  95      3BB26FFF 
  95      DE117227 
  95      F285F1C0 
  95      1D
  96 01ee 2D1ECF17 		.ascii	"-\036\317\027\376\001\012\222\321/"
  96      FE010A92 
  96      D12F
  97              		.text
  98              		.section	.gnu.lto_D12_Read.50a2b3db,"",%progbits
  99 0000 789C4D8F 		.ascii	"x\234M\217\317KBA\020\307\347\273\3734\021\372\0132"
  99      CF4B4241 
  99      10C7E7BB 
  99      FB3411FA 
  99      0B32
 100 0012 EAEA25FA 		.ascii	"\352\352%\372u\351\324\241\250k\344-\204\010{\327\004"
 100      75E9D4A1 
 100      A86BE42D 
 100      84087BD7 
ARM GAS  C:\Users\gjl\AppData\Local\Temp\ccjpp5uf.s 			page 7


 100      04
 101 0023 A9B3ABCF 		.ascii	"\251\263\253\317g\020\006\022T\247\362\020\244f\021"
 101      67100612 
 101      54A7F210 
 101      A46611
 102 0032 51743611 		.ascii	"Qt6\021\012\202\272y\216\010\017\235J\262 *\233\361"
 102      0A82BA79 
 102      8E080F9D 
 102      4AB2202A 
 102      9BF1
 103 0044 75686167 		.ascii	"uhagvg>\373\375\316Z\004\2225\311i\200s\037oh\202\312"
 103      76673EFB 
 103      FDCE5A04 
 103      9235C969 
 103      80731F6F 
 104 005b DF11A502 		.ascii	"\337\021\245\002\012\220\203\011\200\222\012I\264\325"
 104      0A908309 
 104      80920A49 
 104      B4D5
 105 0069 B7C2EDC7 		.ascii	"\267\302\355\307M.\030.\032\2236\017\356\341\304n\251"
 105      4D2E182E 
 105      1A93360F 
 105      EEE1C46E 
 105      A9
 106 007a 0A571375 		.ascii	"\012W\023u\024a,\204\341\220H\024\021&F\037\317~\266"
 106      14612C84 
 106      E1904814 
 106      1126461F 
 106      CF7EB6
 107 008d 7BFD19C3 		.ascii	"{\375\031\303kP\000\356\224\340\027\313\323\371\252"
 107      6B5000EE 
 107      94E017CB 
 107      D3F9AA
 108 009c E9741C53 		.ascii	"\351t\034S=\017^]\006\271\344j\366\345`I\360\221(\322"
 108      3D0F5E5D 
 108      06B9E46A 
 108      F6E56049 
 108      F09128D2 
 109 00b0 0BBF10FF 		.ascii	"\013\277\020\377W\245$\353&j\237\033\215\362\202\210"
 109      57A524EB 
 109      266A9F1B 
 109      8DF28288 
 110 00c0 385AB3C1 		.ascii	"8Z\263\301\216[\273\357yS\256V\020\277\367\375\255\003"
 110      8E5BBBEF 
 110      7953AE56 
 110      10BFF7FD 
 110      AD03
 111 00d2 78D74C2E 		.ascii	"x\327L.o,.U\332\215MU\300^*\303Sj\034!\2042xFTP\000"
 111      6F2C2E55 
 111      DA8D4D55 
 111      C05E2AC3 
 111      536A1C21 
 112 00ed 35E1B466 		.ascii	"5\341\264f\310\321\360\344.\352\327\331\200\274\267"
 112      C8D1F0E4 
 112      2EEAD7D9 
 112      80BCB7
 113 00fc 001C33C6 		.ascii	"\000\0343\306\375\257l\335\347\031Z\314\375\207\230"
ARM GAS  C:\Users\gjl\AppData\Local\Temp\ccjpp5uf.s 			page 8


 113      FDAF6CDD 
 113      E7195ACC 
 113      FD8798
 114 010b C149174A 		.ascii	"\301I\027J\267\326\237\340A>\346\350\031\352\357F\335"
 114      B7D69FE0 
 114      413EE6E8 
 114      19EAEF46 
 114      DD
 115 011c 6F40C6E7 		.ascii	"o@\306\347\317\364\317\332+vbi\325^^\214\304\327\022"
 115      CFF4CFDA 
 115      2B766269 
 115      D55E5E8C 
 115      C4D712
 116 012f 313B3A17 		.ascii	"1;:\027\211O\215G\247GF\207b\364\013r\223r\024"
 116      894F8D47 
 116      A7474687 
 116      62F40B72 
 116      937214
 117              		.text
 118              		.section	.gnu.lto_D12_ReadDataReg.50a2b3db,"",%progbits
 119 0000 789C4D8F 		.ascii	"x\234M\217=K\003A\020\206\347\335\275\304`\360\027\030"
 119      3D4B0341 
 119      1086E7DD 
 119      BDC460F0 
 119      1718
 120 0012 D1368DF8 		.ascii	"\3216\215\370\325XY(\332\212\351$ \022\2575\020\264"
 120      D5585928 
 120      DA8AE924 
 120      2012AF35 
 120      10B4
 121 0024 CE26978B 		.ascii	"\316&\227\213 )\322\030\025Q\313D\215\210(\330\306\020"
 121      2029D218 
 121      1551CB44 
 121      8D8828D8 
 121      C610
 122 0036 5010F407 		.ascii	"P\020\364\007\330\210H\020+\015~\200\250\347L\316\302"
 122      D8884810 
 122      2B0D7E80 
 122      A8E74CCE 
 122      C2
 123 0047 859DD99D 		.ascii	"\205\235\331\235}\366}g,\002\311\032\343\324\313\271"
 123      7DF67D67 
 123      2C02C91A 
 123      E3D4CBB9 
 124 0057 9B373441 		.ascii	"\23374A\025\257\2112!\005\310\301\204@i\2054\336\324"
 124      15AF8932 
 124      2105C8C1 
 124      84406985 
 124      34DED4
 125 006a B7C2D5C7 		.ascii	"\267\302\325\307e\2413Z6&k\356\334\223\321\365J\015"
 125      65A1335A 
 125      36266BEE 
 125      DC93D1F5 
 125      4A0D
 126 007c AE26F214 		.ascii	"\256&\362\024a8\202\201\210H\224\021%F\357\217\177\326"
 126      61388281 
 126      88489411 
ARM GAS  C:\Users\gjl\AppData\Local\Temp\ccjpp5uf.s 			page 9


 126      2546EF8F 
 126      7FD6
 127 008e BA8239C3 		.ascii	"\272\2029\303\253O\000~\251 (\226G35\343y\216\251m\205"
 127      AB4F007E 
 127      A9202896 
 127      473335E3 
 127      798EA96D 
 128 00a3 CF77C25C 		.ascii	"\317w\302\\r5\373r\260$\004H\024\351\231\177\210\377"
 128      7235FB72 
 128      B0240448 
 128      14E9997F 
 128      88FF
 129 00b5 8B529275 		.ascii	"\213R\222u\023\365\317\325\367\352\254\2108Z\263A\311"
 129      13F5CFD5 
 129      F7EAAC88 
 129      385AB341 
 129      C9
 130 00c6 ADDF74BC 		.ascii	"\255\337t\274*W+\210_\266\364xf\371WS(\032\213K\233"
 130      2A572B88 
 130      5FB6F478 
 130      66F95753 
 130      281A8B4B 
 131 00db B7DE0676 		.ascii	"\267\336\006v\261\235\311q\227\032\373\210`\017\334"
 131      B19DC971 
 131      971AFB88 
 131      600FDC
 132 00ea 230EB84A 		.ascii	"#\016\270JM8\255Ir4|\271\323\306E>$\377-\000U\306\370"
 132      4D38AD49 
 132      72347CB9 
 132      D3C6453E 
 132      24FF2D00 
 133 0101 FD2BDF08 		.ascii	"\375+\337\010\370\206\026s\377!fp\330\206\262\255\225"
 133      F8861673 
 133      FF216670 
 133      D886B2AD 
 133      95
 134 0112 07F85080 		.ascii	"\007\370P\2009z\202\372\273Q{\014H\373<L\317\224\275"
 134      397A82FA 
 134      BB517B0C 
 134      48FB3C4C 
 134      CF94BD
 135 0125 68A7E697 		.ascii	"h\247\346\227\354\205\271Xr9\225\260\343\323\261\344"
 135      EC85B958 
 135      723995B0 
 135      E3D3B1E4 
 136 0135 F8487C62 		.ascii	"\370H|bp\250?A\277g\001r\012"
 136      70A83F41 
 136      BF670172 
 136      0A
 137              		.text
 138              		.section	.gnu.lto_D12_SetInterruptMode.50a2b3db,"",%progbits
 139 0000 789C6D51 		.ascii	"x\234mQMk\023Q\024\275\367\275If\362\321\321\205;+d"
 139      4D6B1351 
 139      14BDF7BD 
 139      4966F2D1 
 139      D1853B2B 
 140 0015 53423685 		.ascii	"SB6\205\212\376\202\012\356\244\330mAJ\033%\0133\022"
ARM GAS  C:\Users\gjl\AppData\Local\Temp\ccjpp5uf.s 			page 10


 140      8AFE820A 
 140      EEA4D86D 
 140      414A1B25 
 140      0B3312
 141 0028 E3BA2F99 		.ascii	"\343\272/\231$\205R\264(\015X,Eeh\264j?\025\254.\306"
 141      248552B4 
 141      280D582C 
 141      456568B4 
 141      6A3F15AC 
 142 003e 803B3FA8 		.ascii	"\200;?\250U\212\012\"\025S(Y\244_(R\033\357\235\311"
 142      558A0A22 
 142      15532859 
 142      A45F2852 
 142      1BEF9DC9 
 143 0052 A6E08399 		.ascii	"\246\340\203\231\367\356\341\234\363\316\275O\003\004"
 143      F7EEE19C 
 143      F3CEBD4F 
 143      0304
 144 0060 5E150170 		.ascii	"^\025\001p\232\366\343\364\241\004\024c\357\000r\206"
 144      9AF6E3F4 
 144      A1041463 
 144      EF007286 
 145 0070 40E48332 		.ascii	"@\344\2032\020\206\004\016\341\236\370+\260:\\{.\022"
 145      1086040E 
 145      E19EF82B 
 145      B03A5C7B 
 145      2E12
 146 0082 D38AD6F7 		.ascii	"\323\212\326\367\237\033]\252\342bQ\0024\205\347\004"
 146      9F1B5DAA 
 146      E2625102 
 146      3485E704 
 147 0092 388D0962 		.ascii	"8\215\011b\275n\376r\217\354\212\242Dd\321\207\306\233"
 147      BD6EFE72 
 147      8FEC8AA2 
 147      4464D187 
 147      C69B
 148 00a4 C9089702 		.ascii	"\311\010\227\002\217R9\261\351\224M\031C\240\363\306"
 148      8F5239B1 
 148      E9944D19 
 148      43A0F3C6 
 149 00b4 D2BDB570 		.ascii	"\322\275\265p\334Q*\257\324x\277\012\024\245\304\207"
 149      DC512AAF 
 149      D478BF0A 
 149      14A5C487 
 150 00c4 28C90F1F 		.ascii	"(\311\017\037`;V\260\035\010\002\234\3018\261w\026\235"
 150      603B56B0 
 150      1D08029C 
 150      C138B177 
 150      169D
 151 00d6 5B1199F0 		.ascii	"[\021\231\360\224\333\266cG[\312\265\226\362\321\177"
 151      94DBB663 
 151      475BCAB5 
 151      96F2D17F 
 152 00e6 948F31CE 		.ascii	"\224\2171\316\364\225\302\334\035\351G\322\250\334z"
 152      F495C2DC 
 152      1DE947D2 
 152      A8DC7A
ARM GAS  C:\Users\gjl\AppData\Local\Temp\ccjpp5uf.s 			page 11


 153 00f5 3BF1C3F4 		.ascii	";\361\303\364#\305\250\234q>9Bvz\306#\237o.\264u\334"
 153      23C5A89C 
 153      713E3942 
 153      767AC623 
 153      9F6F2EB4 
 154 010b 676377F5 		.ascii	"gcw\365\272y[\271\205XQj8\347\233\317\222\371\0232\347"
 154      BA795BB9 
 154      8558516A 
 154      38E79BCF 
 154      92F91332 
 155 0120 45ECF5F9 		.ascii	"E\354\365\371\203\361\266`\201\007\022\303y\354\360"
 155      83F1B660 
 155      810712C3 
 155      79ECF0
 156 012f 47810B18 		.ascii	"G\201\013\030\244\341\"#\263\347]\325l\332\312]1_}1"
 156      A4E12223 
 156      B3E75DD5 
 156      6CDACA5D 
 156      315F7D31 
 157 0143 A3826205 		.ascii	"\243\202b\005(\005u\244\3611\300\277 0SGNk\020\020\014"
 157      280575A4 
 157      F131C0BF 
 157      20305347 
 157      4E6B1010 
 158 0158 311AE61F 		.ascii	"1\032\346\037@\203\034\371%\266\204\340]\326\260\372"
 158      40831CF9 
 158      25B684E0 
 158      5DD6B0FA 
 159 0168 67E4DB72 		.ascii	"g\344\333r\017_bK\036p\271X}\257s7\272\327\301\336\352"
 159      0F5F624B 
 159      1E70B958 
 159      7DAF7337 
 159      BAD7C1DE 
 160 017d 8B7CD42F 		.ascii	"\213|\324/GG\307\024\367\273[/\337\320\246p2W\240\367"
 160      4747C714 
 160      F7BB5B2F 
 160      DFD0A670 
 160      3257A0F7 
 161 0191 3270899A 		.ascii	"2p\211\232X\344&\360)N!\3240\277=\274\257\371\206\232"
 161      58E426F0 
 161      294E21D4 
 161      30BF3DBC 
 161      AFF9869A 
 162 01a5 4D6323E4 		.ascii	"Mc#\344\240T\227>\022 \220\020{\277TG\037\341{\011\207"
 162      A054973E 
 162      12209010 
 162      7BBF5447 
 162      1FE17B09 
 163 01ba 75145EAB 		.ascii	"u\024^\253\024\236@\237S[~\331b\031\344dK\335\263\327"
 163      149E409F 
 163      535B7ED9 
 163      6219E464 
 163      4BDDB3D7 
 164 01ce 7D284428 		.ascii	"}(D(\323~\227>\266\314\303\236[\210\300j\371\3561\306"
 164      D37E973E 
 164      B6CCC39E 
 164      5B88C06A 
ARM GAS  C:\Users\gjl\AppData\Local\Temp\ccjpp5uf.s 			page 12


 164      F9EE31C6 
 165 01e2 0EC5CD29 		.ascii	"\016\305\315)\0259\234\370\031%&\031lb\336\375z\216"
 165      15399CF8 
 165      19252619 
 165      6C62DEFD 
 165      7A8E
 166 01f4 05DE5B34 		.ascii	"\005\336[4\004\362thV'\316&\323\311L\17769x\241\327"
 166      04F27468 
 166      5627CE26 
 166      D3C94C7F 
 166      363978A1 
 167 0209 BA961948 		.ascii	"\272\226\031H\366\365\364Z\335\247\372\316t\235\354"
 167      F6F5F45A 
 167      DDA7FACE 
 167      749DEC
 168 0218 1C00E38A 		.ascii	"\034\000\343\212u5\225MYi\355\2625\230\324S\351l\246"
 168      7535954D 
 168      5969EDB2 
 168      3598D453 
 168      E96CA6
 169 022b FBE2A57F 		.ascii	"\373\342\245\177b\000\353\306"
 169      6200EBC6 
 170              		.text
 171              		.section	.gnu.lto_D12_ClearInterrupt.50a2b3db,"",%progbits
 172 0000 789C5590 		.ascii	"x\234U\220\315K[A\024\305\357\231y\371hQ\362\007\030"
 172      CD4B5B41 
 172      14C5EF99 
 172      79F96851 
 172      F20718
 173 0013 219B2C84 		.ascii	"!\233,\204\"\265\272\260\340N\301\255\230\255P\202\276"
 173      22B5BAB0 
 173      E04EC1AD 
 173      98AD5082 
 173      BE
 174 0024 55A982C6 		.ascii	"U\251\202\306m\235\030_\004\021\214\013u%Y\010&Z?Z\320"
 174      6D9D185F 
 174      04118C0B 
 174      75255908 
 174      265A3F5A 
 175 0039 55497906 		.ascii	"UIy\006m\005Q\301}\241Dp\241\210\037\264\006\324\032"
 175      6D0551C1 
 175      7DA14470 
 175      A1881FB4 
 175      06D41A
 176 004c EFCD73A1 		.ascii	"\357\315s\241\003\217\2319\357\236\337\234{-\002\311"
 176      038F9939 
 176      EF9EDF9C 
 176      7B2D02C9 
 177 005c FACDDB1B 		.ascii	"\372\315\333\033\336\353\370\203&\250\314\001Q2\250"
 177      DEEBF883 
 177      26A8CC01 
 177      5132A8
 178 006b 00399820 		.ascii	"\0009\230 hDa\004\377\324\177\205\275\362\356\344\353"
 178      68446104 
 178      FFD47F85 
 178      BDF2EEE4 
 178      EB
ARM GAS  C:\Users\gjl\AppData\Local\Temp\ccjpp5uf.s 			page 13


 179 007c 869C31A3 		.ascii	"\206\2341\243\346\217S~?\227w\341h\242\212\"4\207\361"
 179      E68F537E 
 179      3F9777E1 
 179      68A28A22 
 179      3487F1
 180 008f 362C881C 		.ascii	"6,\210\034\032\210K\217\327\356r\265:\0029\357/\236"
 180      1A884B8F 
 180      D7EE72B5 
 180      3A0239EF 
 180      2F9E
 181 00a1 6F22BA20 		.ascii	"o\"\272 6\2670U3g\334d\204}\310C?\267\222\324\226\276"
 181      36B73055 
 181      3367DC64 
 181      847DC843 
 181      3FB792D4 
 182 00b7 3DCCD4FA 		.ascii	"=\314\324\372\307\014\257\010\226\020\0258S\227\341"
 182      C70CAF08 
 182      96101538 
 182      5397E1
 183 00c6 E79C1065 		.ascii	"\347\234\020e\275\3335\225J\312\270\337C[G\241\240\""
 183      BDDB3595 
 183      4ACAB8DF 
 183      435B47A1 
 183      A022
 184 00d8 47736E47 		.ascii	"GsnG+\213\344\267O\356\001\222\\t\311^\351\342J)\331"
 184      2B8BE4B7 
 184      4FEE0192 
 184      5C74C95E 
 184      E9E24A29 
 185 00ed F5098AB7 		.ascii	"\365\011\212\267\0237\205\317\202Ki\351h\326)\036\006"
 185      133785CF 
 185      824B69E9 
 185      68D6291E 
 185      06
 186 00fe FE2A47EB 		.ascii	"\376*G\353j\322\351\203\263\374+\357\232\231\314\030"
 186      6AD2E983 
 186      B3FC2BEF 
 186      9A99CC18 
 187 010e 8BA5ECA9 		.ascii	"\213\245\354\251\271\360g1\237\034\343^-\254 \214/\340"
 187      B9F06731 
 187      9F1CE35E 
 187      2DAC208C 
 187      2FE0
 188 0120 B8584516 		.ascii	"\270XE\026t\202\321\353\361{\345\00153YI\335\247\267"
 188      7482D1EB 
 188      F17BE501 
 188      35335949 
 188      DDA7B7
 189 0133 E129168B 		.ascii	"\341)\026\213\314\330\251\224\335\220`\025\024\326\330"
 189      CCD8A994 
 189      DD906015 
 189      14D6D8
 190 0142 5D42D522 		.ascii	"]B\325\"y\271\310\243<\024\332<\223\317\223\212\263"
 190      79B9C8A3 
 190      3C14DA3C 
 190      93CF938A 
 190      B3
ARM GAS  C:\Users\gjl\AppData\Local\Temp\ccjpp5uf.s 			page 14


 191 0153 55C88B08 		.ascii	"U\310\213\010Ic|/S\254s\012\266\310\263\327\351\237"
 191      49637C2F 
 191      53AC730A 
 191      B6C8B3D7 
 191      E99F
 192 0165 3F5A3D44 		.ascii	"?Z=D\200\021l\334\330\376\225\016\312\273>\000_\271"
 192      80116CDC 
 192      D8FE950E 
 192      CABB3E00 
 192      5FB9
 193 0177 FE144F51 		.ascii	"\376\024OQ\003T\035\017d,<\244\372N\273\337\036\214"
 193      03541D0F 
 193      642C3CA4 
 193      FA4EBBDF 
 193      1E8C
 194 0189 27ECBE0F 		.ascii	"'\354\276\017\261\201\341\301^\273\247+6\320\336\322"
 194      B181E1C1 
 194      5EBBA72B 
 194      36D0DED2 
 195 0199 D3D1F4AE 		.ascii	"\323\321\364\256\261\227j>\305\207>\332}\261D<1<\364"
 195      B1976A3E 
 195      C5873EDA 
 195      7DB1443C 
 195      313CF4
 196 01ac 0855B6A9 		.ascii	"\010U\266\251\331"
 196      D9
 197              		.text
 198              		.section	.gnu.lto_.symbol_nodes.50a2b3db,"",%progbits
 199 0000 789C6361 		.ascii	"x\234ca`d\310`\000\002&\206z\006\206\011\347\030@\324"
 199      6064C860 
 199      00022686 
 199      7A068609 
 199      E71840D4 
 200 0014 AE0645A0 		.ascii	"\256\006E\240\000c=#\252\000S=\023\252\000s=3\252\000"
 200      00633D23 
 200      AA00533D 
 200      13AA0073 
 200      3D33AA00 
 201 0028 4B3D0BAA 		.ascii	"K=\013\252\000k=+\212\000\003\000\305\333\026\342"
 201      006B3D2B 
 201      8A000300 
 201      C5DB16E2 
 202              		.text
 203              		.section	.gnu.lto_.refs.50a2b3db,"",%progbits
 204 0000 789C6361 		.ascii	"x\234ca`\004B \000\000\0009\000\007"
 204      60044220 
 204      00000039 
 204      0007
 205              		.text
 206              		.section	.gnu.lto_.decls.50a2b3db,"",%progbits
 207 0000 789C8D54 		.ascii	"x\234\215TmH[g\024~\317\275ILn\254\212\310\360G\006"
 207      6D485B67 
 207      147ECFBD 
 207      494C6EAC 
 207      8AC8F047 
 208 0015 AE3F1261 		.ascii	"\256?\022a S\307\330\237\301@Y7\330\326QY\367\247P\242"
 208      2053C7D8 
ARM GAS  C:\Users\gjl\AppData\Local\Temp\ccjpp5uf.s 			page 15


 208      9FC14059 
 208      37D8D651 
 208      59F7A750 
 209 002a 5E3AA168 		.ascii	"^:\241h\311\342\240\377^\374\350dP\246\320\265~R?\330"
 209      C9E2A0FF 
 209      5EFCE864 
 209      50A6D0B5 
 209      7E523FD8 
 210 003e 164DACDA 		.ascii	"\026M\254\332\030\233h\267\244\235f\316\332V\323_\""
 210      189B68B7 
 210      A49D66CE 
 210      DA56D35F 
 210      22
 211 004f CE6EAE74 		.ascii	"\316n\256t[\367\341\326\302p\303e\347}\337{so\273\310"
 211      5BF7E1D6 
 211      C270C365 
 211      E77DDF7B 
 211      736FBBC8 
 212 0063 7CC9793F 		.ascii	"|\311y?\317y\316s\236{\210\205\000a\303b#$\201k\010"
 212      CF79CE73 
 212      9E7B8885 
 212      0061C362 
 212      2324816B 
 213 0078 8F691C39 		.ascii	"\217i\0349\270?J\214\201\317$\214\026A\213\242\315\242"
 213      B83F4A8C 
 213      81CF248C 
 213      16418BA2 
 213      CDA2
 214 008a CDA325C9 		.ascii	"\315\243%\311\177GX\363g\361\227\320<h)\264\025\264"
 214      7F4758F3 
 214      67F197D0 
 214      3C6829B4 
 214      15B4
 215 009c C39A0F68 		.ascii	"\303\232\017h~O\016\206\237\363D\254k\217\370H\226x"
 215      7E4F0E86 
 215      9FF344AC 
 215      6B8FF848 
 215      9678
 216 00ae C6CDFA3F 		.ascii	"\306\315\372?y\243Y\342f\367\0217\233%\216i\340\320"
 216      79A359E2 
 216      66F71137 
 216      9B258E69 
 216      E0D0
 217 00c0 F816A215 		.ascii	"\370\026\242\025\241\305\321\2265\034\267\011K\307\231"
 217      A1C5D196 
 217      351CB709 
 217      4BC799
 218 00cf CF82C374 		.ascii	"\317\202\303t\264\355\243\346lz\357J\260\322\226\274"
 218      B4EDA3E6 
 218      6C7AEF4A 
 218      B0D296BC 
 219 00df 625F8735 		.ascii	"b_\2075\220@\373\240\004@\314\300\215\010\343G\334H"
 219      9040FBA0 
 219      0440CCC0 
 219      8D08E347 
 219      DC48
 220 00f1 7C2699AB 		.ascii	"|&\231\253\314B\330L\204?\2773\300\370O_\323\372\340"
ARM GAS  C:\Users\gjl\AppData\Local\Temp\ccjpp5uf.s 			page 16


 220      CC42D84C 
 220      843FBF33 
 220      C0F84F5F 
 220      D3FAE0
 221 0104 20063A68 		.ascii	" \006:hA\220a \242\304\273\244\243\212E2\002Lx\202\256"
 221      41906120 
 221      A2C4BBA4 
 221      A38A4532 
 221      024C7882 
 222 0119 89133C5E 		.ascii	"\211\023<^\023\350E\377\232\350\032p\310X1\3567w\002"
 222      13E845FF 
 222      9AE81A70 
 222      C85831EE 
 222      377702
 223 012c AF948528 		.ascii	"\257\224\205(\216NJ\245g\015e&\332\277\037\265?\222"
 223      8E4E4AA5 
 223      670D6526 
 223      DABF1FB5 
 223      3F92
 224 013e C0A5401A 		.ascii	"\300\245@\032\330\371\347\330\316\001qf\317=][\3778"
 224      D8F9E7D8 
 224      CE017166 
 224      CF3D5D5B 
 224      FF38
 225 0150 6517DB4B 		.ascii	"e\027\333Kw\266\202?Z\240T\371\224\301\334\375x\364"
 225      77B6823F 
 225      5AA054F9 
 225      94C1DCFD 
 225      78F4
 226 0162 A518A505 		.ascii	"\245\030\245\005p\011\024\010\201\014\243P\306\222\273"
 226      70091408 
 226      810CA350 
 226      C692BB
 227 0171 149C3B28 		.ascii	"\024\234;(m\241\333\303\324VL\240\322\005\317\271\010"
 227      6DA1DBC3 
 227      D4564CA0 
 227      D205CFB9 
 227      08
 228 0182 8C4329C3 		.ascii	"\214C)\303d^\020\004\027\214\201\213\341\337\273p\361"
 228      645E1004 
 228      178C818B 
 228      E1DFBB70 
 228      F1
 229 0193 81CD2261 		.ascii	"\201\315\"a \303\251\265\260\273\205\364\237\211|\244"
 229      20C3A9B5 
 229      B0BB85F4 
 229      9F897CA4 
 230 01a3 50A88084 		.ascii	"P\250\200\204\307\324\366\362\200\023\217E\012\024\340"
 230      C7D4F6F2 
 230      80138F45 
 230      0A14E0
 231 01b2 F1D6B9B5 		.ascii	"\361\326\271\265\024\024\237g\034h+-\221\340\350S0\205"
 231      14149F67 
 231      1C682B2D 
 231      91E0E853 
 231      3085
 232 01c4 80930848 		.ascii	"\200\223\010H\3402\024\343<\001\026Q]d\354\243M\345"
ARM GAS  C:\Users\gjl\AppData\Local\Temp\ccjpp5uf.s 			page 17


 232      E03214E3 
 232      3C011651 
 232      5D64ECA3 
 232      4DE5
 233 01d6 E0201D9C 		.ascii	"\340 \035\234\244w{\316\274>4r\206\256`\334\313\334"
 233      A4777BCE 
 233      BC3E3472 
 233      86AE60DC 
 233      CBDC
 234 01e8 1102066D 		.ascii	"\021\002\006m\334\262\3453XG1\303p\020c\177\030I\256"
 234      DCB2E533 
 234      584731C3 
 234      7010637F 
 234      1849AE
 235 01fb 4A722D97 		.ascii	"Jr-\227a8|\2777_\340$\342\037\310=4\321\2020\022G\231"
 235      61387CBF 
 235      375FE024 
 235      E21FC83D 
 235      34D18230 
 236 0212 3650A6CD 		.ascii	"6P\246\315(\021\216\262\366\335F\237,\237\344(\003\235"
 236      28118EB2 
 236      F6DD469F 
 236      2C9FE428 
 236      039D
 237 0224 23634E33 		.ascii	"#cN3uV\263\301\375\012\347^\253Qo\335\355\3348\240\245"
 237      7556B3C1 
 237      FD0AE75E 
 237      AB516FDD 
 237      EDDC38A0 
 238 0239 9C5A3252 		.ascii	"\234Z2R\242\027\314\030)g\314)\243<\345\331\340/-yr"
 238      A217CC18 
 238      2967CC29 
 238      A33CE5D9 
 238      E02F2D79 
 239 024e 334FB91B 		.ascii	"3O\271\033\034\037tj(\3357rE\365\034#f`\304\314\030"
 239      1C1F746A 
 239      28DD3772 
 239      45F51C23 
 239      6660C4CC 
 240 0263 B31CA36F 		.ascii	"\263\034\243o\355\333\353N\271\0358\310'\177\375\275"
 240      EDDBEB4E 
 240      B91D38C8 
 240      277FFDBD 
 241 0273 2DE31770 		.ascii	"-\343\027pc\217\244eS\223\270E\223\004\206\222aE\356"
 241      638FA465 
 241      5393B845 
 241      93048692 
 241      6145EE
 242 0286 E5CE52FF 		.ascii	"\345\316R\377\271k\3436PJy\017`\231J \217d\212\204\004"
 242      B96BE336 
 242      504A790F 
 242      60994A20 
 242      8F648A84 
 243 029b B6815B6B 		.ascii	"\266\201[k\203\317\361\362*^j\3754.\372)\216\232|ap"
 243      83CFF1F2 
 243      2A5E6AFD 
 243      342EFA29 
ARM GAS  C:\Users\gjl\AppData\Local\Temp\ccjpp5uf.s 			page 18


 243      8E9A7C61 
 244 02b0 732B428E 		.ascii	"s+B\216\363w\036\355\000o\224x\246Q\206\177{\330e\317"
 244      F3771EED 
 244      006F9478 
 244      A651867F 
 244      7BD865CF 
 245 02c4 DC5D037E 		.ascii	"\334]\003~9\366\323N\334\266g\177|\3115\276\256\367"
 245      39F6D34E 
 245      DCB6677F 
 245      7CC935BE 
 245      AEF7
 246 02d6 47B2A39B 		.ascii	"G\262\243\233\202\336\037\311\303[\227)m\3078\013\363"
 246      82DE1FC9 
 246      C35B9729 
 246      6DC7380B 
 246      F3
 247 02e7 833983C5 		.ascii	"\2039\203\305\234Y\241y\256\320z4\220r\310CB\241\276"
 247      9C59A179 
 247      AED07A34 
 247      9072C843 
 247      42A1BE
 248 02fa 0BBD6775 		.ascii	"\013\275gu\231c\267\037\377X\013\006\314\202\031&\311"
 248      9963B71F 
 248      FF580B06 
 248      CC821926 
 248      C9
 249 030b 6156DB26 		.ascii	"aV\333&\373e\321\354\026<\376~\263w+O4{\011\0367\026"
 249      FB65D1EC 
 249      163CFE7E 
 249      B3772B4F 
 249      347B091E 
 250 0321 4783ECD5 		.ascii	"G\203\354\325\303\224O\247\363M\332{\204\366K\233\367"
 250      C3944FA7 
 250      F34DDA7B 
 250      84F64B9B 
 250      F7
 251 0332 FE70C8D3 		.ascii	"\376p\310\323B\373\231\221\213\017\255\272\366\235\255"
 251      42FB9991 
 251      8B0FADBA 
 251      F69DAD
 252 0341 B47011B5 		.ascii	"\264p\021\265_\304\342\277b\332\337D\355=\232\366Kx"
 252      5FC4E2BF 
 252      62DADF44 
 252      ED3D9AF6 
 252      4B78
 253 0353 F9B5A1FD 		.ascii	"\371\265\241\375\224\320~\031e\274a\320\365h\332\317"
 253      94D07E19 
 253      65BC61D0 
 253      F568DACF 
 254 0363 8626BA65 		.ascii	"\206&\272e\245\203\351\271/P\026\362\015\355\267\312"
 254      A583E9B9 
 254      2F5016F2 
 254      0DEDB7CA 
 255 0373 7382562C 		.ascii	"s\202V,\372 \224'heAX\335\213Vb\367\376\253m\224\002"
 255      FA209427 
 255      68654158 
 255      DD8B5662 
ARM GAS  C:\Users\gjl\AppData\Local\Temp\ccjpp5uf.s 			page 19


 255      F7FEAB6D 
 256 0389 AC20ADDB 		.ascii	"\254 \255\333\006\255[\240\361\232Y\\\215\344\344~h"
 256      06AD5BA0 
 256      F19A595C 
 256      8DE4E47E 
 256      68
 257 039a 14CB3D75 		.ascii	"\024\313=u`\002)\310\345\377\212l-\250.\2578^\243\372"
 257      600229C8 
 257      E5FF8A6C 
 257      2DA82EAF 
 257      385EA3FA 
 258 03ae AB7D0DEF 		.ascii	"\253}\015\357\253o4\325\253\366Co\276]RU^N\254\315\015"
 258      AB6F34D5 
 258      ABF6436F 
 258      BE5D5255 
 258      5E4EACCD 
 259 03c3 8DFE179F 		.ascii	"\215\376\027\2379\2446\252>\257_\255?^\323\324\354\253"
 259      39A436AA 
 259      3EAF5FAD 
 259      3F5ED3D4 
 259      ECAB
 260 03d5 538FBD55 		.ascii	"S\217\275U\323T\365\374\261\272\323\376\323\247\324"
 260      D354F5FC 
 260      B1BAD3FE 
 260      D3A7D4
 261 03e4 F7CADE25 		.ascii	"\367\312\336%O\357\341\201\300eu\304\301\360\337\361"
 261      4FEFE181 
 261      C06575C4 
 261      C1F0DFF1 
 262 03f4 35F8553B 		.ascii	"5\370U;\333\035Q\275\365\371\372\246\332\353\367\036"
 262      DB1D51BD 
 262      F5F9FAA6 
 262      DAEBF71E 
 263 0404 514F1469 		.ascii	"QO\024i\024^k\364\253>_\363)?\243ac\331\313_(doU'U\257"
 263      145E6BF4 
 263      AB3E5FF3 
 263      293FA361 
 263      63D9CB5F 
 264 041f 2FF3CA5F 		.ascii	"/\363\312_*+\254>\365De\305\277=\366\0169"
 264      2A2BAC3E 
 264      F54465C5 
 264      BF3DF60E 
 264      39
 265              		.text
 266              		.section	.gnu.lto_.symtab.50a2b3db,"",%progbits
 267 0000 4431325F 		.ascii	"D12_SetDriveMode\000"
 267      53657444 
 267      72697665 
 267      4D6F6465 
 267      00
 268 0011 00       		.ascii	"\000"
 269 0012 00       		.ascii	"\000"
 270 0013 00       		.ascii	"\000"
 271 0014 00000000 		.ascii	"\000\000\000\000\000\000\000\000"
 271      00000000 
 272 001c B3000000 		.ascii	"\263\000\000\000"
 273 0020 4431325F 		.ascii	"D12_Write\000"
ARM GAS  C:\Users\gjl\AppData\Local\Temp\ccjpp5uf.s 			page 20


 273      57726974 
 273      6500
 274 002a 00       		.ascii	"\000"
 275 002b 00       		.ascii	"\000"
 276 002c 00       		.ascii	"\000"
 277 002d 00000000 		.ascii	"\000\000\000\000\000\000\000\000"
 277      00000000 
 278 0035 B5000000 		.ascii	"\265\000\000\000"
 279 0039 4431325F 		.ascii	"D12_Read\000"
 279      52656164 
 279      00
 280 0042 00       		.ascii	"\000"
 281 0043 00       		.ascii	"\000"
 282 0044 00       		.ascii	"\000"
 283 0045 00000000 		.ascii	"\000\000\000\000\000\000\000\000"
 283      00000000 
 284 004d B8000000 		.ascii	"\270\000\000\000"
 285 0051 4431325F 		.ascii	"D12_ReadDataReg\000"
 285      52656164 
 285      44617461 
 285      52656700 
 286 0061 00       		.ascii	"\000"
 287 0062 00       		.ascii	"\000"
 288 0063 00       		.ascii	"\000"
 289 0064 00000000 		.ascii	"\000\000\000\000\000\000\000\000"
 289      00000000 
 290 006c BA000000 		.ascii	"\272\000\000\000"
 291 0070 4431325F 		.ascii	"D12_SetInterruptMode\000"
 291      53657449 
 291      6E746572 
 291      72757074 
 291      4D6F6465 
 292 0085 00       		.ascii	"\000"
 293 0086 00       		.ascii	"\000"
 294 0087 00       		.ascii	"\000"
 295 0088 00000000 		.ascii	"\000\000\000\000\000\000\000\000"
 295      00000000 
 296 0090 C4000000 		.ascii	"\304\000\000\000"
 297 0094 4431325F 		.ascii	"D12_ClearInterrupt\000"
 297      436C6561 
 297      72496E74 
 297      65727275 
 297      707400
 298 00a7 00       		.ascii	"\000"
 299 00a8 00       		.ascii	"\000"
 300 00a9 00       		.ascii	"\000"
 301 00aa 00000000 		.ascii	"\000\000\000\000\000\000\000\000"
 301      00000000 
 302 00b2 C6000000 		.ascii	"\306\000\000\000"
 303              		.text
 304              		.section	.gnu.lto_.opts,"",%progbits
 305 0000 272D666D 		.ascii	"'-fmath-errno' '-fsigned-zeros' '-ftrapping-math' '"
 305      6174682D 
 305      6572726E 
 305      6F272027 
 305      2D667369 
 306 0033 2D666E6F 		.ascii	"-fno-trapv' '-fno-openmp' '-fno-openacc' '-mcpu=cor"
ARM GAS  C:\Users\gjl\AppData\Local\Temp\ccjpp5uf.s 			page 21


 306      2D747261 
 306      70762720 
 306      272D666E 
 306      6F2D6F70 
 307 0066 7465782D 		.ascii	"tex-m0' '-mthumb' '-g' '-Os' '-ffunction-sections' "
 307      6D302720 
 307      272D6D74 
 307      68756D62 
 307      2720272D 
 308 0099 272D6666 		.ascii	"'-ffat-lto-objects' '-flto'\000"
 308      61742D6C 
 308      746F2D6F 
 308      626A6563 
 308      74732720 
 309              		.text
 310              		.cfi_sections	.debug_frame
 311              		.section	.text.D12_SetDriveMode,"ax",%progbits
 312              		.align	1
 313              		.global	D12_SetDriveMode
 314              		.code	16
 315              		.thumb_func
 316              		.type	D12_SetDriveMode, %function
 317              	D12_SetDriveMode:
 318              	.LFB0:
 319              		.file 1 "Generated_Source\\PSoC4\\D12.c"
   1:Generated_Source\PSoC4/D12.c **** /*******************************************************************************
   2:Generated_Source\PSoC4/D12.c **** * File Name: D12.c  
   3:Generated_Source\PSoC4/D12.c **** * Version 2.20
   4:Generated_Source\PSoC4/D12.c **** *
   5:Generated_Source\PSoC4/D12.c **** * Description:
   6:Generated_Source\PSoC4/D12.c **** *  This file contains API to enable firmware control of a Pins component.
   7:Generated_Source\PSoC4/D12.c **** *
   8:Generated_Source\PSoC4/D12.c **** ********************************************************************************
   9:Generated_Source\PSoC4/D12.c **** * Copyright 2008-2015, Cypress Semiconductor Corporation.  All rights reserved.
  10:Generated_Source\PSoC4/D12.c **** * You may use this file only in accordance with the license, terms, conditions, 
  11:Generated_Source\PSoC4/D12.c **** * disclaimers, and limitations in the end user license agreement accompanying 
  12:Generated_Source\PSoC4/D12.c **** * the software package with which this file was provided.
  13:Generated_Source\PSoC4/D12.c **** *******************************************************************************/
  14:Generated_Source\PSoC4/D12.c **** 
  15:Generated_Source\PSoC4/D12.c **** #include "cytypes.h"
  16:Generated_Source\PSoC4/D12.c **** #include "D12.h"
  17:Generated_Source\PSoC4/D12.c **** 
  18:Generated_Source\PSoC4/D12.c **** 
  19:Generated_Source\PSoC4/D12.c **** #if defined(D12__PC)
  20:Generated_Source\PSoC4/D12.c ****     #define D12_SetP4PinDriveMode(shift, mode)  \
  21:Generated_Source\PSoC4/D12.c ****     do { \
  22:Generated_Source\PSoC4/D12.c ****         D12_PC =   (D12_PC & \
  23:Generated_Source\PSoC4/D12.c ****                                 (uint32)(~(uint32)(D12_DRIVE_MODE_IND_MASK << \
  24:Generated_Source\PSoC4/D12.c ****                                 (D12_DRIVE_MODE_BITS * (shift))))) | \
  25:Generated_Source\PSoC4/D12.c ****                                 (uint32)((uint32)(mode) << \
  26:Generated_Source\PSoC4/D12.c ****                                 (D12_DRIVE_MODE_BITS * (shift))); \
  27:Generated_Source\PSoC4/D12.c ****     } while (0)
  28:Generated_Source\PSoC4/D12.c **** #else
  29:Generated_Source\PSoC4/D12.c ****     #if (CY_PSOC4_4200L)
  30:Generated_Source\PSoC4/D12.c ****         #define D12_SetP4PinDriveMode(shift, mode)  \
  31:Generated_Source\PSoC4/D12.c ****         do { \
  32:Generated_Source\PSoC4/D12.c ****             D12_USBIO_CTRL_REG = (D12_USBIO_CTRL_REG & \
ARM GAS  C:\Users\gjl\AppData\Local\Temp\ccjpp5uf.s 			page 22


  33:Generated_Source\PSoC4/D12.c ****                                     (uint32)(~(uint32)(D12_DRIVE_MODE_IND_MASK << \
  34:Generated_Source\PSoC4/D12.c ****                                     (D12_DRIVE_MODE_BITS * (shift))))) | \
  35:Generated_Source\PSoC4/D12.c ****                                     (uint32)((uint32)(mode) << \
  36:Generated_Source\PSoC4/D12.c ****                                     (D12_DRIVE_MODE_BITS * (shift))); \
  37:Generated_Source\PSoC4/D12.c ****         } while (0)
  38:Generated_Source\PSoC4/D12.c ****     #endif
  39:Generated_Source\PSoC4/D12.c **** #endif
  40:Generated_Source\PSoC4/D12.c ****   
  41:Generated_Source\PSoC4/D12.c **** 
  42:Generated_Source\PSoC4/D12.c **** #if defined(D12__PC) || (CY_PSOC4_4200L) 
  43:Generated_Source\PSoC4/D12.c ****     /*******************************************************************************
  44:Generated_Source\PSoC4/D12.c ****     * Function Name: D12_SetDriveMode
  45:Generated_Source\PSoC4/D12.c ****     ****************************************************************************//**
  46:Generated_Source\PSoC4/D12.c ****     *
  47:Generated_Source\PSoC4/D12.c ****     * \brief Sets the drive mode for each of the Pins component's pins.
  48:Generated_Source\PSoC4/D12.c ****     * 
  49:Generated_Source\PSoC4/D12.c ****     * <b>Note</b> This affects all pins in the Pins component instance. Use the
  50:Generated_Source\PSoC4/D12.c ****     * Per-Pin APIs if you wish to control individual pin's drive modes.
  51:Generated_Source\PSoC4/D12.c ****     *
  52:Generated_Source\PSoC4/D12.c ****     * <b>Note</b> USBIOs have limited drive functionality. Refer to the Drive Mode
  53:Generated_Source\PSoC4/D12.c ****     * parameter for more information.
  54:Generated_Source\PSoC4/D12.c ****     *
  55:Generated_Source\PSoC4/D12.c ****     * \param mode
  56:Generated_Source\PSoC4/D12.c ****     *  Mode for the selected signals. Valid options are documented in 
  57:Generated_Source\PSoC4/D12.c ****     *  \ref driveMode.
  58:Generated_Source\PSoC4/D12.c ****     *
  59:Generated_Source\PSoC4/D12.c ****     * \return
  60:Generated_Source\PSoC4/D12.c ****     *  None
  61:Generated_Source\PSoC4/D12.c ****     *
  62:Generated_Source\PSoC4/D12.c ****     * \sideeffect
  63:Generated_Source\PSoC4/D12.c ****     *  If you use read-modify-write operations that are not atomic, the ISR can
  64:Generated_Source\PSoC4/D12.c ****     *  cause corruption of this function. An ISR that interrupts this function 
  65:Generated_Source\PSoC4/D12.c ****     *  and performs writes to the Pins component Drive Mode registers can cause 
  66:Generated_Source\PSoC4/D12.c ****     *  corrupted port data. To avoid this issue, you should either use the Per-Pin
  67:Generated_Source\PSoC4/D12.c ****     *  APIs (primary method) or disable interrupts around this function.
  68:Generated_Source\PSoC4/D12.c ****     *
  69:Generated_Source\PSoC4/D12.c ****     * \funcusage
  70:Generated_Source\PSoC4/D12.c ****     *  \snippet D12_SUT.c usage_D12_SetDriveMode
  71:Generated_Source\PSoC4/D12.c ****     *******************************************************************************/
  72:Generated_Source\PSoC4/D12.c ****     void D12_SetDriveMode(uint8 mode)
  73:Generated_Source\PSoC4/D12.c ****     {
 320              		.loc 1 73 0
 321              		.cfi_startproc
 322              		@ args = 0, pretend = 0, frame = 0
 323              		@ frame_needed = 0, uses_anonymous_args = 0
 324              		@ link register save eliminated.
 325              	.LVL0:
  74:Generated_Source\PSoC4/D12.c **** 		D12_SetP4PinDriveMode(D12__0__SHIFT, mode);
 326              		.loc 1 74 0
 327 0000 3821     		movs	r1, #56
 328 0002 034A     		ldr	r2, .L2
 329 0004 C000     		lsls	r0, r0, #3
 330              	.LVL1:
 331 0006 1368     		ldr	r3, [r2]
  75:Generated_Source\PSoC4/D12.c ****     }
 332              		.loc 1 75 0
 333              		@ sp needed
ARM GAS  C:\Users\gjl\AppData\Local\Temp\ccjpp5uf.s 			page 23


  74:Generated_Source\PSoC4/D12.c **** 		D12_SetP4PinDriveMode(D12__0__SHIFT, mode);
 334              		.loc 1 74 0
 335 0008 8B43     		bics	r3, r1
 336 000a 1843     		orrs	r0, r3
 337 000c 1060     		str	r0, [r2]
 338              		.loc 1 75 0
 339 000e 7047     		bx	lr
 340              	.L3:
 341              		.align	2
 342              	.L2:
 343 0010 08060440 		.word	1074005512
 344              		.cfi_endproc
 345              	.LFE0:
 346              		.size	D12_SetDriveMode, .-D12_SetDriveMode
 347              		.section	.text.D12_Write,"ax",%progbits
 348              		.align	1
 349              		.global	D12_Write
 350              		.code	16
 351              		.thumb_func
 352              		.type	D12_Write, %function
 353              	D12_Write:
 354              	.LFB1:
  76:Generated_Source\PSoC4/D12.c **** #endif
  77:Generated_Source\PSoC4/D12.c **** 
  78:Generated_Source\PSoC4/D12.c **** 
  79:Generated_Source\PSoC4/D12.c **** /*******************************************************************************
  80:Generated_Source\PSoC4/D12.c **** * Function Name: D12_Write
  81:Generated_Source\PSoC4/D12.c **** ****************************************************************************//**
  82:Generated_Source\PSoC4/D12.c **** *
  83:Generated_Source\PSoC4/D12.c **** * \brief Writes the value to the physical port (data output register), masking
  84:Generated_Source\PSoC4/D12.c **** *  and shifting the bits appropriately. 
  85:Generated_Source\PSoC4/D12.c **** *
  86:Generated_Source\PSoC4/D12.c **** * The data output register controls the signal applied to the physical pin in 
  87:Generated_Source\PSoC4/D12.c **** * conjunction with the drive mode parameter. This function avoids changing 
  88:Generated_Source\PSoC4/D12.c **** * other bits in the port by using the appropriate method (read-modify-write or
  89:Generated_Source\PSoC4/D12.c **** * bit banding).
  90:Generated_Source\PSoC4/D12.c **** *
  91:Generated_Source\PSoC4/D12.c **** * <b>Note</b> This function should not be used on a hardware digital output pin 
  92:Generated_Source\PSoC4/D12.c **** * as it is driven by the hardware signal attached to it.
  93:Generated_Source\PSoC4/D12.c **** *
  94:Generated_Source\PSoC4/D12.c **** * \param value
  95:Generated_Source\PSoC4/D12.c **** *  Value to write to the component instance.
  96:Generated_Source\PSoC4/D12.c **** *
  97:Generated_Source\PSoC4/D12.c **** * \return 
  98:Generated_Source\PSoC4/D12.c **** *  None 
  99:Generated_Source\PSoC4/D12.c **** *
 100:Generated_Source\PSoC4/D12.c **** * \sideeffect
 101:Generated_Source\PSoC4/D12.c **** *  If you use read-modify-write operations that are not atomic; the Interrupt 
 102:Generated_Source\PSoC4/D12.c **** *  Service Routines (ISR) can cause corruption of this function. An ISR that 
 103:Generated_Source\PSoC4/D12.c **** *  interrupts this function and performs writes to the Pins component data 
 104:Generated_Source\PSoC4/D12.c **** *  register can cause corrupted port data. To avoid this issue, you should 
 105:Generated_Source\PSoC4/D12.c **** *  either use the Per-Pin APIs (primary method) or disable interrupts around 
 106:Generated_Source\PSoC4/D12.c **** *  this function.
 107:Generated_Source\PSoC4/D12.c **** *
 108:Generated_Source\PSoC4/D12.c **** * \funcusage
 109:Generated_Source\PSoC4/D12.c **** *  \snippet D12_SUT.c usage_D12_Write
 110:Generated_Source\PSoC4/D12.c **** *******************************************************************************/
ARM GAS  C:\Users\gjl\AppData\Local\Temp\ccjpp5uf.s 			page 24


 111:Generated_Source\PSoC4/D12.c **** void D12_Write(uint8 value)
 112:Generated_Source\PSoC4/D12.c **** {
 355              		.loc 1 112 0
 356              		.cfi_startproc
 357              		@ args = 0, pretend = 0, frame = 0
 358              		@ frame_needed = 0, uses_anonymous_args = 0
 359              		@ link register save eliminated.
 360              	.LVL2:
 113:Generated_Source\PSoC4/D12.c ****     uint8 drVal = (uint8)(D12_DR & (uint8)(~D12_MASK));
 361              		.loc 1 113 0
 362 0000 0223     		movs	r3, #2
 363 0002 0449     		ldr	r1, .L5
 114:Generated_Source\PSoC4/D12.c ****     drVal = (drVal | ((uint8)(value << D12_SHIFT) & D12_MASK));
 115:Generated_Source\PSoC4/D12.c ****     D12_DR = (uint32)drVal;
 364              		.loc 1 115 0
 365 0004 4000     		lsls	r0, r0, #1
 366              	.LVL3:
 113:Generated_Source\PSoC4/D12.c ****     uint8 drVal = (uint8)(D12_DR & (uint8)(~D12_MASK));
 367              		.loc 1 113 0
 368 0006 0A68     		ldr	r2, [r1]
 116:Generated_Source\PSoC4/D12.c **** }
 369              		.loc 1 116 0
 370              		@ sp needed
 113:Generated_Source\PSoC4/D12.c ****     uint8 drVal = (uint8)(D12_DR & (uint8)(~D12_MASK));
 371              		.loc 1 113 0
 372 0008 9A43     		bics	r2, r3
 373 000a D2B2     		uxtb	r2, r2
 115:Generated_Source\PSoC4/D12.c **** }
 374              		.loc 1 115 0
 375 000c 0340     		ands	r3, r0
 376 000e 1343     		orrs	r3, r2
 377 0010 0B60     		str	r3, [r1]
 378              		.loc 1 116 0
 379 0012 7047     		bx	lr
 380              	.L6:
 381              		.align	2
 382              	.L5:
 383 0014 00060440 		.word	1074005504
 384              		.cfi_endproc
 385              	.LFE1:
 386              		.size	D12_Write, .-D12_Write
 387              		.section	.text.D12_Read,"ax",%progbits
 388              		.align	1
 389              		.global	D12_Read
 390              		.code	16
 391              		.thumb_func
 392              		.type	D12_Read, %function
 393              	D12_Read:
 394              	.LFB2:
 117:Generated_Source\PSoC4/D12.c **** 
 118:Generated_Source\PSoC4/D12.c **** 
 119:Generated_Source\PSoC4/D12.c **** /*******************************************************************************
 120:Generated_Source\PSoC4/D12.c **** * Function Name: D12_Read
 121:Generated_Source\PSoC4/D12.c **** ****************************************************************************//**
 122:Generated_Source\PSoC4/D12.c **** *
 123:Generated_Source\PSoC4/D12.c **** * \brief Reads the associated physical port (pin status register) and masks 
 124:Generated_Source\PSoC4/D12.c **** *  the required bits according to the width and bit position of the component
ARM GAS  C:\Users\gjl\AppData\Local\Temp\ccjpp5uf.s 			page 25


 125:Generated_Source\PSoC4/D12.c **** *  instance. 
 126:Generated_Source\PSoC4/D12.c **** *
 127:Generated_Source\PSoC4/D12.c **** * The pin's status register returns the current logic level present on the 
 128:Generated_Source\PSoC4/D12.c **** * physical pin.
 129:Generated_Source\PSoC4/D12.c **** *
 130:Generated_Source\PSoC4/D12.c **** * \return 
 131:Generated_Source\PSoC4/D12.c **** *  The current value for the pins in the component as a right justified number.
 132:Generated_Source\PSoC4/D12.c **** *
 133:Generated_Source\PSoC4/D12.c **** * \funcusage
 134:Generated_Source\PSoC4/D12.c **** *  \snippet D12_SUT.c usage_D12_Read  
 135:Generated_Source\PSoC4/D12.c **** *******************************************************************************/
 136:Generated_Source\PSoC4/D12.c **** uint8 D12_Read(void)
 137:Generated_Source\PSoC4/D12.c **** {
 395              		.loc 1 137 0
 396              		.cfi_startproc
 397              		@ args = 0, pretend = 0, frame = 0
 398              		@ frame_needed = 0, uses_anonymous_args = 0
 399              		@ link register save eliminated.
 138:Generated_Source\PSoC4/D12.c ****     return (uint8)((D12_PS & D12_MASK) >> D12_SHIFT);
 400              		.loc 1 138 0
 401 0000 024B     		ldr	r3, .L8
 139:Generated_Source\PSoC4/D12.c **** }
 402              		.loc 1 139 0
 403              		@ sp needed
 138:Generated_Source\PSoC4/D12.c ****     return (uint8)((D12_PS & D12_MASK) >> D12_SHIFT);
 404              		.loc 1 138 0
 405 0002 1868     		ldr	r0, [r3]
 406 0004 8007     		lsls	r0, r0, #30
 407 0006 C00F     		lsrs	r0, r0, #31
 408              		.loc 1 139 0
 409 0008 7047     		bx	lr
 410              	.L9:
 411 000a C046     		.align	2
 412              	.L8:
 413 000c 04060440 		.word	1074005508
 414              		.cfi_endproc
 415              	.LFE2:
 416              		.size	D12_Read, .-D12_Read
 417              		.section	.text.D12_ReadDataReg,"ax",%progbits
 418              		.align	1
 419              		.global	D12_ReadDataReg
 420              		.code	16
 421              		.thumb_func
 422              		.type	D12_ReadDataReg, %function
 423              	D12_ReadDataReg:
 424              	.LFB3:
 140:Generated_Source\PSoC4/D12.c **** 
 141:Generated_Source\PSoC4/D12.c **** 
 142:Generated_Source\PSoC4/D12.c **** /*******************************************************************************
 143:Generated_Source\PSoC4/D12.c **** * Function Name: D12_ReadDataReg
 144:Generated_Source\PSoC4/D12.c **** ****************************************************************************//**
 145:Generated_Source\PSoC4/D12.c **** *
 146:Generated_Source\PSoC4/D12.c **** * \brief Reads the associated physical port's data output register and masks 
 147:Generated_Source\PSoC4/D12.c **** *  the correct bits according to the width and bit position of the component 
 148:Generated_Source\PSoC4/D12.c **** *  instance. 
 149:Generated_Source\PSoC4/D12.c **** *
 150:Generated_Source\PSoC4/D12.c **** * The data output register controls the signal applied to the physical pin in 
ARM GAS  C:\Users\gjl\AppData\Local\Temp\ccjpp5uf.s 			page 26


 151:Generated_Source\PSoC4/D12.c **** * conjunction with the drive mode parameter. This is not the same as the 
 152:Generated_Source\PSoC4/D12.c **** * preferred D12_Read() API because the 
 153:Generated_Source\PSoC4/D12.c **** * D12_ReadDataReg() reads the data register instead of the status 
 154:Generated_Source\PSoC4/D12.c **** * register. For output pins this is a useful function to determine the value 
 155:Generated_Source\PSoC4/D12.c **** * just written to the pin.
 156:Generated_Source\PSoC4/D12.c **** *
 157:Generated_Source\PSoC4/D12.c **** * \return 
 158:Generated_Source\PSoC4/D12.c **** *  The current value of the data register masked and shifted into a right 
 159:Generated_Source\PSoC4/D12.c **** *  justified number for the component instance.
 160:Generated_Source\PSoC4/D12.c **** *
 161:Generated_Source\PSoC4/D12.c **** * \funcusage
 162:Generated_Source\PSoC4/D12.c **** *  \snippet D12_SUT.c usage_D12_ReadDataReg 
 163:Generated_Source\PSoC4/D12.c **** *******************************************************************************/
 164:Generated_Source\PSoC4/D12.c **** uint8 D12_ReadDataReg(void)
 165:Generated_Source\PSoC4/D12.c **** {
 425              		.loc 1 165 0
 426              		.cfi_startproc
 427              		@ args = 0, pretend = 0, frame = 0
 428              		@ frame_needed = 0, uses_anonymous_args = 0
 429              		@ link register save eliminated.
 166:Generated_Source\PSoC4/D12.c ****     return (uint8)((D12_DR & D12_MASK) >> D12_SHIFT);
 430              		.loc 1 166 0
 431 0000 024B     		ldr	r3, .L11
 167:Generated_Source\PSoC4/D12.c **** }
 432              		.loc 1 167 0
 433              		@ sp needed
 166:Generated_Source\PSoC4/D12.c ****     return (uint8)((D12_DR & D12_MASK) >> D12_SHIFT);
 434              		.loc 1 166 0
 435 0002 1868     		ldr	r0, [r3]
 436 0004 8007     		lsls	r0, r0, #30
 437 0006 C00F     		lsrs	r0, r0, #31
 438              		.loc 1 167 0
 439 0008 7047     		bx	lr
 440              	.L12:
 441 000a C046     		.align	2
 442              	.L11:
 443 000c 00060440 		.word	1074005504
 444              		.cfi_endproc
 445              	.LFE3:
 446              		.size	D12_ReadDataReg, .-D12_ReadDataReg
 447              		.section	.text.D12_SetInterruptMode,"ax",%progbits
 448              		.align	1
 449              		.global	D12_SetInterruptMode
 450              		.code	16
 451              		.thumb_func
 452              		.type	D12_SetInterruptMode, %function
 453              	D12_SetInterruptMode:
 454              	.LFB4:
 168:Generated_Source\PSoC4/D12.c **** 
 169:Generated_Source\PSoC4/D12.c **** 
 170:Generated_Source\PSoC4/D12.c **** /*******************************************************************************
 171:Generated_Source\PSoC4/D12.c **** * Function Name: D12_SetInterruptMode
 172:Generated_Source\PSoC4/D12.c **** ****************************************************************************//**
 173:Generated_Source\PSoC4/D12.c **** *
 174:Generated_Source\PSoC4/D12.c **** * \brief Configures the interrupt mode for each of the Pins component's
 175:Generated_Source\PSoC4/D12.c **** *  pins. Alternatively you may set the interrupt mode for all the pins
 176:Generated_Source\PSoC4/D12.c **** *  specified in the Pins component.
ARM GAS  C:\Users\gjl\AppData\Local\Temp\ccjpp5uf.s 			page 27


 177:Generated_Source\PSoC4/D12.c **** *
 178:Generated_Source\PSoC4/D12.c **** *  <b>Note</b> The interrupt is port-wide and therefore any enabled pin
 179:Generated_Source\PSoC4/D12.c **** *  interrupt may trigger it.
 180:Generated_Source\PSoC4/D12.c **** *
 181:Generated_Source\PSoC4/D12.c **** * \param position
 182:Generated_Source\PSoC4/D12.c **** *  The pin position as listed in the Pins component. You may OR these to be 
 183:Generated_Source\PSoC4/D12.c **** *  able to configure the interrupt mode of multiple pins within a Pins 
 184:Generated_Source\PSoC4/D12.c **** *  component. Or you may use D12_INTR_ALL to configure the
 185:Generated_Source\PSoC4/D12.c **** *  interrupt mode of all the pins in the Pins component.       
 186:Generated_Source\PSoC4/D12.c **** *  - D12_0_INTR       (First pin in the list)
 187:Generated_Source\PSoC4/D12.c **** *  - D12_1_INTR       (Second pin in the list)
 188:Generated_Source\PSoC4/D12.c **** *  - ...
 189:Generated_Source\PSoC4/D12.c **** *  - D12_INTR_ALL     (All pins in Pins component)
 190:Generated_Source\PSoC4/D12.c **** *
 191:Generated_Source\PSoC4/D12.c **** * \param mode
 192:Generated_Source\PSoC4/D12.c **** *  Interrupt mode for the selected pins. Valid options are documented in
 193:Generated_Source\PSoC4/D12.c **** *  \ref intrMode.
 194:Generated_Source\PSoC4/D12.c **** *
 195:Generated_Source\PSoC4/D12.c **** * \return 
 196:Generated_Source\PSoC4/D12.c **** *  None
 197:Generated_Source\PSoC4/D12.c **** *  
 198:Generated_Source\PSoC4/D12.c **** * \sideeffect
 199:Generated_Source\PSoC4/D12.c **** *  It is recommended that the interrupt be disabled before calling this 
 200:Generated_Source\PSoC4/D12.c **** *  function to avoid unintended interrupt requests. Note that the interrupt
 201:Generated_Source\PSoC4/D12.c **** *  type is port wide, and therefore will trigger for any enabled pin on the 
 202:Generated_Source\PSoC4/D12.c **** *  port.
 203:Generated_Source\PSoC4/D12.c **** *
 204:Generated_Source\PSoC4/D12.c **** * \funcusage
 205:Generated_Source\PSoC4/D12.c **** *  \snippet D12_SUT.c usage_D12_SetInterruptMode
 206:Generated_Source\PSoC4/D12.c **** *******************************************************************************/
 207:Generated_Source\PSoC4/D12.c **** void D12_SetInterruptMode(uint16 position, uint16 mode)
 208:Generated_Source\PSoC4/D12.c **** {
 455              		.loc 1 208 0
 456              		.cfi_startproc
 457              		@ args = 0, pretend = 0, frame = 0
 458              		@ frame_needed = 0, uses_anonymous_args = 0
 459              		@ link register save eliminated.
 460              	.LVL4:
 209:Generated_Source\PSoC4/D12.c ****     uint32 intrCfg;
 210:Generated_Source\PSoC4/D12.c ****     
 211:Generated_Source\PSoC4/D12.c ****     intrCfg =  D12_INTCFG & (uint32)(~(uint32)position);
 461              		.loc 1 211 0
 462 0000 034A     		ldr	r2, .L14
 212:Generated_Source\PSoC4/D12.c ****     D12_INTCFG = intrCfg | ((uint32)position & (uint32)mode);
 213:Generated_Source\PSoC4/D12.c **** }
 463              		.loc 1 213 0
 464              		@ sp needed
 211:Generated_Source\PSoC4/D12.c ****     D12_INTCFG = intrCfg | ((uint32)position & (uint32)mode);
 465              		.loc 1 211 0
 466 0002 1368     		ldr	r3, [r2]
 467              	.LVL5:
 212:Generated_Source\PSoC4/D12.c ****     D12_INTCFG = intrCfg | ((uint32)position & (uint32)mode);
 468              		.loc 1 212 0
 469 0004 8343     		bics	r3, r0
 470              	.LVL6:
 471 0006 0840     		ands	r0, r1
 472              	.LVL7:
ARM GAS  C:\Users\gjl\AppData\Local\Temp\ccjpp5uf.s 			page 28


 473 0008 1843     		orrs	r0, r3
 474 000a 1060     		str	r0, [r2]
 475              		.loc 1 213 0
 476 000c 7047     		bx	lr
 477              	.L15:
 478 000e C046     		.align	2
 479              	.L14:
 480 0010 0C060440 		.word	1074005516
 481              		.cfi_endproc
 482              	.LFE4:
 483              		.size	D12_SetInterruptMode, .-D12_SetInterruptMode
 484              		.section	.text.D12_ClearInterrupt,"ax",%progbits
 485              		.align	1
 486              		.global	D12_ClearInterrupt
 487              		.code	16
 488              		.thumb_func
 489              		.type	D12_ClearInterrupt, %function
 490              	D12_ClearInterrupt:
 491              	.LFB5:
 214:Generated_Source\PSoC4/D12.c **** 
 215:Generated_Source\PSoC4/D12.c **** 
 216:Generated_Source\PSoC4/D12.c **** /*******************************************************************************
 217:Generated_Source\PSoC4/D12.c **** * Function Name: D12_ClearInterrupt
 218:Generated_Source\PSoC4/D12.c **** ****************************************************************************//**
 219:Generated_Source\PSoC4/D12.c **** *
 220:Generated_Source\PSoC4/D12.c **** * \brief Clears any active interrupts attached with the component and returns 
 221:Generated_Source\PSoC4/D12.c **** *  the value of the interrupt status register allowing determination of which
 222:Generated_Source\PSoC4/D12.c **** *  pins generated an interrupt event.
 223:Generated_Source\PSoC4/D12.c **** *
 224:Generated_Source\PSoC4/D12.c **** * \return 
 225:Generated_Source\PSoC4/D12.c **** *  The right-shifted current value of the interrupt status register. Each pin 
 226:Generated_Source\PSoC4/D12.c **** *  has one bit set if it generated an interrupt event. For example, bit 0 is 
 227:Generated_Source\PSoC4/D12.c **** *  for pin 0 and bit 1 is for pin 1 of the Pins component.
 228:Generated_Source\PSoC4/D12.c **** *  
 229:Generated_Source\PSoC4/D12.c **** * \sideeffect
 230:Generated_Source\PSoC4/D12.c **** *  Clears all bits of the physical port's interrupt status register, not just
 231:Generated_Source\PSoC4/D12.c **** *  those associated with the Pins component.
 232:Generated_Source\PSoC4/D12.c **** *
 233:Generated_Source\PSoC4/D12.c **** * \funcusage
 234:Generated_Source\PSoC4/D12.c **** *  \snippet D12_SUT.c usage_D12_ClearInterrupt
 235:Generated_Source\PSoC4/D12.c **** *******************************************************************************/
 236:Generated_Source\PSoC4/D12.c **** uint8 D12_ClearInterrupt(void)
 237:Generated_Source\PSoC4/D12.c **** {
 492              		.loc 1 237 0
 493              		.cfi_startproc
 494              		@ args = 0, pretend = 0, frame = 0
 495              		@ frame_needed = 0, uses_anonymous_args = 0
 496              		@ link register save eliminated.
 238:Generated_Source\PSoC4/D12.c **** 	uint8 maskedStatus = (uint8)(D12_INTSTAT & D12_MASK);
 497              		.loc 1 238 0
 498 0000 0223     		movs	r3, #2
 499 0002 034A     		ldr	r2, .L17
 239:Generated_Source\PSoC4/D12.c **** 	D12_INTSTAT = maskedStatus;
 240:Generated_Source\PSoC4/D12.c ****     return maskedStatus >> D12_SHIFT;
 241:Generated_Source\PSoC4/D12.c **** }
 500              		.loc 1 241 0
 501              		@ sp needed
ARM GAS  C:\Users\gjl\AppData\Local\Temp\ccjpp5uf.s 			page 29


 238:Generated_Source\PSoC4/D12.c **** 	uint8 maskedStatus = (uint8)(D12_INTSTAT & D12_MASK);
 502              		.loc 1 238 0
 503 0004 1068     		ldr	r0, [r2]
 504 0006 1840     		ands	r0, r3
 505              	.LVL8:
 239:Generated_Source\PSoC4/D12.c **** 	D12_INTSTAT = maskedStatus;
 506              		.loc 1 239 0
 507 0008 1060     		str	r0, [r2]
 240:Generated_Source\PSoC4/D12.c **** }
 508              		.loc 1 240 0
 509 000a 4008     		lsrs	r0, r0, #1
 510              	.LVL9:
 511 000c C0B2     		uxtb	r0, r0
 512              		.loc 1 241 0
 513 000e 7047     		bx	lr
 514              	.L18:
 515              		.align	2
 516              	.L17:
 517 0010 10060440 		.word	1074005520
 518              		.cfi_endproc
 519              	.LFE5:
 520              		.size	D12_ClearInterrupt, .-D12_ClearInterrupt
 521              		.text
 522              	.Letext0:
 523              		.file 2 "Generated_Source\\PSoC4\\cytypes.h"