ARM GAS  C:\Users\gjl\AppData\Local\Temp\ccaNqQLi.s 			page 1


   1              		.syntax unified
   2              		.cpu cortex-m0
   3              		.fpu softvfp
   4              		.eabi_attribute 20, 1
   5              		.eabi_attribute 21, 1
   6              		.eabi_attribute 23, 3
   7              		.eabi_attribute 24, 1
   8              		.eabi_attribute 25, 1
   9              		.eabi_attribute 26, 1
  10              		.eabi_attribute 30, 4
  11              		.eabi_attribute 34, 0
  12              		.eabi_attribute 18, 4
  13              		.thumb
  14              		.syntax unified
  15              		.file	"D4.c"
  16              		.text
  17              	.Ltext0:
  18              		.section	.gnu.lto_.profile.58eafa83,"",%progbits
  19 0000 789C6361 		.ascii	"x\234ca`d`a`\000\222\352\212\000\000\331\000S"
  19      60646061 
  19      600092EA 
  19      8A0000D9 
  19      0053
  20              		.text
  21              		.section	.gnu.lto_.icf.58eafa83,"",%progbits
  22 0000 789C6361 		.ascii	"x\234ca`d\000\0015\006\004`c8\270fC\007\027\343\276"
  22      60640001 
  22      35060460 
  22      6338B866 
  22      430717E3 
  23 0015 936F76B0 		.ascii	"\223ov\2600\355\333\330\361\210\217y\302\2013[\270X"
  23      30EDDBD8 
  23      F1888F79 
  23      C281335B 
  23      B858
  24 0027 1EDEFB7A 		.ascii	"\036\336\373z\202\205\265\357\333\252\333\274\014\000"
  24      8285B5EF 
  24      DBAADBBC 
  24      0C00
  25 0035 64191276 		.ascii	"d\031\022v"
  26              		.text
  27              		.section	.gnu.lto_.jmpfuncs.58eafa83,"",%progbits
  28 0000 789C45C9 		.ascii	"x\234E\311\261\001\000 \010\300\260\026\320+\374\225"
  28      B1010020 
  28      08C0B016 
  28      D02BFC95 
  29 0010 D795C90C 		.ascii	"\327\225\311\014]Z\3108|\033\265\235\004$Thv\257\367"
  29      5D5AC838 
  29      7C1BB59D 
  29      04245468 
  29      76AFF7
  30 0023 2E215502 		.ascii	".!U\002@"
  30      40
  31              		.text
  32              		.section	.gnu.lto_.inline.58eafa83,"",%progbits
  33 0000 789C658D 		.ascii	"x\234e\215\311\015\2000\014\004\327\216\343\030\011"
  33      C90D8030 
ARM GAS  C:\Users\gjl\AppData\Local\Temp\ccaNqQLi.s 			page 2


  33      0C04D78E 
  33      E31809
  34 000f 093A4807 		.ascii	"\011:H\007\224@\245<R\012%P\012%`\203\004B\231\307>"
  34      9440A53C 
  34      520A2550 
  34      0A256083 
  34      044299C7 
  35 0024 767C0808 		.ascii	"v|\010\010\301\206\017\005\254\020\301\\%\333Wh\253"
  35      C1860F05 
  35      AC10C15C 
  35      25DB5768 
  35      AB
  36 0035 0C3E2609 		.ascii	"\014>&\011K\030\254\223\322\352-\031\232\011\254\347"
  36      4B18AC93 
  36      D2EA2D19 
  36      9A09ACE7 
  37 0045 F2F44EEA 		.ascii	"\362\364N\352+\211\023\214\331OP\204\374\237x\2141\226"
  37      2B89138C 
  37      D94F5084 
  37      FC9F788C 
  37      3196
  38 0057 51D4375F 		.ascii	"Q\3247_\031\\\353\300\017\342"
  38      195CEBC0 
  38      0FE2
  39              		.text
  40              		.section	.gnu.lto_.pureconst.58eafa83,"",%progbits
  41 0000 789C6361 		.ascii	"x\234ca`d\340e```c\220b\224b\222b\226b\221b\225\002"
  41      6064E065 
  41      60606063 
  41      90629462 
  41      92629662 
  42 0018 00059500 		.ascii	"\000\005\225\000\304"
  42      C4
  43              		.text
  44              		.section	.gnu.lto_D4_SetDriveMode.58eafa83,"",%progbits
  45 0000 789C7D51 		.ascii	"x\234}QAK\033A\030\375\336\314fW\011\306k\241\013\012"
  45      414B1B41 
  45      18FDDECC 
  45      665709C6 
  45      6BA10B0A 
  46 0014 3D482E52 		.ascii	"=H.R\320\177\240\340U\352U\021\211{\324\200\3509\223"
  46      D07FA0E0 
  46      55EA5511 
  46      897BD480 
  46      E83993
  47 0027 6C968A87 		.ascii	"l\226\212\207b)\025z(\236\202m5F\011(\012bHQ<E\351\241"
  47      6229157A 
  47      289E826D 
  47      35460928 
  47      0A624851 
  48 003f 17A19452 		.ascii	"\027\241\224R\366P/\321\266 \232\272~\337&\347\016\314"
  48      F6502FD1 
  48      B6209ABA 
  48      7EDF26E7 
  48      0ECC
  49 0051 F77DF378 		.ascii	"\367}\363x\357\361f\306\"\220\254\317\334\236q\177\312"
  49      EFF166C6 
ARM GAS  C:\Users\gjl\AppData\Local\Temp\ccaNqQLi.s 			page 3


  49      2290ACCF 
  49      DC9E717F 
  49      CA
  50 0062 1B9AA056 		.ascii	"\033\232\240V\033D\371.\005\310`\272@9\205\034\376\252"
  50      1B44F92E 
  50      05C860BA 
  50      4039851C 
  50      FEAA
  51 0074 7F0AF597 		.ascii	"\177\012\365\227\341\201Jo\030^\337\203p<o\202'\201"
  51      E1814A6F 
  51      185EDF83 
  51      703C6F82 
  51      2781
  52 0086 268A54EC 		.ascii	"&\212T\354D\330@\232Y\277\253\2457I\335\007\342\371"
  52      44D8409A 
  52      59BFABA5 
  52      3749DD07 
  52      E2F9
  53 0098 BAD1FC96 		.ascii	"\272\321\374\226\032(\031S0\346\365\224\321\201\006"
  53      1A281953 
  53      30E6F594 
  53      D18106
  54 00a7 3E40B302 		.ascii	">@\263\002C.\236\273\304\000\341#\006\204\374c\367\341"
  54      432E9EBB 
  54      C400E123 
  54      0684FC63 
  54      F7E1
  55 00b9 6D8F5D14 		.ascii	"m\217]\024\373\376\266)>\301\226\230\225\0275\023E\276"
  55      FBFEB629 
  55      3EC19698 
  55      95173513 
  55      45BE
  56 00cb A955ED93 		.ascii	"\251U\355\223=\273[\261Li)\026D\234\220\321\226\342"
  56      3DBB5BB1 
  56      4C692916 
  56      449C90D1 
  56      96E2
  57 00dd 48216AF2 		.ascii	"H!j\362\226\370\327JI\327!\352w+_\337\331\342\347k\271"
  57      96F8D74A 
  57      49D721EA 
  57      772B5FDF 
  57      D9E2E76B 
  58 00f2 CA5A503F 		.ascii	"\312ZP?w\376\250@\3538g\365\325\227\207d\373\270\\X"
  58      77FEA840 
  58      EB3867F5 
  58      D5978764 
  58      FBB85C58 
  59 0106 35164357 		.ascii	"5\026CW\245\306\231\263\216\367\371\"\002ma\013.6\341"
  59      A5C699B3 
  59      8EF7F922 
  59      026D610B 
  59      2E36E1
  60 0119 72A632D6 		.ascii	"r\2462\326A!\374V\307N\267\035\313\027\227G\020\013"
  60      4121FC56 
  60      C74EB71D 
  60      CB179747 
  60      100B
ARM GAS  C:\Users\gjl\AppData\Local\Temp\ccaNqQLi.s 			page 4


  61 012b 85E35614 		.ascii	"\205\343V\024\365b\233\331!\0127N\233\226\360\265%\262"
  61      F5629BD9 
  61      210A374E 
  61      9B96F0B5 
  61      25B2
  62 013d 66472610 		.ascii	"fG&\020\313~\336\227\017S\"K\360U+\261\304\277\355P"
  62      CB7EDE97 
  62      0F53224B 
  62      F0552BB1 
  62      C4BFED50 
  63 0151 9CD8DC66 		.ascii	"\234\330\334f\250\276\006\201\376\027k\207c\261\204"
  63      A8BE0681 
  63      FE176B87 
  63      63B184
  64 0160 7EA150DB 		.ascii	"~\241P\333?UB\217\177\245\251 o\300/\342\216y\363\336"
  64      3F55428F 
  64      7FA5A920 
  64      6FC02FE2 
  64      8E79F3DE 
  65 0174 C2CCA237 		.ascii	"\302\314\2427;=\221]Z\310x\223\343\023\331\221\341\311"
  65      3B3D915D 
  65      5AC87893 
  65      E313D991 
  65      E1C9
  66 0186 D1E1C10C 		.ascii	"\321\341\301\014Ys\331Y\357\021Hi\235\026"
  66      5973D959 
  66      EF114869 
  66      9D16
  67              		.text
  68              		.section	.gnu.lto_D4_Write.58eafa83,"",%progbits
  69 0000 789C5551 		.ascii	"x\234UQMk\023Q\024\275\347\275\231\314\324\020\372\003"
  69      4D6B1351 
  69      14BDE7BD 
  69      99CCD410 
  69      FA03
  70 0012 0CB49B50 		.ascii	"\014\264\233P\352B\012v\345V\241[\261\340*(\241\235"
  70      EA420A76 
  70      E556A15B 
  70      B1E02A28 
  70      A19D
  71 0024 95C142B0 		.ascii	"\225\301B\260\335\366%i\022P\220\272h\2732]\224\322"
  71      DDF62569 
  71      125090BA 
  71      68BB325D 
  71      94D2
  72 0036 FA595B41 		.ascii	"\372Y[A\361c1\035\220\342\246\"\212(\026\251\005St\225"
  72      F163311D 
  72      90E2A622 
  72      8A2816A9 
  72      05537495 
  73 004a 8AA545AB 		.ascii	"\212\245E\253\343\275\3636\3461\357c\316\234s\336\271"
  73      E3BDF336 
  73      E631EF63 
  73      CE9C73DE 
  73      B9
  74 005b 771C02C9 		.ascii	"w\034\002\311\270\254\210N\360~\234'4AMo\022\225}\005"
  74      B8AC884E 
ARM GAS  C:\Users\gjl\AppData\Local\Temp\ccaNqQLi.s 			page 5


  74      F07E9C27 
  74      34414D6F 
  74      12957D05 
  75 006f C8C1F8A0 		.ascii	"\310\301\370\240I\205I\354\253?\012Q\243\365T\365/\031"
  75      498549EC 
  75      AB3F0A51 
  75      A3F554F5 
  75      2F19
  76 0081 1EDB5F0F 		.ascii	"\036\333_\017\006\314r\210\232&\212U\342DXB?\263v_4"
  76      06CC7288 
  76      9A268A55 
  76      E2445842 
  76      3FB3765F 
  77 0096 DE41F780 		.ascii	"\336A\367\200\370\\\217\366\333\351\276Ec*\306|\312"
  77      F85C8FF6 
  77      DBE9BE45 
  77      632AC67C 
  77      CA
  78 00a7 1B5DD3C0 		.ascii	"\033]\323\30024+p*\213\201,1@\270\215>!\177\213\256"
  78      32342B70 
  78      2A8B812C 
  78      3140B88D 
  78      3E217F8B 
  79 00bc 17752ED1 		.ascii	"\027u.\321m<\276\031#\267 \272\360\355Ff\316\204\345"
  79      6D3CBE19 
  79      23B720BA 
  79      F0ED4666 
  79      CE84E5
  80 00cf 5ED1DEF9 		.ascii	"^\321\336\371_+\203\271;\253\177g2\251)I\325\213\273"
  80      5F2B83B9 
  80      3BAB7F67 
  80      32A92949 
  80      D58BBB
  81 00e2 C8D93CB8 		.ascii	"\310\331<\270\207\024W\010AV\316\207&\216\253&|\343"
  81      87145708 
  81      4156CE87 
  81      268EAB26 
  81      7CE3
  82 00f4 AD7FF0D2 		.ascii	"\255\177\360\322\212oU\232\027\355\220|v!\011R\002x"
  82      8A6F559A 
  82      17ED907C 
  82      76210952 
  82      0278
  83 0106 B2F809DA 		.ascii	"\262\370\011\332%,\2426O\351\304\236R\262\353\026\242"
  83      252CA236 
  83      4FE9C49E 
  83      52B2EB16 
  83      A2
  84 0117 5FD7369B 		.ascii	"_\3276\233\023\342_\325\322\225\331Z\364\332\373\251"
  84      13E25FD5 
  84      D295D95A 
  84      F4DAFBA9 
  85 0127 6ADA49A2 		.ascii	"j\332I\242??\014\347\\\373j*\323\306\221\216\354>y\325"
  85      3F3F0CE7 
  85      5CFB6A2A 
  85      D3C6918E 
  85      EC3E79D5 
ARM GAS  C:\Users\gjl\AppData\Local\Temp\ccaNqQLi.s 			page 6


  86 013b 3D8F5BE5 		.ascii	"=\217[\345)\356\227\213\007\310\342>8?V0\017j\241\362"
  86      29EE978B 
  86      07C8E23E 
  86      383F5630 
  86      0F6AA1F2 
  87 014f A3B1A5AC 		.ascii	"\243\261\245\254\241fOF\252G\365-X\304a\220=\216n,<"
  87      A1664F46 
  87      AA47F52D 
  87      58C46190 
  87      3D8E6E2C 
  88 0164 3B26B61A 		.ascii	";&\266\032\277\201\207,\337A\242\221\254\314\022Q\273"
  88      BF81872C 
  88      DF41A291 
  88      ACCC1251 
  88      BB
  89 0175 FEBE79D1 		.ascii	"\376\276y\321\252\370qY\3652>\010\273E\225b\362*\213"
  89      AAF87159 
  89      F5323E08 
  89      BB459562 
  89      F22A8B
  90 0188 3AAC3DE6 		.ascii	":\254=\3461i}{m/-$\300\301\232%\035\246,\305O\002x\235"
  90      31697D7B 
  90      6D2F2D24 
  90      C0C19A25 
  90      1DA62CC5 
  91 01a0 97F936F3 		.ascii	"\227\3716\363\347\346iK\352\262P4\373%#@G\305ec\322"
  91      E7E6694B 
  91      EAB25034 
  91      FB252340 
  91      47C56563 
  92 01b5 9D453FE2 		.ascii	"\235E?\342\242YC\337Q\011?\016\211 \371\223m\005i0\267"
  92      A25943DF 
  92      51093F0E 
  92      8920F993 
  92      6D056930 
  93 01ca 3B3B145C 		.ascii	";;\024\\\011J\205\253\301\350\245\341\261\361\322H\220"
  93      094A85AB 
  93      C1E8A5E1 
  93      B1F1D248 
  93      90
  94 01db 3F373C76 		.ascii	"?7<vf0\177v\360\344\010\271\023\205\342x\340\216\226"
  94      66307F76 
  94      F0E408B9 
  94      1385E278 
  94      E08E96
  95 01ee 2E148AFF 		.ascii	".\024\212\377\000r_\323\243"
  95      00725FD3 
  95      A3
  96              		.text
  97              		.section	.gnu.lto_D4_Read.58eafa83,"",%progbits
  98 0000 789C258F 		.ascii	"x\234%\217=K\003A\020\206\347\335\275\304#\022\374\001"
  98      3D4B0341 
  98      1086E7DD 
  98      BDC42312 
  98      FC01
  99 0012 1E629B46 		.ascii	"\036b\233F\004\323XY(\332\212\351$ \022\2575\020\264"
  99      04D35859 
ARM GAS  C:\Users\gjl\AppData\Local\Temp\ccaNqQLi.s 			page 7


  99      28DA8AE9 
  99      242012AF 
  99      3510B4
 100 0025 CEE62E97 		.ascii	"\316\346.\227\200X\244QA\220T\232\304\017D\024\013\253"
 100      8058A451 
 100      4190549A 
 100      C40F4414 
 100      0BAB
 101 0037 33280604 		.ascii	"3(\006\004\355\254U$\205\225\206H@\324s67\260;;;\317"
 101      EDAC5524 
 101      85958648 
 101      40D47336 
 101      37B03B3B 
 102 004d CC3B6310 		.ascii	"\314;c\020H\333\024\273\021\366\303| \011\242\362@T"
 102      48DB14BB 
 102      11F6C37C 
 102      2009A2F2 
 102      4054
 103 005f 3005A01F 		.ascii	"0\005\240\037\312\004\345\005\362\370\022\277\002\367"
 103      CA04E505 
 103      F2F812BF 
 103      02F7
 104 006d BDD6662C 		.ascii	"\275\326f,QS\312Q\317\336\301\344N\335\207'\211\002"
 104      5153CA51 
 104      CFDEC1E4 
 104      4EDD8727 
 104      8902
 105 007f 4198B030 		.ascii	"A\230\2600n\351\0265$\210\321\327\263\277\255x\264\250"
 105      6EE91635 
 105      2488D1D7 
 105      B3BFAD78 
 105      B4A8
 106 0091 D84635C0 		.ascii	"\330F5\300\231:\242Z\362t\301WA\340*\377<v}\031\343"
 106      993AA25A 
 106      F274C157 
 106      41E02AFF 
 106      3C767D19 
 107 00a6 2F4FB22E 		.ascii	"/O\262._\206\276\"\244;\322\007Wh\375O!\264\227m4\277"
 107      5F86BE22 
 107      A43BD207 
 107      5768FD4F 
 107      21B4976D 
 108 00bc 379E1A8B 		.ascii	"7\236\032\213\272\211+%\013l{\315\307\201\256\360\244"
 108      BA892B25 
 108      0B6C7BCD 
 108      C781AEF0 
 108      A4
 109 00cd 80D6732A 		.ascii	"\200\326s*\255\227x\030\026\235\2122\370\253\274\177"
 109      AD977818 
 109      169D8A32 
 109      F8ABBC7F 
 110 00dd B53B58C5 		.ascii	"\265;X\305^\241\310SJ\034\302B\003<#\216P\005\265\341"
 110      5EA1C853 
 110      4A1CC242 
 110      033C238E 
 110      5005B5E1 
 111 00f1 7666C995 		.ascii	"vf\311\225\010\333\335\006=\177H\327\033\0208f\214\363"
ARM GAS  C:\Users\gjl\AppData\Local\Temp\ccaNqQLi.s 			page 8


 111      08DBDD06 
 111      3D7F48D7 
 111      1B103866 
 111      8CF3
 112 0103 3FA5AE11 		.ascii	"?\245\256\021\012\032\3141tqsW25\004\266\223>\344t\312"
 112      0A1ACC31 
 112      74717357 
 112      323504B6 
 112      933EE474 
 113 0118 6F08A108 		.ascii	"o\010\241\010s\364\316\345aD\3755\240\307\347e\2549"
 113      73F4CEE5 
 113      6144FD35 
 113      A0C7E765 
 113      AC39
 114 012a 7BD5CE2D 		.ascii	"{\325\316-\257\331+K\251\354z.c\247\347S\331\351dz&"
 114      AFD92B4B 
 114      A9EC7A2E 
 114      63A7E753 
 114      D9E9647A 
 115 013f 3996A17F 		.ascii	"9\226\241\177\022\266rJ"
 115      12B6724A 
 116              		.text
 117              		.section	.gnu.lto_D4_ReadDataReg.58eafa83,"",%progbits
 118 0000 789C258F 		.ascii	"x\234%\217AK\002Q\020\307\347\377\336j\222\204\037\240"
 118      414B0251 
 118      10C7E7FF 
 118      DE6A9284 
 118      1FA0
 119 0012 25BA7A89 		.ascii	"%\272z\211 /\235:\024u\215\274\205\020a{M\220:\373\334"
 119      202F9D3A 
 119      14758DBC 
 119      8510617B 
 119      4D903AFB 
 120 0027 750DA283 		.ascii	"u\015\242\203\227\362\020\345Q-#\242\240C\227M\212\212"
 120      97F210E5 
 120      512D23A2 
 120      A043974D 
 120      8A8A
 121 0039 A0BE4244 		.ascii	"\240\276BD(t*\261\214\250\266y\356\300{\363\346\315"
 121      28742AB1 
 121      8CA8B679 
 121      EEC07BF3 
 121      E6CD
 122 004b 6FE63F63 		.ascii	"o\346?c\020H\333\024\273\021\366\303| \011\242\364@"
 122      1048DB14 
 122      BB11F6C3 
 122      7C2009A2 
 122      F440
 123 005d 948F0840 		.ascii	"\224\217\010@?T\004\224\023\310\341C\374\012\334\367"
 123      3F540494 
 123      13C8E143 
 123      FC0ADCF7 
 124 006d 6EB706E3 		.ascii	"n\267\006\343U\245l\365\344\236N\226k\036\\I\344\013"
 124      55A56CF5 
 124      E49E4E96 
 124      6B1E5C49 
 124      E40B
ARM GAS  C:\Users\gjl\AppData\Local\Temp\ccaNqQLi.s 			page 9


 125 007f C2848971 		.ascii	"\302\204\211qS\267\250\"N\214>\237\374m\017\205\013"
 125      53B7A822 
 125      4E8C3E9F 
 125      FC6D0F85 
 125      0B
 126 0090 8A6D5403 		.ascii	"\212mT\003\234\251!\254%\217\027<\345\373\216\362v\243"
 126      9CA921AC 
 126      258F173C 
 126      E5FB8EF2 
 126      76A3
 127 00a2 97FB51FE 		.ascii	"\227\373Q\376r%\353\362e\350+D\272#\275q\205\326\177"
 127      7225EBF2 
 127      65E82B44 
 127      BA23BD71 
 127      85D67F
 128 00b5 17427BD9 		.ascii	"\027B{\331B\363{\363\263\261\250\2338R\262\300\216\333"
 128      42F37BF3 
 128      B3B1A89B 
 128      3852B2C0 
 128      8EDB
 129 00c7 7C1CE80A 		.ascii	"|\034\350\012W\012h\275\213/\257\034\012Be\227\224\301"
 129      570A68BD 
 129      8B2FAF1C 
 129      0A426597 
 129      94C1
 130 00d9 5FEDF6F9 		.ascii	"_\355\366\371]\254\202\275|\201\247\2248\200\211:xF"
 130      5DAC82BD 
 130      7C81A794 
 130      3880893A 
 130      7846
 131 00eb 1CA2026A 		.ascii	"\034\242\002j\301\351\314\222#\021\264\273\366{^L\327"
 131      C1E9CC92 
 131      2311B4BB 
 131      F67B5E4C 
 131      D7
 132 00fc 1B106830 		.ascii	"\033\020h0\306\371\237b\327\010\004\015\346\030:\273"
 132      C6F99F62 
 132      D708040D 
 132      E6183ABB 
 133 010c BA294634 		.ascii	"\272)F4\004\266\243>dw6^\020@!\346\350\225\313\203\210"
 133      04B6A33E 
 133      6477365E 
 133      104021E6 
 133      E895CB83 
 134 0121 FA6B408F 		.ascii	"\372k@\217\317\313\230s\326\252\225]^\263V\226\222\231"
 134      CFCB9873 
 134      D6AA955D 
 134      5EB35696 
 134      9299
 135 0133 F56CDA4A 		.ascii	"\365l\332J\315'3\323\211\324Lb,M\377\316\210sa"
 135      CD2733D3 
 135      89D44C62 
 135      2C4DFFCE 
 135      887361
 136              		.text
 137              		.section	.gnu.lto_D4_SetInterruptMode.58eafa83,"",%progbits
 138 0000 789C6D51 		.ascii	"x\234mQAk\023A\024~of\223\335$\315\306\273\001s)\261"
ARM GAS  C:\Users\gjl\AppData\Local\Temp\ccaNqQLi.s 			page 10


 138      416B1341 
 138      147E6F66 
 138      93DD24CD 
 138      C6BB0173 
 139 0016 070521FF 		.ascii	"\007\005!\377\240\2027)\366Z\220\322F\311\301Db<w\222"
 139      A0823729 
 139      F65A90D2 
 139      46C9C144 
 139      623C7792 
 140 002a 4D522822 		.ascii	"MR(\"\305b\300\322R\260,\215Vm\233V\2419\255\001oU\251"
 140      C562C0D2 
 140      52B02C8D 
 140      566D9B56 
 140      A139AD01 
 141 0041 524405D1 		.ascii	"RD\005\321ZS\250\212i\255(\242\215\357\355\346Rp`w\346"
 141      5A53A88A 
 141      69AD28A2 
 141      8DEFEDE6 
 141      52706077 
 142 0056 7D7CDF37 		.ascii	"}|\3377\337{\243\001\002\257\252\000H\320~\224>\224"
 142      DF7BA301 
 142      02AFAA00 
 142      48D07E94 
 142      3E94
 143 0068 8062FC19 		.ascii	"\200b\374\031@\336\020\210|P\006\302\210\300\021\374"
 143      40DE1088 
 143      7C5006C2 
 143      88C011FC 
 144 0078 21FE0A6C 		.ascii	"!\376\012l\2146WE\317\234\242\365\376\323\366)Uu\260"
 144      8C365745 
 144      CF9CA2F5 
 144      FED3F629 
 144      5575B0
 145 008b 2401DAC2 		.ascii	"$\001\332\302u\002\234\303\036b=i\377t\"\373\242$\021"
 145      75029CC3 
 145      1E623D69 
 145      FF7422FB 
 145      A22411
 146 009e 59F4A2B5 		.ascii	"Y\364\242\2656\035\342R\340\021*'w\354\212)\217!\320"
 146      361DE252 
 146      E0112A27 
 146      77EC8A29 
 146      8F21D0
 147 00b1 797BE5F6 		.ascii	"y{\345\366\253`\334V\252\240\324\304\240\362\225\244"
 147      AB60DC56 
 147      AAA0D4C4 
 147      A0F295A4 
 148 00c1 C4BB28C9 		.ascii	"\304\273(\311\017\357`\024\253\030\005\202\000\3471"
 148      0FEF6014 
 148      AB180582 
 148      00E731
 149 00d0 4EECEFCB 		.ascii	"N\354\357\313\366DH\036w\225{\226muu\224\033\035\345"
 149      F644481E 
 149      77957B96 
 149      6D757594 
 149      1B1DE5
 150 00e3 BDFF28EF 		.ascii	"\275\377(\357c\234\351\353\305\305)\351E\322\250\334"
ARM GAS  C:\Users\gjl\AppData\Local\Temp\ccaNqQLi.s 			page 11


 150      639CE9EB 
 150      C5C529E9 
 150      45D2A8DC 
 151 00f3 7D3AF9D1 		.ascii	"}:\371\321\364\"\305\250\234\2677l!O\270\306c\257o\324"
 151      F422C5A8 
 151      9CB7376C 
 151      214FB8C6 
 151      63AF6FD4 
 152 0107 C2DDB36C 		.ascii	"\302\335\263l\354\274\274n\336RN1V\222\032.z\346\013"
 152      ECBCBC6E 
 152      DE524E31 
 152      56921A2E 
 152      7AE60B
 153 011a 64FE80CC 		.ascii	"d\376\200\314y\021{s\351\340f\330_\344\201\304p\011"
 153      79117B73 
 153      E9E066D8 
 153      5FE481C4 
 153      7009
 154 012c BBBD5160 		.ascii	"\273\275Q`\015\3754\\dd\341\234\243\332mK9\353\346\343"
 154      0DFD345C 
 154      6464E19C 
 154      A3DA6D4B 
 154      39EBE6E3 
 155 0140 376697A0 		.ascii	"7f\227\240X>JA\035i|\364\361\317\017\314\324\221\323"
 155      583E4A41 
 155      1D697CF4 
 155      F1CF0FCC 
 155      D491D3
 156 0153 1A04F803 		.ascii	"\032\004\370\003\214\006\371\007\320\"G~\211]!x\227"
 156      8C06F907 
 156      D022477E 
 156      895D2178 
 156      97
 157 0164 4D6CFC1E 		.ascii	"Ml\374\036{W\357\343K,\311\003\256\224\032\317u\356"
 157      7B57EFE3 
 157      4B2CC903 
 157      AE941ACF 
 157      75EE
 158 0176 46773BF8 		.ascii	"Fw;\370\372mu*\354\225\327\012\343\212\373\255\315~"
 158      FA6D752A 
 158      EC95D70A 
 158      E38AFBAD 
 158      CD7E
 159 0188 DE8ACCE0 		.ascii	"\336\212\314\340t\276H\357e\340\0125\261\314M\340C\234"
 159      74BE48EF 
 159      65E00A35 
 159      B1CC4DE0 
 159      439C
 160 019a 41686261 		.ascii	"Ahbaot_\363\0145\213\306F\310AyKz\210\217@B\254?\345"
 160      6F745FF3 
 160      0C358BC6 
 160      46C84179 
 160      4B7A888F 
 161 01b3 2FE8217C 		.ascii	"/\350!|/\341\260\211\302m\225\302\023\350q\232\365z"
 161      2FE1B089 
 161      C26D95C2 
 161      13E8719A 
ARM GAS  C:\Users\gjl\AppData\Local\Temp\ccaNqQLi.s 			page 12


 161      F57A
 162 01c5 87659093 		.ascii	"\207e\220\223%u\327^\367\240\000\241L\373U^\353\230"
 162      2575D75E 
 162      F7A000A1 
 162      4CFB555E 
 162      EB98
 163 01d7 075DB700 		.ascii	"\007]\267\000\201\215\312\207\010c\207\342\346\225\012"
 163      818DCA87 
 163      086387E2 
 163      E6950A
 164 01e6 1D4EFC88 		.ascii	"\035N\374\210\022\223\014v\260\340\274=\313\002\367"
 164      12930C76 
 164      B0E0BC3D 
 164      CB02F7
 165 01f5 2D5A0279 		.ascii	"-Z\002y:4\253\350\231d:\231\035\314%\207\317\367g\256"
 165      3A34ABE8 
 165      99643A99 
 165      1DCC2587 
 165      CFF767AE 
 166 0209 66879203 		.ascii	"f\207\222\003}\375\231\336\304\300\351\304\311!0.g\256"
 166      7DFD99DE 
 166      C4C0E9C4 
 166      C921302E 
 166      67AE
 167 021b A472A94C 		.ascii	"\244r\251LZ\273\224\031N\352\251t.\333{\341\342?\325"
 167      5ABB9419 
 167      4EEAA974 
 167      2EDB7BE1 
 167      E23FD5
 168 022e CCEC26   		.ascii	"\314\354&"
 169              		.text
 170              		.section	.gnu.lto_D4_ClearInterrupt.58eafa83,"",%progbits
 171 0000 789C5590 		.ascii	"x\234U\220\275KcQ\020\305\347\334\373b\202\250\371\003"
 171      BD4B6351 
 171      10C5E7DC 
 171      FB6282A8 
 171      F903
 172 0012 36A08D85 		.ascii	"6\240\215\205,\210\240\205\332\356\302\266bZa\011\372"
 172      2C88A085 
 172      DAEEC2B6 
 172      625A6109 
 172      FA
 173 0023 2A718524 		.ascii	"*q\205$\266z\363\361\024\226\005\323\254i\024\013\301"
 173      B67AF3F1 
 173      149605D3 
 173      AC69140B 
 173      C1
 174 0034 E8FAB9C5 		.ascii	"\350\372\271\3056J\344\031T\004QQ[EQ\260\020\004\025"
 174      364AE419 
 174      54045151 
 174      5B4551B0 
 174      100415
 175 0047 35E0BA66 		.ascii	"5\340\272fg\362,\364\302c\356\2357\3477g\306\"\220\234"
 175      67F22CF4 
 175      C263EE9D 
 175      37E73767 
 175      C622909C 
ARM GAS  C:\Users\gjl\AppData\Local\Temp\ccaNqQLi.s 			page 13


 176 005b 130E1F39 		.ascii	"\023\016\0379~\340\017\232\2402{D\211\200\002\344b\002"
 176      7EE00F9A 
 176      A0327B44 
 176      898002E4 
 176      6202
 177 006d A0218521 		.ascii	"\240!\205!<\250\177\012;\305\355\037\225\0159c\222\346"
 177      3CA87F0A 
 177      3BC5ED1F 
 177      950D3963 
 177      92E6
 178 007f CC29B665 		.ascii	"\314)\266eg\\8\232\250\244\010\315!4\205\004\221C\003"
 178      675C389A 
 178      A8A408CD 
 178      21348504 
 178      914303
 179 0092 71E9C5E2 		.ascii	"q\351\305\342\337\\\265\256\205\334w\247\257\377\240"
 179      DF5CB5AE 
 179      85DC77A7 
 179      AFFFA0
 180 00a1 7E4A646E 		.ascii	"~Jdn~\264*k\334D\035\3530\003\375VJR{\376\373\345gu"
 180      7EB42A6B 
 180      DC441DEB 
 180      3003FD56 
 180      4A527BFE 
 181 00b9 45DAF0A9 		.ascii	"E\332\360\251\303,\352\005\316\324_\250`\237\220\314"
 181      C32CEA05 
 181      CED45FA8 
 181      609F90CC 
 182 00c9 52A76B4A 		.ascii	"R\247kJ\245\224qW\203\353\207\301\200\"G\263oG+\213"
 182      A5947157 
 182      83EB87C1 
 182      802247B3 
 182      6F472B8B 
 183 00dd E4B74FDE 		.ascii	"\344\267O\336~\022_t\303Z\231\342V)\211\372\022\205"
 183      7E125F74 
 183      C35A99E2 
 183      562989FA 
 183      1285
 184 00ef A7EF8FF9 		.ascii	"\247\357\217\371A\301\245\264L4\346\024\366\375\367"
 184      41C1A5B4 
 184      4C34E614 
 184      F6FDF7
 185 00fe CAD1BAEC 		.ascii	"\312\321\272\354\364lm\3454\340=3\311\214\2618u|T\234"
 185      F46C6DE5 
 185      34E03D33 
 185      C98CB138 
 185      757C549C 
 186 0112 AB99C444 		.ascii	"\253\231\304D\"\315\263Z\230G\010s`\273X\300$\350\022"
 186      22CDB35A 
 186      98470873 
 186      60BB58C0 
 186      24E812
 187 0125 C9BB9167 		.ascii	"\311\273\221g\345\001539\223z\036\336\200\227\2618\311"
 187      E5013533 
 187      39937A1E 
 187      DE8097B1 
 187      38C9
ARM GAS  C:\Users\gjl\AppData\Local\Temp\ccaNqQLi.s 			page 14


 188 0137 8C83F4F2 		.ascii	"\214\203\364\362\270\026\254\202\205EV\237\243,\021"
 188      B816AC82 
 188      8545569F 
 188      A32C11
 189 0146 BF5CE451 		.ascii	"\277\\\344Q^\362\355\236\310\347\245\012ce\310;\013"
 189      5EF2ED9E 
 189      C8E7A50A 
 189      6365C83B 
 189      0B
 190 0157 09637CEF 		.ascii	"\011c|\357],\261\013\226H\333\273\341\255\265V\017\341"
 190      5D2CB10B 
 190      9648DBBB 
 190      E1ADB556 
 190      0FE1
 191 0169 67040B37 		.ascii	"g\004\0137KE7(}}\334o\231\353\257\360j\325O\345\365"
 191      4B453728 
 191      7D7DDC6F 
 191      99EBAFF0 
 191      6AD54FE5 
 192 017e 40D6C24B 		.ascii	"@\326\302K\012}\261\277\331\321H\334\356\371\032\356"
 192      0A7DB1BF 
 192      D9D148DC 
 192      EEF91AEE 
 193 018e 1F8876DB 		.ascii	"\037\210v\333]\035\341\376O-]\237[\032\273\251\252/"
 193      5D1DE1FE 
 193      4F2D5D9F 
 193      5B1ABBA9 
 193      AA2F
 194 01a0 12EBB57B 		.ascii	"\022\353\265{\302\361H| \366\037\017f\252{"
 194      C2F1487C 
 194      20F61F0F 
 194      66AA7B
 195              		.text
 196              		.section	.gnu.lto_.symbol_nodes.58eafa83,"",%progbits
 197 0000 789C6361 		.ascii	"x\234ca`d\310`\000\002&\206z\006\206\011\347\030@\324"
 197      6064C860 
 197      00022686 
 197      7A068609 
 197      E71840D4 
 198 0014 AE0645A0 		.ascii	"\256\006E\240\000c=#\252\000S=\023\252\000s=3\252\000"
 198      00633D23 
 198      AA00533D 
 198      13AA0073 
 198      3D33AA00 
 199 0028 4B3D0BAA 		.ascii	"K=\013\252\000k=+\212\000\003\000\305\333\026\342"
 199      006B3D2B 
 199      8A000300 
 199      C5DB16E2 
 200              		.text
 201              		.section	.gnu.lto_.refs.58eafa83,"",%progbits
 202 0000 789C6361 		.ascii	"x\234ca`\004B \000\000\0009\000\007"
 202      60044220 
 202      00000039 
 202      0007
 203              		.text
 204              		.section	.gnu.lto_.decls.58eafa83,"",%progbits
 205 0000 789C8D54 		.ascii	"x\234\215ToL[U\024\277\347\275\376\343\201e\342bH\354"
ARM GAS  C:\Users\gjl\AppData\Local\Temp\ccaNqQLi.s 			page 15


 205      6F4C5B55 
 205      14BFE7BD 
 205      FEE38165 
 205      E26248EC 
 206 0014 07DC8796 		.ascii	"\007\334\207\226\370\201\310 \306/&&\020\247\211:3\342"
 206      F881C820 
 206      C62F2626 
 206      10A7893A 
 206      33E2
 207 0026 FCB26476 		.ascii	"\374\262dv\3602I\014\314ZL\366\355\012l\222}\021\224"
 207      F032490C 
 207      CC5A4CF6 
 207      ED0A6C92 
 207      7D1194
 208 0039 6D309963 		.ascii	"m0\231c\020\261@\0310(\320\342\326N\241\"\260Q\300\230"
 208      10B14019 
 208      3028D0E2 
 208      D64EA122 
 208      B051C098 
 209 004d 9045B788 		.ascii	"\220E\267\210\213\177\246\021\267%\263\232Y\317\275"
 209      8B7FA611 
 209      B725B39A 
 209      59CFBD
 210 005c F7B5F76D 		.ascii	"\367\265\367m\226\310M\317\375{\316\357\374\316\357"
 210      96C84DCF 
 210      FD7BCEEF 
 210      FCCEEF
 211 006b 9DD44280 		.ascii	"\235\324B\200\260\241\330\010\011\343\032\304c\012\207"
 211      B0A1D808 
 211      09E31AC4 
 211      630A87
 212 007a 1DF77B89 		.ascii	"\035\367{\211\034\370L\306\320BhSh\021\264\031\2648"
 212      1CF84CC6 
 212      D0426853 
 212      6811B419 
 212      B438
 213 008c F9EF1833 		.ascii	"\371\357\0303\374Y\37494\017\332\012Z\002m\267\341\003"
 213      FC59FC39 
 213      340FDA0A 
 213      5A026DB7 
 213      E103
 214 009e 86DF8383 		.ascii	"\206\337\203\203\341\333\037\210um\022\037\312\022\317"
 214      E1DB1F88 
 214      756D121F 
 214      CA12CF
 215 00ad B859FF27 		.ascii	"\270Y\377'\357T\226\270\310\026\342\"Y\342\230\0069"
 215      EF5496B8 
 215      C816E222 
 215      59E29806 
 215      39
 216 00be 06DF02B4 		.ascii	"\006\337\002\264\355hQ\264E\003\307m\302J\343\314d\301"
 216      ED6851B4 
 216      4503C76D 
 216      C24AE3CC 
 216      64C1
 217 00d0 613ADAB6 		.ascii	"a:\332\266Ps6\275\357)\220h\216O:\256\302\032(`|P\002"
 217      507336BD 
ARM GAS  C:\Users\gjl\AppData\Local\Temp\ccaNqQLi.s 			page 16


 217      EF299068 
 217      8E4F3AAE 
 217      C21A2860 
 218 00e7 2066E046 		.ascii	" f\340F\204\361#n\024>\223\314Uf!l&\302\237\337I0\376"
 218      84F1236E 
 218      143E93CC 
 218      5566216C 
 218      26C29FDF 
 219 00fe 4BAFA9F4 		.ascii	"K\257\251\364\340 \022\035\214 \3100\020Q\342]I\243"
 219      E020121D 
 219      8C20C830 
 219      1051E25D 
 219      49A3
 220 0110 8A459101 		.ascii	"\212E\221\001&<A\327\304\011\356\257\011\322E\337\235"
 220      263C41D7 
 220      C409EEAF 
 220      09D245DF 
 220      9D
 221 0121 EC39AEA9 		.ascii	"\3549\256\251X1\356\257%\003\317\225\004)\216VJ\225"
 221      5831EEAF 
 221      2503CF95 
 221      04298E56 
 221      4A95
 222 0133 27A432C3 		.ascii	"'\2442\303G~\350w\334Q\300\245A\012\330\371\327p\362"
 222      477EE877 
 222      DC51C0A5 
 222      410AD8F9 
 222      D770F2
 223 0146 217166CF 		.ascii	"!qf\317\235m\353\377\344\252\217\261\275\262\272>\370"
 223      9D6DEBFF 
 223      E4AA8FB1 
 223      BDB2BA3E 
 223      F8
 224 0157 B3058AB5 		.ascii	"\263\005\212\265>\006s\375\303\376g\302\224n\203s\240"
 224      3E0673FD 
 224      C3FE67C2 
 224      946E8373 
 224      A0
 225 0168 411054E8 		.ascii	"A\020T\350\207\022\226\334\245\341\334Bi#\335\350\241"
 225      871296DC 
 225      A5E1DC42 
 225      6923DDE8 
 225      A1
 226 0179 B6420265 		.ascii	"\266B\002e.x\322E`\010\212\031&\363\202Ap\301\000\270"
 226      2E78D245 
 226      60088A19 
 226      26F38241 
 226      70C100B8 
 227 018d 18FE8D93 		.ascii	"\030\376\215\223gn\332,\012\0062\234\003\026v7\233\272"
 227      676EDA2C 
 227      0A06329C 
 227      03167637 
 227      9BBA
 228 019f 1BCB470A 		.ascii	"\033\313G\012\005\032(x\\\331X<\235\213\307\355\032"
 228      051A2878 
 228      5CD9583C 
 228      9D8BC7ED 
ARM GAS  C:\Users\gjl\AppData\Local\Temp\ccaNqQLi.s 			page 17


 228      1A
 229 01b0 6CC3E395 		.ascii	"l\303\343\225\366\265\025(<\3018\320&Z\244\300\336G"
 229      F6B51528 
 229      3CC138D0 
 229      265AA4C0 
 229      DE47
 230 01c2 61140147 		.ascii	"a\024\001G\020\220\300y(\304y\030,\242\272\300\373\037"
 230      1090C079 
 230      28C47918 
 230      2CA2BAC0 
 230      FB1F
 231 01d4 587774D3 		.ascii	"Xwt\323\356\021z\375\344\321\027\317\366\036\245\011"
 231      EE117AFD 
 231      E4D117CF 
 231      F61EA509 
 232 01e4 0C7B96FB 		.ascii	"\014{\226\373A@\262\306-[>\205\253\250\345\030\354\300"
 232      4140B2C6 
 232      2D5B3E85 
 232      ABA8E518 
 232      ECC0
 233 01f6 D0F1C6E3 		.ascii	"\320\361\306\343Mv\365u\256\302j\"\371\215S\340\304"
 233      4D76F575 
 233      AEC26A22 
 233      F98D53E0 
 233      C4
 234 0207 A2EFA99D 		.ascii	"\242\357\251\2354\326\2100\012G\031\227(\343f\224\020"
 234      34D68830 
 234      0A471997 
 234      28E36694 
 234      10
 235 0218 4739459B 		.ascii	"G9E\233\232\035j-G9\335\332;\220kf\316J\226\324'9\365"
 235      9A1D6A2D 
 235      4739DDDA 
 235      3B906B66 
 235      CE4A96D4 
 236 022f 0306F3EF 		.ascii	"\003\006\363\357\007\273/8\214\224\243\3632%z\301\204"
 236      07BB2F38 
 236      8C94A3F3 
 236      32257AC1 
 236      84
 237 0240 4C39614E 		.ascii	"L9aN9\305S\036\013\277[\245\276\3053.\375\266\326\222"
 237      39C5531E 
 237      0BBF5BA5 
 237      BEC5332E 
 237      FDB6D692 
 238 0254 6380742C 		.ascii	"c\200t,\344\211\3429DXB\204\315\020\021\016\321\331"
 238      E489E239 
 238      44584284 
 238      CD10110E 
 238      D1D9
 239 0266 D77DD1A9 		.ascii	"\327}\321\251R\340 \237\374\365\367\206\212\372\273"
 239      52E0209F 
 239      FCF5F786 
 239      8AFABB
 240 0275 B14352AA 		.ascii	"\261CR\252\251E\334\242E\002g\343c\232\332\316\235\225"
 240      A945DCA2 
 240      450267E3 
ARM GAS  C:\Users\gjl\AppData\Local\Temp\ccaNqQLi.s 			page 18


 240      639ADACE 
 240      9D95
 241 0287 AEF64B43 		.ascii	"\256\366KC6\320\212y\007`\225Z\300I25B\014\233\300m"
 241      36D08A79 
 241      0760955A 
 241      C0493235 
 241      420C9BC0 
 242 029c 34C105BC 		.ascii	"4\301\005\274\374\014/\215n\032\022\335\024EI.JnnM\250"
 242      FC0C2F8D 
 242      6E1A12DD 
 242      1445492E 
 242      4A6E6E4D 
 243 02b1 7162F54E 		.ascii	"qb\365N\022x\233D3m\322\363\373\3556G\346\356\022\360"
 243      12789B44 
 243      336DD2F3 
 243      FBED3647 
 243      E6EE12F0 
 244 02c5 CB815F92 		.ascii	"\313\201_\222Q\333\246\335\361\005\227\370\363tw\374"
 244      51DBA6DD 
 244      F10597F8 
 244      F37477FC 
 245 02d5 F4E7D77D 		.ascii	"\364\347\327}J\272=\342\273\327\317Sz\004\343,\314\017"
 245      4ABA3DE2 
 245      BBD7CF53 
 245      7A04E32C 
 245      CC0F
 246 02e7 A6258B69 		.ascii	"\246%\213i\263B3\\\241\266\216[\013\271\352GB\241\217"
 246      B342335C 
 246      A1B68E5B 
 246      0BB9EA47 
 246      42A18F
 247 02fa A7FB42F9 		.ascii	"\247\373B\371\206\314\341\245\373\277\325\254\204\231"
 247      86CCE1A5 
 247      FBBFD5AC 
 247      8499
 248 0308 35C3C439 		.ascii	"5\303\3049\314r\363H\227*Z\335\202\307?.\237Zw\212V"
 248      CC72F348 
 248      972A5ADD 
 248      82C73F2E 
 248      9F5A778A 
 249 031d 2FC2E3B7 		.ascii	"/\302\343\267s\375\203\354\325\303\224O\245\362M\332"
 249      73FD83EC 
 249      D5C3944F 
 249      A5F24DDA 
 250 032d 7B84F6F3 		.ascii	"{\204\366\363\327n\334\312Q\207\204\366\023\275gn[\323"
 250      D76EDCCA 
 250      518784F6 
 250      13BD676E 
 250      5BD3
 251 033f DAB736D1 		.ascii	"\332\2676\321\2029\324~\016\213\377\222i\177\031\265"
 251      8239D47E 
 251      0E8BFF92 
 251      697F19B5 
 252 034f F718DACF 		.ascii	"\367\030\332\317\343\345WR\373Q\241\375\"\312\270 \351"
 252      E3E55752 
 252      FB51A1FD 
 252      22CAB820 
ARM GAS  C:\Users\gjl\AppData\Local\Temp\ccaNqQLi.s 			page 19


 252      E9
 253 0360 7A0CED23 		.ascii	"z\014\355#\301\341\016Ukazn\011\224\205|G\273\254\352"
 253      C1E10E55 
 253      6B617A6E 
 253      0994857C 
 253      47BBACEA 
 254 0374 B8A0159E 		.ascii	"\270\240\025\236\272\031t\012ZY\020\2267\243\025\273"
 254      BA19740A 
 254      5A591096 
 254      37A315BB 
 255 0384 F7E3F3CD 		.ascii	"\367\343\363\315\024{0\201\264\226$\255+`\360\232\230"
 255      147B3081 
 255      B49624AD 
 255      2B60F09A 
 255      98
 256 0395 5B0ED9F3 		.ascii	"[\016\331\363\216\311b\271g\032\230\300\012\344\361"
 256      8EC962B9 
 256      671A98C0 
 256      0AE4F1
 257 03a4 FF44B6E6 		.ascii	"\377D\266\346W\226\357\257\322\375\225\276\332w\364"
 257      5796EFAF 
 257      D2FD95BE 
 257      DA77F4
 258 03b3 97EA6B74 		.ascii	"\227\352kt\307\256\227_-\252(-%\326\206\332:\377\323"
 258      C7AE975F 
 258      2DAA282D 
 258      25D686DA 
 258      3AFFD3
 259 03c6 8FEFD2EB 		.ascii	"\217\357\322\353t\237\327\257\327\354\257\252o\360U"
 259      749FD7AF 
 259      D7ECAFAA 
 259      6FF055
 260 03d5 EBFB5EA9 		.ascii	"\353\373^\251\252\257(\337W}\330\177\370\220\376v\311"
 260      AAAF28DF 
 260      577DD87F 
 260      F890FE76 
 260      C9
 261 03e6 1BC4B589 		.ascii	"\033\304\265\211GeyI5q \372k\276Z\277n\307\315\036\335"
 261      47657949 
 261      357120FA 
 261      6BBE5ABF 
 261      6EC7CD1E 
 262 03fb 5BE334D6 		.ascii	"[\3434\326J\257\337\273G?\370\210\310\376B\235_\367"
 262      4AAFDFBB 
 262      473FF888 
 262      C8FE429D 
 262      5FF7
 263 040d F91A0EF9 		.ascii	"\371\032\016\371\031\003\033K\\\372\324\303\370T\361"
 263      19031B4B 
 263      5CFAD4C3 
 263      F854F1
 264 041c A6EEF565 		.ascii	"\246\356\365e\036\371C\331N\253O?X\266\363_K\273\012"
 264      1EF943D9 
 264      4EAB4F3F 
 264      58B6F35F 
 264      4BBB0A
 265 042f A4       		.ascii	"\244"
ARM GAS  C:\Users\gjl\AppData\Local\Temp\ccaNqQLi.s 			page 20


 266              		.text
 267              		.section	.gnu.lto_.symtab.58eafa83,"",%progbits
 268 0000 44345F53 		.ascii	"D4_SetDriveMode\000"
 268      65744472 
 268      6976654D 
 268      6F646500 
 269 0010 00       		.ascii	"\000"
 270 0011 00       		.ascii	"\000"
 271 0012 00       		.ascii	"\000"
 272 0013 00000000 		.ascii	"\000\000\000\000\000\000\000\000"
 272      00000000 
 273 001b B3000000 		.ascii	"\263\000\000\000"
 274 001f 44345F57 		.ascii	"D4_Write\000"
 274      72697465 
 274      00
 275 0028 00       		.ascii	"\000"
 276 0029 00       		.ascii	"\000"
 277 002a 00       		.ascii	"\000"
 278 002b 00000000 		.ascii	"\000\000\000\000\000\000\000\000"
 278      00000000 
 279 0033 B5000000 		.ascii	"\265\000\000\000"
 280 0037 44345F52 		.ascii	"D4_Read\000"
 280      65616400 
 281 003f 00       		.ascii	"\000"
 282 0040 00       		.ascii	"\000"
 283 0041 00       		.ascii	"\000"
 284 0042 00000000 		.ascii	"\000\000\000\000\000\000\000\000"
 284      00000000 
 285 004a B8000000 		.ascii	"\270\000\000\000"
 286 004e 44345F52 		.ascii	"D4_ReadDataReg\000"
 286      65616444 
 286      61746152 
 286      656700
 287 005d 00       		.ascii	"\000"
 288 005e 00       		.ascii	"\000"
 289 005f 00       		.ascii	"\000"
 290 0060 00000000 		.ascii	"\000\000\000\000\000\000\000\000"
 290      00000000 
 291 0068 BA000000 		.ascii	"\272\000\000\000"
 292 006c 44345F53 		.ascii	"D4_SetInterruptMode\000"
 292      6574496E 
 292      74657272 
 292      7570744D 
 292      6F646500 
 293 0080 00       		.ascii	"\000"
 294 0081 00       		.ascii	"\000"
 295 0082 00       		.ascii	"\000"
 296 0083 00000000 		.ascii	"\000\000\000\000\000\000\000\000"
 296      00000000 
 297 008b C4000000 		.ascii	"\304\000\000\000"
 298 008f 44345F43 		.ascii	"D4_ClearInterrupt\000"
 298      6C656172 
 298      496E7465 
 298      72727570 
 298      7400
 299 00a1 00       		.ascii	"\000"
 300 00a2 00       		.ascii	"\000"
ARM GAS  C:\Users\gjl\AppData\Local\Temp\ccaNqQLi.s 			page 21


 301 00a3 00       		.ascii	"\000"
 302 00a4 00000000 		.ascii	"\000\000\000\000\000\000\000\000"
 302      00000000 
 303 00ac C6000000 		.ascii	"\306\000\000\000"
 304              		.text
 305              		.section	.gnu.lto_.opts,"",%progbits
 306 0000 272D666D 		.ascii	"'-fmath-errno' '-fsigned-zeros' '-ftrapping-math' '"
 306      6174682D 
 306      6572726E 
 306      6F272027 
 306      2D667369 
 307 0033 2D666E6F 		.ascii	"-fno-trapv' '-fno-openmp' '-fno-openacc' '-mcpu=cor"
 307      2D747261 
 307      70762720 
 307      272D666E 
 307      6F2D6F70 
 308 0066 7465782D 		.ascii	"tex-m0' '-mthumb' '-g' '-Os' '-ffunction-sections' "
 308      6D302720 
 308      272D6D74 
 308      68756D62 
 308      2720272D 
 309 0099 272D6666 		.ascii	"'-ffat-lto-objects' '-flto'\000"
 309      61742D6C 
 309      746F2D6F 
 309      626A6563 
 309      74732720 
 310              		.text
 311              		.cfi_sections	.debug_frame
 312              		.section	.text.D4_SetDriveMode,"ax",%progbits
 313              		.align	1
 314              		.global	D4_SetDriveMode
 315              		.code	16
 316              		.thumb_func
 317              		.type	D4_SetDriveMode, %function
 318              	D4_SetDriveMode:
 319              	.LFB0:
 320              		.file 1 "Generated_Source\\PSoC4\\D4.c"
   1:Generated_Source\PSoC4/D4.c **** /*******************************************************************************
   2:Generated_Source\PSoC4/D4.c **** * File Name: D4.c  
   3:Generated_Source\PSoC4/D4.c **** * Version 2.20
   4:Generated_Source\PSoC4/D4.c **** *
   5:Generated_Source\PSoC4/D4.c **** * Description:
   6:Generated_Source\PSoC4/D4.c **** *  This file contains API to enable firmware control of a Pins component.
   7:Generated_Source\PSoC4/D4.c **** *
   8:Generated_Source\PSoC4/D4.c **** ********************************************************************************
   9:Generated_Source\PSoC4/D4.c **** * Copyright 2008-2015, Cypress Semiconductor Corporation.  All rights reserved.
  10:Generated_Source\PSoC4/D4.c **** * You may use this file only in accordance with the license, terms, conditions, 
  11:Generated_Source\PSoC4/D4.c **** * disclaimers, and limitations in the end user license agreement accompanying 
  12:Generated_Source\PSoC4/D4.c **** * the software package with which this file was provided.
  13:Generated_Source\PSoC4/D4.c **** *******************************************************************************/
  14:Generated_Source\PSoC4/D4.c **** 
  15:Generated_Source\PSoC4/D4.c **** #include "cytypes.h"
  16:Generated_Source\PSoC4/D4.c **** #include "D4.h"
  17:Generated_Source\PSoC4/D4.c **** 
  18:Generated_Source\PSoC4/D4.c **** 
  19:Generated_Source\PSoC4/D4.c **** #if defined(D4__PC)
  20:Generated_Source\PSoC4/D4.c ****     #define D4_SetP4PinDriveMode(shift, mode)  \
ARM GAS  C:\Users\gjl\AppData\Local\Temp\ccaNqQLi.s 			page 22


  21:Generated_Source\PSoC4/D4.c ****     do { \
  22:Generated_Source\PSoC4/D4.c ****         D4_PC =   (D4_PC & \
  23:Generated_Source\PSoC4/D4.c ****                                 (uint32)(~(uint32)(D4_DRIVE_MODE_IND_MASK << \
  24:Generated_Source\PSoC4/D4.c ****                                 (D4_DRIVE_MODE_BITS * (shift))))) | \
  25:Generated_Source\PSoC4/D4.c ****                                 (uint32)((uint32)(mode) << \
  26:Generated_Source\PSoC4/D4.c ****                                 (D4_DRIVE_MODE_BITS * (shift))); \
  27:Generated_Source\PSoC4/D4.c ****     } while (0)
  28:Generated_Source\PSoC4/D4.c **** #else
  29:Generated_Source\PSoC4/D4.c ****     #if (CY_PSOC4_4200L)
  30:Generated_Source\PSoC4/D4.c ****         #define D4_SetP4PinDriveMode(shift, mode)  \
  31:Generated_Source\PSoC4/D4.c ****         do { \
  32:Generated_Source\PSoC4/D4.c ****             D4_USBIO_CTRL_REG = (D4_USBIO_CTRL_REG & \
  33:Generated_Source\PSoC4/D4.c ****                                     (uint32)(~(uint32)(D4_DRIVE_MODE_IND_MASK << \
  34:Generated_Source\PSoC4/D4.c ****                                     (D4_DRIVE_MODE_BITS * (shift))))) | \
  35:Generated_Source\PSoC4/D4.c ****                                     (uint32)((uint32)(mode) << \
  36:Generated_Source\PSoC4/D4.c ****                                     (D4_DRIVE_MODE_BITS * (shift))); \
  37:Generated_Source\PSoC4/D4.c ****         } while (0)
  38:Generated_Source\PSoC4/D4.c ****     #endif
  39:Generated_Source\PSoC4/D4.c **** #endif
  40:Generated_Source\PSoC4/D4.c ****   
  41:Generated_Source\PSoC4/D4.c **** 
  42:Generated_Source\PSoC4/D4.c **** #if defined(D4__PC) || (CY_PSOC4_4200L) 
  43:Generated_Source\PSoC4/D4.c ****     /*******************************************************************************
  44:Generated_Source\PSoC4/D4.c ****     * Function Name: D4_SetDriveMode
  45:Generated_Source\PSoC4/D4.c ****     ****************************************************************************//**
  46:Generated_Source\PSoC4/D4.c ****     *
  47:Generated_Source\PSoC4/D4.c ****     * \brief Sets the drive mode for each of the Pins component's pins.
  48:Generated_Source\PSoC4/D4.c ****     * 
  49:Generated_Source\PSoC4/D4.c ****     * <b>Note</b> This affects all pins in the Pins component instance. Use the
  50:Generated_Source\PSoC4/D4.c ****     * Per-Pin APIs if you wish to control individual pin's drive modes.
  51:Generated_Source\PSoC4/D4.c ****     *
  52:Generated_Source\PSoC4/D4.c ****     * <b>Note</b> USBIOs have limited drive functionality. Refer to the Drive Mode
  53:Generated_Source\PSoC4/D4.c ****     * parameter for more information.
  54:Generated_Source\PSoC4/D4.c ****     *
  55:Generated_Source\PSoC4/D4.c ****     * \param mode
  56:Generated_Source\PSoC4/D4.c ****     *  Mode for the selected signals. Valid options are documented in 
  57:Generated_Source\PSoC4/D4.c ****     *  \ref driveMode.
  58:Generated_Source\PSoC4/D4.c ****     *
  59:Generated_Source\PSoC4/D4.c ****     * \return
  60:Generated_Source\PSoC4/D4.c ****     *  None
  61:Generated_Source\PSoC4/D4.c ****     *
  62:Generated_Source\PSoC4/D4.c ****     * \sideeffect
  63:Generated_Source\PSoC4/D4.c ****     *  If you use read-modify-write operations that are not atomic, the ISR can
  64:Generated_Source\PSoC4/D4.c ****     *  cause corruption of this function. An ISR that interrupts this function 
  65:Generated_Source\PSoC4/D4.c ****     *  and performs writes to the Pins component Drive Mode registers can cause 
  66:Generated_Source\PSoC4/D4.c ****     *  corrupted port data. To avoid this issue, you should either use the Per-Pin
  67:Generated_Source\PSoC4/D4.c ****     *  APIs (primary method) or disable interrupts around this function.
  68:Generated_Source\PSoC4/D4.c ****     *
  69:Generated_Source\PSoC4/D4.c ****     * \funcusage
  70:Generated_Source\PSoC4/D4.c ****     *  \snippet D4_SUT.c usage_D4_SetDriveMode
  71:Generated_Source\PSoC4/D4.c ****     *******************************************************************************/
  72:Generated_Source\PSoC4/D4.c ****     void D4_SetDriveMode(uint8 mode)
  73:Generated_Source\PSoC4/D4.c ****     {
 321              		.loc 1 73 0
 322              		.cfi_startproc
 323              		@ args = 0, pretend = 0, frame = 0
 324              		@ frame_needed = 0, uses_anonymous_args = 0
ARM GAS  C:\Users\gjl\AppData\Local\Temp\ccaNqQLi.s 			page 23


 325              		@ link register save eliminated.
 326              	.LVL0:
  74:Generated_Source\PSoC4/D4.c **** 		D4_SetP4PinDriveMode(D4__0__SHIFT, mode);
 327              		.loc 1 74 0
 328 0000 034A     		ldr	r2, .L2
 329 0002 044B     		ldr	r3, .L2+4
 330 0004 1168     		ldr	r1, [r2]
 331 0006 8001     		lsls	r0, r0, #6
 332              	.LVL1:
 333 0008 0B40     		ands	r3, r1
 334 000a 1843     		orrs	r0, r3
 335 000c 1060     		str	r0, [r2]
  75:Generated_Source\PSoC4/D4.c ****     }
 336              		.loc 1 75 0
 337              		@ sp needed
 338 000e 7047     		bx	lr
 339              	.L3:
 340              		.align	2
 341              	.L2:
 342 0010 08010440 		.word	1074004232
 343 0014 3FFEFFFF 		.word	-449
 344              		.cfi_endproc
 345              	.LFE0:
 346              		.size	D4_SetDriveMode, .-D4_SetDriveMode
 347              		.section	.text.D4_Write,"ax",%progbits
 348              		.align	1
 349              		.global	D4_Write
 350              		.code	16
 351              		.thumb_func
 352              		.type	D4_Write, %function
 353              	D4_Write:
 354              	.LFB1:
  76:Generated_Source\PSoC4/D4.c **** #endif
  77:Generated_Source\PSoC4/D4.c **** 
  78:Generated_Source\PSoC4/D4.c **** 
  79:Generated_Source\PSoC4/D4.c **** /*******************************************************************************
  80:Generated_Source\PSoC4/D4.c **** * Function Name: D4_Write
  81:Generated_Source\PSoC4/D4.c **** ****************************************************************************//**
  82:Generated_Source\PSoC4/D4.c **** *
  83:Generated_Source\PSoC4/D4.c **** * \brief Writes the value to the physical port (data output register), masking
  84:Generated_Source\PSoC4/D4.c **** *  and shifting the bits appropriately. 
  85:Generated_Source\PSoC4/D4.c **** *
  86:Generated_Source\PSoC4/D4.c **** * The data output register controls the signal applied to the physical pin in 
  87:Generated_Source\PSoC4/D4.c **** * conjunction with the drive mode parameter. This function avoids changing 
  88:Generated_Source\PSoC4/D4.c **** * other bits in the port by using the appropriate method (read-modify-write or
  89:Generated_Source\PSoC4/D4.c **** * bit banding).
  90:Generated_Source\PSoC4/D4.c **** *
  91:Generated_Source\PSoC4/D4.c **** * <b>Note</b> This function should not be used on a hardware digital output pin 
  92:Generated_Source\PSoC4/D4.c **** * as it is driven by the hardware signal attached to it.
  93:Generated_Source\PSoC4/D4.c **** *
  94:Generated_Source\PSoC4/D4.c **** * \param value
  95:Generated_Source\PSoC4/D4.c **** *  Value to write to the component instance.
  96:Generated_Source\PSoC4/D4.c **** *
  97:Generated_Source\PSoC4/D4.c **** * \return 
  98:Generated_Source\PSoC4/D4.c **** *  None 
  99:Generated_Source\PSoC4/D4.c **** *
 100:Generated_Source\PSoC4/D4.c **** * \sideeffect
ARM GAS  C:\Users\gjl\AppData\Local\Temp\ccaNqQLi.s 			page 24


 101:Generated_Source\PSoC4/D4.c **** *  If you use read-modify-write operations that are not atomic; the Interrupt 
 102:Generated_Source\PSoC4/D4.c **** *  Service Routines (ISR) can cause corruption of this function. An ISR that 
 103:Generated_Source\PSoC4/D4.c **** *  interrupts this function and performs writes to the Pins component data 
 104:Generated_Source\PSoC4/D4.c **** *  register can cause corrupted port data. To avoid this issue, you should 
 105:Generated_Source\PSoC4/D4.c **** *  either use the Per-Pin APIs (primary method) or disable interrupts around 
 106:Generated_Source\PSoC4/D4.c **** *  this function.
 107:Generated_Source\PSoC4/D4.c **** *
 108:Generated_Source\PSoC4/D4.c **** * \funcusage
 109:Generated_Source\PSoC4/D4.c **** *  \snippet D4_SUT.c usage_D4_Write
 110:Generated_Source\PSoC4/D4.c **** *******************************************************************************/
 111:Generated_Source\PSoC4/D4.c **** void D4_Write(uint8 value)
 112:Generated_Source\PSoC4/D4.c **** {
 355              		.loc 1 112 0
 356              		.cfi_startproc
 357              		@ args = 0, pretend = 0, frame = 0
 358              		@ frame_needed = 0, uses_anonymous_args = 0
 359              		@ link register save eliminated.
 360              	.LVL2:
 113:Generated_Source\PSoC4/D4.c ****     uint8 drVal = (uint8)(D4_DR & (uint8)(~D4_MASK));
 361              		.loc 1 113 0
 362 0000 0423     		movs	r3, #4
 363 0002 0449     		ldr	r1, .L5
 114:Generated_Source\PSoC4/D4.c ****     drVal = (drVal | ((uint8)(value << D4_SHIFT) & D4_MASK));
 115:Generated_Source\PSoC4/D4.c ****     D4_DR = (uint32)drVal;
 364              		.loc 1 115 0
 365 0004 8000     		lsls	r0, r0, #2
 366              	.LVL3:
 113:Generated_Source\PSoC4/D4.c ****     uint8 drVal = (uint8)(D4_DR & (uint8)(~D4_MASK));
 367              		.loc 1 113 0
 368 0006 0A68     		ldr	r2, [r1]
 116:Generated_Source\PSoC4/D4.c **** }
 369              		.loc 1 116 0
 370              		@ sp needed
 113:Generated_Source\PSoC4/D4.c ****     uint8 drVal = (uint8)(D4_DR & (uint8)(~D4_MASK));
 371              		.loc 1 113 0
 372 0008 9A43     		bics	r2, r3
 373 000a D2B2     		uxtb	r2, r2
 115:Generated_Source\PSoC4/D4.c **** }
 374              		.loc 1 115 0
 375 000c 0340     		ands	r3, r0
 376 000e 1343     		orrs	r3, r2
 377 0010 0B60     		str	r3, [r1]
 378              		.loc 1 116 0
 379 0012 7047     		bx	lr
 380              	.L6:
 381              		.align	2
 382              	.L5:
 383 0014 00010440 		.word	1074004224
 384              		.cfi_endproc
 385              	.LFE1:
 386              		.size	D4_Write, .-D4_Write
 387              		.section	.text.D4_Read,"ax",%progbits
 388              		.align	1
 389              		.global	D4_Read
 390              		.code	16
 391              		.thumb_func
 392              		.type	D4_Read, %function
ARM GAS  C:\Users\gjl\AppData\Local\Temp\ccaNqQLi.s 			page 25


 393              	D4_Read:
 394              	.LFB2:
 117:Generated_Source\PSoC4/D4.c **** 
 118:Generated_Source\PSoC4/D4.c **** 
 119:Generated_Source\PSoC4/D4.c **** /*******************************************************************************
 120:Generated_Source\PSoC4/D4.c **** * Function Name: D4_Read
 121:Generated_Source\PSoC4/D4.c **** ****************************************************************************//**
 122:Generated_Source\PSoC4/D4.c **** *
 123:Generated_Source\PSoC4/D4.c **** * \brief Reads the associated physical port (pin status register) and masks 
 124:Generated_Source\PSoC4/D4.c **** *  the required bits according to the width and bit position of the component
 125:Generated_Source\PSoC4/D4.c **** *  instance. 
 126:Generated_Source\PSoC4/D4.c **** *
 127:Generated_Source\PSoC4/D4.c **** * The pin's status register returns the current logic level present on the 
 128:Generated_Source\PSoC4/D4.c **** * physical pin.
 129:Generated_Source\PSoC4/D4.c **** *
 130:Generated_Source\PSoC4/D4.c **** * \return 
 131:Generated_Source\PSoC4/D4.c **** *  The current value for the pins in the component as a right justified number.
 132:Generated_Source\PSoC4/D4.c **** *
 133:Generated_Source\PSoC4/D4.c **** * \funcusage
 134:Generated_Source\PSoC4/D4.c **** *  \snippet D4_SUT.c usage_D4_Read  
 135:Generated_Source\PSoC4/D4.c **** *******************************************************************************/
 136:Generated_Source\PSoC4/D4.c **** uint8 D4_Read(void)
 137:Generated_Source\PSoC4/D4.c **** {
 395              		.loc 1 137 0
 396              		.cfi_startproc
 397              		@ args = 0, pretend = 0, frame = 0
 398              		@ frame_needed = 0, uses_anonymous_args = 0
 399              		@ link register save eliminated.
 138:Generated_Source\PSoC4/D4.c ****     return (uint8)((D4_PS & D4_MASK) >> D4_SHIFT);
 400              		.loc 1 138 0
 401 0000 024B     		ldr	r3, .L8
 139:Generated_Source\PSoC4/D4.c **** }
 402              		.loc 1 139 0
 403              		@ sp needed
 138:Generated_Source\PSoC4/D4.c ****     return (uint8)((D4_PS & D4_MASK) >> D4_SHIFT);
 404              		.loc 1 138 0
 405 0002 1868     		ldr	r0, [r3]
 406 0004 4007     		lsls	r0, r0, #29
 407 0006 C00F     		lsrs	r0, r0, #31
 408              		.loc 1 139 0
 409 0008 7047     		bx	lr
 410              	.L9:
 411 000a C046     		.align	2
 412              	.L8:
 413 000c 04010440 		.word	1074004228
 414              		.cfi_endproc
 415              	.LFE2:
 416              		.size	D4_Read, .-D4_Read
 417              		.section	.text.D4_ReadDataReg,"ax",%progbits
 418              		.align	1
 419              		.global	D4_ReadDataReg
 420              		.code	16
 421              		.thumb_func
 422              		.type	D4_ReadDataReg, %function
 423              	D4_ReadDataReg:
 424              	.LFB3:
 140:Generated_Source\PSoC4/D4.c **** 
ARM GAS  C:\Users\gjl\AppData\Local\Temp\ccaNqQLi.s 			page 26


 141:Generated_Source\PSoC4/D4.c **** 
 142:Generated_Source\PSoC4/D4.c **** /*******************************************************************************
 143:Generated_Source\PSoC4/D4.c **** * Function Name: D4_ReadDataReg
 144:Generated_Source\PSoC4/D4.c **** ****************************************************************************//**
 145:Generated_Source\PSoC4/D4.c **** *
 146:Generated_Source\PSoC4/D4.c **** * \brief Reads the associated physical port's data output register and masks 
 147:Generated_Source\PSoC4/D4.c **** *  the correct bits according to the width and bit position of the component 
 148:Generated_Source\PSoC4/D4.c **** *  instance. 
 149:Generated_Source\PSoC4/D4.c **** *
 150:Generated_Source\PSoC4/D4.c **** * The data output register controls the signal applied to the physical pin in 
 151:Generated_Source\PSoC4/D4.c **** * conjunction with the drive mode parameter. This is not the same as the 
 152:Generated_Source\PSoC4/D4.c **** * preferred D4_Read() API because the 
 153:Generated_Source\PSoC4/D4.c **** * D4_ReadDataReg() reads the data register instead of the status 
 154:Generated_Source\PSoC4/D4.c **** * register. For output pins this is a useful function to determine the value 
 155:Generated_Source\PSoC4/D4.c **** * just written to the pin.
 156:Generated_Source\PSoC4/D4.c **** *
 157:Generated_Source\PSoC4/D4.c **** * \return 
 158:Generated_Source\PSoC4/D4.c **** *  The current value of the data register masked and shifted into a right 
 159:Generated_Source\PSoC4/D4.c **** *  justified number for the component instance.
 160:Generated_Source\PSoC4/D4.c **** *
 161:Generated_Source\PSoC4/D4.c **** * \funcusage
 162:Generated_Source\PSoC4/D4.c **** *  \snippet D4_SUT.c usage_D4_ReadDataReg 
 163:Generated_Source\PSoC4/D4.c **** *******************************************************************************/
 164:Generated_Source\PSoC4/D4.c **** uint8 D4_ReadDataReg(void)
 165:Generated_Source\PSoC4/D4.c **** {
 425              		.loc 1 165 0
 426              		.cfi_startproc
 427              		@ args = 0, pretend = 0, frame = 0
 428              		@ frame_needed = 0, uses_anonymous_args = 0
 429              		@ link register save eliminated.
 166:Generated_Source\PSoC4/D4.c ****     return (uint8)((D4_DR & D4_MASK) >> D4_SHIFT);
 430              		.loc 1 166 0
 431 0000 024B     		ldr	r3, .L11
 167:Generated_Source\PSoC4/D4.c **** }
 432              		.loc 1 167 0
 433              		@ sp needed
 166:Generated_Source\PSoC4/D4.c ****     return (uint8)((D4_DR & D4_MASK) >> D4_SHIFT);
 434              		.loc 1 166 0
 435 0002 1868     		ldr	r0, [r3]
 436 0004 4007     		lsls	r0, r0, #29
 437 0006 C00F     		lsrs	r0, r0, #31
 438              		.loc 1 167 0
 439 0008 7047     		bx	lr
 440              	.L12:
 441 000a C046     		.align	2
 442              	.L11:
 443 000c 00010440 		.word	1074004224
 444              		.cfi_endproc
 445              	.LFE3:
 446              		.size	D4_ReadDataReg, .-D4_ReadDataReg
 447              		.section	.text.D4_SetInterruptMode,"ax",%progbits
 448              		.align	1
 449              		.global	D4_SetInterruptMode
 450              		.code	16
 451              		.thumb_func
 452              		.type	D4_SetInterruptMode, %function
 453              	D4_SetInterruptMode:
ARM GAS  C:\Users\gjl\AppData\Local\Temp\ccaNqQLi.s 			page 27


 454              	.LFB4:
 168:Generated_Source\PSoC4/D4.c **** 
 169:Generated_Source\PSoC4/D4.c **** 
 170:Generated_Source\PSoC4/D4.c **** /*******************************************************************************
 171:Generated_Source\PSoC4/D4.c **** * Function Name: D4_SetInterruptMode
 172:Generated_Source\PSoC4/D4.c **** ****************************************************************************//**
 173:Generated_Source\PSoC4/D4.c **** *
 174:Generated_Source\PSoC4/D4.c **** * \brief Configures the interrupt mode for each of the Pins component's
 175:Generated_Source\PSoC4/D4.c **** *  pins. Alternatively you may set the interrupt mode for all the pins
 176:Generated_Source\PSoC4/D4.c **** *  specified in the Pins component.
 177:Generated_Source\PSoC4/D4.c **** *
 178:Generated_Source\PSoC4/D4.c **** *  <b>Note</b> The interrupt is port-wide and therefore any enabled pin
 179:Generated_Source\PSoC4/D4.c **** *  interrupt may trigger it.
 180:Generated_Source\PSoC4/D4.c **** *
 181:Generated_Source\PSoC4/D4.c **** * \param position
 182:Generated_Source\PSoC4/D4.c **** *  The pin position as listed in the Pins component. You may OR these to be 
 183:Generated_Source\PSoC4/D4.c **** *  able to configure the interrupt mode of multiple pins within a Pins 
 184:Generated_Source\PSoC4/D4.c **** *  component. Or you may use D4_INTR_ALL to configure the
 185:Generated_Source\PSoC4/D4.c **** *  interrupt mode of all the pins in the Pins component.       
 186:Generated_Source\PSoC4/D4.c **** *  - D4_0_INTR       (First pin in the list)
 187:Generated_Source\PSoC4/D4.c **** *  - D4_1_INTR       (Second pin in the list)
 188:Generated_Source\PSoC4/D4.c **** *  - ...
 189:Generated_Source\PSoC4/D4.c **** *  - D4_INTR_ALL     (All pins in Pins component)
 190:Generated_Source\PSoC4/D4.c **** *
 191:Generated_Source\PSoC4/D4.c **** * \param mode
 192:Generated_Source\PSoC4/D4.c **** *  Interrupt mode for the selected pins. Valid options are documented in
 193:Generated_Source\PSoC4/D4.c **** *  \ref intrMode.
 194:Generated_Source\PSoC4/D4.c **** *
 195:Generated_Source\PSoC4/D4.c **** * \return 
 196:Generated_Source\PSoC4/D4.c **** *  None
 197:Generated_Source\PSoC4/D4.c **** *  
 198:Generated_Source\PSoC4/D4.c **** * \sideeffect
 199:Generated_Source\PSoC4/D4.c **** *  It is recommended that the interrupt be disabled before calling this 
 200:Generated_Source\PSoC4/D4.c **** *  function to avoid unintended interrupt requests. Note that the interrupt
 201:Generated_Source\PSoC4/D4.c **** *  type is port wide, and therefore will trigger for any enabled pin on the 
 202:Generated_Source\PSoC4/D4.c **** *  port.
 203:Generated_Source\PSoC4/D4.c **** *
 204:Generated_Source\PSoC4/D4.c **** * \funcusage
 205:Generated_Source\PSoC4/D4.c **** *  \snippet D4_SUT.c usage_D4_SetInterruptMode
 206:Generated_Source\PSoC4/D4.c **** *******************************************************************************/
 207:Generated_Source\PSoC4/D4.c **** void D4_SetInterruptMode(uint16 position, uint16 mode)
 208:Generated_Source\PSoC4/D4.c **** {
 455              		.loc 1 208 0
 456              		.cfi_startproc
 457              		@ args = 0, pretend = 0, frame = 0
 458              		@ frame_needed = 0, uses_anonymous_args = 0
 459              		@ link register save eliminated.
 460              	.LVL4:
 209:Generated_Source\PSoC4/D4.c ****     uint32 intrCfg;
 210:Generated_Source\PSoC4/D4.c ****     
 211:Generated_Source\PSoC4/D4.c ****     intrCfg =  D4_INTCFG & (uint32)(~(uint32)position);
 461              		.loc 1 211 0
 462 0000 034A     		ldr	r2, .L14
 212:Generated_Source\PSoC4/D4.c ****     D4_INTCFG = intrCfg | ((uint32)position & (uint32)mode);
 213:Generated_Source\PSoC4/D4.c **** }
 463              		.loc 1 213 0
 464              		@ sp needed
ARM GAS  C:\Users\gjl\AppData\Local\Temp\ccaNqQLi.s 			page 28


 211:Generated_Source\PSoC4/D4.c ****     D4_INTCFG = intrCfg | ((uint32)position & (uint32)mode);
 465              		.loc 1 211 0
 466 0002 1368     		ldr	r3, [r2]
 467              	.LVL5:
 212:Generated_Source\PSoC4/D4.c ****     D4_INTCFG = intrCfg | ((uint32)position & (uint32)mode);
 468              		.loc 1 212 0
 469 0004 8343     		bics	r3, r0
 470              	.LVL6:
 471 0006 0840     		ands	r0, r1
 472              	.LVL7:
 473 0008 1843     		orrs	r0, r3
 474 000a 1060     		str	r0, [r2]
 475              		.loc 1 213 0
 476 000c 7047     		bx	lr
 477              	.L15:
 478 000e C046     		.align	2
 479              	.L14:
 480 0010 0C010440 		.word	1074004236
 481              		.cfi_endproc
 482              	.LFE4:
 483              		.size	D4_SetInterruptMode, .-D4_SetInterruptMode
 484              		.section	.text.D4_ClearInterrupt,"ax",%progbits
 485              		.align	1
 486              		.global	D4_ClearInterrupt
 487              		.code	16
 488              		.thumb_func
 489              		.type	D4_ClearInterrupt, %function
 490              	D4_ClearInterrupt:
 491              	.LFB5:
 214:Generated_Source\PSoC4/D4.c **** 
 215:Generated_Source\PSoC4/D4.c **** 
 216:Generated_Source\PSoC4/D4.c **** /*******************************************************************************
 217:Generated_Source\PSoC4/D4.c **** * Function Name: D4_ClearInterrupt
 218:Generated_Source\PSoC4/D4.c **** ****************************************************************************//**
 219:Generated_Source\PSoC4/D4.c **** *
 220:Generated_Source\PSoC4/D4.c **** * \brief Clears any active interrupts attached with the component and returns 
 221:Generated_Source\PSoC4/D4.c **** *  the value of the interrupt status register allowing determination of which
 222:Generated_Source\PSoC4/D4.c **** *  pins generated an interrupt event.
 223:Generated_Source\PSoC4/D4.c **** *
 224:Generated_Source\PSoC4/D4.c **** * \return 
 225:Generated_Source\PSoC4/D4.c **** *  The right-shifted current value of the interrupt status register. Each pin 
 226:Generated_Source\PSoC4/D4.c **** *  has one bit set if it generated an interrupt event. For example, bit 0 is 
 227:Generated_Source\PSoC4/D4.c **** *  for pin 0 and bit 1 is for pin 1 of the Pins component.
 228:Generated_Source\PSoC4/D4.c **** *  
 229:Generated_Source\PSoC4/D4.c **** * \sideeffect
 230:Generated_Source\PSoC4/D4.c **** *  Clears all bits of the physical port's interrupt status register, not just
 231:Generated_Source\PSoC4/D4.c **** *  those associated with the Pins component.
 232:Generated_Source\PSoC4/D4.c **** *
 233:Generated_Source\PSoC4/D4.c **** * \funcusage
 234:Generated_Source\PSoC4/D4.c **** *  \snippet D4_SUT.c usage_D4_ClearInterrupt
 235:Generated_Source\PSoC4/D4.c **** *******************************************************************************/
 236:Generated_Source\PSoC4/D4.c **** uint8 D4_ClearInterrupt(void)
 237:Generated_Source\PSoC4/D4.c **** {
 492              		.loc 1 237 0
 493              		.cfi_startproc
 494              		@ args = 0, pretend = 0, frame = 0
 495              		@ frame_needed = 0, uses_anonymous_args = 0
ARM GAS  C:\Users\gjl\AppData\Local\Temp\ccaNqQLi.s 			page 29


 496              		@ link register save eliminated.
 238:Generated_Source\PSoC4/D4.c **** 	uint8 maskedStatus = (uint8)(D4_INTSTAT & D4_MASK);
 497              		.loc 1 238 0
 498 0000 0423     		movs	r3, #4
 499 0002 034A     		ldr	r2, .L17
 239:Generated_Source\PSoC4/D4.c **** 	D4_INTSTAT = maskedStatus;
 240:Generated_Source\PSoC4/D4.c ****     return maskedStatus >> D4_SHIFT;
 241:Generated_Source\PSoC4/D4.c **** }
 500              		.loc 1 241 0
 501              		@ sp needed
 238:Generated_Source\PSoC4/D4.c **** 	uint8 maskedStatus = (uint8)(D4_INTSTAT & D4_MASK);
 502              		.loc 1 238 0
 503 0004 1068     		ldr	r0, [r2]
 504 0006 1840     		ands	r0, r3
 505              	.LVL8:
 239:Generated_Source\PSoC4/D4.c **** 	D4_INTSTAT = maskedStatus;
 506              		.loc 1 239 0
 507 0008 1060     		str	r0, [r2]
 240:Generated_Source\PSoC4/D4.c **** }
 508              		.loc 1 240 0
 509 000a 8008     		lsrs	r0, r0, #2
 510              	.LVL9:
 511 000c C0B2     		uxtb	r0, r0
 512              		.loc 1 241 0
 513 000e 7047     		bx	lr
 514              	.L18:
 515              		.align	2
 516              	.L17:
 517 0010 10010440 		.word	1074004240
 518              		.cfi_endproc
 519              	.LFE5:
 520              		.size	D4_ClearInterrupt, .-D4_ClearInterrupt
 521              		.text
 522              	.Letext0:
 523              		.file 2 "Generated_Source\\PSoC4\\cytypes.h"