ARM GAS  C:\Users\gjl\AppData\Local\Temp\cc0Q84Wg.s 			page 1


   1              		.syntax unified
   2              		.cpu cortex-m0
   3              		.fpu softvfp
   4              		.eabi_attribute 20, 1
   5              		.eabi_attribute 21, 1
   6              		.eabi_attribute 23, 3
   7              		.eabi_attribute 24, 1
   8              		.eabi_attribute 25, 1
   9              		.eabi_attribute 26, 1
  10              		.eabi_attribute 30, 4
  11              		.eabi_attribute 34, 0
  12              		.eabi_attribute 18, 4
  13              		.thumb
  14              		.syntax unified
  15              		.file	"D5.c"
  16              		.text
  17              	.Ltext0:
  18              		.section	.gnu.lto_.profile.b55b14d,"",%progbits
  19 0000 789C6361 		.ascii	"x\234ca`d`a`\000\222\352\212\000\000\331\000S"
  19      60646061 
  19      600092EA 
  19      8A0000D9 
  19      0053
  20              		.text
  21              		.section	.gnu.lto_.icf.b55b14d,"",%progbits
  22 0000 789C6361 		.ascii	"x\234ca`d\000\0015\006\004`cX\362}\302S^\306\275\375"
  22      60640001 
  22      35060460 
  22      6358F27D 
  22      C2535EC6 
  23 0016 C757F333 		.ascii	"\307W\3633\365\337\2730\203\231\371\370\351\346K\234"
  23      F5DFBB30 
  23      8399F9F8 
  23      E9E64B9C 
  24 0026 2C0FEF7D 		.ascii	",\017\357}=\301\302\372\360\336\243\037L\014\000j\243"
  24      3DC1C2FA 
  24      F0DEA31F 
  24      4C0C006A 
  24      A3
  25 0037 130E     		.ascii	"\023\016"
  26              		.text
  27              		.section	.gnu.lto_.jmpfuncs.b55b14d,"",%progbits
  28 0000 789C45C9 		.ascii	"x\234E\311\261\001\000 \010\300\260\026\320+\374\225"
  28      B1010020 
  28      08C0B016 
  28      D02BFC95 
  29 0010 D795C90C 		.ascii	"\327\225\311\014]Z\3108|\033\265\235\004$Thv\257\367"
  29      5D5AC838 
  29      7C1BB59D 
  29      04245468 
  29      76AFF7
  30 0023 2E215502 		.ascii	".!U\002@"
  30      40
  31              		.text
  32              		.section	.gnu.lto_.inline.b55b14d,"",%progbits
  33 0000 789C658D 		.ascii	"x\234e\215\311\015\2000\014\004\327\216\343\030\011"
  33      C90D8030 
ARM GAS  C:\Users\gjl\AppData\Local\Temp\cc0Q84Wg.s 			page 2


  33      0C04D78E 
  33      E31809
  34 000f 093A4807 		.ascii	"\011:H\007\224@\245<R\012%P\012%`\203\004B\231\307>"
  34      9440A53C 
  34      520A2550 
  34      0A256083 
  34      044299C7 
  35 0024 767C0808 		.ascii	"v|\010\010\301\206\017\005\254\020\301\\%\333Wh\253"
  35      C1860F05 
  35      AC10C15C 
  35      25DB5768 
  35      AB
  36 0035 0C3E2609 		.ascii	"\014>&\011K\030\254\223\322\352-\031\232\011\254\347"
  36      4B18AC93 
  36      D2EA2D19 
  36      9A09ACE7 
  37 0045 F2F44EEA 		.ascii	"\362\364N\352+\211\023\214\331OP\204\374\237x\2141\226"
  37      2B89138C 
  37      D94F5084 
  37      FC9F788C 
  37      3196
  38 0057 51D4375F 		.ascii	"Q\3247_\031\\\353\300\017\342"
  38      195CEBC0 
  38      0FE2
  39              		.text
  40              		.section	.gnu.lto_.pureconst.b55b14d,"",%progbits
  41 0000 789C6361 		.ascii	"x\234ca`d\340e```c\220b\224b\222b\226b\221b\225\002"
  41      6064E065 
  41      60606063 
  41      90629462 
  41      92629662 
  42 0018 00059500 		.ascii	"\000\005\225\000\304"
  42      C4
  43              		.text
  44              		.section	.gnu.lto_D5_SetDriveMode.b55b14d,"",%progbits
  45 0000 789C7D51 		.ascii	"x\234}Q\317K\033A\030\375\336\314f\327 \352U\350\202"
  45      CF4B1B41 
  45      18FDDECC 
  45      66D720EA 
  45      55E882
  46 0013 8287E045 		.ascii	"\202\207\340E\004\365/P\350U\352U\021\211{\264\001\321"
  46      04F52F50 
  46      E855EA55 
  46      11897BB4 
  46      01D1
  47 0025 B393AC8B 		.ascii	"\263\223\254\213\342A\224R\301\203\344\024l\2655J@\321"
  47      E2419452 
  47      C183E414 
  47      6CB5354A 
  47      40D1
  48 0037 5388B4F4 		.ascii	"S\210\264\364\024A\304c)\012\013\352%\376\002\021u\375"
  48      1441C463 
  48      290A0BEA 
  48      25FE0211 
  48      75FD
  49 0049 BE4DCE1D 		.ascii	"\276M\316\035\230\357\373\346\361\336\343\315\214E "
  49      98EFFBE6 
ARM GAS  C:\Users\gjl\AppData\Local\Temp\cc0Q84Wg.s 			page 3


  49      F1DEE3CD 
  49      8C4520
  50 0058 59C7DCBA 		.ascii	"Y\307\334\272\270\177\340\015MP+U\242l\223\002d0M\240"
  50      B87FE00D 
  50      4D502B55 
  50      A26C9302 
  50      64304DA0 
  51 006c 3985393C 		.ascii	"9\2059<\252W\205\312Bx\250\2727\015\257\177A8\2345A"
  51      AA5785CA 
  51      4278A8BA 
  51      370DAF7F 
  51      41389C35 
  52 0081 7BA08922 		.ascii	"{\240\211\"\025;\0216\321\315\254\373R\341K\263\356"
  52      153B1136 
  52      D1CDACFB 
  52      52E14BB3 
  52      EE
  53 0092 00F17C5B 		.ascii	"\000\361|[\255\375mM\025\214\311\031\263:ft\240\201"
  53      ADFD6D4D 
  53      158CC919 
  53      B33A6674 
  53      A081
  54 00a4 6FD0AC40 		.ascii	"o\320\254@\237\213^\227\030 |GJ\310\027{o_[\354y\261"
  54      9F8B5E97 
  54      18207C47 
  54      4AC8177B 
  54      6F5F5BEC 
  55 00ba EFAC9B62 		.ascii	"\357\254\233b\013\266\304,~*\233(\362M\271d\377\332"
  55      0BB6C42C 
  55      7E2A9B28 
  55      F24DB964 
  55      FFDA
  56 00cc B7938A65 		.ascii	"\267\223\212eJK\261 \342\204\214\266\024G\012Q\215\267"
  56      4A4BB120 
  56      E2848CB6 
  56      14470A51 
  56      8DB7
  57 00de C4BF554A 		.ascii	"\304\277UJ\272\016Qy^:_\267\305\317\327r\225\265\240"
  57      BA0E5179 
  57      5E3A5FB7 
  57      C5CFD772 
  57      95B5A0
  58 00f1 72E23CA8 		.ascii	"r\342<\250@\3538gi\371\364\255\271~\\\314\255\030\213"
  58      40EB3867 
  58      69F9F4AD 
  58      B97E5CCC 
  58      AD188B
  59 0104 A19B42F5 		.ascii	"\241\233B\365\217\223\307Fv\036\201\266\360\003.\266"
  59      8F93C746 
  59      761E81B6 
  59      F0032EB6 
  60 0114 E172A69F 		.ascii	"\341r\246\237\310\203B\370/\015;]w<\273\273\332Sb\241"
  60      C88342F8 
  60      2F0D3B5D 
  60      773CBBBB 
  60      DA5362A1 
  61 0128 105D4651 		.ascii	"\020]FQ\033v\230\035\"w\347\324i\011_[\"\2535d\002\261"
ARM GAS  C:\Users\gjl\AppData\Local\Temp\cc0Q84Wg.s 			page 4


  61      1B76981D 
  61      2277E7D4 
  61      69095F5B 
  61      22AB3564 
  62 013e 6C7BBF70 		.ascii	"l{\277p\004\221%\220D1\226\370O\015\212\023\233\333"
  62      04912590 
  62      443196F8 
  62      4F0D8A13 
  62      9BDB
  63 0150 0C55D620 		.ascii	"\014U\326 \320\377b\355r,\226\3205r\345\203\337J\350"
  63      D0FF62ED 
  63      722C96D0 
  63      3572E583 
  63      DF4AE8
  64 0163 F1AFD414 		.ascii	"\361\257\324\024\344\015\370E\334\217\336gozb\306\233"
  64      E40DF845 
  64      DC8FDE67 
  64      6F7A62C6 
  64      9B
  65 0174 1C1FC9CC 		.ascii	"\034\037\311\314N\247\275\321\341\221\314`\377\350\320"
  65      4EA7BDD1 
  65      E191CC60 
  65      FFE8D0
  66 0183 404F9AAC 		.ascii	"@O\232\254\251\314\244\367\016O\344\234\372"
  66      A9CCA4F7 
  66      0E4FE49C 
  66      FA
  67              		.text
  68              		.section	.gnu.lto_D5_Write.b55b14d,"",%progbits
  69 0000 789C5551 		.ascii	"x\234UQMkSA\024\275g\346}\225\030\374\001\006\354&\224"
  69      4D6B5341 
  69      14BD67E6 
  69      7D9518FC 
  69      0106EC26 
  70 0015 BA9082BA 		.ascii	"\272\220\202\272q\253\320\255X\350*(\241}+\203\205`"
  70      71ABD0AD 
  70      58E82A28 
  70      A17D2B83 
  70      8560
  71 0027 BBED2469 		.ascii	"\273\355$i\022\250 ua\2732]\024M\375l\253\240\210.\236"
  71      12A82075 
  71      61BB325D 
  71      144DFD6C 
  71      ABA0882E 
  72 003c 0FA1B8A9 		.ascii	"\017\241\270\251\210\342\007\226\242\025St\025\213\245"
  72      88E20796 
  72      A2155374 
  72      158BA5
  73 004b A5A8F1DE 		.ascii	"\245\250\361\3367\0333\27473\357\274s\316\234{\307!"
  73      371B33BC 
  73      3733EFBC 
  73      73CE9C7B 
  73      C721
  74 005d 908C0B8A 		.ascii	"\220\214\013\212\350\010\257\207\370\205&\250\2315\242"
  74      E808AF87 
  74      F88526A8 
  74      9935A2
ARM GAS  C:\Users\gjl\AppData\Local\Temp\cc0Q84Wg.s 			page 5


  75 006c 52A000D9 		.ascii	"R\240\000\331\230\0004\2510\211\035\365G!\256\267\236"
  75      980034A9 
  75      30891DF5 
  75      4721AEB7 
  75      9E
  76 007d A8FEA6E1 		.ascii	"\250\376\246\341\361\371\333\356\200Y\214P\325D\035"
  76      F1F9DBEE 
  76      80598C50 
  76      D5441D
  77 008c 9538119A 		.ascii	"\2258\021\232\350g\326\326\263\372[\350\303 \336\327"
  77      E867D6D6 
  77      B3FA5BE8 
  77      C320DED7 
  78 009c E29D76AA 		.ascii	"\342\235v\252\357\2061ec>\345\214\256j`\021\232\025"
  78      EF863165 
  78      633EE58C 
  78      AE6A6011 
  78      9A15
  79 00ae 3896C140 		.ascii	"8\226\301@\206\030 \334B\237\220\277\307\227\013:\233"
  79      861820DC 
  79      429F90BF 
  79      C7970B3A 
  79      9B
  80 00bf E8561F5D 		.ascii	"\350V\037]\355 \273 \272\350\315jz\316D\245^\321\336"
  80      ED20BB20 
  80      BAE8CD6A 
  80      7ACE44A5 
  80      5ED1DE
  81 00d2 FE5F2B83 		.ascii	"\376_+\203\271\233+\177\257\245\275)I\325\213;\310\332"
  81      B99B2B7F 
  81      AFA5BD29 
  81      49D58B3B 
  81      C8DA
  82 00e4 3CB80B8F 		.ascii	"<\270\013\217+\204 Kg#\323\351TL\364\332\177\376\301"
  82      2B84204B 
  82      6723D3E9 
  82      544CF4DA 
  82      7FFEC1
  83 00f7 4F293E55 		.ascii	"O)>Ui\236\264C\362\333\205$\360\004\360e\012\022\264"
  83      699EB443 
  83      F2DB8524 
  83      F004F065 
  83      0A12B4
  84 010a 4758446D 		.ascii	"GXDm~\245\023?\225\222U\267\020\357O\2575&\304\277\242"
  84      7EA5133F 
  84      959255B7 
  84      10EF4FAF 
  84      3526C4BF 
  85 011f A52BB3D5 		.ascii	"\245+\263\325\370\225\377KU\265\223D\177\272\027\315"
  85      F895FF4B 
  85      55B59344 
  85      7FBA17CD 
  86 012f B9F6D394 		.ascii	"\271\366\323\224g\214#\035\331z\374\362\340<\256\227"
  86      678C231D 
  86      D97AFCF2 
  86      E03CAE97 
  87 013f A6B85F2E 		.ascii	"\246\270_.\356#\203{\340\374X\302<\250\205\362v}]YC"
ARM GAS  C:\Users\gjl\AppData\Local\Temp\cc0Q84Wg.s 			page 6


  87      EE23837B 
  87      E0FC58C2 
  87      3CA885F2 
  87      767D5D59 
  88 0154 CD9E8C54 		.ascii	"\315\236\214T~\327\326a\021\207A\366\330\370z\363\005"
  88      7ED7D661 
  88      118741F6 
  88      D8F87AF3 
  88      05
  89 0165 C4566317 		.ascii	"\304Vc\027Xf\371&\022\215de\226\210\332\265w\215sV\305"
  89      5866F926 
  89      128D6465 
  89      9688DAB5 
  89      778D7356 
  90 017a 8F2B37B6 		.ascii	"\217+7\266\275\334< *\017\032+,\352\262\366\231\307"
  90      BDDC3C20 
  90      2A0F1A2B 
  90      2CEAB2F6 
  90      99C7
  91 018c A4E9FDF7 		.ascii	"\244\351\375\367W\002!\001\001\036X\322\236g)A\022\300"
  91      57022101 
  91      011E58D2 
  91      9E672941 
  91      12C0
  92 019e EF3E2CB0 		.ascii	"\357>,\260\2317\032'-\251\307B\361\354\227\264\000]"
  92      99371A27 
  92      2DA9C742 
  92      F1EC97B4 
  92      005D
  93 01b0 15978C49 		.ascii	"\025\227\214Iu\027\375\220\213f\015\375@9\3728(\202"
  93      7517FD90 
  93      8B660DFD 
  93      4039FA38 
  93      2882
  94 01c2 E426DB0A 		.ascii	"\344&\333\012\322`nwf0\274\030\026\363\227\302\321\363"
  94      D2606E77 
  94      6630BC18 
  94      16F397C2 
  94      D1F3
  95 01d4 4363E3C5 		.ascii	"Cc\343\305\2210wfh\354\324\361\334\351\023GG\310\235"
  95      91307766 
  95      68ECD4F1 
  95      DCE91347 
  95      47C89D
  96 01e7 C817C643 		.ascii	"\310\027\306Cw\2648\234/\374\003\0138\323\017"
  96      77B4389C 
  96      2FFC030B 
  96      38D30F
  97              		.text
  98              		.section	.gnu.lto_D5_Read.b55b14d,"",%progbits
  99 0000 789C2D8F 		.ascii	"x\234-\217\277KBQ\024\307\317\367\336\247\211\345_\220"
  99      BF4B4251 
  99      14C7CFF7 
  99      DEA789E5 
  99      5F90
 100 0012 44AB4B04 		.ascii	"D\253K\004\325\320\324P\324\032\271\205\020aoM\220\232"
 100      D5D0D450 
ARM GAS  C:\Users\gjl\AppData\Local\Temp\cc0Q84Wg.s 			page 7


 100      D41AB985 
 100      10616F4D 
 100      909A
 101 0024 BDBEE753 		.ascii	"\275\276\347S\210\006\227\012\202p*\265\037T\024\015"
 101      8806970A 
 101      82702AB5 
 101      1F54140D 
 102 0034 4D264142 		.ascii	"M&ABP[sE84\225\030ATv\216\257\003\367\234{\317\375\334"
 102      505B7345 
 102      38349518 
 102      4154768E 
 102      AF03F79C 
 103 004c EFF75C8B 		.ascii	"\357\367\\\213@\022\023\\\006\270\366\363\202&\250\342"
 103      4012135C 
 103      06B8F6F3 
 103      8226A8E2 
 104 005c 1D5136A4 		.ascii	"\035Q6\244\000\331\230\020(\243\220\301\207\372Q\270"
 104      00D99810 
 104      28A390C1 
 104      87FA51B8 
 105 006c FD6CAC87 		.ascii	"\375l\254\207cec\034\363\350\355\215oUj\3604QG\021F"
 105      6365631C 
 105      F3E8ED8D 
 105      6F556AF0 
 105      34514711 
 106 0081 A2188E8A 		.ascii	"\242\030\216\212D\0311b\364\371\364w#\022\314\031\216"
 106      44193162 
 106      F4F9F477 
 106      2312CC19 
 106      8E
 107 0092 4101F8A6 		.ascii	"A\001\370\246\202\240X\036\317\325L\247\343\232\332"
 107      82A0581E 
 107      CFD54CA7 
 107      E39ADA
 108 00a1 59F8EA22 		.ascii	"Y\370\352\"\314-O\263/'KR\200D\221\336\370\205\370\277"
 108      CC2D4FB3 
 108      2F274B52 
 108      804491DE 
 108      F885F8BF 
 109 00b5 2B255537 		.ascii	"+%U7Q\377Z{\250\316\213\210\2535\033lz\365\373\236\266"
 109      51FF5A7B 
 109      A8CE8B88 
 109      AB351B6C 
 109      7AF5FB9E 
 110 00ca F2B482F8 		.ascii	"\362\264\202\3709\305\306S\304?\346\234\242\261\270"
 110      39C5C653 
 110      C43FE69C 
 110      A2B1B8
 111 00d9 55D8BDDC 		.ascii	"U\330\275\334\356-a'\233\343)5\366\021E\025<#\016P\002"
 111      EE2D6127 
 111      9BE32935 
 111      F6114515 
 111      3C230E50 
 112 00ee 35E1B6A6 		.ascii	"5\341\266\246\311\325\360\345\352\255\223r\237\274\267"
 112      C9D5F0E5 
 112      EAAD9372 
 112      9FBCB7
ARM GAS  C:\Users\gjl\AppData\Local\Temp\cc0Q84Wg.s 			page 8


 113 00fd A071C818 		.ascii	"\240q\310\030\337\177\347\333\226oh1\307\320\371\365"
 113      DF7FE7DB 
 113      966F6831 
 113      C7D0F9F5 
 114 010d 4D3E2410 		.ascii	"M>$\0208\216\272\220\323*\274\300\207\002\314\321+\324"
 114      388EBA90 
 114      D32ABCC0 
 114      8702CCD1 
 114      2BD4
 115 011f FF89BADF 		.ascii	"\377\211\272\337\200\214\317\237\211\316\330\313vzq"
 115      808CCF9F 
 115      89CED8CB 
 115      767A71
 116 012e C55E5A88 		.ascii	"\305^Z\210\247V\323I;1\033OM\216&\246\306\206\222\364"
 116      A756D349 
 116      3B311B4F 
 116      4D8E26A6 
 116      C68692F4 
 117 0142 07DBE871 		.ascii	"\007\333\350q\331"
 117      D9
 118              		.text
 119              		.section	.gnu.lto_D5_ReadDataReg.b55b14d,"",%progbits
 120 0000 789C2D8F 		.ascii	"x\234-\217?K\003A\020\305\347\355^4\030\305\017\340"
 120      3F4B0341 
 120      10C5E7ED 
 120      5E3418C5 
 120      0FE0
 121 0012 21B66944 		.ascii	"!\266iDP\013+\013E[1\235\004D\342\265\006\202\326\331"
 121      500B2B0B 
 121      455B319D 
 121      0444E2B5 
 121      0682D6D9 
 122 0026 E47211C4 		.ascii	"\344r\021\304\"\215\246\020M\231\250\021\025\005\013"
 122      228DA610 
 122      4D99A811 
 122      15050B
 123 0035 9B33082A 		.ascii	"\2333\010*\202~\005\021I\300JC\374\203\250q&q`gvg\177"
 123      827E0511 
 123      49C04A43 
 123      FC83A871 
 123      26716067 
 124 004c FBDEAC45 		.ascii	"\373\336\254E \211q.\375\\\373xA\023T\356\216(\025T"
 124      2089712E 
 124      FD5CFB78 
 124      411354EE 
 124      8E281554 
 125 0060 806C4C10 		.ascii	"\200lL\020\224TH\342M\375(\334~\\\257w\205\213\306\244"
 125      945448E2 
 125      4DFD28DC 
 125      7E5CAF77 
 125      858BC6A4 
 126 0074 CD837732 		.ascii	"\315\203w2\226/\371\3604QS\021\206m\014\331\"QD\230"
 126      962FF9F0 
 126      34515311 
 126      866D0CD9 
 126      22514498 
 127 0088 187D3CFE 		.ascii	"\030}<\376\335\350\351\310\030\216\001\001\370\246\204"
ARM GAS  C:\Users\gjl\AppData\Local\Temp\cc0Q84Wg.s 			page 9


 127      DDE8E9C8 
 127      188E0101 
 127      F8A684
 128 0097 0EB13C9C 		.ascii	"\016\261<\234\365M\263\351\032\177+t\261\023\342\226"
 128      F54DB3E9 
 128      1A7F2B74 
 128      B113E296 
 129 00a7 A7D99793 		.ascii	"\247\331\227\223%)@\242H/\374B\374_\225\222\252\253"
 129      252940A2 
 129      482FFC42 
 129      FC5F9592 
 129      AAAB
 130 00b9 A87CADBD 		.ascii	"\250|\255\275\227\347D\304\325\232\0156\275\312}gCy"
 130      97E744C4 
 130      D59A0D36 
 130      BDCA7D67 
 130      4379
 131 00cb 5A41FCCE 		.ascii	"ZA\374\316?\375|\240}4\351\234\261\270U\253\235\335"
 131      3FFD7CA0 
 131      7D34E99C 
 131      B1B855AB 
 131      9DDD
 132 00dd F416B09D 		.ascii	"\364\026\260\235\312\360\224\032{\260\261\013\236\021"
 132      CAF0941A 
 132      7BB0B10B 
 132      9E11
 133 00eb FB2880AA 		.ascii	"\373(\200\252p\353S\344j\264\345*\365\243b\267\274\267"
 133      70EB53E4 
 133      6AB4E52A 
 133      F5A362B7 
 133      BCB7
 134 00fd A051668C 		.ascii	"\240Qf\214\357\277\263\015\253mh1\307\320\351\345U6"
 134      EFBFB30D 
 134      AB6D6831 
 134      C7D0E9E5 
 134      5536
 135 010f 2810380E 		.ascii	"(\0208\016ZP\272\276\372\2046\024`\216\236\241\376O"
 135      5A50BABE 
 135      FA843614 
 135      608E9EA1 
 135      FE4F
 136 0121 D4FA0664 		.ascii	"\324\372\006d|\376\214=\355,9\211\205egq>\022_I\304"
 136      7CFE8C3D 
 136      ED2C3989 
 136      85656771 
 136      3E125F49 
 137 0136 9CE84C24 		.ascii	"\234\350L$>1\022\235\034\035\214\321\037\227\311r\360"
 137      3E31129D 
 137      1C1D8CD1 
 137      1F97C972 
 137      F0
 138              		.text
 139              		.section	.gnu.lto_D5_SetInterruptMode.b55b14d,"",%progbits
 140 0000 789C6D51 		.ascii	"x\234mQAk\023A\024~of\223\335$M\342\335\200\271\224"
 140      416B1341 
 140      147E6F66 
 140      93DD244D 
ARM GAS  C:\Users\gjl\AppData\Local\Temp\cc0Q84Wg.s 			page 10


 140      E2DD80B9 
 141 0015 D8838250 		.ascii	"\330\203\202P\177A\005oR\354\265 \245\215\222\203Y\211"
 141      7F41056F 
 141      52ECB520 
 141      A58D9283 
 141      5989
 142 0027 F1DC4936 		.ascii	"\361\334I6I\241\024)\026\003\226\226\202ei\264j\333"
 142      49A11429 
 142      16039696 
 142      826569B4 
 142      6ADB
 143 0039 B40ACD69 		.ascii	"\264\012\315i\015x\253J\225\"*\210\326\232BULkE\021"
 143      0D78AB4A 
 143      95222A88 
 143      D69A4255 
 143      4C6B4511 
 144 004d 6D7C6F37 		.ascii	"m|o7\227\202\003\2733\357\343\373\276\371\336\033\015"
 144      978203BB 
 144      33EFE3FB 
 144      BEF9DE1B 
 144      0D
 145 005e 10785504 		.ascii	"\020xU\004@7\355G\351C\011(\306\237\001\344\014\201"
 145      4037ED47 
 145      E9430928 
 145      C69F01E4 
 145      0C81
 146 0070 C8076520 		.ascii	"\310\007e \014\013\034\306\037\342\257\300\372HcUt\315"
 146      0C0B1CC6 
 146      1FE2AFC0 
 146      FA486355 
 146      74CD
 147 0082 295AEF3F 		.ascii	")Z\357?m\237R\025\007\213\022\240%\\'\3009\354\"\326"
 147      6D9F5215 
 147      078B12A0 
 147      255C27C0 
 147      39EC22D6 
 148 0096 93D64F27 		.ascii	"\223\326O'\272/\212\022\221E/\232k\323!.\005\036\241"
 148      BA2F8A12 
 148      91452F9A 
 148      6BD3212E 
 148      051EA1
 149 00a9 7272C72E 		.ascii	"rr\307.G\3441\004:o\257\334~\025L\330J\345\225\232\030"
 149      47E43104 
 149      3A6FAFDC 
 149      7E154CD8 
 149      4AE5959A 
 150 00be 50BEA294 		.ascii	"P\276\242\224x\027%\371\341\035\214a\005c@\020\340<"
 150      781725F9 
 150      E11D8C61 
 150      05634010 
 150      E03C
 151 00d0 2688FD7D 		.ascii	"&\210\375}\331\236\010\311\343\256r\317\262\255\216"
 151      D99E08C9 
 151      E3AE72CF 
 151      B2AD8E
 152 00df B672A3AD 		.ascii	"\266r\243\255\274\367\037\345}L0}\275\2608%\275H\032"
 152      BCF71FE5 
ARM GAS  C:\Users\gjl\AppData\Local\Temp\cc0Q84Wg.s 			page 11


 152      7D4C307D 
 152      BDB03825 
 152      BD481A
 153 00f2 95BB4F27 		.ascii	"\225\273O'?F\274Hq*\347\355\015[\310\023\256\361\350"
 153      3F46BC48 
 153      712AE7ED 
 153      0D5BC813 
 153      AEF1E8
 154 0105 EB1BD570 		.ascii	"\353\033\325p\347,\033;/\257Gn)\247\020/J\015\027=\363"
 154      E72C1B3B 
 154      2FAF476E 
 154      29A7102F 
 154      4A0D173D 
 155 011a 05327F40 		.ascii	"\0052\177@\346\274\210\275\271tp3\354/\360@\342\270"
 155      E6BC88BD 
 155      B9747033 
 155      EC2FF040 
 155      E2B8
 156 012c 849DDE28 		.ascii	"\204\235\336(\260\212~\032.2\262p\336Q\255\226\245\234"
 156      B08A7E1A 
 156      2E32B270 
 156      DE51AD96 
 156      A59C
 157 013e F5C8E337 		.ascii	"\365\310\3437\221\016A\261|\224\202:\322\370\350\343"
 157      910E41B1 
 157      7C94823A 
 157      D2F8E8E3 
 158 014e 9F1F98A9 		.ascii	"\237\037\230\251#\2475\010\360\007\030\015\362\017\240"
 158      23A73508 
 158      F007180D 
 158      F20FA0
 159 015d 498EFC12 		.ascii	"I\216\374\022\273B\360.\033X\377=\372\256\326\313\227"
 159      BB42F02E 
 159      1B58FF3D 
 159      FAAED6CB 
 159      97
 160 016e 5892075C 		.ascii	"X\222\007\\.\326\237\353\334\215\356v\360\365\333\352"
 160      2ED69FEB 
 160      DC8DEE76 
 160      F0F5DBEA 
 161 017e 54D82BC7 		.ascii	"T\330+\307\362\343\212\373\255\316~\336\212\316\340"
 161      F2E38AFB 
 161      ADCE7EDE 
 161      8ACEE0
 162 018d 74AE40EF 		.ascii	"t\256@\357e\340\0125\261\314M\340C\234Ah`~od_\363\014"
 162      65E00A35 
 162      B1CC4DE0 
 162      439C4168 
 162      607E6F64 
 163 01a4 358BC646 		.ascii	"5\213\306F\310AiKz\210\217@B\254?\245/\350!|/\341\260"
 163      C841694B 
 163      7A888F40 
 163      42AC3FA5 
 163      2FE8217C 
 164 01bb 89C26D95 		.ascii	"\211\302m\225\302\023\350q\032\265Z\233e\220\223%u\327"
 164      C213E871 
 164      1AB55A9B 
ARM GAS  C:\Users\gjl\AppData\Local\Temp\cc0Q84Wg.s 			page 12


 164      65909325 
 164      75D7
 165 01cd 5EF7A000 		.ascii	"^\367\240\000\241L\373UZk\233\007]\267\000\201\365\362"
 165      A14CFB55 
 165      5A6B9B07 
 165      5DB70081 
 165      F5F2
 166 01df 87286387 		.ascii	"\207(c\207\342\346\224\012\035N\374\210\022\223\014"
 166      E2E6940A 
 166      1D4EFC88 
 166      12930C
 167 01ee 7630EFBC 		.ascii	"v0\357\274=\307\002\367-\232\002y:4\253\330\331d:\231"
 167      3DC702F7 
 167      2D9A0279 
 167      3A34ABD8 
 167      D9643A99 
 168 0202 19C82687 		.ascii	"\031\310&\207.\364\231\3272\203\311\376\336>\263\247"
 168      2EF499D7 
 168      3283C9FE 
 168      DE3EB3A7 
 169 0212 BBFFCCE9 		.ascii	"\273\377\314\351\223\203`\\1\257\246\262)3\255]6\207"
 169      9383605C 
 169      31AFA6B2 
 169      2933AD5D 
 169      3687
 170 0224 927A2A9D 		.ascii	"\222z*\235\315\364\\\274\364\017\325\346\354'"
 170      CDF45CBC 
 170      F40FD5E6 
 170      EC27
 171              		.text
 172              		.section	.gnu.lto_D5_ClearInterrupt.b55b14d,"",%progbits
 173 0000 789C5590 		.ascii	"x\234U\220\317K\033A\024\307\337wf\327,\222\350\037"
 173      CF4B1B41 
 173      14C7DF77 
 173      66D72C92 
 173      E81F
 174 0012 60402F39 		.ascii	"`@/9\210P\012mA{\255\340U\232k@\202\356\251\250\240"
 174      88500A6D 
 174      417BADE0 
 174      559A6B40 
 174      82EEA9A8 
 175 0027 C9B54E12 		.ascii	"\311\265N\022\327\202\010\315\305\010B\361 \230\370"
 175      D78208CD 
 175      C50842F1 
 175      2098F8
 176 0036 33F6D04B 		.ascii	"3\366\320K%\262\006)\245E\005{m\251X\360P(\324\240\006"
 176      25B20629 
 176      A545057B 
 176      6DA958F0 
 176      5028D4A0 
 177 004b 5A35BE97 		.ascii	"Z5\276\227\355\241\016,3\363\335\367\375\314\367=\213"
 177      EDA10E2C 
 177      33F3DDF7 
 177      FDCCF73D 
 177      8B
 178 005c 40B2BEF1 		.ascii	"@\262\276\361\326\303{\007\177\320\004\225?$\3128\012"
 178      D6C37B07 
ARM GAS  C:\Users\gjl\AppData\Local\Temp\cc0Q84Wg.s 			page 13


 178      7FD00495 
 178      3F24CA38 
 178      0A
 179 006d 90837140 		.ascii	"\220\203q@S\012S\270T7\012\237\353\037\347Z\273\213"
 179      530A53B8 
 179      54370A9F 
 179      EB1FE75A 
 179      BB8B
 180 007f C664CD89 		.ascii	"\306d\315\211W\357[(\371\3604QC\021\036E\3610*\210\""
 180      57EF5B28 
 180      F9F03451 
 180      43111E45 
 180      F1302A88 
 181 0094 BA894B7F 		.ascii	"\272\211K\177l\375-Ft'\344|\260\362\353\035b\313b\363"
 181      6CFD2D46 
 181      7427E47C 
 181      B0F2EB1D 
 181      62CB62F3 
 182 00a8 2BAFC30B 		.ascii	"+\257\303\013\306\317t\261\017%\350\377\255$\265\247"
 182      C6CF74B1 
 182      0F25E8FF 
 182      AD24B5A7 
 183 00b8 6F6FE723 		.ascii	"oo\347#-\323\206W\027V\021\0238S\327\320\3029!J\371"
 183      2DD38657 
 183      17561113 
 183      3853D7D0 
 183      C239214A 
 184 00cd B96F1A8D 		.ascii	"\271o\032\215\234\361w\332\367\216\333\035E\236\346"
 184      9CF177DA 
 184      F78EDB1D 
 184      459EE6
 185 00dc DC9E5616 		.ascii	"\334\236V\026\311o[\356!\222\\\364\233\275\322\305\271"
 185      C96F5BEE 
 185      21925CF4 
 185      9BBDD2C5 
 185      B9
 186 00ed 52B2EB33 		.ascii	"R\262\3533T\377\314^U^\012.\247\245\243\202W=\012]("
 186      54FFCC5E 
 186      555E0A2E 
 186      A7A5A382 
 186      573D0A5D 
 187 0102 4FEB66D2 		.ascii	"O\353f\322\223\335\367\337\235\340\232\317\346\215\305"
 187      93DDF7DF 
 187      9DE09ACF 
 187      E68DC5
 188 0111 D2D72FF5 		.ascii	"\322\327/\365\365\266%\274\311Ls\257\0266\020\305:8"
 188      F5B625BC 
 188      C94C73AF 
 188      163610C5 
 188      3A38
 189 0123 2E36B104 		.ascii	".6\261\004:C\266\366\352Z\005@\315LVr\3273\373\010\024"
 189      3A43B6F6 
 189      EA5A0540 
 189      CD4C5672 
 189      D733FB08 
 190 0138 8B45662C 		.ascii	"\213Ef,\356\\|\262\005\253\340`\213\335\247hZ$/\027"
 190      EE5C7CB2 
ARM GAS  C:\Users\gjl\AppData\Local\Temp\cc0Q84Wg.s 			page 14


 190      05ABE060 
 190      8BDDA768 
 190      5A242F17 
 191 014c 0594DBCA 		.ascii	"\005\224\333\312\323\300d\007R\265\320\204\334\213\220"
 191      D3C06407 
 191      52B5D084 
 191      DC8B90
 192 015b 31C6BE9F 		.ascii	"1\306\276\237\242\314)\330\"\317\326f>\354\366\006\210"
 192      A2CC29D8 
 192      22CFD666 
 192      3EECF606 
 192      88
 193 016c 1023D858 		.ascii	"\020#\330X\255m\027\303\362\256\015\215m\256\377\211"
 193      AD6D17C3 
 193      F2AE0D8D 
 193      6DAEFF89 
 194 017c 7F5143D4 		.ascii	"\177QC\324\034\017d,<\244\350\200;\346N$S\356\310P|"
 194      1C0F642C 
 194      3CA4E880 
 194      3BE64E24 
 194      53EEC850 
 195 0191 3C3D31EC 		.ascii	"<=1\354&\006\343\343\317\036'\372\237<\030\246\360h"
 195      2606E3E3 
 195      CF1E27FA 
 195      9F3C18A6 
 195      F068
 196 01a3 72F2853B 		.ascii	"r\362\205;\022O%S\351\311;I\023\252\202"
 196      124F2553 
 196      E9C93B49 
 196      13AA82
 197              		.text
 198              		.section	.gnu.lto_.symbol_nodes.b55b14d,"",%progbits
 199 0000 789C6361 		.ascii	"x\234ca`d\310`\000\002&\206z\006\206\011\347\030@\324"
 199      6064C860 
 199      00022686 
 199      7A068609 
 199      E71840D4 
 200 0014 AE0645A0 		.ascii	"\256\006E\240\000c=#\252\000S=\023\252\000s=3\252\000"
 200      00633D23 
 200      AA00533D 
 200      13AA0073 
 200      3D33AA00 
 201 0028 4B3D0BAA 		.ascii	"K=\013\252\000k=+\212\000\003\000\305\333\026\342"
 201      006B3D2B 
 201      8A000300 
 201      C5DB16E2 
 202              		.text
 203              		.section	.gnu.lto_.refs.b55b14d,"",%progbits
 204 0000 789C6361 		.ascii	"x\234ca`\004B \000\000\0009\000\007"
 204      60044220 
 204      00000039 
 204      0007
 205              		.text
 206              		.section	.gnu.lto_.decls.b55b14d,"",%progbits
 207 0000 789C8D54 		.ascii	"x\234\215ToLSW\024\277\347\275\327R\036X\0343\013\311"
 207      6F4C5357 
 207      14BFE7BD 
ARM GAS  C:\Users\gjl\AppData\Local\Temp\cc0Q84Wg.s 			page 15


 207      D7521E58 
 207      1C330BC9 
 208 0014 FA81F9A1 		.ascii	"\372\201\371\241%~ C\346\262/&K sK\266\271H\346\276"
 208      257E2043 
 208      E6B22F26 
 208      4B20734B 
 208      B6B948E6 
 209 0029 98B80A2F 		.ascii	"\230\270\012/\216d\001\327\225%~\273Sd\306}\301IP7\010"
 209      8E6401D7 
 209      95257EBB 
 209      5364C67D 
 209      C1495037 
 210 003e 2AD9D642 		.ascii	"*\331\326B\313\377VZ\346Z&t\210\250P\026\023B6L\300"
 210      CBFF565A 
 210      E65A2674 
 210      88A85016 
 210      1342364C 
 211 0053 98A9716C 		.ascii	"\230\251qlH\0143\256;\367\336\327\276\247+\0317=\367"
 211      480C33AE 
 211      3BF7DED7 
 211      BEA72B19 
 211      373DF7
 212 0066 EF39BFF3 		.ascii	"\3579\277\363;\277wR\205\000aC\261\022\022\3015\200"
 212      3BBF7752 
 212      85006143 
 212      B11212C1 
 212      3580
 213 0078 C7148E1C 		.ascii	"\307\024\216\034\334\357%\306\300g2\210\026B\033F\213"
 213      DCEF25C6 
 213      C0673288 
 213      16421B46 
 213      8B
 214 0089 A28DA125 		.ascii	"\242\215\241%\310\177\307\240\356\317\342{\320\\hI\264"
 214      C87FC7A0 
 214      EECFE27B 
 214      D05C6849 
 214      B4
 215 009a 69B4DDBA 		.ascii	"i\264\335\272\017\350~\317\016\206\237\363L\254c\235"
 215      0FE87ECF 
 215      0E869FF3 
 215      4CAC639D 
 216 00aa F8509678 		.ascii	"\370P\226x\306\315\362?y\207\263\304E7\020\027\315\022"
 216      C6CDF23F 
 216      7987B3C4 
 216      45371017 
 216      CD12
 217 00bc C734C8D5 		.ascii	"\3074\310\325\371\026\242mA\213\241M\3518N\023V\032"
 217      F916A26D 
 217      418BA14D 
 217      E9384E13 
 217      561A
 218 00ce 672C0B0E 		.ascii	"g,\013\016\323\321\272\201\232\263\351\375D\202\351"
 218      D3D1BA81 
 218      9AB3E9FD 
 218      4482E9
 219 00dd C6C445DB 		.ascii	"\306\304E\333<\314\201\004\372\007%\000b\006nD\030?"
 219      3CCC8104 
ARM GAS  C:\Users\gjl\AppData\Local\Temp\cc0Q84Wg.s 			page 16


 219      FA072500 
 219      62066E44 
 219      183F
 220 00ef E246E233 		.ascii	"\342F\3423\311\\e\026\302f\"\374\371\235\001\306\177"
 220      C95C6516 
 220      C26622FC 
 220      F99D01C6 
 220      7F
 221 0100 E935951E 		.ascii	"\3515\225\036\034\304@\007=\0102\014D\224x\227\322\250"
 221      1CC44007 
 221      3D08320C 
 221      44947897 
 221      D2A8
 222 0112 62918C00 		.ascii	"b\221\214\000\023\236\240k\342\004O\327\004\351\242"
 222      139EA06B 
 222      E2044FD7 
 222      04E9A2
 223 0121 4FF87B66 		.ascii	"O\370{fA\306\212q\277\260\346{\2434@q4S*m3\224\351="
 223      41C68A71 
 223      BFB0E67B 
 223      A3344071 
 223      34532A6D 
 224 0139 B6E4B73D 		.ascii	"\266\344\267=\224\300\241B\012\330\371~dm\2238\263\347"
 224      94C0A142 
 224      0AD8F97E 
 224      646D9338 
 224      B3E7
 225 014b B32717FF 		.ascii	"\263'\027\377\311\223_d{iv\261\373w\005J\324\357\030"
 225      C9935F64 
 225      7B6976B1 
 225      FB77054A 
 225      D4EF18
 226 015e CCAD53FE 		.ascii	"\314\255S\376\235\021J7C\017\250\020\000\031\374P\312"
 226      9D114A37 
 226      430FA810 
 226      0019FC50 
 226      CA
 227 016f 923B549C 		.ascii	"\222;T\234\217Sz\204._\240\326\"\002\345\016x\331A "
 227      8F537A84 
 227      2E5FA0D6 
 227      2202E50E 
 227      78D94120 
 228 0183 08250C93 		.ascii	"\010%\014\223yA78\240\013\034\014\377\366\351\216{V"
 228      79413738 
 228      A00B1C0C 
 228      FFF6E98E 
 228      7B56
 229 0195 45C24086 		.ascii	"E\302@\206s@aw\343\251G\361\002\244P\250\202\204\307"
 229      73406177 
 229      E3A947F1 
 229      02A450A8 
 229      8284C7
 230 01a8 E4F2547B 		.ascii	"\344\362T{\036\036\267\250\260\031\217\327[\346\222"
 230      1E1EB7A8 
 230      B0198FD7 
 230      5BE692
 231 01b7 50D4CA38 		.ascii	"P\324\3128\320\243\264X\202\275/@?\002\366! \201\001"
ARM GAS  C:\Users\gjl\AppData\Local\Temp\cc0Q84Wg.s 			page 17


 231      D0A3B458 
 231      82BD2F40 
 231      3F02F621 
 231      208101
 232 01ca 28C2B917 		.ascii	"(\302\271\027\024Q\335\235G\241$l=G\317\365\321[\247"
 232      1451DD9D 
 232      47A1246C 
 232      3D47CFF5 
 232      D15BA7
 233 01dd 9BDE3EDF 		.ascii	"\233\336>\337\331D\2471\356u\356\010>\2036n\331\362"
 233      D944A731 
 233      EE75EE08 
 233      3E83366E 
 233      D9F2
 234 01ef 3DCCA398 		.ascii	"=\314\243\230\203\260\025c?\177pjN\222?\3442t\\n\237"
 234      83B01563 
 234      3F7F706A 
 234      4E923FE4 
 234      32745C6E 
 235 0204 54044E3C 		.ascii	"T\004N<\366\205|\226\306\217 \214\304Q\206\014\224!"
 235      F6857C96 
 235      C68F208C 
 235      C451860C 
 235      9421
 236 0216 334A88A3 		.ascii	"3J\210\243\254\334\\\035\221\344Z\216\322\336\334\331"
 236      ACDC5C1D 
 236      91E45A8E 
 236      D2DEDCD9 
 237 0226 9567A6CE 		.ascii	"\225g\246\316j6\270_\344\334\017\350\324[\227V\277R"
 237      6A36B85F 
 237      E4DC0FE8 
 237      D45B9756 
 237      BF52
 238 0238 F594FD93 		.ascii	"\365\224\375\223FJ\364\202\260\2212lN9\314S\016\314"
 238      464AF482 
 238      B091326C 
 238      4E39CC53 
 238      0ECC
 239 024a 2F0573E5 		.ascii	"/\005s\345Ox\312\307-\021\237]G9s5_T\3171\"\006F\304"
 239      4F78CAC7 
 239      2D119F5D 
 239      47397335 
 239      5F54CF31 
 240 0262 8C11E518 		.ascii	"\214\021\345\0307\257\264\316o\222)p\220o\377~\274,"
 240      37AFB4CE 
 240      6F922970 
 240      906FFF7E 
 240      BC2C
 241 0274 E3177062 		.ascii	"\343\027pb\217\244dS\2238E\223\370\316'\006U\271\205"
 241      8FA46453 
 241      93384593 
 241      F8CE2706 
 241      55B985
 242 0287 3B4B6D2D 		.ascii	";Km-\243A+\250%\274\007\260L\325g'\231\"!\216m\340\324"
 242      A3412BA8 
 242      25BC07B0 
 242      4CD56727 
ARM GAS  C:\Users\gjl\AppData\Local\Temp\cc0Q84Wg.s 			page 18


 242      9922218E 
 243 029e DBE0125E 		.ascii	"\333\340\022^\376\200\227z?\005E?\305P\223\037\015n"
 243      FE80977A 
 243      3F05453F 
 243      C550931F 
 243      0D6E
 244 02b0 4E559763 		.ascii	"NU\227c\366\341\032\360F\211e\032\345\302\037+'m\231"
 244      F6E11AF0 
 244      4689651A 
 244      E5C21F2B 
 244      276D99
 245 02c3 BB51E097 		.ascii	"\273Q\340\227]w\327b\326u\373\3432\327\370\247t\177"
 245      5D77D762 
 245      D675FBE3 
 245      32D7F8A7 
 245      747F
 246 02d5 AC4EFD12 		.ascii	"\254N\375\022\266\245\373#\261{q\200\322c\030\2470?"
 246      B6A5FB23 
 246      B17B7180 
 246      D26318A7 
 246      303F
 247 02e7 1831588C 		.ascii	"\0301X\214\230\025\032\343\012ut/4\025\310\337\010\205"
 247      98151AE3 
 247      0A75742F 
 247      3415C8DF 
 247      0885
 248 02f9 BE1CF55F 		.ascii	"\276\034\365_\222u\231#7\236\376X\343\006\314\270\031"
 248      92759923 
 248      379EFE58 
 248      E306CCB8 
 248      19
 249 030a 26C16166 		.ascii	"&\301af\032\373\332d\321\354\012\036\377\274\366\365"
 249      1AFBDA64 
 249      D1EC0A1E 
 249      FFBCF6F5 
 250 031a A25D347B 		.ascii	"\242]4{1\036\177\235\360w\263W\027S>\225*0i\357\022"
 250      311E7F9D 
 250      F077B357 
 250      17533E95 
 250      2A3069EF 
 251 032f DA4F2EDC 		.ascii	"\332O.\334\376+W\016\012\355\303\235\035+\226\264\366"
 251      FE2B570E 
 251      0AEDC39D 
 251      1D2B96B4 
 251      F6
 252 0340 CD4769E1 		.ascii	"\315Gi\341\004j?\201\305\377\314\264\277\206\332\273"
 252      046A3F81 
 252      C5FFCCB4 
 252      BF86DABB 
 253 0350 74ED27F1 		.ascii	"t\355'\361\362\212\241}\277\320~\012e\274j\320u\351"
 253      F28AA17D 
 253      BFD07E0A 
 253      65BC6AD0 
 253      75E9
 254 0362 DA4703BD 		.ascii	"\332G\003\275gd\3658\323sC\240,\3447\332f\221\207\004"
 254      6764F538 
 254      D37343A0 
ARM GAS  C:\Users\gjl\AppData\Local\Temp\cc0Q84Wg.s 			page 19


 254      2CE437DA 
 254      66918704 
 255 0376 ADC8F0BD 		.ascii	"\255\310\360\275\200]\320\312\2020\263\036\255\370\223"
 255      805DD0CA 
 255      8230B31E 
 255      ADF893
 256 0385 3B6F3652 		.ascii	";o6R\354\301i\244u\303\240u\035t^\341\211\231PN\376"
 256      ECC169A4 
 256      75C3A075 
 256      1D745EE1 
 256      8999504E 
 257 039a 09A358EE 		.ascii	"\011\243X\356\231\006&\220\204|\376\257\310\326\202"
 257      99062690 
 257      847CFEAF 
 257      C8D682
 258 03a9 CA1DFBAB 		.ascii	"\312\035\373\2534o\245\247\3663\355\235\372\032\315"
 258      346FA5A7 
 258      F633ED9D 
 258      FA1ACD
 259 03b8 B6EBDDF7 		.ascii	"\266\353\335\367\213+\312\312\210\245\241\266\316\373"
 259      8B2BCACA 
 259      88A5A1B6 
 259      CEFB
 260 03c6 DA4BBBB4 		.ascii	"\332K\273\264:\315\343\366j5\373\253\352\033<\325\332"
 260      3ACDE3F6 
 260      6A35FBAB 
 260      EA1B3CD5 
 260      DA
 261 03d7 BEF7AAEA 		.ascii	"\276\367\252\352+^\331W}\330{\370\220\366i\351G\304"
 261      2B5ED957 
 261      7DD87BF8 
 261      90F669E9 
 261      47C4
 262 03e9 B18E47E5 		.ascii	"\261\216G\345\216\322jbC\364\017<\265^-\0077{4w\215"
 262      8ED26A62 
 262      43F40F3C 
 262      B55E2D07 
 262      377B3477 
 263 03fe 5D5F2BDD 		.ascii	"]_+\335^\367\036\355\340\363\"\373[u^\315\343i8\344"
 263      5EF71EED 
 263      E0F322FB 
 263      5B755ECD 
 263      E36938E4 
 264 0412 650CAC2C 		.ascii	"e\014\254,q\331\253\317\341S\305\307\232\333\223y\344"
 264      71D9ABCF 
 264      E153C5C7 
 264      9ADB9379 
 264      E4
 265 0423 0FE5DB2D 		.ascii	"\017\345\333-\036\355`\371\366\177\001\242\207\016["
 265      1EED60F9 
 265      F67F01A2 
 265      870E5B
 266              		.text
 267              		.section	.gnu.lto_.symtab.b55b14d,"",%progbits
 268 0000 44355F53 		.ascii	"D5_SetDriveMode\000"
 268      65744472 
 268      6976654D 
ARM GAS  C:\Users\gjl\AppData\Local\Temp\cc0Q84Wg.s 			page 20


 268      6F646500 
 269 0010 00       		.ascii	"\000"
 270 0011 00       		.ascii	"\000"
 271 0012 00       		.ascii	"\000"
 272 0013 00000000 		.ascii	"\000\000\000\000\000\000\000\000"
 272      00000000 
 273 001b B3000000 		.ascii	"\263\000\000\000"
 274 001f 44355F57 		.ascii	"D5_Write\000"
 274      72697465 
 274      00
 275 0028 00       		.ascii	"\000"
 276 0029 00       		.ascii	"\000"
 277 002a 00       		.ascii	"\000"
 278 002b 00000000 		.ascii	"\000\000\000\000\000\000\000\000"
 278      00000000 
 279 0033 B5000000 		.ascii	"\265\000\000\000"
 280 0037 44355F52 		.ascii	"D5_Read\000"
 280      65616400 
 281 003f 00       		.ascii	"\000"
 282 0040 00       		.ascii	"\000"
 283 0041 00       		.ascii	"\000"
 284 0042 00000000 		.ascii	"\000\000\000\000\000\000\000\000"
 284      00000000 
 285 004a B8000000 		.ascii	"\270\000\000\000"
 286 004e 44355F52 		.ascii	"D5_ReadDataReg\000"
 286      65616444 
 286      61746152 
 286      656700
 287 005d 00       		.ascii	"\000"
 288 005e 00       		.ascii	"\000"
 289 005f 00       		.ascii	"\000"
 290 0060 00000000 		.ascii	"\000\000\000\000\000\000\000\000"
 290      00000000 
 291 0068 BA000000 		.ascii	"\272\000\000\000"
 292 006c 44355F53 		.ascii	"D5_SetInterruptMode\000"
 292      6574496E 
 292      74657272 
 292      7570744D 
 292      6F646500 
 293 0080 00       		.ascii	"\000"
 294 0081 00       		.ascii	"\000"
 295 0082 00       		.ascii	"\000"
 296 0083 00000000 		.ascii	"\000\000\000\000\000\000\000\000"
 296      00000000 
 297 008b C4000000 		.ascii	"\304\000\000\000"
 298 008f 44355F43 		.ascii	"D5_ClearInterrupt\000"
 298      6C656172 
 298      496E7465 
 298      72727570 
 298      7400
 299 00a1 00       		.ascii	"\000"
 300 00a2 00       		.ascii	"\000"
 301 00a3 00       		.ascii	"\000"
 302 00a4 00000000 		.ascii	"\000\000\000\000\000\000\000\000"
 302      00000000 
 303 00ac C6000000 		.ascii	"\306\000\000\000"
 304              		.text
ARM GAS  C:\Users\gjl\AppData\Local\Temp\cc0Q84Wg.s 			page 21


 305              		.section	.gnu.lto_.opts,"",%progbits
 306 0000 272D666D 		.ascii	"'-fmath-errno' '-fsigned-zeros' '-ftrapping-math' '"
 306      6174682D 
 306      6572726E 
 306      6F272027 
 306      2D667369 
 307 0033 2D666E6F 		.ascii	"-fno-trapv' '-fno-openmp' '-fno-openacc' '-mcpu=cor"
 307      2D747261 
 307      70762720 
 307      272D666E 
 307      6F2D6F70 
 308 0066 7465782D 		.ascii	"tex-m0' '-mthumb' '-g' '-Os' '-ffunction-sections' "
 308      6D302720 
 308      272D6D74 
 308      68756D62 
 308      2720272D 
 309 0099 272D6666 		.ascii	"'-ffat-lto-objects' '-flto'\000"
 309      61742D6C 
 309      746F2D6F 
 309      626A6563 
 309      74732720 
 310              		.text
 311              		.cfi_sections	.debug_frame
 312              		.section	.text.D5_SetDriveMode,"ax",%progbits
 313              		.align	1
 314              		.global	D5_SetDriveMode
 315              		.code	16
 316              		.thumb_func
 317              		.type	D5_SetDriveMode, %function
 318              	D5_SetDriveMode:
 319              	.LFB0:
 320              		.file 1 "Generated_Source\\PSoC4\\D5.c"
   1:Generated_Source\PSoC4/D5.c **** /*******************************************************************************
   2:Generated_Source\PSoC4/D5.c **** * File Name: D5.c  
   3:Generated_Source\PSoC4/D5.c **** * Version 2.20
   4:Generated_Source\PSoC4/D5.c **** *
   5:Generated_Source\PSoC4/D5.c **** * Description:
   6:Generated_Source\PSoC4/D5.c **** *  This file contains API to enable firmware control of a Pins component.
   7:Generated_Source\PSoC4/D5.c **** *
   8:Generated_Source\PSoC4/D5.c **** ********************************************************************************
   9:Generated_Source\PSoC4/D5.c **** * Copyright 2008-2015, Cypress Semiconductor Corporation.  All rights reserved.
  10:Generated_Source\PSoC4/D5.c **** * You may use this file only in accordance with the license, terms, conditions, 
  11:Generated_Source\PSoC4/D5.c **** * disclaimers, and limitations in the end user license agreement accompanying 
  12:Generated_Source\PSoC4/D5.c **** * the software package with which this file was provided.
  13:Generated_Source\PSoC4/D5.c **** *******************************************************************************/
  14:Generated_Source\PSoC4/D5.c **** 
  15:Generated_Source\PSoC4/D5.c **** #include "cytypes.h"
  16:Generated_Source\PSoC4/D5.c **** #include "D5.h"
  17:Generated_Source\PSoC4/D5.c **** 
  18:Generated_Source\PSoC4/D5.c **** 
  19:Generated_Source\PSoC4/D5.c **** #if defined(D5__PC)
  20:Generated_Source\PSoC4/D5.c ****     #define D5_SetP4PinDriveMode(shift, mode)  \
  21:Generated_Source\PSoC4/D5.c ****     do { \
  22:Generated_Source\PSoC4/D5.c ****         D5_PC =   (D5_PC & \
  23:Generated_Source\PSoC4/D5.c ****                                 (uint32)(~(uint32)(D5_DRIVE_MODE_IND_MASK << \
  24:Generated_Source\PSoC4/D5.c ****                                 (D5_DRIVE_MODE_BITS * (shift))))) | \
  25:Generated_Source\PSoC4/D5.c ****                                 (uint32)((uint32)(mode) << \
ARM GAS  C:\Users\gjl\AppData\Local\Temp\cc0Q84Wg.s 			page 22


  26:Generated_Source\PSoC4/D5.c ****                                 (D5_DRIVE_MODE_BITS * (shift))); \
  27:Generated_Source\PSoC4/D5.c ****     } while (0)
  28:Generated_Source\PSoC4/D5.c **** #else
  29:Generated_Source\PSoC4/D5.c ****     #if (CY_PSOC4_4200L)
  30:Generated_Source\PSoC4/D5.c ****         #define D5_SetP4PinDriveMode(shift, mode)  \
  31:Generated_Source\PSoC4/D5.c ****         do { \
  32:Generated_Source\PSoC4/D5.c ****             D5_USBIO_CTRL_REG = (D5_USBIO_CTRL_REG & \
  33:Generated_Source\PSoC4/D5.c ****                                     (uint32)(~(uint32)(D5_DRIVE_MODE_IND_MASK << \
  34:Generated_Source\PSoC4/D5.c ****                                     (D5_DRIVE_MODE_BITS * (shift))))) | \
  35:Generated_Source\PSoC4/D5.c ****                                     (uint32)((uint32)(mode) << \
  36:Generated_Source\PSoC4/D5.c ****                                     (D5_DRIVE_MODE_BITS * (shift))); \
  37:Generated_Source\PSoC4/D5.c ****         } while (0)
  38:Generated_Source\PSoC4/D5.c ****     #endif
  39:Generated_Source\PSoC4/D5.c **** #endif
  40:Generated_Source\PSoC4/D5.c ****   
  41:Generated_Source\PSoC4/D5.c **** 
  42:Generated_Source\PSoC4/D5.c **** #if defined(D5__PC) || (CY_PSOC4_4200L) 
  43:Generated_Source\PSoC4/D5.c ****     /*******************************************************************************
  44:Generated_Source\PSoC4/D5.c ****     * Function Name: D5_SetDriveMode
  45:Generated_Source\PSoC4/D5.c ****     ****************************************************************************//**
  46:Generated_Source\PSoC4/D5.c ****     *
  47:Generated_Source\PSoC4/D5.c ****     * \brief Sets the drive mode for each of the Pins component's pins.
  48:Generated_Source\PSoC4/D5.c ****     * 
  49:Generated_Source\PSoC4/D5.c ****     * <b>Note</b> This affects all pins in the Pins component instance. Use the
  50:Generated_Source\PSoC4/D5.c ****     * Per-Pin APIs if you wish to control individual pin's drive modes.
  51:Generated_Source\PSoC4/D5.c ****     *
  52:Generated_Source\PSoC4/D5.c ****     * <b>Note</b> USBIOs have limited drive functionality. Refer to the Drive Mode
  53:Generated_Source\PSoC4/D5.c ****     * parameter for more information.
  54:Generated_Source\PSoC4/D5.c ****     *
  55:Generated_Source\PSoC4/D5.c ****     * \param mode
  56:Generated_Source\PSoC4/D5.c ****     *  Mode for the selected signals. Valid options are documented in 
  57:Generated_Source\PSoC4/D5.c ****     *  \ref driveMode.
  58:Generated_Source\PSoC4/D5.c ****     *
  59:Generated_Source\PSoC4/D5.c ****     * \return
  60:Generated_Source\PSoC4/D5.c ****     *  None
  61:Generated_Source\PSoC4/D5.c ****     *
  62:Generated_Source\PSoC4/D5.c ****     * \sideeffect
  63:Generated_Source\PSoC4/D5.c ****     *  If you use read-modify-write operations that are not atomic, the ISR can
  64:Generated_Source\PSoC4/D5.c ****     *  cause corruption of this function. An ISR that interrupts this function 
  65:Generated_Source\PSoC4/D5.c ****     *  and performs writes to the Pins component Drive Mode registers can cause 
  66:Generated_Source\PSoC4/D5.c ****     *  corrupted port data. To avoid this issue, you should either use the Per-Pin
  67:Generated_Source\PSoC4/D5.c ****     *  APIs (primary method) or disable interrupts around this function.
  68:Generated_Source\PSoC4/D5.c ****     *
  69:Generated_Source\PSoC4/D5.c ****     * \funcusage
  70:Generated_Source\PSoC4/D5.c ****     *  \snippet D5_SUT.c usage_D5_SetDriveMode
  71:Generated_Source\PSoC4/D5.c ****     *******************************************************************************/
  72:Generated_Source\PSoC4/D5.c ****     void D5_SetDriveMode(uint8 mode)
  73:Generated_Source\PSoC4/D5.c ****     {
 321              		.loc 1 73 0
 322              		.cfi_startproc
 323              		@ args = 0, pretend = 0, frame = 0
 324              		@ frame_needed = 0, uses_anonymous_args = 0
 325              		@ link register save eliminated.
 326              	.LVL0:
  74:Generated_Source\PSoC4/D5.c **** 		D5_SetP4PinDriveMode(D5__0__SHIFT, mode);
 327              		.loc 1 74 0
 328 0000 034A     		ldr	r2, .L2
ARM GAS  C:\Users\gjl\AppData\Local\Temp\cc0Q84Wg.s 			page 23


 329 0002 044B     		ldr	r3, .L2+4
 330 0004 1168     		ldr	r1, [r2]
 331 0006 4002     		lsls	r0, r0, #9
 332              	.LVL1:
 333 0008 0B40     		ands	r3, r1
 334 000a 1843     		orrs	r0, r3
 335 000c 1060     		str	r0, [r2]
  75:Generated_Source\PSoC4/D5.c ****     }
 336              		.loc 1 75 0
 337              		@ sp needed
 338 000e 7047     		bx	lr
 339              	.L3:
 340              		.align	2
 341              	.L2:
 342 0010 08010440 		.word	1074004232
 343 0014 FFF1FFFF 		.word	-3585
 344              		.cfi_endproc
 345              	.LFE0:
 346              		.size	D5_SetDriveMode, .-D5_SetDriveMode
 347              		.section	.text.D5_Write,"ax",%progbits
 348              		.align	1
 349              		.global	D5_Write
 350              		.code	16
 351              		.thumb_func
 352              		.type	D5_Write, %function
 353              	D5_Write:
 354              	.LFB1:
  76:Generated_Source\PSoC4/D5.c **** #endif
  77:Generated_Source\PSoC4/D5.c **** 
  78:Generated_Source\PSoC4/D5.c **** 
  79:Generated_Source\PSoC4/D5.c **** /*******************************************************************************
  80:Generated_Source\PSoC4/D5.c **** * Function Name: D5_Write
  81:Generated_Source\PSoC4/D5.c **** ****************************************************************************//**
  82:Generated_Source\PSoC4/D5.c **** *
  83:Generated_Source\PSoC4/D5.c **** * \brief Writes the value to the physical port (data output register), masking
  84:Generated_Source\PSoC4/D5.c **** *  and shifting the bits appropriately. 
  85:Generated_Source\PSoC4/D5.c **** *
  86:Generated_Source\PSoC4/D5.c **** * The data output register controls the signal applied to the physical pin in 
  87:Generated_Source\PSoC4/D5.c **** * conjunction with the drive mode parameter. This function avoids changing 
  88:Generated_Source\PSoC4/D5.c **** * other bits in the port by using the appropriate method (read-modify-write or
  89:Generated_Source\PSoC4/D5.c **** * bit banding).
  90:Generated_Source\PSoC4/D5.c **** *
  91:Generated_Source\PSoC4/D5.c **** * <b>Note</b> This function should not be used on a hardware digital output pin 
  92:Generated_Source\PSoC4/D5.c **** * as it is driven by the hardware signal attached to it.
  93:Generated_Source\PSoC4/D5.c **** *
  94:Generated_Source\PSoC4/D5.c **** * \param value
  95:Generated_Source\PSoC4/D5.c **** *  Value to write to the component instance.
  96:Generated_Source\PSoC4/D5.c **** *
  97:Generated_Source\PSoC4/D5.c **** * \return 
  98:Generated_Source\PSoC4/D5.c **** *  None 
  99:Generated_Source\PSoC4/D5.c **** *
 100:Generated_Source\PSoC4/D5.c **** * \sideeffect
 101:Generated_Source\PSoC4/D5.c **** *  If you use read-modify-write operations that are not atomic; the Interrupt 
 102:Generated_Source\PSoC4/D5.c **** *  Service Routines (ISR) can cause corruption of this function. An ISR that 
 103:Generated_Source\PSoC4/D5.c **** *  interrupts this function and performs writes to the Pins component data 
 104:Generated_Source\PSoC4/D5.c **** *  register can cause corrupted port data. To avoid this issue, you should 
 105:Generated_Source\PSoC4/D5.c **** *  either use the Per-Pin APIs (primary method) or disable interrupts around 
ARM GAS  C:\Users\gjl\AppData\Local\Temp\cc0Q84Wg.s 			page 24


 106:Generated_Source\PSoC4/D5.c **** *  this function.
 107:Generated_Source\PSoC4/D5.c **** *
 108:Generated_Source\PSoC4/D5.c **** * \funcusage
 109:Generated_Source\PSoC4/D5.c **** *  \snippet D5_SUT.c usage_D5_Write
 110:Generated_Source\PSoC4/D5.c **** *******************************************************************************/
 111:Generated_Source\PSoC4/D5.c **** void D5_Write(uint8 value)
 112:Generated_Source\PSoC4/D5.c **** {
 355              		.loc 1 112 0
 356              		.cfi_startproc
 357              		@ args = 0, pretend = 0, frame = 0
 358              		@ frame_needed = 0, uses_anonymous_args = 0
 359              		@ link register save eliminated.
 360              	.LVL2:
 113:Generated_Source\PSoC4/D5.c ****     uint8 drVal = (uint8)(D5_DR & (uint8)(~D5_MASK));
 361              		.loc 1 113 0
 362 0000 0823     		movs	r3, #8
 363 0002 0449     		ldr	r1, .L5
 114:Generated_Source\PSoC4/D5.c ****     drVal = (drVal | ((uint8)(value << D5_SHIFT) & D5_MASK));
 115:Generated_Source\PSoC4/D5.c ****     D5_DR = (uint32)drVal;
 364              		.loc 1 115 0
 365 0004 C000     		lsls	r0, r0, #3
 366              	.LVL3:
 113:Generated_Source\PSoC4/D5.c ****     uint8 drVal = (uint8)(D5_DR & (uint8)(~D5_MASK));
 367              		.loc 1 113 0
 368 0006 0A68     		ldr	r2, [r1]
 116:Generated_Source\PSoC4/D5.c **** }
 369              		.loc 1 116 0
 370              		@ sp needed
 113:Generated_Source\PSoC4/D5.c ****     uint8 drVal = (uint8)(D5_DR & (uint8)(~D5_MASK));
 371              		.loc 1 113 0
 372 0008 9A43     		bics	r2, r3
 373 000a D2B2     		uxtb	r2, r2
 115:Generated_Source\PSoC4/D5.c **** }
 374              		.loc 1 115 0
 375 000c 0340     		ands	r3, r0
 376 000e 1343     		orrs	r3, r2
 377 0010 0B60     		str	r3, [r1]
 378              		.loc 1 116 0
 379 0012 7047     		bx	lr
 380              	.L6:
 381              		.align	2
 382              	.L5:
 383 0014 00010440 		.word	1074004224
 384              		.cfi_endproc
 385              	.LFE1:
 386              		.size	D5_Write, .-D5_Write
 387              		.section	.text.D5_Read,"ax",%progbits
 388              		.align	1
 389              		.global	D5_Read
 390              		.code	16
 391              		.thumb_func
 392              		.type	D5_Read, %function
 393              	D5_Read:
 394              	.LFB2:
 117:Generated_Source\PSoC4/D5.c **** 
 118:Generated_Source\PSoC4/D5.c **** 
 119:Generated_Source\PSoC4/D5.c **** /*******************************************************************************
ARM GAS  C:\Users\gjl\AppData\Local\Temp\cc0Q84Wg.s 			page 25


 120:Generated_Source\PSoC4/D5.c **** * Function Name: D5_Read
 121:Generated_Source\PSoC4/D5.c **** ****************************************************************************//**
 122:Generated_Source\PSoC4/D5.c **** *
 123:Generated_Source\PSoC4/D5.c **** * \brief Reads the associated physical port (pin status register) and masks 
 124:Generated_Source\PSoC4/D5.c **** *  the required bits according to the width and bit position of the component
 125:Generated_Source\PSoC4/D5.c **** *  instance. 
 126:Generated_Source\PSoC4/D5.c **** *
 127:Generated_Source\PSoC4/D5.c **** * The pin's status register returns the current logic level present on the 
 128:Generated_Source\PSoC4/D5.c **** * physical pin.
 129:Generated_Source\PSoC4/D5.c **** *
 130:Generated_Source\PSoC4/D5.c **** * \return 
 131:Generated_Source\PSoC4/D5.c **** *  The current value for the pins in the component as a right justified number.
 132:Generated_Source\PSoC4/D5.c **** *
 133:Generated_Source\PSoC4/D5.c **** * \funcusage
 134:Generated_Source\PSoC4/D5.c **** *  \snippet D5_SUT.c usage_D5_Read  
 135:Generated_Source\PSoC4/D5.c **** *******************************************************************************/
 136:Generated_Source\PSoC4/D5.c **** uint8 D5_Read(void)
 137:Generated_Source\PSoC4/D5.c **** {
 395              		.loc 1 137 0
 396              		.cfi_startproc
 397              		@ args = 0, pretend = 0, frame = 0
 398              		@ frame_needed = 0, uses_anonymous_args = 0
 399              		@ link register save eliminated.
 138:Generated_Source\PSoC4/D5.c ****     return (uint8)((D5_PS & D5_MASK) >> D5_SHIFT);
 400              		.loc 1 138 0
 401 0000 024B     		ldr	r3, .L8
 139:Generated_Source\PSoC4/D5.c **** }
 402              		.loc 1 139 0
 403              		@ sp needed
 138:Generated_Source\PSoC4/D5.c ****     return (uint8)((D5_PS & D5_MASK) >> D5_SHIFT);
 404              		.loc 1 138 0
 405 0002 1868     		ldr	r0, [r3]
 406 0004 0007     		lsls	r0, r0, #28
 407 0006 C00F     		lsrs	r0, r0, #31
 408              		.loc 1 139 0
 409 0008 7047     		bx	lr
 410              	.L9:
 411 000a C046     		.align	2
 412              	.L8:
 413 000c 04010440 		.word	1074004228
 414              		.cfi_endproc
 415              	.LFE2:
 416              		.size	D5_Read, .-D5_Read
 417              		.section	.text.D5_ReadDataReg,"ax",%progbits
 418              		.align	1
 419              		.global	D5_ReadDataReg
 420              		.code	16
 421              		.thumb_func
 422              		.type	D5_ReadDataReg, %function
 423              	D5_ReadDataReg:
 424              	.LFB3:
 140:Generated_Source\PSoC4/D5.c **** 
 141:Generated_Source\PSoC4/D5.c **** 
 142:Generated_Source\PSoC4/D5.c **** /*******************************************************************************
 143:Generated_Source\PSoC4/D5.c **** * Function Name: D5_ReadDataReg
 144:Generated_Source\PSoC4/D5.c **** ****************************************************************************//**
 145:Generated_Source\PSoC4/D5.c **** *
ARM GAS  C:\Users\gjl\AppData\Local\Temp\cc0Q84Wg.s 			page 26


 146:Generated_Source\PSoC4/D5.c **** * \brief Reads the associated physical port's data output register and masks 
 147:Generated_Source\PSoC4/D5.c **** *  the correct bits according to the width and bit position of the component 
 148:Generated_Source\PSoC4/D5.c **** *  instance. 
 149:Generated_Source\PSoC4/D5.c **** *
 150:Generated_Source\PSoC4/D5.c **** * The data output register controls the signal applied to the physical pin in 
 151:Generated_Source\PSoC4/D5.c **** * conjunction with the drive mode parameter. This is not the same as the 
 152:Generated_Source\PSoC4/D5.c **** * preferred D5_Read() API because the 
 153:Generated_Source\PSoC4/D5.c **** * D5_ReadDataReg() reads the data register instead of the status 
 154:Generated_Source\PSoC4/D5.c **** * register. For output pins this is a useful function to determine the value 
 155:Generated_Source\PSoC4/D5.c **** * just written to the pin.
 156:Generated_Source\PSoC4/D5.c **** *
 157:Generated_Source\PSoC4/D5.c **** * \return 
 158:Generated_Source\PSoC4/D5.c **** *  The current value of the data register masked and shifted into a right 
 159:Generated_Source\PSoC4/D5.c **** *  justified number for the component instance.
 160:Generated_Source\PSoC4/D5.c **** *
 161:Generated_Source\PSoC4/D5.c **** * \funcusage
 162:Generated_Source\PSoC4/D5.c **** *  \snippet D5_SUT.c usage_D5_ReadDataReg 
 163:Generated_Source\PSoC4/D5.c **** *******************************************************************************/
 164:Generated_Source\PSoC4/D5.c **** uint8 D5_ReadDataReg(void)
 165:Generated_Source\PSoC4/D5.c **** {
 425              		.loc 1 165 0
 426              		.cfi_startproc
 427              		@ args = 0, pretend = 0, frame = 0
 428              		@ frame_needed = 0, uses_anonymous_args = 0
 429              		@ link register save eliminated.
 166:Generated_Source\PSoC4/D5.c ****     return (uint8)((D5_DR & D5_MASK) >> D5_SHIFT);
 430              		.loc 1 166 0
 431 0000 024B     		ldr	r3, .L11
 167:Generated_Source\PSoC4/D5.c **** }
 432              		.loc 1 167 0
 433              		@ sp needed
 166:Generated_Source\PSoC4/D5.c ****     return (uint8)((D5_DR & D5_MASK) >> D5_SHIFT);
 434              		.loc 1 166 0
 435 0002 1868     		ldr	r0, [r3]
 436 0004 0007     		lsls	r0, r0, #28
 437 0006 C00F     		lsrs	r0, r0, #31
 438              		.loc 1 167 0
 439 0008 7047     		bx	lr
 440              	.L12:
 441 000a C046     		.align	2
 442              	.L11:
 443 000c 00010440 		.word	1074004224
 444              		.cfi_endproc
 445              	.LFE3:
 446              		.size	D5_ReadDataReg, .-D5_ReadDataReg
 447              		.section	.text.D5_SetInterruptMode,"ax",%progbits
 448              		.align	1
 449              		.global	D5_SetInterruptMode
 450              		.code	16
 451              		.thumb_func
 452              		.type	D5_SetInterruptMode, %function
 453              	D5_SetInterruptMode:
 454              	.LFB4:
 168:Generated_Source\PSoC4/D5.c **** 
 169:Generated_Source\PSoC4/D5.c **** 
 170:Generated_Source\PSoC4/D5.c **** /*******************************************************************************
 171:Generated_Source\PSoC4/D5.c **** * Function Name: D5_SetInterruptMode
ARM GAS  C:\Users\gjl\AppData\Local\Temp\cc0Q84Wg.s 			page 27


 172:Generated_Source\PSoC4/D5.c **** ****************************************************************************//**
 173:Generated_Source\PSoC4/D5.c **** *
 174:Generated_Source\PSoC4/D5.c **** * \brief Configures the interrupt mode for each of the Pins component's
 175:Generated_Source\PSoC4/D5.c **** *  pins. Alternatively you may set the interrupt mode for all the pins
 176:Generated_Source\PSoC4/D5.c **** *  specified in the Pins component.
 177:Generated_Source\PSoC4/D5.c **** *
 178:Generated_Source\PSoC4/D5.c **** *  <b>Note</b> The interrupt is port-wide and therefore any enabled pin
 179:Generated_Source\PSoC4/D5.c **** *  interrupt may trigger it.
 180:Generated_Source\PSoC4/D5.c **** *
 181:Generated_Source\PSoC4/D5.c **** * \param position
 182:Generated_Source\PSoC4/D5.c **** *  The pin position as listed in the Pins component. You may OR these to be 
 183:Generated_Source\PSoC4/D5.c **** *  able to configure the interrupt mode of multiple pins within a Pins 
 184:Generated_Source\PSoC4/D5.c **** *  component. Or you may use D5_INTR_ALL to configure the
 185:Generated_Source\PSoC4/D5.c **** *  interrupt mode of all the pins in the Pins component.       
 186:Generated_Source\PSoC4/D5.c **** *  - D5_0_INTR       (First pin in the list)
 187:Generated_Source\PSoC4/D5.c **** *  - D5_1_INTR       (Second pin in the list)
 188:Generated_Source\PSoC4/D5.c **** *  - ...
 189:Generated_Source\PSoC4/D5.c **** *  - D5_INTR_ALL     (All pins in Pins component)
 190:Generated_Source\PSoC4/D5.c **** *
 191:Generated_Source\PSoC4/D5.c **** * \param mode
 192:Generated_Source\PSoC4/D5.c **** *  Interrupt mode for the selected pins. Valid options are documented in
 193:Generated_Source\PSoC4/D5.c **** *  \ref intrMode.
 194:Generated_Source\PSoC4/D5.c **** *
 195:Generated_Source\PSoC4/D5.c **** * \return 
 196:Generated_Source\PSoC4/D5.c **** *  None
 197:Generated_Source\PSoC4/D5.c **** *  
 198:Generated_Source\PSoC4/D5.c **** * \sideeffect
 199:Generated_Source\PSoC4/D5.c **** *  It is recommended that the interrupt be disabled before calling this 
 200:Generated_Source\PSoC4/D5.c **** *  function to avoid unintended interrupt requests. Note that the interrupt
 201:Generated_Source\PSoC4/D5.c **** *  type is port wide, and therefore will trigger for any enabled pin on the 
 202:Generated_Source\PSoC4/D5.c **** *  port.
 203:Generated_Source\PSoC4/D5.c **** *
 204:Generated_Source\PSoC4/D5.c **** * \funcusage
 205:Generated_Source\PSoC4/D5.c **** *  \snippet D5_SUT.c usage_D5_SetInterruptMode
 206:Generated_Source\PSoC4/D5.c **** *******************************************************************************/
 207:Generated_Source\PSoC4/D5.c **** void D5_SetInterruptMode(uint16 position, uint16 mode)
 208:Generated_Source\PSoC4/D5.c **** {
 455              		.loc 1 208 0
 456              		.cfi_startproc
 457              		@ args = 0, pretend = 0, frame = 0
 458              		@ frame_needed = 0, uses_anonymous_args = 0
 459              		@ link register save eliminated.
 460              	.LVL4:
 209:Generated_Source\PSoC4/D5.c ****     uint32 intrCfg;
 210:Generated_Source\PSoC4/D5.c ****     
 211:Generated_Source\PSoC4/D5.c ****     intrCfg =  D5_INTCFG & (uint32)(~(uint32)position);
 461              		.loc 1 211 0
 462 0000 034A     		ldr	r2, .L14
 212:Generated_Source\PSoC4/D5.c ****     D5_INTCFG = intrCfg | ((uint32)position & (uint32)mode);
 213:Generated_Source\PSoC4/D5.c **** }
 463              		.loc 1 213 0
 464              		@ sp needed
 211:Generated_Source\PSoC4/D5.c ****     D5_INTCFG = intrCfg | ((uint32)position & (uint32)mode);
 465              		.loc 1 211 0
 466 0002 1368     		ldr	r3, [r2]
 467              	.LVL5:
 212:Generated_Source\PSoC4/D5.c ****     D5_INTCFG = intrCfg | ((uint32)position & (uint32)mode);
ARM GAS  C:\Users\gjl\AppData\Local\Temp\cc0Q84Wg.s 			page 28


 468              		.loc 1 212 0
 469 0004 8343     		bics	r3, r0
 470              	.LVL6:
 471 0006 0840     		ands	r0, r1
 472              	.LVL7:
 473 0008 1843     		orrs	r0, r3
 474 000a 1060     		str	r0, [r2]
 475              		.loc 1 213 0
 476 000c 7047     		bx	lr
 477              	.L15:
 478 000e C046     		.align	2
 479              	.L14:
 480 0010 0C010440 		.word	1074004236
 481              		.cfi_endproc
 482              	.LFE4:
 483              		.size	D5_SetInterruptMode, .-D5_SetInterruptMode
 484              		.section	.text.D5_ClearInterrupt,"ax",%progbits
 485              		.align	1
 486              		.global	D5_ClearInterrupt
 487              		.code	16
 488              		.thumb_func
 489              		.type	D5_ClearInterrupt, %function
 490              	D5_ClearInterrupt:
 491              	.LFB5:
 214:Generated_Source\PSoC4/D5.c **** 
 215:Generated_Source\PSoC4/D5.c **** 
 216:Generated_Source\PSoC4/D5.c **** /*******************************************************************************
 217:Generated_Source\PSoC4/D5.c **** * Function Name: D5_ClearInterrupt
 218:Generated_Source\PSoC4/D5.c **** ****************************************************************************//**
 219:Generated_Source\PSoC4/D5.c **** *
 220:Generated_Source\PSoC4/D5.c **** * \brief Clears any active interrupts attached with the component and returns 
 221:Generated_Source\PSoC4/D5.c **** *  the value of the interrupt status register allowing determination of which
 222:Generated_Source\PSoC4/D5.c **** *  pins generated an interrupt event.
 223:Generated_Source\PSoC4/D5.c **** *
 224:Generated_Source\PSoC4/D5.c **** * \return 
 225:Generated_Source\PSoC4/D5.c **** *  The right-shifted current value of the interrupt status register. Each pin 
 226:Generated_Source\PSoC4/D5.c **** *  has one bit set if it generated an interrupt event. For example, bit 0 is 
 227:Generated_Source\PSoC4/D5.c **** *  for pin 0 and bit 1 is for pin 1 of the Pins component.
 228:Generated_Source\PSoC4/D5.c **** *  
 229:Generated_Source\PSoC4/D5.c **** * \sideeffect
 230:Generated_Source\PSoC4/D5.c **** *  Clears all bits of the physical port's interrupt status register, not just
 231:Generated_Source\PSoC4/D5.c **** *  those associated with the Pins component.
 232:Generated_Source\PSoC4/D5.c **** *
 233:Generated_Source\PSoC4/D5.c **** * \funcusage
 234:Generated_Source\PSoC4/D5.c **** *  \snippet D5_SUT.c usage_D5_ClearInterrupt
 235:Generated_Source\PSoC4/D5.c **** *******************************************************************************/
 236:Generated_Source\PSoC4/D5.c **** uint8 D5_ClearInterrupt(void)
 237:Generated_Source\PSoC4/D5.c **** {
 492              		.loc 1 237 0
 493              		.cfi_startproc
 494              		@ args = 0, pretend = 0, frame = 0
 495              		@ frame_needed = 0, uses_anonymous_args = 0
 496              		@ link register save eliminated.
 238:Generated_Source\PSoC4/D5.c **** 	uint8 maskedStatus = (uint8)(D5_INTSTAT & D5_MASK);
 497              		.loc 1 238 0
 498 0000 0823     		movs	r3, #8
 499 0002 034A     		ldr	r2, .L17
ARM GAS  C:\Users\gjl\AppData\Local\Temp\cc0Q84Wg.s 			page 29


 239:Generated_Source\PSoC4/D5.c **** 	D5_INTSTAT = maskedStatus;
 240:Generated_Source\PSoC4/D5.c ****     return maskedStatus >> D5_SHIFT;
 241:Generated_Source\PSoC4/D5.c **** }
 500              		.loc 1 241 0
 501              		@ sp needed
 238:Generated_Source\PSoC4/D5.c **** 	uint8 maskedStatus = (uint8)(D5_INTSTAT & D5_MASK);
 502              		.loc 1 238 0
 503 0004 1068     		ldr	r0, [r2]
 504 0006 1840     		ands	r0, r3
 505              	.LVL8:
 239:Generated_Source\PSoC4/D5.c **** 	D5_INTSTAT = maskedStatus;
 506              		.loc 1 239 0
 507 0008 1060     		str	r0, [r2]
 240:Generated_Source\PSoC4/D5.c **** }
 508              		.loc 1 240 0
 509 000a C008     		lsrs	r0, r0, #3
 510              	.LVL9:
 511 000c C0B2     		uxtb	r0, r0
 512              		.loc 1 241 0
 513 000e 7047     		bx	lr
 514              	.L18:
 515              		.align	2
 516              	.L17:
 517 0010 10010440 		.word	1074004240
 518              		.cfi_endproc
 519              	.LFE5:
 520              		.size	D5_ClearInterrupt, .-D5_ClearInterrupt
 521              		.text
 522              	.Letext0:
 523              		.file 2 "Generated_Source\\PSoC4\\cytypes.h"