ARM GAS  C:\Users\Greg\AppData\Local\Temp\ccj3BVIE.s 			page 1


   1              		.syntax unified
   2              		.cpu cortex-m0
   3              		.fpu softvfp
   4              		.eabi_attribute 20, 1
   5              		.eabi_attribute 21, 1
   6              		.eabi_attribute 23, 3
   7              		.eabi_attribute 24, 1
   8              		.eabi_attribute 25, 1
   9              		.eabi_attribute 26, 1
  10              		.eabi_attribute 30, 4
  11              		.eabi_attribute 34, 0
  12              		.eabi_attribute 18, 4
  13              		.thumb
  14              		.syntax unified
  15              		.file	"D9.c"
  16              		.text
  17              	.Ltext0:
  18              		.section	.gnu.lto_.profile.edc6a7e1,"",%progbits
  19 0000 789C6361 		.ascii	"x\234ca`d`a`\000\222\352\212\000\000\331\000S"
  19      60646061 
  19      600092EA 
  19      8A0000D9 
  19      0053
  20              		.text
  21              		.section	.gnu.lto_.icf.edc6a7e1,"",%progbits
  22 0000 789C6361 		.ascii	"x\234ca`d\000\0015\006\004`c\330w`\376\015\016\306\355"
  22      60640001 
  22      35060460 
  22      63D87760 
  22      FE0D0EC6 
  23 0015 FBF7FD67 		.ascii	"\373\367\375ge\232\371y\345\0336\346\323\233\0376\263"
  23      659AF979 
  23      E51B36E6 
  23      D39B1F36 
  23      B3
  24 0026 B2EC3AF4 		.ascii	"\262\354:\364\373\022\037\353\204\311\257/\3612\000"
  24      FB121FEB 
  24      84C9AF2F 
  24      F13200
  25 0035 0072A812 		.ascii	"\000r\250\022\310"
  25      C8
  26              		.text
  27              		.section	.gnu.lto_.jmpfuncs.edc6a7e1,"",%progbits
  28 0000 789C45C9 		.ascii	"x\234E\311\261\001\000 \010\300\260\026\320+\374\225"
  28      B1010020 
  28      08C0B016 
  28      D02BFC95 
  29 0010 D795C90C 		.ascii	"\327\225\311\014]Z\3108|\033\265\235\004$Thv\257\367"
  29      5D5AC838 
  29      7C1BB59D 
  29      04245468 
  29      76AFF7
  30 0023 2E215502 		.ascii	".!U\002@"
  30      40
  31              		.text
  32              		.section	.gnu.lto_.inline.edc6a7e1,"",%progbits
  33 0000 789C658D 		.ascii	"x\234e\215\311\015\2000\014\004\327\216\343\030\011"
ARM GAS  C:\Users\Greg\AppData\Local\Temp\ccj3BVIE.s 			page 2


  33      C90D8030 
  33      0C04D78E 
  33      E31809
  34 000f 093A4807 		.ascii	"\011:H\007\224@\245<R\012%P\012%`\203\004B\231\307>"
  34      9440A53C 
  34      520A2550 
  34      0A256083 
  34      044299C7 
  35 0024 767C0808 		.ascii	"v|\010\010\301\206\017\005\254\020\301\\%\333Wh\253"
  35      C1860F05 
  35      AC10C15C 
  35      25DB5768 
  35      AB
  36 0035 0C3E2609 		.ascii	"\014>&\011K\030\254\223\322\352-\031\232\011\254\347"
  36      4B18AC93 
  36      D2EA2D19 
  36      9A09ACE7 
  37 0045 F2F44EEA 		.ascii	"\362\364N\352+\211\023\214\331OP\204\374\237x\2141\226"
  37      2B89138C 
  37      D94F5084 
  37      FC9F788C 
  37      3196
  38 0057 51D4375F 		.ascii	"Q\3247_\031\\\353\300\017\342"
  38      195CEBC0 
  38      0FE2
  39              		.text
  40              		.section	.gnu.lto_.pureconst.edc6a7e1,"",%progbits
  41 0000 789C6361 		.ascii	"x\234ca`d\340e```c\220b\224b\222b\226b\221b\225\002"
  41      6064E065 
  41      60606063 
  41      90629462 
  41      92629662 
  42 0018 00059500 		.ascii	"\000\005\225\000\304"
  42      C4
  43              		.text
  44              		.section	.gnu.lto_D9_SetDriveMode.edc6a7e1,"",%progbits
  45 0000 789C7D51 		.ascii	"x\234}QM(DQ\030\375\316\275o\336\220\260U^Q\026\262"
  45      4D284451 
  45      18FDCEBD 
  45      6FDE90B0 
  45      555E5116 
  46 0015 9162634D 		.ascii	"\221bcM\331\212-I\274%Sb\355\316</\262\"Q\026\262\232"
  46      D98A2D49 
  46      BC255362 
  46      EDCE3C2F 
  46      B2225116 
  47 002b FCFFA508 		.ascii	"\374\377\245\010\251i\304\222\222\330!\352\025\253\361"
  47      A969C492 
  47      92D821EA 
  47      15ABF1
  48 003a 57129EEF 		.ascii	"W\022\236\357{3k\267\356\367}\367t\316\351\334{-\002"
  48      7B336BB7 
  48      EEF77DF7 
  48      74CEE9DC 
  48      7B2D02
  49 004d C93AE156 		.ascii	"\311:\341V\303\275\22274AM\235\023%\213\024 \203)\002"
  49      C3BD9237 
ARM GAS  C:\Users\Greg\AppData\Local\Temp\ccj3BVIE.s 			page 3


  49      34414D9D 
  49      13258B14 
  49      20832902 
  50 0061 8D2A8CE2 		.ascii	"\215*\214\342C\375(d\307\203\003U\267dx\335\373A{\322"
  50      43FD2864 
  50      C7830355 
  50      B76478DD 
  50      FB417BD2 
  51 0075 F815BE26 		.ascii	"\370\025\276&\012U\344DXB\035\263\336v\3233%\272\012"
  51      0A55E444 
  51      58421DB3 
  51      DE76D333 
  51      25BA0A
  52 0088 C4F3CB79 		.ascii	"\304\363\313y\356\266\2546mL\312\230\351n\243}\015,"
  52      EEB6AC36 
  52      6D4CCA98 
  52      E96EA37D 
  52      0D2C
  53 009a 43B3028D 		.ascii	"C\263\002\215\016\032\034b\200\260\202Z!?\354\374\316"
  53      0E1A1C62 
  53      80B0825A 
  53      213FECFC 
  53      CE
  54 00ab 96DA6362 		.ascii	"\226\332cb_\2357\305*l\211\271\325\2211a\350\231\314"
  54      5F9D37C5 
  54      2A6C89B9 
  54      D5913161 
  54      E899CC
  55 00be AE7DBA67 		.ascii	"\256}\272g\027+\226)-\305\202\210c2\332R\342R\210r\274"
  55      172B9629 
  55      2DC58288 
  55      6332DA52 
  55      E2528872 
  56 00d3 25FE8B52 		.ascii	"%\376\213R\322u\200\354\327\344\365\274-~\236\226\253"
  56      D27580EC 
  56      D7E4F5BC 
  56      2D7E9E96 
  56      AB
  57 00e4 CCF9D98B 		.ascii	"\314\371\331\213\370\273\362\265\216r\256<\335\034\227"
  57      F8BBF2B5 
  57      8E72AE3C 
  57      DD1C97
  58 00f3 E68F1366 		.ascii	"\346\217\023f\312X\014]\336\036\335\351E,$\307\340k"
  58      CA580C5D 
  58      DE1EDDE9 
  58      452C24C7 
  58      E06B
  59 0105 0BEB70B0 		.ascii	"\013\353p\260\006\2073m`\021\024\300\373.\330\351\274"
  59      0687336D 
  59      601114C0 
  59      FB2ED8E9 
  59      BC
  60 0116 E3D5EBD3 		.ascii	"\343\325\353\323\216\022\013\205\3601\014\313\261\311"
  60      8E120B85 
  60      F0310CCB 
  60      B1C9
  61 0124 EC00A9D7 		.ascii	"\354\000\251\327x\236\026\363\264%\262\\A&\020\313\326"
ARM GAS  C:\Users\Greg\AppData\Local\Temp\ccj3BVIE.s 			page 4


  61      789E16F3 
  61      B425B25C 
  61      412610CB 
  61      D6
  62 0135 F6D28710 		.ascii	"\366\322\207\020Y\014\305\330\212$\336g\201\022\217"
  62      590CC5D8 
  62      8A24DE67 
  62      81128F
  63 0144 CC6D86B2 		.ascii	"\314m\206\262s\020\350\277X\333\034\213%\364\214Tf\377"
  63      7310E8BF 
  63      58DB1C8B 
  63      25F48C54 
  63      66FF
  64 0156 4C093DFA 		.ascii	"L\011=\372\225\234\202\274\001\277\210\323\346\016\272"
  64      959C82BC 
  64      01BF88D3 
  64      E60EBA
  65 0165 43BDC36E 		.ascii	"C\275\303n\177Ogbd\250\317\355j\357L\2644u\2656\327"
  65      7F4F6762 
  65      64A8CFED 
  65      6AEF4CB4 
  65      3475B536 
  66 017a F7913590 		.ascii	"\367\2215\220\350w\377\000\217\231\235S"
  66      E877FF00 
  66      8F999D53 
  67              		.text
  68              		.section	.gnu.lto_D9_Write.edc6a7e1,"",%progbits
  69 0000 789C5551 		.ascii	"x\234UQMkSA\024\275g\346}\225\230_`\300nB\251\013)\350"
  69      4D6B5341 
  69      14BD67E6 
  69      7D95985F 
  69      60C06E42 
  70 0018 46B70ADD 		.ascii	"F\267\012\335\212\005WA\011\355[\010\301B\260]\332I"
  70      8A055741 
  70      09ED5B08 
  70      C142B05D 
  70      DA49
  71 002a D2245041 		.ascii	"\322$PA\352\302\352\306t!\232\372\231VA\020\\<\037B"
  71      EAC2EAC6 
  71      74219AFA 
  71      99564110 
  71      5C3C1F42 
  72 003e 375211C5 		.ascii	"7R\021\305\017Z\212V\214\350*\026KK\261\306{\337l\232"
  72      0F5A8A56 
  72      8CE82A16 
  72      4B4BB1C6 
  72      7BDF6C9A 
  73 0052 E1BD9979 		.ascii	"\341\275\231y\347\235s\346\334;\016\201d\\PD\207y=\310"
  73      E79D73E6 
  73      DC3B0E81 
  73      645C5044 
  73      87793DC8 
  74 0066 2F3441CD 		.ascii	"/4A\315\256\020\225\002\005\310\306\004\240)\205)l\251"
  74      AE109502 
  74      05C8C604 
  74      A0298529 
  74      6CA9
ARM GAS  C:\Users\Greg\AppData\Local\Temp\ccj3BVIE.s 			page 5


  75 0078 3D85B8DE 		.ascii	"=\205\270\336~\256\006\233\206\307\227\357\333Cf!BU"
  75      7EAE069B 
  75      86C797EF 
  75      DB436621 
  75      4255
  76 008a 137555E2 		.ascii	"\023uU\342Dhb\220Y?^\324\337C\037\002\361\276\026ou"
  76      44686290 
  76      593F5ED4 
  76      DF431F02 
  76      F1BE166F 
  77 009f 5203778C 		.ascii	"R\003w\214)\033\263\2323\272\252\201\005hV\340h\006"
  77      291BB39A 
  77      33BAAA81 
  77      056856E0 
  77      6806
  78 00b1 43196280 		.ascii	"C\031b\200p\017\003B\376\031_)\350l\242[~v\255\213\354"
  78      700F0342 
  78      FE195F29 
  78      E86CA25B 
  78      7E76AD8B 
  79 00c6 6DD145EF 		.ascii	"m\321E\357\226\3237LT\352\027\355\375\375Z\031\314\335"
  79      96D3374C 
  79      54EA17ED 
  79      FDFD5A19 
  79      CCDD
  80 00d8 58FA773D 		.ascii	"X\372w=\355MK\252~<@\326\346\301Cx\\!\004i\235\211L"
  80      ED4D4BAA 
  80      7E3C40D6 
  80      E6C14378 
  80      5C210469 
  81 00ef B75B31D1 		.ascii	"\267[1\321[\377\345'?\245\370T\245y\322\016\311o\027"
  81      5BFFE527 
  81      3FA5F854 
  81      A579D20E 
  81      C96F17
  82 0102 92C013C0 		.ascii	"\222\300\023\300\227)H\320>a\021u\370\225N\374VJV\335"
  82      972948D0 
  82      3E611175 
  82      F8954EFC 
  82      564A56DD 
  83 0116 46BC3BB3 		.ascii	"F\274;\263\322\230\024\377\212\226\256\314U\3437\376"
  83      D29814FF 
  83      8A96AECC 
  83      55E337FE 
  84 0126 1F55D54E 		.ascii	"\037U\325N\022}u\247\265\227\262\237\306\314\032\207"
  84      127D75A7 
  84      B597B29F 
  84      C6CC1A87 
  85 0136 A1E6CDD7 		.ascii	"\241\346\315\327\227\347q\2534\315\355r\361\030\031"
  85      97E771AB 
  85      34CDED72 
  85      F11819
  86 0145 3C02C747 		.ascii	"<\002\307G\013\363\2406\312\233\3655e\3754[2R\371[["
  86      0BF3A036 
  86      CA9BF535 
  86      65FD345B 
  86      3252F95B 
ARM GAS  C:\Users\Greg\AppData\Local\Temp\ccj3BVIE.s 			page 6


  87 015a 83451C06 		.ascii	"\203E\034\006\331b\375\333\335W\020W\215m`\221\345\033"
  87      D962FDDB 
  87      DD571057 
  87      8D6D6091 
  87      E51B
  88 016c 48341295 		.ascii	"H4\022\225Y\"\352\324>4\316Y\025?\256\\\330\346b\363"
  88      5922EAD4 
  88      3E34CE59 
  88      153FAE5C 
  88      D8E662F3 
  89 0180 80A83C68 		.ascii	"\200\250<h,\261\250\307\332g\036\223fv?^\015\204\004"
  89      2CB1A8C7 
  89      DA671E93 
  89      66763F5E 
  89      0D8404
  90 0193 04786249 		.ascii	"\004xbI;\236\245\004I\000\277\367\260\300f^o\234\260"
  90      3B9EA504 
  90      4900BFF7 
  90      B0C0665E 
  90      6F9CB0
  91 01a6 A43E0BC5 		.ascii	"\244>\013\305s_\323\002\354/\270dL\252\267\346\247\\"
  91      735FD302 
  91      EC2FB864 
  91      4CAAB7E6 
  91      A75C
  92 01b8 334BE817 		.ascii	"3K\350\027\312\321\347a\341'\367\330Q\220\366r\2633"
  92      CAD1E761 
  92      E127F7D8 
  92      5190F672 
  92      B333
  93 01ca C3E1C5B0 		.ascii	"\303\341\305\260\230\277\024\216\235\037\031\237(\216"
  93      98BF148E 
  93      9D1F199F 
  93      288E
  94 01d8 86B9D323 		.ascii	"\206\271\323#\343'\217\345N\035?2J\356d\2760\021\272"
  94      E3278FE5 
  94      4E1D3F32 
  94      4AEE64BE 
  94      3011BA
  95 01eb 63C5B3F9 		.ascii	"c\305\263\371\302\177\037\202\321\342"
  95      C27F1F82 
  95      D1E2
  96              		.text
  97              		.section	.gnu.lto_D9_Read.edc6a7e1,"",%progbits
  98 0000 789C2D8F 		.ascii	"x\234-\217\277KBQ\024\307\317\367\336\247=\244\376\202"
  98      BF4B4251 
  98      14C7CFF7 
  98      DEA73DA4 
  98      FE82
  99 0012 1ED1EA12 		.ascii	"\036\321\352\022A-N\015E\255\221[\010\021\366\326\004"
  99      412D4E0D 
  99      45AD915B 
  99      0811F6D6 
  99      04
 100 0023 A9D9ABCF 		.ascii	"\251\331\253\317g\020\015.\325\024BCj?\250(ZZL\202\202"
 100      67100D2E 
 100      D5144243 
ARM GAS  C:\Users\Greg\AppData\Local\Temp\ccj3BVIE.s 			page 7


 100      6A3FA828 
 100      5A5A4C82 
 101 0038 289B82A6 		.ascii	"(\233\202\246\"\302\241\251\304\010\242\262s\324\003"
 101      22C2A1A9 
 101      C408A2B2 
 101      73D403
 102 0047 F79C7BCF 		.ascii	"\367\234{\317\375\334\357\367\\\213@\022c\\\006\270"
 102      FDDCEFF7 
 102      5C8B4012 
 102      635C06B8 
 103 0057 F6F38226 		.ascii	"\366\363\202&\250\374\035Q\332V\200l\214\015J)\244\360"
 103      A8FC1D51 
 103      DA56806C 
 103      8C0D4A29 
 103      A4F0
 104 0069 A97E156E 		.ascii	"\251~\025n\276\256\327B\341\2421\031\363\354\357D6K"
 104      BEAED742 
 104      E1A23119 
 104      F3ECEF44 
 104      364B
 105 007b 15F89AA8 		.ascii	"\025\370\232\250\245\010#\016\206\035\221(\"L\214\276"
 105      A508230E 
 105      861D9128 
 105      224C8CBE 
 106 008b 1CFFADF7 		.ascii	"\034\377\255\367\005\263\206cP\000\276)!(\226\2073\025"
 106      05B38663 
 106      5000BE29 
 106      21289687 
 106      3315
 107 009d D36A79A6 		.ascii	"\323jy\246r\022\2728\013q\313\327\354\313\311\222\024"
 107      7212BA38 
 107      0B71CBD7 
 107      ECCBC992 
 107      14
 108 00ae 2051A477 		.ascii	" Q\244w~!\376\037JI\325uT\277W\037\312\263\"\342i\315"
 108      7E21FE1F 
 108      4A49D575 
 108      54BF571F 
 108      CAB322E2 
 109 00c4 061B7EB5 		.ascii	"\006\033~\265\326\323T\276V\020\277\247\332y\276{\314"
 109      D6D354BE 
 109      5610BFA7 
 109      DA79BE7B 
 109      CC
 110 00d5 9ABCB1B8 		.ascii	"\232\274\261\270\265\375x\177\253\013\330JgyJ\215]8"
 110      B5FD787F 
 110      AB0BD84A 
 110      67794A8D 
 110      5D38
 111 00e7 288367C4 		.ascii	"(\203g\304\036\012\240:\274\306$y\032\035\271j\343\250"
 111      1E0AA03A 
 111      BCC62479 
 111      1A1DB96A 
 111      E3A8
 112 00f9 D82BEF2D 		.ascii	"\330+\357-h\3543\306\367?\271\246\3251\264\230c\350"
 112      68EC33C6 
 112      F73FB9A6 
ARM GAS  C:\Users\Greg\AppData\Local\Temp\ccj3BVIE.s 			page 8


 112      D531B498 
 112      63E8
 113 010b F4F22A67 		.ascii	"\364\362*g\013\004\216\2036\224i\254\274\242\003\005"
 113      0B048E83 
 113      369469AC 
 113      BCA20305 
 114 011b 98A337A8 		.ascii	"\230\2437\250\356\211\332\337\200\214\317\237q\246\334"
 114      EE89DADF 
 114      808CCF9F 
 114      71A6DC
 115 012a 453739BF 		.ascii	"E79\277\344.\314E\023\313\311\270\033\233\216&\306G"
 115      E42ECC45 
 115      13CBC9B8 
 115      1B9B8E26 
 115      C647
 116 013c 631391A1 		.ascii	"c\023\221\2418\375\003c\252r\243"
 116      38FD0363 
 116      AA72A3
 117              		.text
 118              		.section	.gnu.lto_D9_ReadDataReg.edc6a7e1,"",%progbits
 119 0000 789C2D8F 		.ascii	"x\234-\217MKBA\024\206\317;s5\311\372\005]\242\255\233"
 119      4D4B4241 
 119      1486CF3B 
 119      7335C9FA 
 119      055DA2AD 
 120 0015 086AE3A6 		.ascii	"\010j\343\246MQ\333\310]\010\021v\267\011R\333\034\275"
 120      4D51DBC8 
 120      5D081176 
 120      B70952DB 
 120      1CBD
 121 0027 5E8368E1 		.ascii	"^\203h\341\246\017\210r\251\225aQ?\300$((\352\007\264"
 121      A60F8872 
 121      A9956151 
 121      3FC02428 
 121      28EA07B4 
 122 003b 890817AD 		.ascii	"\211\010\027\255J\354\203\310\354\034o\007\346\234\231"
 122      4AEC83C8 
 122      EC1C6F07 
 122      E69C99
 123 004a 33CFBCEF 		.ascii	"3\317\274\357\031\213@\022\343\\\006\271\016\360\202"
 123      198B4012 
 123      E35C06B9 
 123      0EF082
 124 0059 26A8C21D 		.ascii	"&\250\302\035Q&\244\000\331\230\020(\255\220\306\273"
 124      5126A400 
 124      D9981028 
 124      AD90C6BB 
 125 0069 6A2BDC7C 		.ascii	"j+\334|^o\364FJ\306d\315\243w\026\335.\327\340i\242"
 125      5E6FF446 
 125      4AC664CD 
 125      A37716DD 
 125      2ED7E069 
 126 007e 8E228CDA 		.ascii	"\216\"\214\332\030\261E\242\204\0101\372t\372\273\331"
 126      18B145A2 
 126      840831FA 
 126      74FABBD9 
 127 008e 1FCC198E 		.ascii	"\037\314\031\216!\001\370\246\214\240XVgk\246\323qM"
ARM GAS  C:\Users\Greg\AppData\Local\Temp\ccj3BVIE.s 			page 9


 127      2101F8A6 
 127      8CA05856 
 127      676BA6D3 
 127      714D
 128 00a0 6D377CB1 		.ascii	"m7|\261\037\346\226\247\331\227\223%)@\242H\257\374"
 128      1FE696A7 
 128      D9979325 
 128      2940A248 
 128      AFFC
 129 00b2 42FCDF94 		.ascii	"B\374\337\224\222\252\033\250\177\257\177T\346D\304"
 129      92AA1BA8 
 129      7FAF7F54 
 129      E644C4
 130 00c1 D59A0DB6 		.ascii	"\325\232\015\266\274\372}OKyZA\374\036\276\252\355\260"
 130      BCFA7D4F 
 130      4B795A41 
 130      FC1EBEAA 
 130      EDB0
 131 00d3 7F34A660 		.ascii	"\1774\246`,n\225vnW\213\330\313\344xH\215C\3308\000"
 131      2C6E9576 
 131      6E578BD8 
 131      CBE47848 
 131      8D43D838 
 132 00e8 8F882314 		.ascii	"\217\210#\024A\015\270\315)r5|\265z\363\244\324'\317"
 132      410DB8CD 
 132      2972357C 
 132      B57AF3A4 
 132      D427CF
 133 00fb 2D685418 		.ascii	"-hT\030\343\373\237|\313\362\375,\346\030:\277\274\312"
 133      E3FB9F7C 
 133      CBF2FD2C 
 133      E6183ABF 
 133      BCCA
 134 010d 870402C7 		.ascii	"\207\004\002\307q\027\3126\327\236\341C\001\346\350"
 134      7117CA36 
 134      D79EE143 
 134      01E6E8
 135 011c 05EAFF44 		.ascii	"\005\352\377D\335_@\246\347\277\330\323\316\222\223"
 135      DD5F40A6 
 135      E7BFD8D3 
 135      CE9293
 136 012b 5A587616 		.ascii	"ZXv\026\347c\311\225T\302\211\317\304\222\023c\361\311"
 136      E763C995 
 136      54C289CF 
 136      C4921363 
 136      F1C9
 137 013d E87082FE 		.ascii	"\350p\202\376\000\037\316r\230"
 137      001FCE72 
 137      98
 138              		.text
 139              		.section	.gnu.lto_D9_SetInterruptMode.edc6a7e1,"",%progbits
 140 0000 789C6D51 		.ascii	"x\234mQKh\023Q\024\275\367\275If\222\264\023\367\006"
 140      4B681351 
 140      14BDF7BD 
 140      496692B4 
 140      13F706
 141 0013 CCA6C42E 		.ascii	"\314\246\304.\024\204n\\Wp'\305n\013R\332(\021\314H"
ARM GAS  C:\Users\Greg\AppData\Local\Temp\ccj3BVIE.s 			page 10


 141      14846E5C 
 141      577027C5 
 141      6E0B52DA 
 141      2811CC48 
 142 0027 8CEBBE64 		.ascii	"\214\353\276d\362\201\"R\254\006,\226BeH\265j\277\012"
 142      F2812252 
 142      AC062C96 
 142      426548B5 
 142      6ABF0A
 143 003a 663506DC 		.ascii	"f5\006\334\325O-E\252 Z5\205\342\"\255\025E\264\361"
 143      D54F2D45 
 143      AA205A35 
 143      85E222AD 
 143      1545B4F1 
 144 004e DE996C0A 		.ascii	"\336\231l\012>\230y\357\036\3169\357\334\3734@\340U"
 144      3E9879EF 
 144      1ECE39EF 
 144      DCFB3440 
 144      E055
 145 0060 15003DB4 		.ascii	"\025\000=\264\037\246\017%\240\030{\011\2203\004\"\037"
 145      1FA60F25 
 145      A0187B09 
 145      90330422 
 145      1F
 146 0071 94813022 		.ascii	"\224\2010\"p\004\177\210\277\002\353\345\306S\321]U"
 146      70047F88 
 146      BF02EBE5 
 146      C653D15D 
 146      55
 147 0082 B43E7EDD 		.ascii	"\264>~\335:\241f\\,J\200\226\360\234\000\253\330M\254"
 147      3AA1665C 
 147      2C4A8096 
 147      F09C00AB 
 147      D84DAC
 148 0095 E7AD9F6E 		.ascii	"\347\255\237ntO\024%\"\213\3364W&#\\\012<D\345\304\266"
 148      744F1425 
 148      228BDE34 
 148      5726235C 
 148      0A3C44E5 
 149 00ab 5331E511 		.ascii	"S1\345\021\004:o-O\277\015'\034\245\362J\215\017\252"
 149      043A6F2D 
 149      4FBF0D27 
 149      1CA5F24A 
 149      8D0FAA
 150 00be 40514ABC 		.ascii	"@QJ\274\217\222\374\360\036\306p\006c@\020\340,&\210"
 150      8F92FCF0 
 150      1EC67006 
 150      634010E0 
 150      2C2688
 151 00d1 FD7DC919 		.ascii	"\375}\311\031\217\310\243\236r\327v\354\216\266r\275"
 151      8FC8A39E 
 151      72D776EC 
 151      8EB672BD 
 152 00e1 AD7CF01F 		.ascii	"\255|\360\037\345CL0}\2650\177G\372\2214*w^L|6\375H"
 152      E5434C30 
 152      7DB5307F 
 152      47FA9134 
ARM GAS  C:\Users\Greg\AppData\Local\Temp\ccj3BVIE.s 			page 11


 152      2A775E4C 
 153 00f9 712A679D 		.ascii	"q*g\235uG\310c\236\361\350\306\215\305\316\256\273l"
 153      7547C863 
 153      9EF1E8C6 
 153      8DC5CEAE 
 153      BB6C
 154 010b ECAE5D37 		.ascii	"\354\256]7o+\267\020/J\015\347}\36392\177D\346\274\210"
 154      6F2BB710 
 154      2F4A0DE7 
 154      7DF33932 
 154      7F44E6BC 
 155 0120 BDB9B07F 		.ascii	"\275\271\260\177\2533X\340\201\304q\001\273\374Q\340"
 155      AB3358E0 
 155      81C47101 
 155      BBFC51E0 
 156 0130 220669B8 		.ascii	"\"\006i\270\310\310\334YW\265Z\266rW\315g\357\314\016"
 156      C8C8DC59 
 156      57B55AB6 
 156      7257CD67 
 156      EFCC0E
 157 0143 41B10294 		.ascii	"A\261\002\224\202:\322\370\030\340_\020\230\251#\247"
 157      823AD2F8 
 157      18E05F10 
 157      98A923A7 
 158 0153 35080886 		.ascii	"5\010\010\206\030\015\363\017\240I\216\374\022;B\360"
 158      180DF30F 
 158      A0498EFC 
 158      123B42F0 
 159 0163 2E1B58FF 		.ascii	".\033X\377=\372\241\326\307\227\330\222\007\\)\326_"
 159      3DFAA1D6 
 159      C797D892 
 159      075C29D6 
 159      5F
 160 0174 E9DC8DEE 		.ascii	"\351\334\215\356uP\236^\273\350W\327\324\230\342v\325"
 160      75509E5E 
 160      BBE857D7 
 160      D498E276 
 160      D5
 161 0185 CD8DD7D1 		.ascii	"\315\215\327\321)\234\314\025\350\271\014\\\246\036"
 161      299CCC15 
 161      E8B90C5C 
 161      A61E
 162 0193 96B8077C 		.ascii	"\226\270\007|\214S\010\015\314\357\226\3674\337O\263"
 162      8C53080D 
 162      CCEF96F7 
 162      34DF4FB3 
 163 01a3 696A84EC 		.ascii	"ij\204\354\227\276H\037\011\020H\210\375\247\364\015"
 163      97BE481F 
 163      09104888 
 163      FDA7F40D 
 164 01b3 7D84AF25 		.ascii	"}\204\257%\0346Qx\235Rv\002}N\243Vk\263\014r\262\245"
 164      1C365178 
 164      9D527602 
 164      7D4EA356 
 164      6BB30C72 
 165 01c9 EED9EB3E 		.ascii	"\356\331\353>\024\"\224i\277J+m\363\260\347\026\"\260"
 165      14229469 
ARM GAS  C:\Users\Greg\AppData\Local\Temp\ccj3BVIE.s 			page 12


 165      BF4A2B6D 
 165      F3B0E716 
 165      22B0
 166 01db 5EF91465 		.ascii	"^\371\024e\354@\334\234R\221\203\211\237Pb\222\3016"
 166      EC40DC9C 
 166      52918389 
 166      9F506292 
 166      C136
 167 01ed E6DDF767 		.ascii	"\346\335\367gX\340=ES \017\207F\025;\235L'3\203\331"
 167      58E03D45 
 167      53200F87 
 167      46153B9D 
 167      4C273383 
 168 0202 E4F0B97E 		.ascii	"\344\360\271~\353jf(9\320\327o\365\366\014\234:y|\010"
 168      EB6A6628 
 168      39D0D76F 
 168      F5F60C9C 
 168      3A797C08 
 169 0216 8CCBD695 		.ascii	"\214\313\326\225T6e\245\265K\326pRO\245\263\231\336"
 169      543665A5 
 169      B54BD670 
 169      524FA5B3 
 169      99DE
 170 0228 F317FE01 		.ascii	"\363\027\376\001\240\344\352\202"
 170      A0E4EA82 
 171              		.text
 172              		.section	.gnu.lto_D9_ClearInterrupt.edc6a7e1,"",%progbits
 173 0000 789C5590 		.ascii	"x\234U\220\315K\033Q\024\305\357yo&\031J\304?\300@\335"
 173      CD4B1B51 
 173      14C5EF79 
 173      6F26194A 
 173      C43FC040 
 174 0015 B810A108 		.ascii	"\270\020\241\010vQ\273U\350V\314V\220\240\263*6\220"
 174      7651BB55 
 174      E856CC56 
 174      90A0B32A 
 174      3690
 175 0027 C46DF3C6 		.ascii	"\304m\363\3068*\"\230\215\012\205\342\242`l\375\210"
 175      382A2298 
 175      8D0A85E2 
 175      A2606CFD 
 175      88
 176 0038 16DC2829 		.ascii	"\026\334()\323P\244\244\330B\367\205b!\224BAS?\300\257"
 176      D350A4A4 
 176      D842F785 
 176      62219442 
 176      41533FC0 
 177 004d 786FA60B 		.ascii	"xo\246\013}0\274\367\316\334\363{\347^\213@\262~\360"
 177      7D30BCF7 
 177      CEDCF37B 
 177      E75E8B40 
 177      B27EF0
 178 0060 D6C57B1B 		.ascii	"\326\305{\033\177\320\004U\370J\3449\012\220\203q@9"
 178      7FD00455 
 178      F84AE439 
 178      0A908371 
 178      4039
ARM GAS  C:\Users\Greg\AppData\Local\Temp\ccj3BVIE.s 			page 13


 179 0072 851C4ED5 		.ascii	"\205\034N\325\265\302\227\363\317s\017:\213\306L\230"
 179      B5C297F3 
 179      CF730F3A 
 179      8BC64C98 
 180 0082 9FFE79EF 		.ascii	"\237\376y\357\322j\000_\0235\024\241'\216\356\270 \212"
 180      D26A005F 
 180      133514A1 
 180      278EEEB8 
 180      208A
 181 0094 E8242EFD 		.ascii	"\350$.\375\265yYl\321\017!\347\203\225\277;\350x#\266"
 181      B579596C 
 181      D10F21E7 
 181      8395BF3B 
 181      E87823B6 
 182 00a8 A03C1F5B 		.ascii	"\240<\037[2\201\327\316>\254B\337\265\222\324\036n\337"
 182      3281D7CE 
 182      3EAC42DF 
 182      B592D41E 
 182      6EDF
 183 00ba 2CB44426 		.ascii	",\264D&\015\257v\274E\207\300\231\372\016\021\316\011"
 183      0DAF76BC 
 183      4587C099 
 183      FA0E11CE 
 183      09
 184 00cb 514A8381 		.ascii	"QJ\203\201i4\362&\330k\375\370\275\325Q\344k\316\355"
 184      6934F226 
 184      D86BFDF8 
 184      BDD551E4 
 184      6BCEED
 185 00de 6B6591FC 		.ascii	"ke\221\374\266\345\036%\311EG\354\225.\216\225\222]"
 185      B6E51E25 
 185      C94547EC 
 185      952E8E95 
 185      925D
 186 00f0 D750B998 		.ascii	"\327P\271\230=+\277\024\\^KG\213~\345[\364D\371Z7\223"
 186      3D2BBF14 
 186      5C5E4B47 
 186      8B7EE55B 
 186      F444F95A 
 187 0106 EECE94DE 		.ascii	"\356\316\224\336;\341\265`\012\306b\351\367?\257\032"
 187      3BE1B560 
 187      0AC662E9 
 187      F73FAF1A 
 188 0116 59C66B6F 		.ascii	"Y\306ko\222{\265\260\2168\326\300q\261\201eP\015\023"
 188      927BB5B0 
 188      8E38D6C0 
 188      71B18165 
 188      500D13
 189 0129 F5E92B15 		.ascii	"\365\351+\025\00253Y\311_M}B\250X,2\343\325\336I\325"
 189      02353359 
 189      C95F4D7D 
 189      42A8582C 
 189      32E3D5DE 
 190 013f 16AC8283 		.ascii	"\026\254\202\203Mv\037\242i\221\274\\\024Rn\312OC\223"
 190      4D761FA2 
 190      6991BC5C 
 190      14526ECA 
ARM GAS  C:\Users\Greg\AppData\Local\Temp\ccj3BVIE.s 			page 14


 190      4F4393
 191 0152 1D4A95C5 		.ascii	"\035J\225\305&\344^\004\317\030\373~\212\022\247`\213"
 191      26E45E04 
 191      CF18FB7E 
 191      8A12A760 
 191      8B
 192 0163 3C5B9FDA 		.ascii	"<[\237\332\377\360$DD\031\301\306J}\253\030\223wmhl"
 192      FFF02444 
 192      4419C1C6 
 192      4A7DAB18 
 192      93776D68 
 193 0178 71FD1FFC 		.ascii	"q\375\037\374\217\032\245\346x c\341!\305\237\271/\334"
 193      8F1AA5E6 
 193      782063E1 
 193      21C59FB9 
 193      2FDC
 194 018a 7432EB8E 		.ascii	"t2\353\216\016'R\343\351\021wh \221\352{<\324\337\373"
 194      0E2752E3 
 194      E9117768 
 194      2091EA7B 
 194      3CD4DFFB 
 195 019e 68846263 		.ascii	"h\204bc\311\314sw4\221Mf\3073\267O\204\251\212"
 195      C9CC7377 
 195      34914D66 
 195      C733B74F 
 195      84A98A
 196              		.text
 197              		.section	.gnu.lto_.symbol_nodes.edc6a7e1,"",%progbits
 198 0000 789C6361 		.ascii	"x\234ca`d\310`\000\002&\206z\006\206\011\347\030@\324"
 198      6064C860 
 198      00022686 
 198      7A068609 
 198      E71840D4 
 199 0014 AE0645A0 		.ascii	"\256\006E\240\000c=#\252\000S=\023\252\000s=3\252\000"
 199      00633D23 
 199      AA00533D 
 199      13AA0073 
 199      3D33AA00 
 200 0028 4B3D0BAA 		.ascii	"K=\013\252\000k=+\212\000\003\000\305\333\026\342"
 200      006B3D2B 
 200      8A000300 
 200      C5DB16E2 
 201              		.text
 202              		.section	.gnu.lto_.refs.edc6a7e1,"",%progbits
 203 0000 789C6361 		.ascii	"x\234ca`\004B \000\000\0009\000\007"
 203      60044220 
 203      00000039 
 203      0007
 204              		.text
 205              		.section	.gnu.lto_.decls.edc6a7e1,"",%progbits
 206 0000 789C8D54 		.ascii	"x\234\215TmlSe\024~\317\275\267]\271\033\035Lb\226\330"
 206      6D6C5365 
 206      147ECFBD 
 206      B75DB91B 
 206      1D4C6296 
 207 0015 1F931FED 		.ascii	"\037\223\037\355\342\217\3051\243\222\370\303d\213h"
 207      E28FC531 
ARM GAS  C:\Users\Greg\AppData\Local\Temp\ccj3BVIE.s 			page 15


 207      A392F8C3 
 207      648B68
 208 0024 A26258C4 		.ascii	"\242bX\304?$X\266\033Xb6\250\035\011\377\336\300@\202"
 208      3F2458B6 
 208      1B586236 
 208      A81D09FF 
 208      DEC04082 
 209 0038 986C7181 		.ascii	"\230lq\201M:a,\340>\272\017\330\332\265\035\332\202"
 209      4D3A612C 
 209      E03EBA0F 
 209      D8DAB51D 
 209      DA82
 210 004a 5B9D63EC 		.ascii	"[\235c\354\243\374\"D@'1\010\211\203\021\265\232Y\317"
 210      A3FC2244 
 210      40273108 
 210      898311B5 
 210      9A59CF
 211 005d FBBEF7F6 		.ascii	"\373\276\367\366^\260\213{\323\363~\236\363\234\347"
 211      5EB08B7B 
 211      D3F37E9E 
 211      F39CE7
 212 006c 3CF7A40A 		.ascii	"<\367\244\012\001\302\206b'$\212k\020\217\031\034y\270"
 212      01C28662 
 212      27248A6B 
 212      108F191C 
 212      79B8
 213 007e DF4ECC81 		.ascii	"\337N\314\201\317d\030-\204\026A\213\241\215\243%\311"
 213      CF64182D 
 213      8416418B 
 213      A18DA325 
 213      C9
 214 008f 7FC7B0EE 		.ascii	"\177\307\260\356\317\342\007\320<h)\2649\264\255\272"
 214      CFE207D0 
 214      3C6829B4 
 214      39B4ADBA 
 215 009f 0FE87E4F 		.ascii	"\017\350~O\017\206\237\367T\254k\205\370P\216x\306\315"
 215      0F869FF7 
 215      54AC6B85 
 215      F8508E78 
 215      C6CD
 216 00b1 F63F7923 		.ascii	"\366?y#9\342b\253\210\213\345\210c\032\254\321\371\026"
 216      39E262AB 
 216      888BE588 
 216      631AACD1 
 216      F916
 217 00c3 A16D408B 		.ascii	"\241m@\213\243M\3538n\013\226\2013\236\003\207\351h"
 217      A34DEB38 
 217      6E0B9681 
 217      339E0387 
 217      E968
 218 00d5 5F45CDB9 		.ascii	"_E\315\271\364^\226`\256)9\352\270\0117@\002\375\203"
 218      F45E9660 
 218      AE2939EA 
 218      B8093740 
 218      02FD83
 219 00e8 12003103 		.ascii	"\022\0001\0037\"\214\037q#\361\231d\257\262\013a3\021"
 219      37228C1F 
ARM GAS  C:\Users\Greg\AppData\Local\Temp\ccj3BVIE.s 			page 16


 219      7123F199 
 219      64AFB20B 
 219      613311
 220 00fb FEFCCE04 		.ascii	"\376\374\316\004\343?c\315\030\203\203\230\350\240\007"
 220      E33F63CD 
 220      18838398 
 220      E8A007
 221 010a 41968188 		.ascii	"A\226\201\210\022\357\222\201*\026\311\014\260\340\011"
 221      12EF9281 
 221      2A16C90C 
 221      B0E009
 222 0119 BA164EF0 		.ascii	"\272\026N\360dM`\024\335\3324\032\221d\254\030\367\267"
 222      644D6014 
 222      DDDA341A 
 222      9164AC18 
 222      F7B7
 223 012b D3DD6F94 		.ascii	"\323\335o\224\005)\216fJ\245\027Le\006\017\377\334\343"
 223      05298E66 
 223      4AA5174C 
 223      65060FFF 
 223      DCE3
 224 013d 782C814B 		.ascii	"x,\201K\205\014\260\363\203hz\2558\263\347\366\226\205"
 224      850CB0F3 
 224      83687AAD 
 224      38B3E7F6 
 224      9685
 225 014f 7FF2E5E7 		.ascii	"\177\362\345\347\330^\272\276\320wO\201R\365<\203\271"
 225      D85EBABE 
 225      D0774F81 
 225      52F53C83 
 225      B9
 226 0160 F3F9F22B 		.ascii	"\363\371\362+QJ\327\301\000\250\020\004\031z\240\214"
 226      514AD7C1 
 226      00A81004 
 226      197AA08C 
 227 0170 2577A938 		.ascii	"%w\2518\037\245\364 ]<K\355\305\004*\\\360\242\213@"
 227      1FA5F420 
 227      5D3C4BED 
 227      C5042A5C 
 227      F0A28B40 
 228 0184 3F94324C 		.ascii	"?\2242L\346\005}\340\202^p1\374\273'O\337\267+\022\006"
 228      E6057DE0 
 228      825E7031 
 228      FCBB274F 
 228      DFB72B12 
 229 0199 329C5D0A 		.ascii	"2\234]\012\273\233\310\374\221(D\012E*HxL-Nw\344\343"
 229      BB9BC8FC 
 229      9128440A 
 229      452A4878 
 229      4C2D4E77 
 230 01af 71830AEB 		.ascii	"q\203\012\353\3608\323z#\005\305'\030\007z\210\226H"
 230      F038D37A 
 230      2305C527 
 230      18077A88 
 230      9648
 231 01c1 B0FD59B8 		.ascii	"\260\375Y\270\200\200C\010H\340\"\024\343<\010\212\250"
 231      80804308 
ARM GAS  C:\Users\Greg\AppData\Local\Temp\ccj3BVIE.s 			page 17


 231      48E02214 
 231      E33C088A 
 231      A8
 232 01d2 AEA3EBF8 		.ascii	"\256\243\353\370)\347\3063\364\314\020\275s\362\310"
 232      29E7C633 
 232      F4CC10BD 
 232      73F2C8
 233 01e1 DB9D5D47 		.ascii	"\333\235]G\350\034\306\275\316\035\241\333\244\215["
 233      E81CC6BD 
 233      CE1DA1DB 
 233      A48D5B
 234 01f0 B67C0537 		.ascii	"\266|\0057Q\314a\330\210\261\263\347?\213J\362\207\\"
 234      51CC61D8 
 234      88B1B3E7 
 234      3F8B4AF2 
 234      875C
 235 0202 86B62F3B 		.ascii	"\206\266/;\036\256\0258\211\370'r;M\034D\030\211\243"
 235      1EAE1538 
 235      89F82772 
 235      3B4D1C44 
 235      1889A3
 236 0215 8C982823 		.ascii	"\214\230(#V\224\020GI\306B\355\222\\\307Q:\232\273z"
 236      56941047 
 236      49C642ED 
 236      925CC751 
 236      3A9ABB7A 
 237 0229 F3ADD459 		.ascii	"\363\255\324Y\315&\367Q\316}\227N\375\247\245@\254@"
 237      CD26F751 
 237      CE7D974E 
 237      FDA7A540 
 237      AC40
 238 023b 4F7961CA 		.ascii	"Oya\312L\211^\0206S\206\255)#<e<\360\340wE\336\307S"
 238      4C895E10 
 238      365386AD 
 238      29233C65 
 238      3CF0E077 
 239 0253 86EF85FE 		.ascii	"\206\357\205\376\324\005H\264]-\020\325s\214\250\211"
 239      D40548B4 
 239      5D2D10D5 
 239      738CA889 
 240 0263 11B562C4 		.ascii	"\021\265b\3048\306b:u)_\246\300A\316\375\365\367\242"
 240      38C6623A 
 240      75295FA6 
 240      C041CEFD 
 240      F5F7A2
 241 0276 8C5FC08D 		.ascii	"\214_\300\215=\222\221-M\342\026M\322\335\231\034V\345"
 241      3D92912D 
 241      4DE2164D 
 241      D2DD991C 
 241      56E5
 242 0288 56EE2C05 		.ascii	"V\356,\005Z/\367\333A-\345=\200e\252\335N\222-\022\022"
 242      5A2FF7DB 
 242      412DE53D 
 242      8065AADD 
 242      4E922D12 
 243 029d D8066EBD 		.ascii	"\330\006n\275\015\276\306\313Kx\251\367S\347k\274\237"
 243      0DBEC6CB 
ARM GAS  C:\Users\Greg\AppData\Local\Temp\ccj3BVIE.s 			page 18


 243      4B78A9F7 
 243      53E76BBC 
 243      9F
 244 02ae E2A8C937 		.ascii	"\342\250\3117&7\267*\3448q\375q\032x\243\304\263\215"
 244      2637B72A 
 244      E43871FD 
 244      711A78A3 
 244      C4B38D
 245 02c1 72F6B7A5 		.ascii	"r\366\267\245\026G\366\3562\360\313\336_\323q\373\212"
 245      1647F6EE 
 245      32F0CBDE 
 245      5FD371FB 
 245      8A
 246 02d2 FDF12DD7 		.ascii	"\375\361-\327\370\212\321\0373-\241e\233\321\037\311"
 246      F88AD11F 
 246      332DA165 
 246      9BD11FC9 
 247 02e2 AD0B1729 		.ascii	"\255\013\027)=\214q\012\363\2031\223\305\230U\241q\256"
 247      3D8C710A 
 247      F3833193 
 247      C59855A1 
 247      71AE
 248 02f4 D08F3D9F 		.ascii	"\320\217=\237\036S\345SB\241\343\003\217\306\024]\346"
 248      1E53E553 
 248      42A1E303 
 248      8FC6145D 
 248      E6
 249 0305 E8EC931F 		.ascii	"\350\354\223\037k\302\204\231\260\302$9\314|\323P@\026"
 249      6BC28499 
 249      B0C22439 
 249      CC7CD350 
 249      4016
 250 0317 CDAEE0F1 		.ascii	"\315\256\340\361\341\265/\026\234\242\331K\360\370\303"
 250      E1B52F16 
 250      9CA2D94B 
 250      F0F8C3
 251 0326 644F1F7B 		.ascii	"dO\037{\3650\3453\231B\213\366\036\241\375\324\355\273"
 251      F530E533 
 251      99428BF6 
 251      1EA1FDD4 
 251      EDBB
 252 0338 8FD6C8FD 		.ascii	"\217\326\310\375B\373p\327\351%\233\241}\363!Z4\211"
 252      42FB70D7 
 252      E9259BA1 
 252      7DF3215A 
 252      3489
 253 034a DA4F62F1 		.ascii	"\332Ob\361\3371\355\257\241\366\036]\373)\274\374\336"
 253      DF31EDAF 
 253      A1F61E5D 
 253      FB29BCFC 
 253      DE
 254 035b D4FE9CD0 		.ascii	"\324\376\234\320~\032e\274j\322\365\350\332\307\202"
 254      7E1A65BC 
 254      6AD2F5E8 
 254      DAC782
 255 036a 836DB27A 		.ascii	"\203m\262z\224\351\271*P\026r\213\006l\362\210\240\025"
 255      94E9B92A 
ARM GAS  C:\Users\Greg\AppData\Local\Temp\ccj3BVIE.s 			page 19


 255      5016728B 
 255      066CF288 
 255      A015
 256 037c 8DDC0F3A 		.ascii	"\215\334\017:\005\255\034\010\363+\321J\214\376\362"
 256      05AD1C08 
 256      F32BD14A 
 256      8CFEF2
 257 038b 6613C51E 		.ascii	"f\023\305\036\234CZ\263&\255\031\320y\205'\347Cy\005"
 257      9C435AB3 
 257      26AD19D0 
 257      798527E7 
 257      437905
 258 039e C7CC62B9 		.ascii	"\307\314b\271\247\001L \005\005\374_\221\255\205U\233"
 258      A7014C20 
 258      0505FC5F 
 258      91AD8555 
 258      9B
 259 03af 77566BFE 		.ascii	"wVk\376*_\335~\355\235\206Z\315\261\345\335\367K*\313"
 259      2A5FDD7E 
 259      ED9D865A 
 259      CDB1E5DD 
 259      F74B2ACB 
 260 03c3 CB89ADB1 		.ascii	"\313\211\255\261\256\336\377\352\363[\264z\315\347\365"
 260      AEDEFFEA 
 260      F35BB47A 
 260      CDE7F5
 261 03d2 6BB53BAB 		.ascii	"k\265;\253\033\032}5\332\216\367\252\033*_\332Qs\300"
 261      1B1A7D35 
 261      DA8EF7AA 
 261      1B2A5FDA 
 261      5173C0
 262 03e5 7F60AFF6 		.ascii	"\177`\257\366q\331\036\342Z\301\243jsY\015q \372\007"
 262      71D91EE2 
 262      5AC1A36A 
 262      73590D71 
 262      20FA07
 263 03f8 BE3ABF96 		.ascii	"\276:\277\226\207\233m\232\267\326\251\257U^\277w\233"
 263      879B6D9A 
 263      B7D6A9AF 
 263      555EBF77 
 263      9B
 264 0409 B6FB1991 		.ascii	"\266\373\031\221\375\255z\277\346\3635\356\3653\006"
 264      FDAD7ABF 
 264      E6F335EE 
 264      F53306
 265 0418 7696B8FC 		.ascii	"v\226\270\374\345\365\370T\371\221\346\365e\037\371"
 265      E5F5F854 
 265      F991E6F5 
 265      651FF9
 266 0427 43C5269B 		.ascii	"C\305&\233O\333]\261\351_}\254\015l"
 266      4FDB5DB1 
 266      E95F7DAC 
 266      0D6C
 267              		.text
 268              		.section	.gnu.lto_.symtab.edc6a7e1,"",%progbits
 269 0000 44395F53 		.ascii	"D9_SetDriveMode\000"
 269      65744472 
ARM GAS  C:\Users\Greg\AppData\Local\Temp\ccj3BVIE.s 			page 20


 269      6976654D 
 269      6F646500 
 270 0010 00       		.ascii	"\000"
 271 0011 00       		.ascii	"\000"
 272 0012 00       		.ascii	"\000"
 273 0013 00000000 		.ascii	"\000\000\000\000\000\000\000\000"
 273      00000000 
 274 001b B3000000 		.ascii	"\263\000\000\000"
 275 001f 44395F57 		.ascii	"D9_Write\000"
 275      72697465 
 275      00
 276 0028 00       		.ascii	"\000"
 277 0029 00       		.ascii	"\000"
 278 002a 00       		.ascii	"\000"
 279 002b 00000000 		.ascii	"\000\000\000\000\000\000\000\000"
 279      00000000 
 280 0033 B5000000 		.ascii	"\265\000\000\000"
 281 0037 44395F52 		.ascii	"D9_Read\000"
 281      65616400 
 282 003f 00       		.ascii	"\000"
 283 0040 00       		.ascii	"\000"
 284 0041 00       		.ascii	"\000"
 285 0042 00000000 		.ascii	"\000\000\000\000\000\000\000\000"
 285      00000000 
 286 004a B8000000 		.ascii	"\270\000\000\000"
 287 004e 44395F52 		.ascii	"D9_ReadDataReg\000"
 287      65616444 
 287      61746152 
 287      656700
 288 005d 00       		.ascii	"\000"
 289 005e 00       		.ascii	"\000"
 290 005f 00       		.ascii	"\000"
 291 0060 00000000 		.ascii	"\000\000\000\000\000\000\000\000"
 291      00000000 
 292 0068 BA000000 		.ascii	"\272\000\000\000"
 293 006c 44395F53 		.ascii	"D9_SetInterruptMode\000"
 293      6574496E 
 293      74657272 
 293      7570744D 
 293      6F646500 
 294 0080 00       		.ascii	"\000"
 295 0081 00       		.ascii	"\000"
 296 0082 00       		.ascii	"\000"
 297 0083 00000000 		.ascii	"\000\000\000\000\000\000\000\000"
 297      00000000 
 298 008b C4000000 		.ascii	"\304\000\000\000"
 299 008f 44395F43 		.ascii	"D9_ClearInterrupt\000"
 299      6C656172 
 299      496E7465 
 299      72727570 
 299      7400
 300 00a1 00       		.ascii	"\000"
 301 00a2 00       		.ascii	"\000"
 302 00a3 00       		.ascii	"\000"
 303 00a4 00000000 		.ascii	"\000\000\000\000\000\000\000\000"
 303      00000000 
 304 00ac C6000000 		.ascii	"\306\000\000\000"
ARM GAS  C:\Users\Greg\AppData\Local\Temp\ccj3BVIE.s 			page 21


 305              		.text
 306              		.section	.gnu.lto_.opts,"",%progbits
 307 0000 272D666D 		.ascii	"'-fmath-errno' '-fsigned-zeros' '-ftrapping-math' '"
 307      6174682D 
 307      6572726E 
 307      6F272027 
 307      2D667369 
 308 0033 2D666E6F 		.ascii	"-fno-trapv' '-fno-openmp' '-fno-openacc' '-mcpu=cor"
 308      2D747261 
 308      70762720 
 308      272D666E 
 308      6F2D6F70 
 309 0066 7465782D 		.ascii	"tex-m0' '-mthumb' '-g' '-Os' '-ffunction-sections' "
 309      6D302720 
 309      272D6D74 
 309      68756D62 
 309      2720272D 
 310 0099 272D6666 		.ascii	"'-ffat-lto-objects' '-flto'\000"
 310      61742D6C 
 310      746F2D6F 
 310      626A6563 
 310      74732720 
 311              		.text
 312              		.cfi_sections	.debug_frame
 313              		.section	.text.D9_SetDriveMode,"ax",%progbits
 314              		.align	1
 315              		.global	D9_SetDriveMode
 316              		.code	16
 317              		.thumb_func
 318              		.type	D9_SetDriveMode, %function
 319              	D9_SetDriveMode:
 320              	.LFB0:
 321              		.file 1 "Generated_Source\\PSoC4\\D9.c"
   1:Generated_Source\PSoC4/D9.c **** /*******************************************************************************
   2:Generated_Source\PSoC4/D9.c **** * File Name: D9.c  
   3:Generated_Source\PSoC4/D9.c **** * Version 2.20
   4:Generated_Source\PSoC4/D9.c **** *
   5:Generated_Source\PSoC4/D9.c **** * Description:
   6:Generated_Source\PSoC4/D9.c **** *  This file contains API to enable firmware control of a Pins component.
   7:Generated_Source\PSoC4/D9.c **** *
   8:Generated_Source\PSoC4/D9.c **** ********************************************************************************
   9:Generated_Source\PSoC4/D9.c **** * Copyright 2008-2015, Cypress Semiconductor Corporation.  All rights reserved.
  10:Generated_Source\PSoC4/D9.c **** * You may use this file only in accordance with the license, terms, conditions, 
  11:Generated_Source\PSoC4/D9.c **** * disclaimers, and limitations in the end user license agreement accompanying 
  12:Generated_Source\PSoC4/D9.c **** * the software package with which this file was provided.
  13:Generated_Source\PSoC4/D9.c **** *******************************************************************************/
  14:Generated_Source\PSoC4/D9.c **** 
  15:Generated_Source\PSoC4/D9.c **** #include "cytypes.h"
  16:Generated_Source\PSoC4/D9.c **** #include "D9.h"
  17:Generated_Source\PSoC4/D9.c **** 
  18:Generated_Source\PSoC4/D9.c **** 
  19:Generated_Source\PSoC4/D9.c **** #if defined(D9__PC)
  20:Generated_Source\PSoC4/D9.c ****     #define D9_SetP4PinDriveMode(shift, mode)  \
  21:Generated_Source\PSoC4/D9.c ****     do { \
  22:Generated_Source\PSoC4/D9.c ****         D9_PC =   (D9_PC & \
  23:Generated_Source\PSoC4/D9.c ****                                 (uint32)(~(uint32)(D9_DRIVE_MODE_IND_MASK << \
  24:Generated_Source\PSoC4/D9.c ****                                 (D9_DRIVE_MODE_BITS * (shift))))) | \
ARM GAS  C:\Users\Greg\AppData\Local\Temp\ccj3BVIE.s 			page 22


  25:Generated_Source\PSoC4/D9.c ****                                 (uint32)((uint32)(mode) << \
  26:Generated_Source\PSoC4/D9.c ****                                 (D9_DRIVE_MODE_BITS * (shift))); \
  27:Generated_Source\PSoC4/D9.c ****     } while (0)
  28:Generated_Source\PSoC4/D9.c **** #else
  29:Generated_Source\PSoC4/D9.c ****     #if (CY_PSOC4_4200L)
  30:Generated_Source\PSoC4/D9.c ****         #define D9_SetP4PinDriveMode(shift, mode)  \
  31:Generated_Source\PSoC4/D9.c ****         do { \
  32:Generated_Source\PSoC4/D9.c ****             D9_USBIO_CTRL_REG = (D9_USBIO_CTRL_REG & \
  33:Generated_Source\PSoC4/D9.c ****                                     (uint32)(~(uint32)(D9_DRIVE_MODE_IND_MASK << \
  34:Generated_Source\PSoC4/D9.c ****                                     (D9_DRIVE_MODE_BITS * (shift))))) | \
  35:Generated_Source\PSoC4/D9.c ****                                     (uint32)((uint32)(mode) << \
  36:Generated_Source\PSoC4/D9.c ****                                     (D9_DRIVE_MODE_BITS * (shift))); \
  37:Generated_Source\PSoC4/D9.c ****         } while (0)
  38:Generated_Source\PSoC4/D9.c ****     #endif
  39:Generated_Source\PSoC4/D9.c **** #endif
  40:Generated_Source\PSoC4/D9.c ****   
  41:Generated_Source\PSoC4/D9.c **** 
  42:Generated_Source\PSoC4/D9.c **** #if defined(D9__PC) || (CY_PSOC4_4200L) 
  43:Generated_Source\PSoC4/D9.c ****     /*******************************************************************************
  44:Generated_Source\PSoC4/D9.c ****     * Function Name: D9_SetDriveMode
  45:Generated_Source\PSoC4/D9.c ****     ****************************************************************************//**
  46:Generated_Source\PSoC4/D9.c ****     *
  47:Generated_Source\PSoC4/D9.c ****     * \brief Sets the drive mode for each of the Pins component's pins.
  48:Generated_Source\PSoC4/D9.c ****     * 
  49:Generated_Source\PSoC4/D9.c ****     * <b>Note</b> This affects all pins in the Pins component instance. Use the
  50:Generated_Source\PSoC4/D9.c ****     * Per-Pin APIs if you wish to control individual pin's drive modes.
  51:Generated_Source\PSoC4/D9.c ****     *
  52:Generated_Source\PSoC4/D9.c ****     * <b>Note</b> USBIOs have limited drive functionality. Refer to the Drive Mode
  53:Generated_Source\PSoC4/D9.c ****     * parameter for more information.
  54:Generated_Source\PSoC4/D9.c ****     *
  55:Generated_Source\PSoC4/D9.c ****     * \param mode
  56:Generated_Source\PSoC4/D9.c ****     *  Mode for the selected signals. Valid options are documented in 
  57:Generated_Source\PSoC4/D9.c ****     *  \ref driveMode.
  58:Generated_Source\PSoC4/D9.c ****     *
  59:Generated_Source\PSoC4/D9.c ****     * \return
  60:Generated_Source\PSoC4/D9.c ****     *  None
  61:Generated_Source\PSoC4/D9.c ****     *
  62:Generated_Source\PSoC4/D9.c ****     * \sideeffect
  63:Generated_Source\PSoC4/D9.c ****     *  If you use read-modify-write operations that are not atomic, the ISR can
  64:Generated_Source\PSoC4/D9.c ****     *  cause corruption of this function. An ISR that interrupts this function 
  65:Generated_Source\PSoC4/D9.c ****     *  and performs writes to the Pins component Drive Mode registers can cause 
  66:Generated_Source\PSoC4/D9.c ****     *  corrupted port data. To avoid this issue, you should either use the Per-Pin
  67:Generated_Source\PSoC4/D9.c ****     *  APIs (primary method) or disable interrupts around this function.
  68:Generated_Source\PSoC4/D9.c ****     *
  69:Generated_Source\PSoC4/D9.c ****     * \funcusage
  70:Generated_Source\PSoC4/D9.c ****     *  \snippet D9_SUT.c usage_D9_SetDriveMode
  71:Generated_Source\PSoC4/D9.c ****     *******************************************************************************/
  72:Generated_Source\PSoC4/D9.c ****     void D9_SetDriveMode(uint8 mode)
  73:Generated_Source\PSoC4/D9.c ****     {
 322              		.loc 1 73 0
 323              		.cfi_startproc
 324              		@ args = 0, pretend = 0, frame = 0
 325              		@ frame_needed = 0, uses_anonymous_args = 0
 326              		@ link register save eliminated.
 327              	.LVL0:
  74:Generated_Source\PSoC4/D9.c **** 		D9_SetP4PinDriveMode(D9__0__SHIFT, mode);
 328              		.loc 1 74 0
ARM GAS  C:\Users\Greg\AppData\Local\Temp\ccj3BVIE.s 			page 23


 329 0000 034A     		ldr	r2, .L2
 330 0002 044B     		ldr	r3, .L2+4
 331 0004 1168     		ldr	r1, [r2]
 332 0006 4002     		lsls	r0, r0, #9
 333              	.LVL1:
 334 0008 0B40     		ands	r3, r1
 335 000a 1843     		orrs	r0, r3
 336 000c 1060     		str	r0, [r2]
  75:Generated_Source\PSoC4/D9.c ****     }
 337              		.loc 1 75 0
 338              		@ sp needed
 339 000e 7047     		bx	lr
 340              	.L3:
 341              		.align	2
 342              	.L2:
 343 0010 08000440 		.word	1074003976
 344 0014 FFF1FFFF 		.word	-3585
 345              		.cfi_endproc
 346              	.LFE0:
 347              		.size	D9_SetDriveMode, .-D9_SetDriveMode
 348              		.section	.text.D9_Write,"ax",%progbits
 349              		.align	1
 350              		.global	D9_Write
 351              		.code	16
 352              		.thumb_func
 353              		.type	D9_Write, %function
 354              	D9_Write:
 355              	.LFB1:
  76:Generated_Source\PSoC4/D9.c **** #endif
  77:Generated_Source\PSoC4/D9.c **** 
  78:Generated_Source\PSoC4/D9.c **** 
  79:Generated_Source\PSoC4/D9.c **** /*******************************************************************************
  80:Generated_Source\PSoC4/D9.c **** * Function Name: D9_Write
  81:Generated_Source\PSoC4/D9.c **** ****************************************************************************//**
  82:Generated_Source\PSoC4/D9.c **** *
  83:Generated_Source\PSoC4/D9.c **** * \brief Writes the value to the physical port (data output register), masking
  84:Generated_Source\PSoC4/D9.c **** *  and shifting the bits appropriately. 
  85:Generated_Source\PSoC4/D9.c **** *
  86:Generated_Source\PSoC4/D9.c **** * The data output register controls the signal applied to the physical pin in 
  87:Generated_Source\PSoC4/D9.c **** * conjunction with the drive mode parameter. This function avoids changing 
  88:Generated_Source\PSoC4/D9.c **** * other bits in the port by using the appropriate method (read-modify-write or
  89:Generated_Source\PSoC4/D9.c **** * bit banding).
  90:Generated_Source\PSoC4/D9.c **** *
  91:Generated_Source\PSoC4/D9.c **** * <b>Note</b> This function should not be used on a hardware digital output pin 
  92:Generated_Source\PSoC4/D9.c **** * as it is driven by the hardware signal attached to it.
  93:Generated_Source\PSoC4/D9.c **** *
  94:Generated_Source\PSoC4/D9.c **** * \param value
  95:Generated_Source\PSoC4/D9.c **** *  Value to write to the component instance.
  96:Generated_Source\PSoC4/D9.c **** *
  97:Generated_Source\PSoC4/D9.c **** * \return 
  98:Generated_Source\PSoC4/D9.c **** *  None 
  99:Generated_Source\PSoC4/D9.c **** *
 100:Generated_Source\PSoC4/D9.c **** * \sideeffect
 101:Generated_Source\PSoC4/D9.c **** *  If you use read-modify-write operations that are not atomic; the Interrupt 
 102:Generated_Source\PSoC4/D9.c **** *  Service Routines (ISR) can cause corruption of this function. An ISR that 
 103:Generated_Source\PSoC4/D9.c **** *  interrupts this function and performs writes to the Pins component data 
 104:Generated_Source\PSoC4/D9.c **** *  register can cause corrupted port data. To avoid this issue, you should 
ARM GAS  C:\Users\Greg\AppData\Local\Temp\ccj3BVIE.s 			page 24


 105:Generated_Source\PSoC4/D9.c **** *  either use the Per-Pin APIs (primary method) or disable interrupts around 
 106:Generated_Source\PSoC4/D9.c **** *  this function.
 107:Generated_Source\PSoC4/D9.c **** *
 108:Generated_Source\PSoC4/D9.c **** * \funcusage
 109:Generated_Source\PSoC4/D9.c **** *  \snippet D9_SUT.c usage_D9_Write
 110:Generated_Source\PSoC4/D9.c **** *******************************************************************************/
 111:Generated_Source\PSoC4/D9.c **** void D9_Write(uint8 value)
 112:Generated_Source\PSoC4/D9.c **** {
 356              		.loc 1 112 0
 357              		.cfi_startproc
 358              		@ args = 0, pretend = 0, frame = 0
 359              		@ frame_needed = 0, uses_anonymous_args = 0
 360              		@ link register save eliminated.
 361              	.LVL2:
 113:Generated_Source\PSoC4/D9.c ****     uint8 drVal = (uint8)(D9_DR & (uint8)(~D9_MASK));
 362              		.loc 1 113 0
 363 0000 0823     		movs	r3, #8
 364 0002 0449     		ldr	r1, .L5
 114:Generated_Source\PSoC4/D9.c ****     drVal = (drVal | ((uint8)(value << D9_SHIFT) & D9_MASK));
 115:Generated_Source\PSoC4/D9.c ****     D9_DR = (uint32)drVal;
 365              		.loc 1 115 0
 366 0004 C000     		lsls	r0, r0, #3
 367              	.LVL3:
 113:Generated_Source\PSoC4/D9.c ****     uint8 drVal = (uint8)(D9_DR & (uint8)(~D9_MASK));
 368              		.loc 1 113 0
 369 0006 0A68     		ldr	r2, [r1]
 116:Generated_Source\PSoC4/D9.c **** }
 370              		.loc 1 116 0
 371              		@ sp needed
 113:Generated_Source\PSoC4/D9.c ****     uint8 drVal = (uint8)(D9_DR & (uint8)(~D9_MASK));
 372              		.loc 1 113 0
 373 0008 9A43     		bics	r2, r3
 374 000a D2B2     		uxtb	r2, r2
 115:Generated_Source\PSoC4/D9.c **** }
 375              		.loc 1 115 0
 376 000c 0340     		ands	r3, r0
 377 000e 1343     		orrs	r3, r2
 378 0010 0B60     		str	r3, [r1]
 379              		.loc 1 116 0
 380 0012 7047     		bx	lr
 381              	.L6:
 382              		.align	2
 383              	.L5:
 384 0014 00000440 		.word	1074003968
 385              		.cfi_endproc
 386              	.LFE1:
 387              		.size	D9_Write, .-D9_Write
 388              		.section	.text.D9_Read,"ax",%progbits
 389              		.align	1
 390              		.global	D9_Read
 391              		.code	16
 392              		.thumb_func
 393              		.type	D9_Read, %function
 394              	D9_Read:
 395              	.LFB2:
 117:Generated_Source\PSoC4/D9.c **** 
 118:Generated_Source\PSoC4/D9.c **** 
ARM GAS  C:\Users\Greg\AppData\Local\Temp\ccj3BVIE.s 			page 25


 119:Generated_Source\PSoC4/D9.c **** /*******************************************************************************
 120:Generated_Source\PSoC4/D9.c **** * Function Name: D9_Read
 121:Generated_Source\PSoC4/D9.c **** ****************************************************************************//**
 122:Generated_Source\PSoC4/D9.c **** *
 123:Generated_Source\PSoC4/D9.c **** * \brief Reads the associated physical port (pin status register) and masks 
 124:Generated_Source\PSoC4/D9.c **** *  the required bits according to the width and bit position of the component
 125:Generated_Source\PSoC4/D9.c **** *  instance. 
 126:Generated_Source\PSoC4/D9.c **** *
 127:Generated_Source\PSoC4/D9.c **** * The pin's status register returns the current logic level present on the 
 128:Generated_Source\PSoC4/D9.c **** * physical pin.
 129:Generated_Source\PSoC4/D9.c **** *
 130:Generated_Source\PSoC4/D9.c **** * \return 
 131:Generated_Source\PSoC4/D9.c **** *  The current value for the pins in the component as a right justified number.
 132:Generated_Source\PSoC4/D9.c **** *
 133:Generated_Source\PSoC4/D9.c **** * \funcusage
 134:Generated_Source\PSoC4/D9.c **** *  \snippet D9_SUT.c usage_D9_Read  
 135:Generated_Source\PSoC4/D9.c **** *******************************************************************************/
 136:Generated_Source\PSoC4/D9.c **** uint8 D9_Read(void)
 137:Generated_Source\PSoC4/D9.c **** {
 396              		.loc 1 137 0
 397              		.cfi_startproc
 398              		@ args = 0, pretend = 0, frame = 0
 399              		@ frame_needed = 0, uses_anonymous_args = 0
 400              		@ link register save eliminated.
 138:Generated_Source\PSoC4/D9.c ****     return (uint8)((D9_PS & D9_MASK) >> D9_SHIFT);
 401              		.loc 1 138 0
 402 0000 024B     		ldr	r3, .L8
 139:Generated_Source\PSoC4/D9.c **** }
 403              		.loc 1 139 0
 404              		@ sp needed
 138:Generated_Source\PSoC4/D9.c ****     return (uint8)((D9_PS & D9_MASK) >> D9_SHIFT);
 405              		.loc 1 138 0
 406 0002 1868     		ldr	r0, [r3]
 407 0004 0007     		lsls	r0, r0, #28
 408 0006 C00F     		lsrs	r0, r0, #31
 409              		.loc 1 139 0
 410 0008 7047     		bx	lr
 411              	.L9:
 412 000a C046     		.align	2
 413              	.L8:
 414 000c 04000440 		.word	1074003972
 415              		.cfi_endproc
 416              	.LFE2:
 417              		.size	D9_Read, .-D9_Read
 418              		.section	.text.D9_ReadDataReg,"ax",%progbits
 419              		.align	1
 420              		.global	D9_ReadDataReg
 421              		.code	16
 422              		.thumb_func
 423              		.type	D9_ReadDataReg, %function
 424              	D9_ReadDataReg:
 425              	.LFB3:
 140:Generated_Source\PSoC4/D9.c **** 
 141:Generated_Source\PSoC4/D9.c **** 
 142:Generated_Source\PSoC4/D9.c **** /*******************************************************************************
 143:Generated_Source\PSoC4/D9.c **** * Function Name: D9_ReadDataReg
 144:Generated_Source\PSoC4/D9.c **** ****************************************************************************//**
ARM GAS  C:\Users\Greg\AppData\Local\Temp\ccj3BVIE.s 			page 26


 145:Generated_Source\PSoC4/D9.c **** *
 146:Generated_Source\PSoC4/D9.c **** * \brief Reads the associated physical port's data output register and masks 
 147:Generated_Source\PSoC4/D9.c **** *  the correct bits according to the width and bit position of the component 
 148:Generated_Source\PSoC4/D9.c **** *  instance. 
 149:Generated_Source\PSoC4/D9.c **** *
 150:Generated_Source\PSoC4/D9.c **** * The data output register controls the signal applied to the physical pin in 
 151:Generated_Source\PSoC4/D9.c **** * conjunction with the drive mode parameter. This is not the same as the 
 152:Generated_Source\PSoC4/D9.c **** * preferred D9_Read() API because the 
 153:Generated_Source\PSoC4/D9.c **** * D9_ReadDataReg() reads the data register instead of the status 
 154:Generated_Source\PSoC4/D9.c **** * register. For output pins this is a useful function to determine the value 
 155:Generated_Source\PSoC4/D9.c **** * just written to the pin.
 156:Generated_Source\PSoC4/D9.c **** *
 157:Generated_Source\PSoC4/D9.c **** * \return 
 158:Generated_Source\PSoC4/D9.c **** *  The current value of the data register masked and shifted into a right 
 159:Generated_Source\PSoC4/D9.c **** *  justified number for the component instance.
 160:Generated_Source\PSoC4/D9.c **** *
 161:Generated_Source\PSoC4/D9.c **** * \funcusage
 162:Generated_Source\PSoC4/D9.c **** *  \snippet D9_SUT.c usage_D9_ReadDataReg 
 163:Generated_Source\PSoC4/D9.c **** *******************************************************************************/
 164:Generated_Source\PSoC4/D9.c **** uint8 D9_ReadDataReg(void)
 165:Generated_Source\PSoC4/D9.c **** {
 426              		.loc 1 165 0
 427              		.cfi_startproc
 428              		@ args = 0, pretend = 0, frame = 0
 429              		@ frame_needed = 0, uses_anonymous_args = 0
 430              		@ link register save eliminated.
 166:Generated_Source\PSoC4/D9.c ****     return (uint8)((D9_DR & D9_MASK) >> D9_SHIFT);
 431              		.loc 1 166 0
 432 0000 024B     		ldr	r3, .L11
 167:Generated_Source\PSoC4/D9.c **** }
 433              		.loc 1 167 0
 434              		@ sp needed
 166:Generated_Source\PSoC4/D9.c ****     return (uint8)((D9_DR & D9_MASK) >> D9_SHIFT);
 435              		.loc 1 166 0
 436 0002 1868     		ldr	r0, [r3]
 437 0004 0007     		lsls	r0, r0, #28
 438 0006 C00F     		lsrs	r0, r0, #31
 439              		.loc 1 167 0
 440 0008 7047     		bx	lr
 441              	.L12:
 442 000a C046     		.align	2
 443              	.L11:
 444 000c 00000440 		.word	1074003968
 445              		.cfi_endproc
 446              	.LFE3:
 447              		.size	D9_ReadDataReg, .-D9_ReadDataReg
 448              		.section	.text.D9_SetInterruptMode,"ax",%progbits
 449              		.align	1
 450              		.global	D9_SetInterruptMode
 451              		.code	16
 452              		.thumb_func
 453              		.type	D9_SetInterruptMode, %function
 454              	D9_SetInterruptMode:
 455              	.LFB4:
 168:Generated_Source\PSoC4/D9.c **** 
 169:Generated_Source\PSoC4/D9.c **** 
 170:Generated_Source\PSoC4/D9.c **** /*******************************************************************************
ARM GAS  C:\Users\Greg\AppData\Local\Temp\ccj3BVIE.s 			page 27


 171:Generated_Source\PSoC4/D9.c **** * Function Name: D9_SetInterruptMode
 172:Generated_Source\PSoC4/D9.c **** ****************************************************************************//**
 173:Generated_Source\PSoC4/D9.c **** *
 174:Generated_Source\PSoC4/D9.c **** * \brief Configures the interrupt mode for each of the Pins component's
 175:Generated_Source\PSoC4/D9.c **** *  pins. Alternatively you may set the interrupt mode for all the pins
 176:Generated_Source\PSoC4/D9.c **** *  specified in the Pins component.
 177:Generated_Source\PSoC4/D9.c **** *
 178:Generated_Source\PSoC4/D9.c **** *  <b>Note</b> The interrupt is port-wide and therefore any enabled pin
 179:Generated_Source\PSoC4/D9.c **** *  interrupt may trigger it.
 180:Generated_Source\PSoC4/D9.c **** *
 181:Generated_Source\PSoC4/D9.c **** * \param position
 182:Generated_Source\PSoC4/D9.c **** *  The pin position as listed in the Pins component. You may OR these to be 
 183:Generated_Source\PSoC4/D9.c **** *  able to configure the interrupt mode of multiple pins within a Pins 
 184:Generated_Source\PSoC4/D9.c **** *  component. Or you may use D9_INTR_ALL to configure the
 185:Generated_Source\PSoC4/D9.c **** *  interrupt mode of all the pins in the Pins component.       
 186:Generated_Source\PSoC4/D9.c **** *  - D9_0_INTR       (First pin in the list)
 187:Generated_Source\PSoC4/D9.c **** *  - D9_1_INTR       (Second pin in the list)
 188:Generated_Source\PSoC4/D9.c **** *  - ...
 189:Generated_Source\PSoC4/D9.c **** *  - D9_INTR_ALL     (All pins in Pins component)
 190:Generated_Source\PSoC4/D9.c **** *
 191:Generated_Source\PSoC4/D9.c **** * \param mode
 192:Generated_Source\PSoC4/D9.c **** *  Interrupt mode for the selected pins. Valid options are documented in
 193:Generated_Source\PSoC4/D9.c **** *  \ref intrMode.
 194:Generated_Source\PSoC4/D9.c **** *
 195:Generated_Source\PSoC4/D9.c **** * \return 
 196:Generated_Source\PSoC4/D9.c **** *  None
 197:Generated_Source\PSoC4/D9.c **** *  
 198:Generated_Source\PSoC4/D9.c **** * \sideeffect
 199:Generated_Source\PSoC4/D9.c **** *  It is recommended that the interrupt be disabled before calling this 
 200:Generated_Source\PSoC4/D9.c **** *  function to avoid unintended interrupt requests. Note that the interrupt
 201:Generated_Source\PSoC4/D9.c **** *  type is port wide, and therefore will trigger for any enabled pin on the 
 202:Generated_Source\PSoC4/D9.c **** *  port.
 203:Generated_Source\PSoC4/D9.c **** *
 204:Generated_Source\PSoC4/D9.c **** * \funcusage
 205:Generated_Source\PSoC4/D9.c **** *  \snippet D9_SUT.c usage_D9_SetInterruptMode
 206:Generated_Source\PSoC4/D9.c **** *******************************************************************************/
 207:Generated_Source\PSoC4/D9.c **** void D9_SetInterruptMode(uint16 position, uint16 mode)
 208:Generated_Source\PSoC4/D9.c **** {
 456              		.loc 1 208 0
 457              		.cfi_startproc
 458              		@ args = 0, pretend = 0, frame = 0
 459              		@ frame_needed = 0, uses_anonymous_args = 0
 460              		@ link register save eliminated.
 461              	.LVL4:
 209:Generated_Source\PSoC4/D9.c ****     uint32 intrCfg;
 210:Generated_Source\PSoC4/D9.c ****     
 211:Generated_Source\PSoC4/D9.c ****     intrCfg =  D9_INTCFG & (uint32)(~(uint32)position);
 462              		.loc 1 211 0
 463 0000 034A     		ldr	r2, .L14
 212:Generated_Source\PSoC4/D9.c ****     D9_INTCFG = intrCfg | ((uint32)position & (uint32)mode);
 213:Generated_Source\PSoC4/D9.c **** }
 464              		.loc 1 213 0
 465              		@ sp needed
 211:Generated_Source\PSoC4/D9.c ****     D9_INTCFG = intrCfg | ((uint32)position & (uint32)mode);
 466              		.loc 1 211 0
 467 0002 1368     		ldr	r3, [r2]
 468              	.LVL5:
ARM GAS  C:\Users\Greg\AppData\Local\Temp\ccj3BVIE.s 			page 28


 212:Generated_Source\PSoC4/D9.c ****     D9_INTCFG = intrCfg | ((uint32)position & (uint32)mode);
 469              		.loc 1 212 0
 470 0004 8343     		bics	r3, r0
 471              	.LVL6:
 472 0006 0840     		ands	r0, r1
 473              	.LVL7:
 474 0008 1843     		orrs	r0, r3
 475 000a 1060     		str	r0, [r2]
 476              		.loc 1 213 0
 477 000c 7047     		bx	lr
 478              	.L15:
 479 000e C046     		.align	2
 480              	.L14:
 481 0010 0C000440 		.word	1074003980
 482              		.cfi_endproc
 483              	.LFE4:
 484              		.size	D9_SetInterruptMode, .-D9_SetInterruptMode
 485              		.section	.text.D9_ClearInterrupt,"ax",%progbits
 486              		.align	1
 487              		.global	D9_ClearInterrupt
 488              		.code	16
 489              		.thumb_func
 490              		.type	D9_ClearInterrupt, %function
 491              	D9_ClearInterrupt:
 492              	.LFB5:
 214:Generated_Source\PSoC4/D9.c **** 
 215:Generated_Source\PSoC4/D9.c **** 
 216:Generated_Source\PSoC4/D9.c **** /*******************************************************************************
 217:Generated_Source\PSoC4/D9.c **** * Function Name: D9_ClearInterrupt
 218:Generated_Source\PSoC4/D9.c **** ****************************************************************************//**
 219:Generated_Source\PSoC4/D9.c **** *
 220:Generated_Source\PSoC4/D9.c **** * \brief Clears any active interrupts attached with the component and returns 
 221:Generated_Source\PSoC4/D9.c **** *  the value of the interrupt status register allowing determination of which
 222:Generated_Source\PSoC4/D9.c **** *  pins generated an interrupt event.
 223:Generated_Source\PSoC4/D9.c **** *
 224:Generated_Source\PSoC4/D9.c **** * \return 
 225:Generated_Source\PSoC4/D9.c **** *  The right-shifted current value of the interrupt status register. Each pin 
 226:Generated_Source\PSoC4/D9.c **** *  has one bit set if it generated an interrupt event. For example, bit 0 is 
 227:Generated_Source\PSoC4/D9.c **** *  for pin 0 and bit 1 is for pin 1 of the Pins component.
 228:Generated_Source\PSoC4/D9.c **** *  
 229:Generated_Source\PSoC4/D9.c **** * \sideeffect
 230:Generated_Source\PSoC4/D9.c **** *  Clears all bits of the physical port's interrupt status register, not just
 231:Generated_Source\PSoC4/D9.c **** *  those associated with the Pins component.
 232:Generated_Source\PSoC4/D9.c **** *
 233:Generated_Source\PSoC4/D9.c **** * \funcusage
 234:Generated_Source\PSoC4/D9.c **** *  \snippet D9_SUT.c usage_D9_ClearInterrupt
 235:Generated_Source\PSoC4/D9.c **** *******************************************************************************/
 236:Generated_Source\PSoC4/D9.c **** uint8 D9_ClearInterrupt(void)
 237:Generated_Source\PSoC4/D9.c **** {
 493              		.loc 1 237 0
 494              		.cfi_startproc
 495              		@ args = 0, pretend = 0, frame = 0
 496              		@ frame_needed = 0, uses_anonymous_args = 0
 497              		@ link register save eliminated.
 238:Generated_Source\PSoC4/D9.c **** 	uint8 maskedStatus = (uint8)(D9_INTSTAT & D9_MASK);
 498              		.loc 1 238 0
 499 0000 0823     		movs	r3, #8
ARM GAS  C:\Users\Greg\AppData\Local\Temp\ccj3BVIE.s 			page 29


 500 0002 034A     		ldr	r2, .L17
 239:Generated_Source\PSoC4/D9.c **** 	D9_INTSTAT = maskedStatus;
 240:Generated_Source\PSoC4/D9.c ****     return maskedStatus >> D9_SHIFT;
 241:Generated_Source\PSoC4/D9.c **** }
 501              		.loc 1 241 0
 502              		@ sp needed
 238:Generated_Source\PSoC4/D9.c **** 	uint8 maskedStatus = (uint8)(D9_INTSTAT & D9_MASK);
 503              		.loc 1 238 0
 504 0004 1068     		ldr	r0, [r2]
 505 0006 1840     		ands	r0, r3
 506              	.LVL8:
 239:Generated_Source\PSoC4/D9.c **** 	D9_INTSTAT = maskedStatus;
 507              		.loc 1 239 0
 508 0008 1060     		str	r0, [r2]
 240:Generated_Source\PSoC4/D9.c **** }
 509              		.loc 1 240 0
 510 000a C008     		lsrs	r0, r0, #3
 511              	.LVL9:
 512 000c C0B2     		uxtb	r0, r0
 513              		.loc 1 241 0
 514 000e 7047     		bx	lr
 515              	.L18:
 516              		.align	2
 517              	.L17:
 518 0010 10000440 		.word	1074003984
 519              		.cfi_endproc
 520              	.LFE5:
 521              		.size	D9_ClearInterrupt, .-D9_ClearInterrupt
 522              		.text
 523              	.Letext0:
 524              		.file 2 "Generated_Source\\PSoC4\\cytypes.h"