ARM GAS  C:\Users\gjl\AppData\Local\Temp\ccrje13k.s 			page 1


   1              		.syntax unified
   2              		.cpu cortex-m0
   3              		.fpu softvfp
   4              		.eabi_attribute 20, 1
   5              		.eabi_attribute 21, 1
   6              		.eabi_attribute 23, 3
   7              		.eabi_attribute 24, 1
   8              		.eabi_attribute 25, 1
   9              		.eabi_attribute 26, 1
  10              		.eabi_attribute 30, 4
  11              		.eabi_attribute 34, 0
  12              		.eabi_attribute 18, 4
  13              		.thumb
  14              		.syntax unified
  15              		.file	"Green.c"
  16              		.text
  17              	.Ltext0:
  18              		.section	.gnu.lto_.profile.50a293f5,"",%progbits
  19 0000 789C6361 		.ascii	"x\234ca`d`a`\000\222\352\212\000\000\331\000S"
  19      60646061 
  19      600092EA 
  19      8A0000D9 
  19      0053
  20              		.text
  21              		.section	.gnu.lto_.icf.50a293f5,"",%progbits
  22 0000 789C6361 		.ascii	"x\234ca`d\000\0015\006\004`c\330\372\356x\017#\343\323"
  22      60640001 
  22      35060460 
  22      63D8FAEE 
  22      780F23E3 
  23 0015 E907DB78 		.ascii	"\351\007\333x\230\326-\273\326\305\312\374k\373\352"
  23      98D62DBB 
  23      D6C5CAFC 
  23      6BFBEA
  24 0024 4BDC2CCF 		.ascii	"K\334,\317\233\226n\346a]zn\335\012^\006\000^u\021\234"
  24      9B966EE6 
  24      615D7A6E 
  24      DD0A5E06 
  24      005E7511 
  25              		.text
  26              		.section	.gnu.lto_.jmpfuncs.50a293f5,"",%progbits
  27 0000 789C45C9 		.ascii	"x\234E\311\261\001\000 \010\300\260\026\320+\374\225"
  27      B1010020 
  27      08C0B016 
  27      D02BFC95 
  28 0010 D795C90C 		.ascii	"\327\225\311\014]Z\3108|\033\265\235\004$Thv\257\367"
  28      5D5AC838 
  28      7C1BB59D 
  28      04245468 
  28      76AFF7
  29 0023 2E215502 		.ascii	".!U\002@"
  29      40
  30              		.text
  31              		.section	.gnu.lto_.inline.50a293f5,"",%progbits
  32 0000 789C658D 		.ascii	"x\234e\215\311\015\2000\014\004\327\216\343\030\011"
  32      C90D8030 
  32      0C04D78E 
ARM GAS  C:\Users\gjl\AppData\Local\Temp\ccrje13k.s 			page 2


  32      E31809
  33 000f 093A4807 		.ascii	"\011:H\007\224@\245<R\012%P\012%`\203\004B\231\307>"
  33      9440A53C 
  33      520A2550 
  33      0A256083 
  33      044299C7 
  34 0024 767C0808 		.ascii	"v|\010\010\301\206\017\005\254\020\301\\%\333Wh\253"
  34      C1860F05 
  34      AC10C15C 
  34      25DB5768 
  34      AB
  35 0035 0C3E2609 		.ascii	"\014>&\011K\030\254\223\322\352-\031\232\011\254\347"
  35      4B18AC93 
  35      D2EA2D19 
  35      9A09ACE7 
  36 0045 F2F44EEA 		.ascii	"\362\364N\352+\211\023\214\331OP\204\374\237x\2141\226"
  36      2B89138C 
  36      D94F5084 
  36      FC9F788C 
  36      3196
  37 0057 51D4375F 		.ascii	"Q\3247_\031\\\353\300\017\342"
  37      195CEBC0 
  37      0FE2
  38              		.text
  39              		.section	.gnu.lto_.pureconst.50a293f5,"",%progbits
  40 0000 789C6361 		.ascii	"x\234ca`d\340e```c\220b\224b\222b\226b\221b\225\002"
  40      6064E065 
  40      60606063 
  40      90629462 
  40      92629662 
  41 0018 00059500 		.ascii	"\000\005\225\000\304"
  41      C4
  42              		.text
  43              		.section	.gnu.lto_Green_SetDriveMode.50a293f5,"",%progbits
  44 0000 789C7D51 		.ascii	"x\234}Q\317+DQ\030\375\316\275o\336\220PV\312\024Y\220"
  44      CF2B4451 
  44      18FDCEBD 
  44      6FDE9050 
  44      56CA1459 
  45 0015 8D14FF81 		.ascii	"\215\024\377\201\205\255\314\226$\336\222\251\211\265"
  45      85ADCC96 
  45      24DE92A9 
  45      89B5
  46 0023 3BF3E645 		.ascii	";\363\346E6\246\374^\310J~\377\230\024)\213i\304F\261"
  46      36A6FC5E 
  46      C84A7EFF 
  46      9814298B 
  46      69C446B1 
  47 0037 B3942C9E 		.ascii	"\263\224,\236Rj\374*\011\317\367\275\231\265[\367\373"
  47      526AFC2A 
  47      09CFF7BD 
  47      99B55BF7 
  47      FB
  48 0048 BE7B3AE7 		.ascii	"\276{:\347t\356\275\026\201d\235sk\341\336\300\033\232"
  48      74EEBD16 
  48      81649D73 
  48      6BE1DEC0 
ARM GAS  C:\Users\gjl\AppData\Local\Temp\ccrje13k.s 			page 3


  48      1B9A
  49 005a A0B2D744 		.ascii	"\240\262\327D\251\012\005\310`*@\223\012\223\370P?\012"
  49      A90A05C8 
  49      602A4093 
  49      0A93F850 
  49      3F0A
  50 006c 8529FF54 		.ascii	"\205)\377T\265m\030^\367\236\337\2332^\275\247\211\002"
  50      B56D185E 
  50      F79EDF9B 
  50      325EBDA7 
  50      8902
  51 007e 153A1136 		.ascii	"\025:\0216\320\306\254\267\243\365\271*\335\014\342"
  51      D0C6ACB7 
  51      A3F5B92A 
  51      DD0CE2
  52 008d F9E5BA78 		.ascii	"\371\345\272xW\323\272nL\332\230\245\001\243=\015lB"
  52      57D3BA6E 
  52      4CDA98A5 
  52      01A33D0D 
  52      6C42
  53 009f B3029D31 		.ascii	"\263\002\2351t\304\210\001\302\026Z\205\374\220\373"
  53      74C48801 
  53      C2165A85 
  53      FC90FB
  54 00ae 5DA8B633 		.ascii	"]\250\2663b\337T2\3056l\211y\320\2277A\340\232\374\221"
  54      62DF5432 
  54      C5366C89 
  54      79D09737 
  54      41E09AFC 
  55 00c3 7D716C57 		.ascii	"}qlW*\226)-\305\202\210#2\332R\242R\210\212\274%\376"
  55      2A96292D 
  55      C5828823 
  55      32DA52A2 
  55      52888ABC 
  56 00d9 8B52D2B5 		.ascii	"\213R\322\265\217\302\327\314\355\212-~\256\226\253"
  56      8FC2D7CC 
  56      ED8A2D7E 
  56      AE96AB
  57 00e8 2C7A859B 		.ascii	",z\205\233\350\273\362\264\016s\236\234\247\036U\351"
  57      E8BBF2B4 
  57      0E739E9C 
  57      A71E55E9 
  58 00f8 389DC91A 		.ascii	"8\235\311\032\213\241\354g\316XkXMe\340i\013\273\210"
  58      8BA1EC67 
  58      CE586B58 
  58      4D65E069 
  58      0BBB88
  59 010b 610731CE 		.ascii	"a\0071\316\264\2075\220\017\367\273l\247K\216\317W\363"
  59      B4873590 
  59      0FF7BB6C 
  59      A74B8ECF 
  59      57F3
  60 011d CBB562A1 		.ascii	"\313\265b\241\020\004\263A-\366\231\355#\375\032-\321"
  60      1004B341 
  60      2DF699ED 
  60      23FD1A2D 
  60      D1
ARM GAS  C:\Users\gjl\AppData\Local\Temp\ccrje13k.s 			page 4


  61 012e 22AEB644 		.ascii	"\"\256\266DV,\313\004bY\356\376\373\314\022Y\004u8\010"
  61      562CCB04 
  61      6259EEFE 
  61      FBCC1259 
  61      04753808 
  62 0142 25EE6799 		.ascii	"%\356g\231\022\015\315m\206\012\213\020\350\277X\207"
  62      120DCD6D 
  62      860A8B10 
  62      E8BF5887 
  63 0152 1C8B25F4 		.ascii	"\034\213%\364\204t\376\344R\011=\374\225\242\202\274"
  63      8474FEE4 
  63      52093DFC 
  63      95A282BC 
  64 0162 01BF4863 		.ascii	"\001\277Hc\2173\346$\207\306\235\221\301xb\"9\354\364"
  64      8F33E624 
  64      87C69D91 
  64      C1786222 
  64      39ECF4
  65 0175 F7C613DD 		.ascii	"\367\306\023\335]\375=I\307\031k\037&k41\342\374\001"
  65      5DFD3D49 
  65      C7196B1F 
  65      266B3431 
  65      E2FC01
  66 0188 395A9D3D 		.ascii	"9Z\235="
  67              		.text
  68              		.section	.gnu.lto_Green_Write.50a293f5,"",%progbits
  69 0000 789C5551 		.ascii	"x\234UQMk\023Q\024\275\347\275\314G\011\321\037`\300"
  69      4D6B1351 
  69      14BDE7BD 
  69      CC4709D1 
  69      1F60C0
  70 0013 2294DA85 		.ascii	"\"\224\332\205R\320\177\340\"\333b\301UPB;\273\320B"
  70      52D07FE0 
  70      22DB62C1 
  70      5550423B 
  70      BBD042
  71 0026 B0DDF6E5 		.ascii	"\260\335\366\345\033\024\241\012\255\202\232\242\"\255"
  71      1B14A10A 
  71      AD829AA2 
  71      22AD
  72 0034 1FB556B1 		.ascii	"\037\265V\261\240\010\216\263\351.\"\212(T\221\242\021"
  72      A0088EB3 
  72      E92E228A 
  72      285491A2 
  72      11
  73 0045 DD984AAB 		.ascii	"\335\230J\253b\324x\357\274\215y\314\373\2303\347\234"
  73      62D478EF 
  73      BC8D79CC 
  73      FB9833E7 
  73      9C
  74 0056 77EE9D04 		.ascii	"w\356\235\004\201d\344\025\321\001\336\367\360\204&"
  74      8164E415 
  74      D101DEF7 
  74      F08426
  75 0065 A8D92651 		.ascii	"\250\331&Q\321W\200\034\214\017\232Q\230\301\216\372"
  75      D157801C 
  75      8C0F9A51 
ARM GAS  C:\Users\gjl\AppData\Local\Temp\ccrje13k.s 			page 5


  75      98C18EFA 
  76 0075 A310D55B 		.ascii	"\243\020\325[\017\325\320\242\341\361\376\343\217a\263"
  76      0FD5D0A2 
  76      E1F1FEE3 
  76      8F61B3
  77 0084 14A2AA89 		.ascii	"\024\242\252\211\272*v\",b\210Y\237\036\327_B\357\003"
  77      BA2A7622 
  77      2C628859 
  77      9F1ED75F 
  77      42EF03
  78 0097 F1B916ED 		.ascii	"\361\271\026\355\264\223\203\327\215)\031\263\2255\272"
  78      B49383D7 
  78      8D2919B3 
  78      9535BA
  79 00a6 AA812568 		.ascii	"\252\201%hV\340P\032\303ib\200p\003\203B\376\034\235"
  79      56E0501A 
  79      C3696280 
  79      70038342 
  79      FE1C9D
  80 00b9 CEEBFDB1 		.ascii	"\316\353\375\261n}\355l\027\003\327D\027\276XO\2357"
  80      6E7DED6C 
  80      1703D744 
  80      17BE584F 
  80      9D37
  81 00cb 61B15FB4 		.ascii	"a\261_\2647\377\327\312`\356\346\352\337\271\224[\221"
  81      37FFD7CA 
  81      60EEE6EA 
  81      DFB9945B 
  81      91
  82 00dc 54FDB885 		.ascii	"T\375\270\205\001\233\007\267\341r\205\020d\345hh\272"
  82      019B07B7 
  82      E1728510 
  82      64E56868 
  82      BA
  83 00ed DDB2099F 		.ascii	"\335\262\011\237{O_{I\305\267*\315\213N\220|v \011\\"
  83      7B4F5F7B 
  83      49C5B72A 
  83      CD8B4E90 
  83      7C762009 
  84 0102 013C59FC 		.ascii	"\001<Y\374\030\355\023\026Q\233\247tbK)\331u\013\321"
  84      18ED1316 
  84      519BA774 
  84      624B29D9 
  84      750BD1
  85 0115 AF53CDC6 		.ascii	"\257S\315\306\264\370\227\265te\276\032=\363\266UU'"
  85      B4F897B5 
  85      7465BE1A 
  85      3DF3B655 
  85      5527
  86 0127 E2E89DE6 		.ascii	"\342\350\235\346\366\327\244}5\225Y\223`\350\342\203"
  86      F6D7A47D 
  86      35955993 
  86      60E8E283 
  87 0137 B5B7A905 		.ascii	"\265\267\251\005\\.V\270_\016\356 \215ep~\254`\001\324"
  87      5C2E56B8 
  87      5F0EEE20 
  87      8D65707E 
ARM GAS  C:\Users\gjl\AppData\Local\Temp\ccrje13k.s 			page 6


  87      AC6001D4 
  88 014b 42E95B7D 		.ascii	"B\351[}CYC\315\236\214\224\177\3276`\221\004\203\354"
  88      435943CD 
  88      9E8C947F 
  88      D7366091 
  88      0483EC
  89 015e 71A973EE 		.ascii	"q\251s\356\202/\266\032O\200\273,\337D\254\221\254\314"
  89      822FB61A 
  89      4F80BB2C 
  89      DF44AC91 
  89      ACCC
  90 0170 1251BBF6 		.ascii	"\022Q\273\366\252q\334\252\370qX\365\241\263\374h\227"
  90      AA71DCAA 
  90      F87158F5 
  90      A1B3FC68 
  90      97
  91 0181 A85C26AE 		.ascii	"\250\\&\256\262\250\307\332c\036\223\256~/\237\211\023"
  91      B2A8C7DA 
  91      631E93AE 
  91      7E2F9F89 
  91      13
  92 0192 0321E19E 		.ascii	"\003!\341\236e\375t-\307\217\023x\275\267\3716\364\273"
  92      65FD742D 
  92      C78F1378 
  92      BDB7F936 
  92      F4BB
  93 01a4 C68825F5 		.ascii	"\306\210%\365Y(\232\277\262[\200\236\222\213\306${\253"
  93      59289ABF 
  93      B25B809E 
  93      928BC624 
  93      7BAB
  94 01b6 BECF55B3 		.ascii	"\276\317U\263\206\276\240\024\276\311\210 \376\225m"
  94      86BEA014 
  94      BEC98820 
  94      FE956D
  95 01c5 05E930F7 		.ascii	"\005\3510\367{o&\230\010\012\271\223\301\370\211\321"
  95      7B6F2698 
  95      080AB993 
  95      C1F889D1 
  96 01d5 C9A9C258 		.ascii	"\311\251\302X\220\035\031\235<r8\233)\004\301\304\301"
  96      901D199D 
  96      3C72389B 
  96      2904C1C4 
  96      C1
  97 01e6 3172A673 		.ascii	"1r\246s\371\251\300\031/\034\313\345\377\001\201\220"
  97      F9A9C019 
  97      2F1CCBE5 
  97      FF018190 
  98 01f6 D471     		.ascii	"\324q"
  99              		.text
 100              		.section	.gnu.lto_Green_Read.50a293f5,"",%progbits
 101 0000 789C2D8F 		.ascii	"x\234-\217=K\003A\020\206\347\335\275\304p\240\177\300"
 101      3D4B0341 
 101      1086E7DD 
 101      BDC470A0 
 101      7FC0
 102 0012 805AA611 		.ascii	"\200Z\246\021A\033+\013\301\264b:\011\210\304k\023\010"
ARM GAS  C:\Users\gjl\AppData\Local\Temp\ccrje13k.s 			page 7


 102      411B2B0B 
 102      C1B4623A 
 102      0988C46B 
 102      1308
 103 0024 5A6793BB 		.ascii	"Zg\223\273\213 \026i4XH:\363\241ADI\221B\316 (\010\246"
 103      8B201669 
 103      3458483A 
 103      F3A14144 
 103      499142CE 
 104 003c B3134442 		.ascii	"\263\023DB\012\253\030\024\301\2578\233s`wvv\236\231"
 104      0AAB1814 
 104      C1AF389B 
 104      73607776 
 104      769E99
 105 004f 77C62090 		.ascii	"w\306 \220\266\005vS\354\307\371@\022D\341\236(\033"
 105      B6057653 
 105      ECC7F940 
 105      1244E19E 
 105      281B
 106 0061 12807EA8 		.ascii	"\022\200~\250\020(#\220\301\273\370\021\270\373\270"
 106      10282390 
 106      C1BBF811 
 106      B8FBB8
 107 0070 DD352365 		.ascii	"\3355#e\245r\352\311=\232/V<\270\222h \010\263a\314"
 107      A572EAC9 
 107      3D9A2F56 
 107      3CB89268 
 107      2008B361 
 108 0085 84758B32 		.ascii	"\204u\2132\"\304\350\363\331\357\336h\320Ql\223\032"
 108      22C4E8F3 
 108      D9EFDE68 
 108      D0516C93 
 108      1A
 109 0096 E04C0541 		.ascii	"\340L\005A-y\272\342\251\301\300V\336\271y\3250\371"
 109      2D79BAE2 
 109      A9C1C056 
 109      DEB979D5 
 109      30F9
 110 00a8 CB95ACCB 		.ascii	"\313\225\254\313\227\241\257\000\351\216\324\343\012"
 110      97A1AF00 
 110      E98ED4E3 
 110      0A
 111 00b5 ADFF2A84 		.ascii	"\255\377*\204\366\262\213\326\347\316CuU7\261\245d\201"
 111      F6B28BD6 
 111      E7CE4375 
 111      5537B1A5 
 111      6481
 112 00c7 7DB7D51E 		.ascii	"}\267\325\036y\023\256\024\320z\315b\343R\372\241\343"
 112      7913AE14 
 112      D07ACD62 
 112      E352FAA1 
 112      E3
 113 00d8 1494C15F 		.ascii	"\024\224\301_\355\307\203\236Y\302a\326\341)%j\010\243"
 113      EDC7839E 
 113      59C261D6 
 113      E129256A 
 113      08A3
ARM GAS  C:\Users\gjl\AppData\Local\Temp\ccrje13k.s 			page 8


 114 00ea 0A9E11C7 		.ascii	"\012\236\021\307(\201\272\260\373KdK\370\355:_\365\346"
 114      2881BAB0 
 114      FB4B644B 
 114      F8ED3A5F 
 114      F5E6
 115 00fc 98AE3778 		.ascii	"\230\2567x\312\023\3068\377\235\357\004|A\2039\206."
 115      CA13C638 
 115      FF9DEF04 
 115      7C418339 
 115      862E
 116 010e AE6FF221 		.ascii	"\256o\362!\015\201\255>\204r\375\355\016|(\300\034\275"
 116      0D81AD3E 
 116      8472FDED 
 116      0E7C28C0 
 116      1CBD
 117 0120 40FC4734 		.ascii	"@\374G4\\\003z|^f\"j%\255\364\372\246\265\261\026Km"
 117      5C037A7C 
 117      5E66226A 
 117      25ADF4FA 
 117      A6B5B116 
 118 0136 A513567C 		.ascii	"\245\023V|9\226Z\234\213G\323\226\225\234N\320\037\320"
 118      39965A9C 
 118      8B47D396 
 118      959C4ED0 
 118      1FD0
 119 0148 C3743E   		.ascii	"\303t>"
 120              		.text
 121              		.section	.gnu.lto_Green_ReadDataReg.50a293f5,"",%progbits
 122 0000 789C2D8F 		.ascii	"x\234-\217OK\202A\020\306\347\331}5I\354\013$TG/\021"
 122      4F4B8241 
 122      10C6E7D9 
 122      7D3549EC 
 122      0B245447 
 123 0016 D4A55387 		.ascii	"\324\245S\207 \257Q\267\020\"\354\275*H\235]}}\015\242"
 123      20AF51B7 
 123      1022ECBD 
 123      2A489D5D 
 123      7D7D0DA2 
 124 002a 8397EA20 		.ascii	"\203\227\352 \345Q+%\242?\207N&AA`\237 \210\020\017"
 124      E5512B25 
 124      A23F874E 
 124      26414160 
 124      9F208810 
 125 003f 5D2AB182 		.ascii	"]*\261\202\254lF\033\330\235\235\235\337\3143c\021H"
 125      AC6C461B 
 125      D89D9D9D 
 125      DFCC3363 
 125      1148
 126 0051 6C86DD18 		.ascii	"l\206\335\030\373a>\320\004\225\253\023\245|\012\220"
 126      FB613ED0 
 126      0495AB13 
 126      A57C0A90 
 127 0061 87F18192 		.ascii	"\207\361\201\222\012I\274\253\037\205\273\317\333\255"
 127      0A49BCAB 
 127      1F85BBCF 
 127      DBAD
 128 006f C150D198 		.ascii	"\301P\321\230\264ytO\247wKU\270\232\250\253\010\223"
ARM GAS  C:\Users\gjl\AppData\Local\Temp\ccrje13k.s 			page 9


 128      B479744F 
 128      A7774B55 
 128      B89AA8AB 
 128      0893
 129 0081 414C04A5 		.ascii	"AL\004\245E\021!b\364\351\344w;\340\315\030\266Q\001"
 129      45112162 
 129      F4E9E477 
 129      3BE0CD18 
 129      B65101
 130 0094 38538257 		.ascii	"8S\202W$\217\027\252\246\333uL5\357\277\332\367\363"
 130      248F17AA 
 130      A6DB754C 
 130      35EFBFDA 
 130      F7F3
 131 00a6 97AB5997 		.ascii	"\227\253Y\227/K.\017IGz\345\012\321\177SJ\274n\242\366"
 131      2F4B2E0F 
 131      49477AE5 
 131      0AD17F53 
 131      4ABC6EA2 
 132 00bb B5F9515E 		.ascii	"\265\371Q^\222&\216\326,\260\343\326\356\007\332\312"
 132      92268ED6 
 132      2CB0E3D6 
 132      EE07DACA 
 133 00cb D50AA2D7 		.ascii	"\325\012\242\327\251\267_\374\375\320dr\306\342\257"
 133      A9B75FFC 
 133      FDD06472 
 133      C6E2AF
 134 00da FCF9C543 		.ascii	"\374\371\305C\240\200\275T\206\247\3248D\020\007\340"
 134      A080BD54 
 134      86A7D438 
 134      441007E0 
 135 00ea 19718402 		.ascii	"\031q\204\002\250\011\2475G\216F\277]\243S\271\034\222"
 135      A809A735 
 135      478E46BF 
 135      5DA353B9 
 135      1C92
 136 00fc 7A8BA72C 		.ascii	"z\213\247,3\306\371\357l\303\323\027\264\230c\350\354"
 136      33C6F9EF 
 136      6CC3D317 
 136      B49863E8 
 136      EC
 137 010d FA26EB13 		.ascii	"\372&\353\023\010l\225\036\224nm4\320\207<\314\3213"
 137      086C951E 
 137      946E6D34 
 137      D0873CCC 
 137      D133
 138 011f D47F44BD 		.ascii	"\324\177D\2755 \343\3632#a;f'V\326\354\325\345\305\370"
 138      3520E3F3 
 138      3223613B 
 138      662756D6 
 138      ECD5E5C5 
 139 0134 7A226A47 		.ascii	"z\"jG\346\027\343\263S\221p\302\266c\343Q\372\003I\204"
 139      E617E3B3 
 139      539170C2 
 139      B663E351 
 139      FA034984 
 140 0148 74DC     		.ascii	"t\334"
ARM GAS  C:\Users\gjl\AppData\Local\Temp\ccrje13k.s 			page 10


 141              		.text
 142              		.section	.gnu.lto_Green_SetInterruptMode.50a293f5,"",%progbits
 143 0000 789C6D51 		.ascii	"x\234mQKh\023Q\024\275\367\275If\222\264\243\033W\026"
 143      4B681351 
 143      14BDF7BD 
 143      496692B4 
 143      A31B5716 
 144 0014 0C420945 		.ascii	"\014B\011E\020\005\301\275]t'\305n\013R\332Q\2620\221"
 144      1005C1BD 
 144      5D7427C5 
 144      6E0B52DA 
 144      51B23091 
 145 0028 18D77DC9 		.ascii	"\030\327}\311LR(\"E1\320b(*C\252U\373\265`Wc@\\X?\365"
 145      4C522822 
 145      4531D062 
 145      282A43AA 
 145      55FBB560 
 146 0043 836841A4 		.ascii	"\203hA\244j\012\245\213\264*J\251\215\367\316dS\360"
 146      6A0AA58B 
 146      B42A4AA9 
 146      8DF7CE64 
 146      53F0
 147 0055 C1CC7BF7 		.ascii	"\301\314{\367p\316y\347\336\247\001\002\257\212\000"
 147      70CE79E7 
 147      DEA70102 
 147      AF8A00
 148 0064 3849FB41 		.ascii	"8I\373A\372P\002\212\221\227\0009C \362A\031\010\203"
 148      FA50028A 
 148      91970039 
 148      4320F241 
 148      190883
 149 0077 0207F197 		.ascii	"\002\007\361\227\370+\260:T{,:*\212\326\227\357k\307"
 149      F82BB03A 
 149      547B2C3A 
 149      2A8AD697 
 149      EF6BC7
 150 008a D5848705 		.ascii	"\325\204\207\005\011\320\020\276\023`\005;\210\365\264"
 150      09D010BE 
 150      1360053B 
 150      88F5B4
 151 0099 F1DBDBF7 		.ascii	"\361\333\333\367S\024$\"\213\336\324\227\3121.\005\356"
 151      53142422 
 151      8BDED497 
 151      CA312E05 
 151      EE
 152 00aa A7726CDD 		.ascii	"\247rl\335-\231\3620\002\235\327\346o\177\210&\\\245"
 152      2D99F230 
 152      029DD7E6 
 152      6F7F8826 
 152      5CA5
 153 00bc F24A8DF6 		.ascii	"\362J\215\366\251PAJ\274\207\222\374\360.\266\341\004"
 153      A950414A 
 153      BC8792FC 
 153      F02EB6E1 
 153      04
 154 00cd B6014180 		.ascii	"\266\001A\200\223\230 \366\2179\367zL\036\361\225[\266"
 154      939820F6 
ARM GAS  C:\Users\gjl\AppData\Local\Temp\ccrje13k.s 			page 11


 154      8F39F77A 
 154      4C1EF195 
 154      5BB6
 155 00df 6BB73495 		.ascii	"k\2674\225+M\345\375\377(\037`\202\351\313\316\364M"
 155      2B4DE5FD 
 155      FF281F60 
 155      82E9CBCE 
 155      F44D
 156 00f1 1944D2A8 		.ascii	"\031D\322\250\334|1\366\325\014\"\305\251\234t\337\273"
 156      DC7C31F6 
 156      D50C22C5 
 156      A99C74DF 
 156      BB
 157 0102 421EF38D 		.ascii	"B\036\363\215\207?^\233mm\277\303\306\336\333\253\346"
 157      873F5E9B 
 157      6D6DBFC3 
 157      C6DEDBAB 
 157      E6
 158 0113 A8F29C78 		.ascii	"\250\362\234xAj8\035\230O\221\371C2\347E\354\325\231"
 158      416A381D 
 158      984F91F9 
 158      4332E745 
 158      ECD599
 159 0126 DD1BAD61 		.ascii	"\335\033\255a\207\007\022\307\031l\017F\201\263\030"
 159      870712C7 
 159      196C0F46 
 159      81B318
 160 0135 A6E12223 		.ascii	"\246\341\"#Sg<\325h\330\312[6\237|2[\004\305\012Q\012"
 160      53673CD5 
 160      68D8CA5B 
 160      369F7C32 
 160      5B04C50A 
 161 014b EA48E363 		.ascii	"\352H\343c\210\177a`\246\216\234\326  \034a4\312?\200"
 161      887F6160 
 161      A68E9CD6 
 161      20201C61 
 161      34CA3F80 
 162 015f 3A39F24B 		.ascii	":9\362Kl\012\301\273\254au{\370\363b7_bK\036p\251P}"
 162      6C0AC1BB 
 162      AC61757B 
 162      F8F36237 
 162      5F624B1E 
 163 0177 A57337BA 		.ascii	"\245s7\272\337A\331yv*\250\2568#\212\333}\376na\333"
 163      DF41D979 
 163      762AA8AE 
 163      38238ADB 
 163      7DFE6E61 
 164 018c 1CC772CE 		.ascii	"\034\307r\316\241\3472p\236z\230\343\036\360\021\216"
 164      A1E73270 
 164      9E7A98E3 
 164      1EF0118E 
 165 019c 23D430BF 		.ascii	"#\3240\2775\264\024\012\3744\233\246F\310nqG\006H\210"
 165      35B4140A 
 165      FC349BA6 
 165      46C86E71 
 165      47064888 
 166 01b0 4042EC9D 		.ascii	"@B\354\235\342\006\006\010_K8\254\242\360;\245\354\004"
ARM GAS  C:\Users\gjl\AppData\Local\Temp\ccrje13k.s 			page 12


 166      E2060608 
 166      5F4B38AC 
 166      A2F03BA5 
 166      EC04
 167 01c2 069CDAE2 		.ascii	"\006\234\332\342\353&\313 '[\352\276\275\036@\021B\231"
 167      EB26CB20 
 167      275BEABE 
 167      BD1E4011 
 167      4299
 168 01d4 F6A7F8AD 		.ascii	"\366\247\370\255i\036\365\335\"\004VK\267\0160\266'"
 168      691EF5DD 
 168      2204564B 
 168      B70E30B6 
 168      27
 169 01e5 6E4EA9D8 		.ascii	"nN\251\330\336\304\013\224\230d\260\216yo\3454\013\374"
 169      DEC40B94 
 169      9864B08E 
 169      796FE534 
 169      0BFC
 170 01f7 A7A80BE4 		.ascii	"\247\250\013\344\341\320\250\016uY)+\323\227\265\006"
 170      E1D0A80E 
 170      7559292B 
 170      D397B506 
 171 0207 CEF6A42F 		.ascii	"\316\366\244/g\372\255\336\356\236t\347\211\336\256"
 171      67FAADDE 
 171      EE9E74E7 
 171      89DEAE
 172 0216 8C65A58E 		.ascii	"\214e\245\216\366\203q1})\231M\246S\332\205\364\200"
 172      F6837131 
 172      7D29994D 
 172      A653DA85 
 172      F480
 173 0228 A52753D9 		.ascii	"\245'S\331L\347\271\363\377\000;e\354\340"
 173      4CE7B9F3 
 173      FF003B65 
 173      ECE0
 174              		.text
 175              		.section	.gnu.lto_Green_ClearInterrupt.50a293f5,"",%progbits
 176 0000 789C5590 		.ascii	"x\234U\220KK#Q\020\205\353\334\3331q0\372\003\014(\202"
 176      4B4B2351 
 176      1085EBDC 
 176      DB317130 
 176      FA030C28 
 177 0015 0B372238 		.ascii	"\0137\"8\013g\355\302\255\230\255 A{%*\304\270\325\033"
 177      0B67EDC2 
 177      AD98AD20 
 177      417B252A 
 177      C4B8D51B 
 178 0029 93D66118 		.ascii	"\223\326a\030\230l\306\200 \012\202\361\375X\210\240"
 178      986CC680 
 178      200A82F1 
 178      FD5888A0 
 179 0039 44DA2022 		.ascii	"D\332 \"#*\370\003DT\\\010#*>`\242f\252\322.\364BS\367"
 179      232AF803 
 179      44545C08 
 179      232A3E60 
 179      A266AAD2 
ARM GAS  C:\Users\gjl\AppData\Local\Temp\ccrje13k.s 			page 13


 180 0052 56D7F9EA 		.ascii	"V\327\371\352TY\004\222s\312\241\236c%\177\320\004\225"
 180      54590492 
 180      73CAA19E 
 180      63257FD0 
 180      0495
 181 0064 3A228A07 		.ascii	":\"\212\007\024 \027\023\000\015)\014\341Q\275*\034"
 181      14201713 
 181      000D290C 
 181      E151BD2A 
 181      1C
 182 0075 3CEFFFFC 		.ascii	"<\357\377\374R\2271f\330\2349\317\337\322\263.\034M"
 182      52973166 
 182      D89C39CF 
 182      DFD2B32E 
 182      1C4D
 183 0087 545084C6 		.ascii	"TP\204\306\020\032B\202\310\240\216\270\364b9\237\011"
 183      101A4282 
 183      C8A08EB8 
 183      F462399F 
 183      09
 184 0098 EA1AC8FD 		.ascii	"\352\032\310\375p\346\357:j\247E\346f\177\225\245\215"
 184      70E6EF3A 
 184      6AA745E6 
 184      667F95A5 
 184      8D
 185 00a9 1BAF661D 		.ascii	"\033\257f\035f\241?JIj\317\327\336~\007K\222\206O5\346"
 185      66A13F4A 
 185      496ACFD7 
 185      DE7E074B 
 185      92864F35 
 186 00be 502B70A6 		.ascii	"P+p\246\316\243\204}B2+m\256)\024\022\306\335\252\330"
 186      CEA3847D 
 186      42322B6D 
 186      AE291412 
 186      C6DDAAD8 
 187 00d2 39A90828 		.ascii	"9\251\010(r4\373v\264\262H~\373\344\355'\361E\267\254"
 187      7234FB76 
 187      B4B2487E 
 187      FBE4ED27 
 187      F145B7AC 
 188 00e6 9529EE94 		.ascii	"\225)\356\224\222\250\257\220\373\367\343);(\270\204"
 188      92A8AF90 
 188      FBF7E329 
 188      3B28B884 
 189 00f6 9689C69C 		.ascii	"\226\211\306\234\334\261\377A9Z\027\235\216\347\247"
 189      DCB1FF41 
 189      395A179D 
 189      8EE7A7
 190 0105 BEC37BA6 		.ascii	"\276\303{\246\222)cq\312\371\2239(\235\304D<\311\263"
 190      92296371 
 190      CAF99339 
 190      289DC444 
 190      3CC9B3
 191 0118 5A584408 		.ascii	"ZXD\010\013`\273X\302$\350\012\303\367\243/\312\003"
 191      0B60BB58 
 191      C224E80A 
 191      C3F7A32F 
ARM GAS  C:\Users\gjl\AppData\Local\Temp\ccrje13k.s 			page 14


 191      CA03
 192 012a 6A667226 		.ascii	"jfr&\3612\262\013/cq\222\031\0337\013\033A\301*\270"
 192      F132B20B 
 192      2F637192 
 192      191B370B 
 192      1B41C12A 
 193 013f 8465969F 		.ascii	"\204e\226\237\243\250\021\303\\\345a\336\262\255\236"
 193      A3A811C3 
 193      5CE561DE 
 193      B2AD9E
 194 014e CAE7A572 		.ascii	"\312\347\245rcE\312'\017qc|\237m\254\260\015\226H\337"
 194      6345CA27 
 194      0F71637C 
 194      9F6DACB0 
 194      0D9648DF 
 195 0162 FB91BDED 		.ascii	"\373\221\275\355&\017\341g\004\013/\363K\233\345\322"
 195      260FE167 
 195      040B2FF3 
 195      4B9BE5D2 
 196 0172 D8C7BD56 		.ascii	"\330\307\275V\271\376\032\357^\375T\334\017d/\274\245"
 196      B9FE1AEF 
 196      5EFD54DC 
 196      0F642FBC 
 196      A5
 197 0183 AA16BBD7 		.ascii	"\252\026\273\327\216FbvWG\270o \332i\267\267\206\373"
 197      8E466276 
 197      5747B86F 
 197      20DA69B7 
 197      B786FB
 198 0196 9ABFB6B7 		.ascii	"\232\277\266\267Dm\273\267\276\223\312z\"\375\335vW"
 198      446DBBB7 
 198      BE93CA7A 
 198      22FDDD76 
 198      57
 199 01a7 3816890D 		.ascii	"8\026\211\015\364\377\007\374\266\253e"
 199      F4FF07FC 
 199      B6AB65
 200              		.text
 201              		.section	.gnu.lto_.symbol_nodes.50a293f5,"",%progbits
 202 0000 789C6361 		.ascii	"x\234ca`d\310`\000\002&\206z\006\206\011\347\030@\324"
 202      6064C860 
 202      00022686 
 202      7A068609 
 202      E71840D4 
 203 0014 AE0645A0 		.ascii	"\256\006E\240\000c=#\252\000S=\023\252\000s=3\252\000"
 203      00633D23 
 203      AA00533D 
 203      13AA0073 
 203      3D33AA00 
 204 0028 4B3D0BAA 		.ascii	"K=\013\252\000k=+\212\000\003\000\305\333\026\342"
 204      006B3D2B 
 204      8A000300 
 204      C5DB16E2 
 205              		.text
 206              		.section	.gnu.lto_.refs.50a293f5,"",%progbits
 207 0000 789C6361 		.ascii	"x\234ca`\004B \000\000\0009\000\007"
 207      60044220 
ARM GAS  C:\Users\gjl\AppData\Local\Temp\ccrje13k.s 			page 15


 207      00000039 
 207      0007
 208              		.text
 209              		.section	.gnu.lto_.decls.50a293f5,"",%progbits
 210 0000 789C8D54 		.ascii	"x\234\215TmL[U\030>\357\275m\201\013c\223\220\205\037"
 210      6D4C5B55 
 210      183EEFBD 
 210      6D810B63 
 210      9390851F 
 211 0014 8DE27E50 		.ascii	"\215\342~P\376Hd\250\361\217\211\011\213h\242\316\214"
 211      FE4864A8 
 211      F18F8909 
 211      8B68A2CE 
 211      8C
 212 0025 38FF2C59 		.ascii	"8\377,Y:\270N\222\005\226k1\331\017\223\223\001\223"
 212      3AB84E92 
 212      05966B31 
 212      D90F9393 
 212      0193
 213 0037 2C7EB048 		.ascii	",~\260H\346X\250c#b\201v|\177\264\350\3321\350\030\343"
 213      E658A863 
 213      23628176 
 213      7C7FB4E8 
 213      DA31E818 
 214 004c B3189349 		.ascii	"\263\030\223ItKp3\312\022\321-1\325l\365=\347\334\366"
 214      744B7033 
 214      CA12D12D 
 214      31D56CF5 
 214      3DE7DCF6 
 215 0060 DCCD1239 		.ascii	"\334\315\0229\351{>\337\367y\237\367\271oj#@\330P\035"
 215      E97B3EDF 
 215      F7799FF7 
 215      B96F6A23 
 215      40D8501D 
 216 0074 842CE0EA 		.ascii	"\204,\340\352\307c\002G\006\356\367\0239\360\231\014"
 216      C7630247 
 216      06EEF713 
 216      39F0990C 
 217 0084 A18DA08D 		.ascii	"\241\215\240\215\243\205\320\246\320\242\344\277c\310"
 217      A385D0A6 
 217      D0A2E4BF 
 217      63C8
 218 0092 F467F117 		.ascii	"\364g\361\027\321\\h1\264%\264\275\246\017\230~\217"
 218      D15C6831 
 218      B425B4BD 
 218      A60F987E 
 218      8F
 219 00a3 0F869FF1 		.ascii	"\017\206\237\361X\254s\223\370\2214\361\214\233\375"
 219      58AC7393 
 219      F89134F1 
 219      8C9BFD
 220 00b2 7FF28EA7 		.ascii	"\177\362\216\247\211\013m!.\224&\216i\220e\362\315C"
 220      890B6D21 
 220      2E94268E 
 220      699065F2 
 220      CD43
 221 00c4 CB470BA3 		.ascii	"\313G\013\243\315\2318E\026\254$\316T\032\034\246\243"
ARM GAS  C:\Users\gjl\AppData\Local\Temp\ccrje13k.s 			page 16


 221      CD993845 
 221      16AC24CE 
 221      541A1CA6 
 221      A3
 222 00d5 630B35A7 		.ascii	"c\0135\247\323\373\201\002K\215\321\261\314U\270\001"
 222      D3FB8102 
 222      4B8DD1B1 
 222      CC55B801 
 223 00e5 0A981F94 		.ascii	"\012\230\037\224\000\210\031\270\021a\374\210\033\205"
 223      008819B8 
 223      1161FC88 
 223      1B85
 224 00f3 CF247595 		.ascii	"\317$u\225Z\010\233\211\360\347w\022\214\377\222k\""
 224      5A089B89 
 224      F0E77712 
 224      8CFF926B 
 224      22
 225 0104 39388844 		.ascii	"98\210D\0073\010R\014D\224xW\222\250bQd\200\005O\320"
 225      07330852 
 225      0C449478 
 225      5792A862 
 225      51648005 
 226 011a B5708247 		.ascii	"\265p\202Gk\202d\321W\037\256\267f\251X1\356o\306}\257"
 226      6B8264D1 
 226      571FAEB7 
 226      66A95831 
 226      EE6FC67D 
 227 012f 94F8298E 		.ascii	"\224\370)\216\026J\225g\2442}M?wg\336W\300\251A\002"
 227      164A9567 
 227      A4327D4D 
 227      3F7767DE 
 227      57C0A941 
 228 0144 D8F96E30 		.ascii	"\330\371n0\276M\234\331s\333\251\265\207\331\352\223"
 228      BE4D9CD9 
 228      73DBA9B5 
 228      87D9EA93 
 229 0154 6CAFACAC 		.ascii	"l\257\254\254\365\376j\203b\255\213\301\334j\353~)H"
 229      F5FE6A83 
 229      62AD8BC1 
 229      DC6AEB7E 
 229      2948
 230 0166 E90EB808 		.ascii	"\351\016\270\010\032\370A\205n(a\311\235\032\316\315"
 230      1AF84185 
 230      6E2861C9 
 230      9D1ACECD 
 231 0176 941EA71B 		.ascii	"\224\036\247\033\027\250\243\200@\231\023\236u\022\010"
 231      17A8A380 
 231      4099139E 
 231      751208
 232 0185 4031C364 		.ascii	"@1\303d^\320\013N\350\001'\303\277\375\305\271u\207"
 232      5ED00B4E 
 232      E80127C3 
 232      BFFDC5B9 
 232      7587
 233 0197 4DC14086 		.ascii	"M\301@\206s\310\306\356\246\023\177E\266#\205<\015\024"
 233      73C8C6EE 
 233      A6137F45 
ARM GAS  C:\Users\gjl\AppData\Local\Temp\ccrje13k.s 			page 17


 233      B623853C 
 233      0D14
 234 01a9 3CC636E6 		.ascii	"<\3066\346\274\331x\314\327`\007\036\027Zo\304\240\340"
 234      BCD978CC 
 234      D760071E 
 234      175A6FC4 
 234      A0E0
 235 01bb 34E3401B 		.ascii	"4\343@\033h\241\002\373w\302\000\002\366# \201A(\300"
 235      68A102FB 
 235      77C20002 
 235      F6232081 
 235      4128C0
 236 01ce B90F6CA2 		.ascii	"\271\017l\242\272\216\246U\237\266\253\203v\364\323"
 236      BA8EA655 
 236      9FB6AB83 
 236      76F4D3
 237 01dd 5BDE13AF 		.ascii	"[\336\023\257\237\357<A\2270\356e\356\010>I\033\267"
 237      9FEF3C41 
 237      9730EE65 
 237      EE083E49 
 237      1BB7
 238 01ef 6CF91A56 		.ascii	"l\371\032VQ\314!\330\205\261g?\377\2563G}\227\313p\251"
 238      51CC21D8 
 238      85B1673F 
 238      FFAE3347 
 238      7D97CB70 
 239 0204 79BEC1C4 		.ascii	"y\276\301\304\211\204?R\333h\3448\302(\034eX\242\014"
 239      89843F52 
 239      DB68E438 
 239      C2281C65 
 239      58A20C
 240 0217 5B514638 		.ascii	"[QF8\312\235\376\256\3606\325\340(\336\226\316\236l"
 240      CA9DFEAE 
 240      F036D5E0 
 240      28DE96CE 
 240      9E6C
 241 0229 2B7556B3 		.ascii	"+uV\263\344>\306\271\0372\251{W>]\3140S\016\314\312"
 241      E43EC6B9 
 241      1F32A97B 
 241      573E5DCC 
 241      30530ECC 
 242 023e 94E805A3 		.ascii	"\224\350\005\2432\345\2505\3458O\351\375\344\207\204"
 242      32E5A835 
 242      E5384FE9 
 242      FDE48784 
 243 024e 43FD90A7 		.ascii	"C\375\220\247\234\237\014.\333L\2243\327sD\365\034#"
 243      9C9F0C2E 
 243      DB4C9433 
 243      D77344F5 
 243      1C23
 244 0260 28318256 		.ascii	"(1\202V\214\020\307\030\374\362\373a\207\372\031p\220"
 244      8C10C718 
 244      FCF2FB61 
 244      87FA1970 
 244      90
 245 0271 AFFEFE67 		.ascii	"\257\376\376gC\305/P\204=\222P-MR$\232\304w>:\244\251"
 245      43C52F50 
ARM GAS  C:\Users\gjl\AppData\Local\Temp\ccrje13k.s 			page 18


 245      843D9250 
 245      2D4D5224 
 245      9AC4773E 
 246 0288 5DDC5969 		.ascii	"]\334Yio\275\034p\200V\314{\000\313\324|\271$U$D\260"
 246      6FBD1C70 
 246      8056CC7B 
 246      00CBD47C 
 246      B9245524 
 247 029e 0D8ACC36 		.ascii	"\015\212\3146\370\026/\277\301K\263\237\002\242\237"
 247      F8162FBF 
 247      C14BB39F 
 247      02A29F
 248 02ad C2A8C925 		.ascii	"\302\250\311%\311\255H\023r\234^\271\037\007\336(\341"
 248      C9AD4813 
 248      729C5EB9 
 248      1F07DE28 
 248      E1
 249 02be 54A35CF8 		.ascii	"T\243\\\370\375\336\251\314\324\335e\340\227=\277\305"
 249      FDDEA9CC 
 249      D4DD65E0 
 249      973DBFC5 
 250 02ce C38E4DFB 		.ascii	"\303\216M\373\343\012\327x2\331\037\201\251\217\237"
 250      E30AD778 
 250      32D91F81 
 250      A98F9F
 251 02dd 4FB64774 		.ascii	"O\266Gt\357\332 \245M\030fcn0!ILX\005\232\342\002\305"
 251      EFDA20A5 
 251      4D186663 
 251      6E302149 
 251      4C58059A 
 252 02f4 EEC42772 		.ascii	"\356\304'r\325\200\020h\354\344\335\026\273\251rp\361"
 252      D5801068 
 252      ECE4DD16 
 252      BBA97270 
 252      F1
 253 0305 D16F352D 		.ascii	"\321o5-a\246\2550Q\016\263\334\330\337\256\212^\267"
 253      61A6AD30 
 253      510EB3DC 
 253      D8DFAE8A 
 253      5EB7
 254 0317 E1F18FF9 		.ascii	"\341\361\217\371\263k\271\242\327\013\361\370\343Lw"
 254      B36BB9A2 
 254      D70BF1F8 
 254      E34C77
 255 0326 2F7B7531 		.ascii	"/{u1\341\023\211\355\026\351]B\372\331\233\267\377\314"
 255      E11389ED 
 255      16E95D42 
 255      FAD99BB7 
 255      FFCC
 256 0338 522785F4 		.ascii	"R'\205\364\243\235\347\356\331\223\322\2674\320\274"
 256      A39DE7EE 
 256      D993D2B7 
 256      34D0BC
 257 0347 19947E06 		.ascii	"\031\224~\006k\277\312\244\237G\351]\246\364\263xyM"
 257      6BBFCAA4 
 257      9F47E95D 
 257      A6F4B378 
ARM GAS  C:\Users\gjl\AppData\Local\Temp\ccrje13k.s 			page 19


 257      794D
 258 0359 4A3F20A4 		.ascii	"J? \244\237C\025\257K\272.S\372\220\277\357\214\252"
 258      9F4315AF 
 258      4BBA2E53 
 258      FA90BFEF 
 258      8CAA
 259 036b 353339B7 		.ascii	"539\267\004\312B~\242\355v\365\232\240\025\034_\367"
 259      04CA427E 
 259      A2ED76F5 
 259      9AA0151C 
 259      5FF7
 260 037d E70A5A69 		.ascii	"\347\012Zi\020\2267\243\025y\360\313\253\215\224\002"
 260      109637A3 
 260      1579F0CB 
 260      AB8D9402 
 261 038d 2C21AD45 		.ascii	",!\255EIk\001L^\2433\313#\0319'e\261\3343\011L \006"
 261      496B014C 
 261      5EA333CB 
 261      23193927 
 261      65B1DC33 
 262 03a5 39FC4F91 		.ascii	"9\374O\221\255y\025\206\256\327\036\254\324={\214\232"
 262      AD791586 
 262      AED71EAC 
 262      D43D7B8C 
 262      9A
 263 03b6 0FF437EA 		.ascii	"\017\3647\352\252\365\314\2127\337.,/-%\366\372\232"
 263      AAF5CC8A 
 263      37DF2E2C 
 263      2F2D25F6 
 263      FA9A
 264 03c8 5ACF8B4F 		.ascii	"Z\317\213OW\350\265\272\341\366\350\325\007+\353\352"
 264      57E8B5BA 
 264      E1F6E8D5 
 264      072BEBEA 
 265 03d8 8D2AFDC0 		.ascii	"\215*\375\300[\225u\345\317\035\250:\3469vT\177\277"
 265      5B9575E5 
 265      CF1DA83A 
 265      E6397654 
 265      7FBF
 266 03ea E43DF2D4 		.ascii	"\344=\362\324&\036\034\272\244\212d\213\034\357\030"
 266      261E1CBA 
 266      A48A648B 
 266      1CEF18
 267 03f9 351E5D13 		.ascii	"5\036]\023\373}\272\273\372\011\271\335\343\366\270"
 267      FB7DBABB 
 267      FA09B9DD 
 267      E3F6B8
 268 0408 F7E98777 		.ascii	"\367\351\207w\246\310\274V\353\321\015\243\376\250\207"
 268      A6C8BC56 
 268      EBD10DA3 
 268      FEA887
 269 0417 1172301E 		.ascii	"\021r0\036\245/\344\213\327\362#\272\333H\275\363\267"
 269      A52FE48B 
 269      D7F223BA 
 269      DB48BDF3 
 269      B7
 270 0428 B2DD7643 		.ascii	"\262\335vC?\\\266\373_T\033\027\264"
ARM GAS  C:\Users\gjl\AppData\Local\Temp\ccrje13k.s 			page 20


 270      3F5CB6FB 
 270      5F541B17 
 270      B4
 271              		.text
 272              		.section	.gnu.lto_.symtab.50a293f5,"",%progbits
 273 0000 47726565 		.ascii	"Green_SetDriveMode\000"
 273      6E5F5365 
 273      74447269 
 273      76654D6F 
 273      646500
 274 0013 00       		.ascii	"\000"
 275 0014 00       		.ascii	"\000"
 276 0015 00       		.ascii	"\000"
 277 0016 00000000 		.ascii	"\000\000\000\000\000\000\000\000"
 277      00000000 
 278 001e B3000000 		.ascii	"\263\000\000\000"
 279 0022 47726565 		.ascii	"Green_Write\000"
 279      6E5F5772 
 279      69746500 
 280 002e 00       		.ascii	"\000"
 281 002f 00       		.ascii	"\000"
 282 0030 00       		.ascii	"\000"
 283 0031 00000000 		.ascii	"\000\000\000\000\000\000\000\000"
 283      00000000 
 284 0039 B5000000 		.ascii	"\265\000\000\000"
 285 003d 47726565 		.ascii	"Green_Read\000"
 285      6E5F5265 
 285      616400
 286 0048 00       		.ascii	"\000"
 287 0049 00       		.ascii	"\000"
 288 004a 00       		.ascii	"\000"
 289 004b 00000000 		.ascii	"\000\000\000\000\000\000\000\000"
 289      00000000 
 290 0053 B8000000 		.ascii	"\270\000\000\000"
 291 0057 47726565 		.ascii	"Green_ReadDataReg\000"
 291      6E5F5265 
 291      61644461 
 291      74615265 
 291      6700
 292 0069 00       		.ascii	"\000"
 293 006a 00       		.ascii	"\000"
 294 006b 00       		.ascii	"\000"
 295 006c 00000000 		.ascii	"\000\000\000\000\000\000\000\000"
 295      00000000 
 296 0074 BA000000 		.ascii	"\272\000\000\000"
 297 0078 47726565 		.ascii	"Green_SetInterruptMode\000"
 297      6E5F5365 
 297      74496E74 
 297      65727275 
 297      70744D6F 
 298 008f 00       		.ascii	"\000"
 299 0090 00       		.ascii	"\000"
 300 0091 00       		.ascii	"\000"
 301 0092 00000000 		.ascii	"\000\000\000\000\000\000\000\000"
 301      00000000 
 302 009a C4000000 		.ascii	"\304\000\000\000"
 303 009e 47726565 		.ascii	"Green_ClearInterrupt\000"
ARM GAS  C:\Users\gjl\AppData\Local\Temp\ccrje13k.s 			page 21


 303      6E5F436C 
 303      65617249 
 303      6E746572 
 303      72757074 
 304 00b3 00       		.ascii	"\000"
 305 00b4 00       		.ascii	"\000"
 306 00b5 00       		.ascii	"\000"
 307 00b6 00000000 		.ascii	"\000\000\000\000\000\000\000\000"
 307      00000000 
 308 00be C6000000 		.ascii	"\306\000\000\000"
 309              		.text
 310              		.section	.gnu.lto_.opts,"",%progbits
 311 0000 272D666D 		.ascii	"'-fmath-errno' '-fsigned-zeros' '-ftrapping-math' '"
 311      6174682D 
 311      6572726E 
 311      6F272027 
 311      2D667369 
 312 0033 2D666E6F 		.ascii	"-fno-trapv' '-fno-openmp' '-fno-openacc' '-mcpu=cor"
 312      2D747261 
 312      70762720 
 312      272D666E 
 312      6F2D6F70 
 313 0066 7465782D 		.ascii	"tex-m0' '-mthumb' '-g' '-Os' '-ffunction-sections' "
 313      6D302720 
 313      272D6D74 
 313      68756D62 
 313      2720272D 
 314 0099 272D6666 		.ascii	"'-ffat-lto-objects' '-flto'\000"
 314      61742D6C 
 314      746F2D6F 
 314      626A6563 
 314      74732720 
 315              		.text
 316              		.cfi_sections	.debug_frame
 317              		.section	.text.Green_SetDriveMode,"ax",%progbits
 318              		.align	1
 319              		.global	Green_SetDriveMode
 320              		.code	16
 321              		.thumb_func
 322              		.type	Green_SetDriveMode, %function
 323              	Green_SetDriveMode:
 324              	.LFB0:
 325              		.file 1 "Generated_Source\\PSoC4\\Green.c"
   1:Generated_Source\PSoC4/Green.c **** /*******************************************************************************
   2:Generated_Source\PSoC4/Green.c **** * File Name: Green.c  
   3:Generated_Source\PSoC4/Green.c **** * Version 2.20
   4:Generated_Source\PSoC4/Green.c **** *
   5:Generated_Source\PSoC4/Green.c **** * Description:
   6:Generated_Source\PSoC4/Green.c **** *  This file contains API to enable firmware control of a Pins component.
   7:Generated_Source\PSoC4/Green.c **** *
   8:Generated_Source\PSoC4/Green.c **** ********************************************************************************
   9:Generated_Source\PSoC4/Green.c **** * Copyright 2008-2015, Cypress Semiconductor Corporation.  All rights reserved.
  10:Generated_Source\PSoC4/Green.c **** * You may use this file only in accordance with the license, terms, conditions, 
  11:Generated_Source\PSoC4/Green.c **** * disclaimers, and limitations in the end user license agreement accompanying 
  12:Generated_Source\PSoC4/Green.c **** * the software package with which this file was provided.
  13:Generated_Source\PSoC4/Green.c **** *******************************************************************************/
  14:Generated_Source\PSoC4/Green.c **** 
ARM GAS  C:\Users\gjl\AppData\Local\Temp\ccrje13k.s 			page 22


  15:Generated_Source\PSoC4/Green.c **** #include "cytypes.h"
  16:Generated_Source\PSoC4/Green.c **** #include "Green.h"
  17:Generated_Source\PSoC4/Green.c **** 
  18:Generated_Source\PSoC4/Green.c **** 
  19:Generated_Source\PSoC4/Green.c **** #if defined(Green__PC)
  20:Generated_Source\PSoC4/Green.c ****     #define Green_SetP4PinDriveMode(shift, mode)  \
  21:Generated_Source\PSoC4/Green.c ****     do { \
  22:Generated_Source\PSoC4/Green.c ****         Green_PC =   (Green_PC & \
  23:Generated_Source\PSoC4/Green.c ****                                 (uint32)(~(uint32)(Green_DRIVE_MODE_IND_MASK << \
  24:Generated_Source\PSoC4/Green.c ****                                 (Green_DRIVE_MODE_BITS * (shift))))) | \
  25:Generated_Source\PSoC4/Green.c ****                                 (uint32)((uint32)(mode) << \
  26:Generated_Source\PSoC4/Green.c ****                                 (Green_DRIVE_MODE_BITS * (shift))); \
  27:Generated_Source\PSoC4/Green.c ****     } while (0)
  28:Generated_Source\PSoC4/Green.c **** #else
  29:Generated_Source\PSoC4/Green.c ****     #if (CY_PSOC4_4200L)
  30:Generated_Source\PSoC4/Green.c ****         #define Green_SetP4PinDriveMode(shift, mode)  \
  31:Generated_Source\PSoC4/Green.c ****         do { \
  32:Generated_Source\PSoC4/Green.c ****             Green_USBIO_CTRL_REG = (Green_USBIO_CTRL_REG & \
  33:Generated_Source\PSoC4/Green.c ****                                     (uint32)(~(uint32)(Green_DRIVE_MODE_IND_MASK << \
  34:Generated_Source\PSoC4/Green.c ****                                     (Green_DRIVE_MODE_BITS * (shift))))) | \
  35:Generated_Source\PSoC4/Green.c ****                                     (uint32)((uint32)(mode) << \
  36:Generated_Source\PSoC4/Green.c ****                                     (Green_DRIVE_MODE_BITS * (shift))); \
  37:Generated_Source\PSoC4/Green.c ****         } while (0)
  38:Generated_Source\PSoC4/Green.c ****     #endif
  39:Generated_Source\PSoC4/Green.c **** #endif
  40:Generated_Source\PSoC4/Green.c ****   
  41:Generated_Source\PSoC4/Green.c **** 
  42:Generated_Source\PSoC4/Green.c **** #if defined(Green__PC) || (CY_PSOC4_4200L) 
  43:Generated_Source\PSoC4/Green.c ****     /*******************************************************************************
  44:Generated_Source\PSoC4/Green.c ****     * Function Name: Green_SetDriveMode
  45:Generated_Source\PSoC4/Green.c ****     ****************************************************************************//**
  46:Generated_Source\PSoC4/Green.c ****     *
  47:Generated_Source\PSoC4/Green.c ****     * \brief Sets the drive mode for each of the Pins component's pins.
  48:Generated_Source\PSoC4/Green.c ****     * 
  49:Generated_Source\PSoC4/Green.c ****     * <b>Note</b> This affects all pins in the Pins component instance. Use the
  50:Generated_Source\PSoC4/Green.c ****     * Per-Pin APIs if you wish to control individual pin's drive modes.
  51:Generated_Source\PSoC4/Green.c ****     *
  52:Generated_Source\PSoC4/Green.c ****     * <b>Note</b> USBIOs have limited drive functionality. Refer to the Drive Mode
  53:Generated_Source\PSoC4/Green.c ****     * parameter for more information.
  54:Generated_Source\PSoC4/Green.c ****     *
  55:Generated_Source\PSoC4/Green.c ****     * \param mode
  56:Generated_Source\PSoC4/Green.c ****     *  Mode for the selected signals. Valid options are documented in 
  57:Generated_Source\PSoC4/Green.c ****     *  \ref driveMode.
  58:Generated_Source\PSoC4/Green.c ****     *
  59:Generated_Source\PSoC4/Green.c ****     * \return
  60:Generated_Source\PSoC4/Green.c ****     *  None
  61:Generated_Source\PSoC4/Green.c ****     *
  62:Generated_Source\PSoC4/Green.c ****     * \sideeffect
  63:Generated_Source\PSoC4/Green.c ****     *  If you use read-modify-write operations that are not atomic, the ISR can
  64:Generated_Source\PSoC4/Green.c ****     *  cause corruption of this function. An ISR that interrupts this function 
  65:Generated_Source\PSoC4/Green.c ****     *  and performs writes to the Pins component Drive Mode registers can cause 
  66:Generated_Source\PSoC4/Green.c ****     *  corrupted port data. To avoid this issue, you should either use the Per-Pin
  67:Generated_Source\PSoC4/Green.c ****     *  APIs (primary method) or disable interrupts around this function.
  68:Generated_Source\PSoC4/Green.c ****     *
  69:Generated_Source\PSoC4/Green.c ****     * \funcusage
  70:Generated_Source\PSoC4/Green.c ****     *  \snippet Green_SUT.c usage_Green_SetDriveMode
  71:Generated_Source\PSoC4/Green.c ****     *******************************************************************************/
ARM GAS  C:\Users\gjl\AppData\Local\Temp\ccrje13k.s 			page 23


  72:Generated_Source\PSoC4/Green.c ****     void Green_SetDriveMode(uint8 mode)
  73:Generated_Source\PSoC4/Green.c ****     {
 326              		.loc 1 73 0
 327              		.cfi_startproc
 328              		@ args = 0, pretend = 0, frame = 0
 329              		@ frame_needed = 0, uses_anonymous_args = 0
 330              		@ link register save eliminated.
 331              	.LVL0:
  74:Generated_Source\PSoC4/Green.c **** 		Green_SetP4PinDriveMode(Green__0__SHIFT, mode);
 332              		.loc 1 74 0
 333 0000 034A     		ldr	r2, .L2
 334 0002 044B     		ldr	r3, .L2+4
 335 0004 1168     		ldr	r1, [r2]
 336 0006 8004     		lsls	r0, r0, #18
 337              	.LVL1:
 338 0008 0B40     		ands	r3, r1
 339 000a 1843     		orrs	r0, r3
 340 000c 1060     		str	r0, [r2]
  75:Generated_Source\PSoC4/Green.c ****     }
 341              		.loc 1 75 0
 342              		@ sp needed
 343 000e 7047     		bx	lr
 344              	.L3:
 345              		.align	2
 346              	.L2:
 347 0010 08020440 		.word	1074004488
 348 0014 FFFFE3FF 		.word	-1835009
 349              		.cfi_endproc
 350              	.LFE0:
 351              		.size	Green_SetDriveMode, .-Green_SetDriveMode
 352              		.section	.text.Green_Write,"ax",%progbits
 353              		.align	1
 354              		.global	Green_Write
 355              		.code	16
 356              		.thumb_func
 357              		.type	Green_Write, %function
 358              	Green_Write:
 359              	.LFB1:
  76:Generated_Source\PSoC4/Green.c **** #endif
  77:Generated_Source\PSoC4/Green.c **** 
  78:Generated_Source\PSoC4/Green.c **** 
  79:Generated_Source\PSoC4/Green.c **** /*******************************************************************************
  80:Generated_Source\PSoC4/Green.c **** * Function Name: Green_Write
  81:Generated_Source\PSoC4/Green.c **** ****************************************************************************//**
  82:Generated_Source\PSoC4/Green.c **** *
  83:Generated_Source\PSoC4/Green.c **** * \brief Writes the value to the physical port (data output register), masking
  84:Generated_Source\PSoC4/Green.c **** *  and shifting the bits appropriately. 
  85:Generated_Source\PSoC4/Green.c **** *
  86:Generated_Source\PSoC4/Green.c **** * The data output register controls the signal applied to the physical pin in 
  87:Generated_Source\PSoC4/Green.c **** * conjunction with the drive mode parameter. This function avoids changing 
  88:Generated_Source\PSoC4/Green.c **** * other bits in the port by using the appropriate method (read-modify-write or
  89:Generated_Source\PSoC4/Green.c **** * bit banding).
  90:Generated_Source\PSoC4/Green.c **** *
  91:Generated_Source\PSoC4/Green.c **** * <b>Note</b> This function should not be used on a hardware digital output pin 
  92:Generated_Source\PSoC4/Green.c **** * as it is driven by the hardware signal attached to it.
  93:Generated_Source\PSoC4/Green.c **** *
  94:Generated_Source\PSoC4/Green.c **** * \param value
ARM GAS  C:\Users\gjl\AppData\Local\Temp\ccrje13k.s 			page 24


  95:Generated_Source\PSoC4/Green.c **** *  Value to write to the component instance.
  96:Generated_Source\PSoC4/Green.c **** *
  97:Generated_Source\PSoC4/Green.c **** * \return 
  98:Generated_Source\PSoC4/Green.c **** *  None 
  99:Generated_Source\PSoC4/Green.c **** *
 100:Generated_Source\PSoC4/Green.c **** * \sideeffect
 101:Generated_Source\PSoC4/Green.c **** *  If you use read-modify-write operations that are not atomic; the Interrupt 
 102:Generated_Source\PSoC4/Green.c **** *  Service Routines (ISR) can cause corruption of this function. An ISR that 
 103:Generated_Source\PSoC4/Green.c **** *  interrupts this function and performs writes to the Pins component data 
 104:Generated_Source\PSoC4/Green.c **** *  register can cause corrupted port data. To avoid this issue, you should 
 105:Generated_Source\PSoC4/Green.c **** *  either use the Per-Pin APIs (primary method) or disable interrupts around 
 106:Generated_Source\PSoC4/Green.c **** *  this function.
 107:Generated_Source\PSoC4/Green.c **** *
 108:Generated_Source\PSoC4/Green.c **** * \funcusage
 109:Generated_Source\PSoC4/Green.c **** *  \snippet Green_SUT.c usage_Green_Write
 110:Generated_Source\PSoC4/Green.c **** *******************************************************************************/
 111:Generated_Source\PSoC4/Green.c **** void Green_Write(uint8 value)
 112:Generated_Source\PSoC4/Green.c **** {
 360              		.loc 1 112 0
 361              		.cfi_startproc
 362              		@ args = 0, pretend = 0, frame = 0
 363              		@ frame_needed = 0, uses_anonymous_args = 0
 364              		@ link register save eliminated.
 365              	.LVL2:
 113:Generated_Source\PSoC4/Green.c ****     uint8 drVal = (uint8)(Green_DR & (uint8)(~Green_MASK));
 366              		.loc 1 113 0
 367 0000 4023     		movs	r3, #64
 368 0002 0449     		ldr	r1, .L5
 114:Generated_Source\PSoC4/Green.c ****     drVal = (drVal | ((uint8)(value << Green_SHIFT) & Green_MASK));
 115:Generated_Source\PSoC4/Green.c ****     Green_DR = (uint32)drVal;
 369              		.loc 1 115 0
 370 0004 8001     		lsls	r0, r0, #6
 371              	.LVL3:
 113:Generated_Source\PSoC4/Green.c ****     uint8 drVal = (uint8)(Green_DR & (uint8)(~Green_MASK));
 372              		.loc 1 113 0
 373 0006 0A68     		ldr	r2, [r1]
 116:Generated_Source\PSoC4/Green.c **** }
 374              		.loc 1 116 0
 375              		@ sp needed
 113:Generated_Source\PSoC4/Green.c ****     uint8 drVal = (uint8)(Green_DR & (uint8)(~Green_MASK));
 376              		.loc 1 113 0
 377 0008 9A43     		bics	r2, r3
 378 000a D2B2     		uxtb	r2, r2
 115:Generated_Source\PSoC4/Green.c **** }
 379              		.loc 1 115 0
 380 000c 0340     		ands	r3, r0
 381 000e 1343     		orrs	r3, r2
 382 0010 0B60     		str	r3, [r1]
 383              		.loc 1 116 0
 384 0012 7047     		bx	lr
 385              	.L6:
 386              		.align	2
 387              	.L5:
 388 0014 00020440 		.word	1074004480
 389              		.cfi_endproc
 390              	.LFE1:
 391              		.size	Green_Write, .-Green_Write
ARM GAS  C:\Users\gjl\AppData\Local\Temp\ccrje13k.s 			page 25


 392              		.section	.text.Green_Read,"ax",%progbits
 393              		.align	1
 394              		.global	Green_Read
 395              		.code	16
 396              		.thumb_func
 397              		.type	Green_Read, %function
 398              	Green_Read:
 399              	.LFB2:
 117:Generated_Source\PSoC4/Green.c **** 
 118:Generated_Source\PSoC4/Green.c **** 
 119:Generated_Source\PSoC4/Green.c **** /*******************************************************************************
 120:Generated_Source\PSoC4/Green.c **** * Function Name: Green_Read
 121:Generated_Source\PSoC4/Green.c **** ****************************************************************************//**
 122:Generated_Source\PSoC4/Green.c **** *
 123:Generated_Source\PSoC4/Green.c **** * \brief Reads the associated physical port (pin status register) and masks 
 124:Generated_Source\PSoC4/Green.c **** *  the required bits according to the width and bit position of the component
 125:Generated_Source\PSoC4/Green.c **** *  instance. 
 126:Generated_Source\PSoC4/Green.c **** *
 127:Generated_Source\PSoC4/Green.c **** * The pin's status register returns the current logic level present on the 
 128:Generated_Source\PSoC4/Green.c **** * physical pin.
 129:Generated_Source\PSoC4/Green.c **** *
 130:Generated_Source\PSoC4/Green.c **** * \return 
 131:Generated_Source\PSoC4/Green.c **** *  The current value for the pins in the component as a right justified number.
 132:Generated_Source\PSoC4/Green.c **** *
 133:Generated_Source\PSoC4/Green.c **** * \funcusage
 134:Generated_Source\PSoC4/Green.c **** *  \snippet Green_SUT.c usage_Green_Read  
 135:Generated_Source\PSoC4/Green.c **** *******************************************************************************/
 136:Generated_Source\PSoC4/Green.c **** uint8 Green_Read(void)
 137:Generated_Source\PSoC4/Green.c **** {
 400              		.loc 1 137 0
 401              		.cfi_startproc
 402              		@ args = 0, pretend = 0, frame = 0
 403              		@ frame_needed = 0, uses_anonymous_args = 0
 404              		@ link register save eliminated.
 138:Generated_Source\PSoC4/Green.c ****     return (uint8)((Green_PS & Green_MASK) >> Green_SHIFT);
 405              		.loc 1 138 0
 406 0000 024B     		ldr	r3, .L8
 139:Generated_Source\PSoC4/Green.c **** }
 407              		.loc 1 139 0
 408              		@ sp needed
 138:Generated_Source\PSoC4/Green.c ****     return (uint8)((Green_PS & Green_MASK) >> Green_SHIFT);
 409              		.loc 1 138 0
 410 0002 1868     		ldr	r0, [r3]
 411 0004 4006     		lsls	r0, r0, #25
 412 0006 C00F     		lsrs	r0, r0, #31
 413              		.loc 1 139 0
 414 0008 7047     		bx	lr
 415              	.L9:
 416 000a C046     		.align	2
 417              	.L8:
 418 000c 04020440 		.word	1074004484
 419              		.cfi_endproc
 420              	.LFE2:
 421              		.size	Green_Read, .-Green_Read
 422              		.section	.text.Green_ReadDataReg,"ax",%progbits
 423              		.align	1
 424              		.global	Green_ReadDataReg
ARM GAS  C:\Users\gjl\AppData\Local\Temp\ccrje13k.s 			page 26


 425              		.code	16
 426              		.thumb_func
 427              		.type	Green_ReadDataReg, %function
 428              	Green_ReadDataReg:
 429              	.LFB3:
 140:Generated_Source\PSoC4/Green.c **** 
 141:Generated_Source\PSoC4/Green.c **** 
 142:Generated_Source\PSoC4/Green.c **** /*******************************************************************************
 143:Generated_Source\PSoC4/Green.c **** * Function Name: Green_ReadDataReg
 144:Generated_Source\PSoC4/Green.c **** ****************************************************************************//**
 145:Generated_Source\PSoC4/Green.c **** *
 146:Generated_Source\PSoC4/Green.c **** * \brief Reads the associated physical port's data output register and masks 
 147:Generated_Source\PSoC4/Green.c **** *  the correct bits according to the width and bit position of the component 
 148:Generated_Source\PSoC4/Green.c **** *  instance. 
 149:Generated_Source\PSoC4/Green.c **** *
 150:Generated_Source\PSoC4/Green.c **** * The data output register controls the signal applied to the physical pin in 
 151:Generated_Source\PSoC4/Green.c **** * conjunction with the drive mode parameter. This is not the same as the 
 152:Generated_Source\PSoC4/Green.c **** * preferred Green_Read() API because the 
 153:Generated_Source\PSoC4/Green.c **** * Green_ReadDataReg() reads the data register instead of the status 
 154:Generated_Source\PSoC4/Green.c **** * register. For output pins this is a useful function to determine the value 
 155:Generated_Source\PSoC4/Green.c **** * just written to the pin.
 156:Generated_Source\PSoC4/Green.c **** *
 157:Generated_Source\PSoC4/Green.c **** * \return 
 158:Generated_Source\PSoC4/Green.c **** *  The current value of the data register masked and shifted into a right 
 159:Generated_Source\PSoC4/Green.c **** *  justified number for the component instance.
 160:Generated_Source\PSoC4/Green.c **** *
 161:Generated_Source\PSoC4/Green.c **** * \funcusage
 162:Generated_Source\PSoC4/Green.c **** *  \snippet Green_SUT.c usage_Green_ReadDataReg 
 163:Generated_Source\PSoC4/Green.c **** *******************************************************************************/
 164:Generated_Source\PSoC4/Green.c **** uint8 Green_ReadDataReg(void)
 165:Generated_Source\PSoC4/Green.c **** {
 430              		.loc 1 165 0
 431              		.cfi_startproc
 432              		@ args = 0, pretend = 0, frame = 0
 433              		@ frame_needed = 0, uses_anonymous_args = 0
 434              		@ link register save eliminated.
 166:Generated_Source\PSoC4/Green.c ****     return (uint8)((Green_DR & Green_MASK) >> Green_SHIFT);
 435              		.loc 1 166 0
 436 0000 024B     		ldr	r3, .L11
 167:Generated_Source\PSoC4/Green.c **** }
 437              		.loc 1 167 0
 438              		@ sp needed
 166:Generated_Source\PSoC4/Green.c ****     return (uint8)((Green_DR & Green_MASK) >> Green_SHIFT);
 439              		.loc 1 166 0
 440 0002 1868     		ldr	r0, [r3]
 441 0004 4006     		lsls	r0, r0, #25
 442 0006 C00F     		lsrs	r0, r0, #31
 443              		.loc 1 167 0
 444 0008 7047     		bx	lr
 445              	.L12:
 446 000a C046     		.align	2
 447              	.L11:
 448 000c 00020440 		.word	1074004480
 449              		.cfi_endproc
 450              	.LFE3:
 451              		.size	Green_ReadDataReg, .-Green_ReadDataReg
 452              		.section	.text.Green_SetInterruptMode,"ax",%progbits
ARM GAS  C:\Users\gjl\AppData\Local\Temp\ccrje13k.s 			page 27


 453              		.align	1
 454              		.global	Green_SetInterruptMode
 455              		.code	16
 456              		.thumb_func
 457              		.type	Green_SetInterruptMode, %function
 458              	Green_SetInterruptMode:
 459              	.LFB4:
 168:Generated_Source\PSoC4/Green.c **** 
 169:Generated_Source\PSoC4/Green.c **** 
 170:Generated_Source\PSoC4/Green.c **** /*******************************************************************************
 171:Generated_Source\PSoC4/Green.c **** * Function Name: Green_SetInterruptMode
 172:Generated_Source\PSoC4/Green.c **** ****************************************************************************//**
 173:Generated_Source\PSoC4/Green.c **** *
 174:Generated_Source\PSoC4/Green.c **** * \brief Configures the interrupt mode for each of the Pins component's
 175:Generated_Source\PSoC4/Green.c **** *  pins. Alternatively you may set the interrupt mode for all the pins
 176:Generated_Source\PSoC4/Green.c **** *  specified in the Pins component.
 177:Generated_Source\PSoC4/Green.c **** *
 178:Generated_Source\PSoC4/Green.c **** *  <b>Note</b> The interrupt is port-wide and therefore any enabled pin
 179:Generated_Source\PSoC4/Green.c **** *  interrupt may trigger it.
 180:Generated_Source\PSoC4/Green.c **** *
 181:Generated_Source\PSoC4/Green.c **** * \param position
 182:Generated_Source\PSoC4/Green.c **** *  The pin position as listed in the Pins component. You may OR these to be 
 183:Generated_Source\PSoC4/Green.c **** *  able to configure the interrupt mode of multiple pins within a Pins 
 184:Generated_Source\PSoC4/Green.c **** *  component. Or you may use Green_INTR_ALL to configure the
 185:Generated_Source\PSoC4/Green.c **** *  interrupt mode of all the pins in the Pins component.       
 186:Generated_Source\PSoC4/Green.c **** *  - Green_0_INTR       (First pin in the list)
 187:Generated_Source\PSoC4/Green.c **** *  - Green_1_INTR       (Second pin in the list)
 188:Generated_Source\PSoC4/Green.c **** *  - ...
 189:Generated_Source\PSoC4/Green.c **** *  - Green_INTR_ALL     (All pins in Pins component)
 190:Generated_Source\PSoC4/Green.c **** *
 191:Generated_Source\PSoC4/Green.c **** * \param mode
 192:Generated_Source\PSoC4/Green.c **** *  Interrupt mode for the selected pins. Valid options are documented in
 193:Generated_Source\PSoC4/Green.c **** *  \ref intrMode.
 194:Generated_Source\PSoC4/Green.c **** *
 195:Generated_Source\PSoC4/Green.c **** * \return 
 196:Generated_Source\PSoC4/Green.c **** *  None
 197:Generated_Source\PSoC4/Green.c **** *  
 198:Generated_Source\PSoC4/Green.c **** * \sideeffect
 199:Generated_Source\PSoC4/Green.c **** *  It is recommended that the interrupt be disabled before calling this 
 200:Generated_Source\PSoC4/Green.c **** *  function to avoid unintended interrupt requests. Note that the interrupt
 201:Generated_Source\PSoC4/Green.c **** *  type is port wide, and therefore will trigger for any enabled pin on the 
 202:Generated_Source\PSoC4/Green.c **** *  port.
 203:Generated_Source\PSoC4/Green.c **** *
 204:Generated_Source\PSoC4/Green.c **** * \funcusage
 205:Generated_Source\PSoC4/Green.c **** *  \snippet Green_SUT.c usage_Green_SetInterruptMode
 206:Generated_Source\PSoC4/Green.c **** *******************************************************************************/
 207:Generated_Source\PSoC4/Green.c **** void Green_SetInterruptMode(uint16 position, uint16 mode)
 208:Generated_Source\PSoC4/Green.c **** {
 460              		.loc 1 208 0
 461              		.cfi_startproc
 462              		@ args = 0, pretend = 0, frame = 0
 463              		@ frame_needed = 0, uses_anonymous_args = 0
 464              		@ link register save eliminated.
 465              	.LVL4:
 209:Generated_Source\PSoC4/Green.c ****     uint32 intrCfg;
 210:Generated_Source\PSoC4/Green.c ****     
 211:Generated_Source\PSoC4/Green.c ****     intrCfg =  Green_INTCFG & (uint32)(~(uint32)position);
ARM GAS  C:\Users\gjl\AppData\Local\Temp\ccrje13k.s 			page 28


 466              		.loc 1 211 0
 467 0000 034A     		ldr	r2, .L14
 212:Generated_Source\PSoC4/Green.c ****     Green_INTCFG = intrCfg | ((uint32)position & (uint32)mode);
 213:Generated_Source\PSoC4/Green.c **** }
 468              		.loc 1 213 0
 469              		@ sp needed
 211:Generated_Source\PSoC4/Green.c ****     Green_INTCFG = intrCfg | ((uint32)position & (uint32)mode);
 470              		.loc 1 211 0
 471 0002 1368     		ldr	r3, [r2]
 472              	.LVL5:
 212:Generated_Source\PSoC4/Green.c ****     Green_INTCFG = intrCfg | ((uint32)position & (uint32)mode);
 473              		.loc 1 212 0
 474 0004 8343     		bics	r3, r0
 475              	.LVL6:
 476 0006 0840     		ands	r0, r1
 477              	.LVL7:
 478 0008 1843     		orrs	r0, r3
 479 000a 1060     		str	r0, [r2]
 480              		.loc 1 213 0
 481 000c 7047     		bx	lr
 482              	.L15:
 483 000e C046     		.align	2
 484              	.L14:
 485 0010 0C020440 		.word	1074004492
 486              		.cfi_endproc
 487              	.LFE4:
 488              		.size	Green_SetInterruptMode, .-Green_SetInterruptMode
 489              		.section	.text.Green_ClearInterrupt,"ax",%progbits
 490              		.align	1
 491              		.global	Green_ClearInterrupt
 492              		.code	16
 493              		.thumb_func
 494              		.type	Green_ClearInterrupt, %function
 495              	Green_ClearInterrupt:
 496              	.LFB5:
 214:Generated_Source\PSoC4/Green.c **** 
 215:Generated_Source\PSoC4/Green.c **** 
 216:Generated_Source\PSoC4/Green.c **** /*******************************************************************************
 217:Generated_Source\PSoC4/Green.c **** * Function Name: Green_ClearInterrupt
 218:Generated_Source\PSoC4/Green.c **** ****************************************************************************//**
 219:Generated_Source\PSoC4/Green.c **** *
 220:Generated_Source\PSoC4/Green.c **** * \brief Clears any active interrupts attached with the component and returns 
 221:Generated_Source\PSoC4/Green.c **** *  the value of the interrupt status register allowing determination of which
 222:Generated_Source\PSoC4/Green.c **** *  pins generated an interrupt event.
 223:Generated_Source\PSoC4/Green.c **** *
 224:Generated_Source\PSoC4/Green.c **** * \return 
 225:Generated_Source\PSoC4/Green.c **** *  The right-shifted current value of the interrupt status register. Each pin 
 226:Generated_Source\PSoC4/Green.c **** *  has one bit set if it generated an interrupt event. For example, bit 0 is 
 227:Generated_Source\PSoC4/Green.c **** *  for pin 0 and bit 1 is for pin 1 of the Pins component.
 228:Generated_Source\PSoC4/Green.c **** *  
 229:Generated_Source\PSoC4/Green.c **** * \sideeffect
 230:Generated_Source\PSoC4/Green.c **** *  Clears all bits of the physical port's interrupt status register, not just
 231:Generated_Source\PSoC4/Green.c **** *  those associated with the Pins component.
 232:Generated_Source\PSoC4/Green.c **** *
 233:Generated_Source\PSoC4/Green.c **** * \funcusage
 234:Generated_Source\PSoC4/Green.c **** *  \snippet Green_SUT.c usage_Green_ClearInterrupt
 235:Generated_Source\PSoC4/Green.c **** *******************************************************************************/
ARM GAS  C:\Users\gjl\AppData\Local\Temp\ccrje13k.s 			page 29


 236:Generated_Source\PSoC4/Green.c **** uint8 Green_ClearInterrupt(void)
 237:Generated_Source\PSoC4/Green.c **** {
 497              		.loc 1 237 0
 498              		.cfi_startproc
 499              		@ args = 0, pretend = 0, frame = 0
 500              		@ frame_needed = 0, uses_anonymous_args = 0
 501              		@ link register save eliminated.
 238:Generated_Source\PSoC4/Green.c **** 	uint8 maskedStatus = (uint8)(Green_INTSTAT & Green_MASK);
 502              		.loc 1 238 0
 503 0000 4023     		movs	r3, #64
 504 0002 034A     		ldr	r2, .L17
 239:Generated_Source\PSoC4/Green.c **** 	Green_INTSTAT = maskedStatus;
 240:Generated_Source\PSoC4/Green.c ****     return maskedStatus >> Green_SHIFT;
 241:Generated_Source\PSoC4/Green.c **** }
 505              		.loc 1 241 0
 506              		@ sp needed
 238:Generated_Source\PSoC4/Green.c **** 	uint8 maskedStatus = (uint8)(Green_INTSTAT & Green_MASK);
 507              		.loc 1 238 0
 508 0004 1068     		ldr	r0, [r2]
 509 0006 1840     		ands	r0, r3
 510              	.LVL8:
 239:Generated_Source\PSoC4/Green.c **** 	Green_INTSTAT = maskedStatus;
 511              		.loc 1 239 0
 512 0008 1060     		str	r0, [r2]
 240:Generated_Source\PSoC4/Green.c **** }
 513              		.loc 1 240 0
 514 000a 8009     		lsrs	r0, r0, #6
 515              	.LVL9:
 516 000c C0B2     		uxtb	r0, r0
 517              		.loc 1 241 0
 518 000e 7047     		bx	lr
 519              	.L18:
 520              		.align	2
 521              	.L17:
 522 0010 10020440 		.word	1074004496
 523              		.cfi_endproc
 524              	.LFE5:
 525              		.size	Green_ClearInterrupt, .-Green_ClearInterrupt
 526              		.text
 527              	.Letext0:
 528              		.file 2 "Generated_Source\\PSoC4\\cytypes.h"