ARM GAS  C:\Users\gjl\AppData\Local\Temp\ccVrmJeK.s 			page 1


   1              		.syntax unified
   2              		.cpu cortex-m0
   3              		.fpu softvfp
   4              		.eabi_attribute 20, 1
   5              		.eabi_attribute 21, 1
   6              		.eabi_attribute 23, 3
   7              		.eabi_attribute 24, 1
   8              		.eabi_attribute 25, 1
   9              		.eabi_attribute 26, 1
  10              		.eabi_attribute 30, 4
  11              		.eabi_attribute 34, 0
  12              		.eabi_attribute 18, 4
  13              		.thumb
  14              		.syntax unified
  15              		.file	"I2C.c"
  16              		.text
  17              	.Ltext0:
  18              		.section	.gnu.lto_.profile.1a3d1c5,"",%progbits
  19 0000 789C6361 		.ascii	"x\234ca`d`a`\000\222\225\232\000\001\205\000\255"
  19      60646061 
  19      60009295 
  19      9A000185 
  19      00AD
  20              		.text
  21              		.section	.gnu.lto_.icf.1a3d1c5,"",%progbits
  22 0000 789C6361 		.ascii	"x\234ca`d\000\001;\006\004\340bx\360\373\346c&\306\371"
  22      60640001 
  22      3B0604E0 
  22      6278F0FB 
  22      E66326C6 
  23 0015 330F1DE3 		.ascii	"3\017\035\343b\332t\361\330JF\346_\263\357\2640\261"
  23      62DA74F1 
  23      D84A46E6 
  23      5FB3EFB4 
  23      30B1
  24 0027 ACF97BE3 		.ascii	"\254\371{\343:\033\353\234\371w\377\262\262\315\370"
  24      3A1BEB9C 
  24      F977FFB2 
  24      B2CDF8
  25 0036 D97D8B87 		.ascii	"\331}\213\207\275\373\317\267\313|\034G{N\277\342\344"
  25      BDFBCFB7 
  25      CB7C1C47 
  25      7B4EBFE2 
  25      E4
  26 0047 DCFEF572 		.ascii	"\334\376\365r3?\003\000\364\202\037\300"
  26      333F0300 
  26      F4821FC0 
  27              		.text
  28              		.section	.gnu.lto_.jmpfuncs.1a3d1c5,"",%progbits
  29 0000 789C6361 		.ascii	"x\234ca`d\000\001\037\006\004\340\000b&\306\277L\214"
  29      60640001 
  29      1F0604E0 
  29      006226C6 
  29      BF4C8C
  30 0013 B3767F39 		.ascii	"\263v\1779\305\372\205\251\225\231\201\221\203q9\243"
  30      C5FA85A9 
  30      95998191 
ARM GAS  C:\Users\gjl\AppData\Local\Temp\ccVrmJeK.s 			page 2


  30      837139A3 
  31 0023 0C035831 		.ascii	"\014\003X1\023\0203\203\324\261\202\224A\304\341\014"
  31      13103383 
  31      D4B18294 
  31      41C4E10C 
  32 0033 364646C6 		.ascii	"6FF\306zv\020\301\001\"\030\000\353\\\011\367"
  32      7A7610C1 
  32      01221800 
  32      EB5C09F7 
  33              		.text
  34              		.section	.gnu.lto_.inline.1a3d1c5,"",%progbits
  35 0000 789C7D8E 		.ascii	"x\234}\216\253\021\200@\014D7\367\3478\006A\001\240"
  35      AB118040 
  35      0C4437F7 
  35      E7380641 
  35      01A0
  36 0012 902834B5 		.ascii	"\220(4\265R\012%\340h\003\215\"A\034s\010\"\362y\273"
  36      520A25E0 
  36      68038D22 
  36      411C7308 
  36      22F279BB 
  37 0026 93C48020 		.ascii	"\223\304\200 q\340\215\000\330\206\240\270uk/\005\252"
  37      71E08D00 
  37      D886A0B8 
  37      756B2F05 
  37      AA
  38 0037 061B0926 		.ascii	"\006\033\011&\225\234\242\210\360-cwN%\327\250:\346"
  38      959CA288 
  38      F02D6377 
  38      4E25D7A8 
  38      3AE6
  39 0049 E19A4BFE 		.ascii	"\341\232K\376$\2134\212\270-\337#1\267\016\301\023a"
  39      248B348A 
  39      B82DDF23 
  39      31B70EC1 
  39      1361
  40 005b E0177536 		.ascii	"\340\027u6\252\2755\342\366\177b\200\321\274\235\307"
  40      AABD35E2 
  40      F67F6280 
  40      D1BC9DC7 
  41 006b BC1D3799 		.ascii	"\274\0357\231<\020\276"
  41      3C10BE
  42              		.text
  43              		.section	.gnu.lto_.pureconst.1a3d1c5,"",%progbits
  44 0000 789C6361 		.ascii	"x\234ca`d\020d``\340`\220`\224`\222b\226`\225b\223b"
  44      60641064 
  44      6060E060 
  44      90609460 
  44      92629660 
  45 0018 97E29000 		.ascii	"\227\342\220\000\000\011q\001\007"
  45      00097101 
  45      07
  46              		.text
  47              		.section	.gnu.lto_I2C_ScbEnableIntr.1a3d1c5,"",%progbits
  48 0000 789C6361 		.ascii	"x\234ca`d\000\201}@,\017\304\322@\314\310\314\300\310"
  48      60640081 
  48      7D402C0F 
ARM GAS  C:\Users\gjl\AppData\Local\Temp\ccVrmJeK.s 			page 3


  48      C4D240CC 
  48      C8CCC0C8 
  49 0014 34E11C03 		.ascii	"4\341\034\003C#\007\023##\210\321\300\301\310P\317\304"
  49      43230713 
  49      232388D1 
  49      C0C1C850 
  49      CFC4
  50 0026 58CFF895 		.ascii	"X\317\370\225\351/\023\343\241\366g;\2314\2277\000\301"
  50      E92F13E3 
  50      A1F6673B 
  50      99349737 
  50      00C1
  51 0038 83D6CF59 		.ascii	"\203\326\317Y\215\015\255\022\255\314\014\014\377\231"
  51      8D0DAD12 
  51      ADCC0C0C 
  51      FF99
  52 0046 C0263130 		.ascii	"\300&10.g\324d\000*{\264\361\337T^\266\026\2202\005"
  52      2E67D464 
  52      002A7BB4 
  52      F1DF545E 
  52      B6169032 
  53 005b 8824E30A 		.ascii	"\210$\343\012F6\220u\353\203\0164\374\377\337\334p`"
  53      46369075 
  53      EB830E34 
  53      FCFFDFDC 
  53      7060
  54 006d B6F8C16B 		.ascii	"\266\370\301k\342@\255\037\200\262 {>21\201h\346\027"
  54      E240AD1F 
  54      80B2207B 
  54      3E323181 
  54      68E617
  55 0080 8C2D07F6 		.ascii	"\214-\007\366_\347\001\251\007\231\264s\347\233\333"
  55      5FE701A9 
  55      0799B473 
  55      E79BDB
  56 008f ECF57F1B 		.ascii	"\354\365\177\033:\032\032\004Z\231\031\3773\001\015"
  56      3A1A1A04 
  56      5A9919FF 
  56      33010D
  57 009e 615CC958 		.ascii	"a\\\311X\017\222\233\265\373\313)\326/L\255\314L\214"
  57      0F929BB5 
  57      FBCB29D6 
  57      2F4CADCC 
  57      4C8C
  58 00b0 1C8CAB18 		.ascii	"\034\214\253\030eZ\231\231\031^16\035\270\036\016\326"
  58      655A9999 
  58      195E3136 
  58      1DB81E0E 
  58      D6
  59 00c1 0D021F80 		.ascii	"\015\002\037\200\352\201\246\002\355\220uO\315K-J,I"
  59      EA81A602 
  59      ED90754F 
  59      CD4B2D4A 
  59      2C49
  60 00d3 4D890FCE 		.ascii	"M\211\017\316/-JN\215\011\010\316w6\211\3614r\326Kf"
  60      2F2D4A4E 
  60      8D0908CE 
ARM GAS  C:\Users\gjl\AppData\Local\Temp\ccVrmJeK.s 			page 4


  60      773689F1 
  60      3472D64B 
  61 00e8 00008DE8 		.ascii	"\000\000\215\350PE"
  61      5045
  62              		.text
  63              		.section	.gnu.lto_I2C_Init.1a3d1c5,"",%progbits
  64 0000 789C6361 		.ascii	"x\234ca`d\000\201\325@,\017\304\322@\314\310\314\300"
  64      60640081 
  64      D5402C0F 
  64      C4D240CC 
  64      C8CCC0
  65 0013 C834E11C 		.ascii	"\3104\341\034\003C#\007\023##\210\321\300\301\310P\317"
  65      03432307 
  65      13232388 
  65      D1C0C1C8 
  65      50CF
  66 0025 C458CFF8 		.ascii	"\304X\317\370\225\351/\023\343\241\366g;\2314\2277\000"
  66      95E92F13 
  66      E3A1F667 
  66      3B993497 
  66      3700
  67 0037 C183A7FF 		.ascii	"\301\203\247\377\014\032V\034`lef`\370\317\0046\211"
  67      0C1A561C 
  67      606C6566 
  67      60F8CF04 
  67      3689
  68 0049 817139A3 		.ascii	"\201q9\243&\003P\331\243\215\377\246\362\262\265\200"
  68      260350D9 
  68      A38DFFA6 
  68      F2B2B580 
  69 0059 94294024 		.ascii	"\224)@$\031W0\262\201\254[\037t\240\341\377\377\346"
  69      195730B2 
  69      81AC5B1F 
  69      74A0E1FF 
  69      FFE6
  70 006b 86033FD9 		.ascii	"\206\003?\331\017\336\340\002j\375\000\224\005\331\363"
  70      0FDEE002 
  70      6AFD0094 
  70      05D9F3
  71 007a 91890944 		.ascii	"\221\211\011D3\277`l>\260\361\024\023H=\310\244\235"
  71      33BF606C 
  71      3EB0F114 
  71      13483DC8 
  71      A49D
  72 008c 3BDFDC66 		.ascii	";\337\334f\257\377\333\320\321\320 \320\312\314\370"
  72      AFFFDBD0 
  72      D1D020D0 
  72      CACCF8
  73 009b 9F096808 		.ascii	"\237\011h\010\343J\306z\206Vf&\206W\214M\007nz\201\225"
  73      E34AC67A 
  73      86566626 
  73      86578C4D 
  73      076E7A81 
  74 00b0 82C007A0 		.ascii	"\202\300\007\240$\320\010\240\201\262\356\251y\251E"
  74      24D008A0 
  74      81B2EEA9 
  74      79A945
ARM GAS  C:\Users\gjl\AppData\Local\Temp\ccVrmJeK.s 			page 5


  75 00bf 8925A929 		.ascii	"\211%\251)\361\301\371\245E\311\2511\001\301\371\316"
  75      F1C1F9A5 
  75      45C9A931 
  75      01C1F9CE 
  76 00cf 26319E46 		.ascii	"&1\236F\316z\311\014\000\340\035JV"
  76      CE7AC90C 
  76      00E01D4A 
  76      56
  77              		.text
  78              		.section	.gnu.lto_I2C_Enable.1a3d1c5,"",%progbits
  79 0000 789C7D4F 		.ascii	"x\234}OMKBA\024\275gF\237B\024\3553j\353&(\372\007."
  79      4D4B4241 
  79      14BD6746 
  79      9F4214ED 
  79      336AEB26 
  80 0018 A24D44B6 		.ascii	"\242MD\266K\210\260\267M\220Z;\246\217\244\225-t\021"
  80      4B88B0B7 
  80      4D905A3B 
  80      A68FA495 
  80      2D7411
  81 002b 843BB54F 		.ascii	"\204;\265Oi\023<h\361r+\330\017h\023A\217\210\026\006"
  81      69133C68 
  81      F1722BD8 
  81      0F681341 
  81      8F881606 
  82 003f 4511E8EB 		.ascii	"E\021\350\353^m\335\205\23133\367\3149\347\206\010$"
  82      5E6DDD85 
  82      993333F7 
  82      CC39E786 
  82      0824
  83 0051 B5C130C3 		.ascii	"\265\3010\3038\305\013\232\240\312]\242|T\001r0QPN!"
  83      38C50B9A 
  83      A0CA5DA2 
  83      7C540172 
  83      3051504E 
  84 0066 874FD557 		.ascii	"\207O\325Wh\037\370\256\2127\014\327\343\363\315\274"
  84      681FF8AE 
  84      8A370CD7 
  84      E3F3CDBC 
  85 0076 697A7034 		.ascii	"izp4Q\240\206J\204\006\342\304\264\247\353Ae\334*\012"
  85      51A0864A 
  85      8406E2C4 
  85      B4A7EB41 
  85      65DC2A0A 
  86 008a 6D76D444 		.ascii	"mv\324D\023\226\330\265\326<\023\004\005\343\271cw\345"
  86      1396D8B5 
  86      D63C1304 
  86      05E3B963 
  86      77E5
  87 009c 094B91A3 		.ascii	"\011K\221\243\331\2237\242\036\363\304\361])A\355\243"
  87      D99337A2 
  87      1EF3C4F1 
  87      5D2941ED 
  87      A3
  88 00ad FD73D86D 		.ascii	"\375s\330m\255\313\327\202\026\367\252\323\276\217|"
  88      ADCBD782 
  88      16F7AAD3 
ARM GAS  C:\Users\gjl\AppData\Local\Temp\ccVrmJeK.s 			page 6


  88      BE8F7C
  89 00bc 28472B88 		.ascii	"(G+\210K\247\342\327\303\243\2531\345|\210\237n\353"
  89      4BA7E2D7 
  89      C3A3AB31 
  89      E57C889F 
  89      6EEB
  90 00ce 6E51D770 		.ascii	"nQ\327p\222/r.\2153\304p\212\030\333\237\243\006\362"
  90      922F722E 
  90      8D33C470 
  90      8A18DB9F 
  90      A306F2
  91 00e1 51F8B646 		.ascii	"Q\370\266Fr\372OqP:V\"\001H\330(.\230\315\306U\010\355"
  91      72FA4F71 
  91      503A5622 
  91      0148D828 
  91      2E98CDC6 
  92 00f8 3FC14B16 		.ascii	"?\301K\026d\031zA\301\373\352(\241K&\327}{\210\344\372"
  92      64197A41 
  92      C1FBEA28 
  92      A14B26D7 
  92      7D7B88E4 
  93 010d A664CCA4 		.ascii	"\246d\314\244\243C\001'%\\!\307#\206\351\025\373\336"
  93      A3430127 
  93      255C21C7 
  93      2386E915 
  93      FBDE
  94 011f D1CA902A 		.ascii	"\321\312\220*\325\343&\017\312cO/\331;vvk\327\336\336"
  94      D5E3260F 
  94      CA634F2F 
  94      D93B7676 
  94      6BD7DEDE 
  95 0133 4C66F6B2 		.ascii	"Lf\366\262i;\265\232\314$\026S\313\013\211\2714\375"
  95      693BB59A 
  95      CC241653 
  95      CB0B89B9 
  95      34FD
  96 0145 025E217F 		.ascii	"\002^!\177\237"
  96      9F
  97              		.text
  98              		.section	.gnu.lto_I2C_Start.1a3d1c5,"",%progbits
  99 0000 789C9591 		.ascii	"x\234\225\221\273/\004a\024\305\357\271\337\354\256"
  99      BB2F0461 
  99      14C5EFB9 
  99      DFECAE
 100 000f 6C10ADC4 		.ascii	"l\020\255\304\253\325\020\342?P\210F\204V\"\036\333"
 100      ABD510E2 
 100      3F508846 
 100      8456221E 
 100      DB
 101 0020 9208F57E 		.ascii	"\222\010\365~km\320i\350D\351m\015Q,\315x5\"\024\202"
 101      6B6DD069 
 101      E844E96D 
 101      0D512CCD 
 101      78352214 
 102 0035 840685C8 		.ascii	"\204\006\205\310F\261\022\217(\030\367\316\012\021\032"
 102      46B1128F 
 102      2818F7CE 
ARM GAS  C:\Users\gjl\AppData\Local\Temp\ccVrmJeK.s 			page 7


 102      0A111A
 103 0044 3799B993 		.ascii	"7\231\271\223\373\235\271\347\374f\034\002i\275H\253"
 103      FB9DB9E7 
 103      FC661C02 
 103      69BD48AB 
 104 0054 94DE2017 		.ascii	"\224\336 \027B\004\2368\"J\0240\233\315\012\262Q\347"
 104      42049E38 
 104      224A1430 
 104      9BCD0AB2 
 104      51E7
 105 0066 AC966CA1 		.ascii	"\254\226l\241\201\223\037;\200>\330\002P\234\215\203"
 105      81931F3B 
 105      803ED802 
 105      509C8D83 
 106 0076 389EF88D 		.ascii	"8\236\370\215\2613z\233\341\352Y+u\265\237\255\263s"
 106      B1337A9B 
 106      E1EA592B 
 106      75B59FAD 
 106      B373
 107 0088 1E5286C8 		.ascii	"\036R\206\310\347\300\2020\213j\022\331\215\373>Y\024"
 107      E7C08230 
 107      8B6A12D9 
 107      8DFB3E59 
 107      14
 108 0099 1E515955 		.ascii	"\036QYU\376\020s\010k\216t\233g}?i\275\363\342\355\347"
 108      FE107308 
 108      6B8E749B 
 108      677D3F69 
 108      BDF3E2ED 
 109 00ae E288A194 		.ascii	"\342\210\241\224\221qN$j\367\300\254\335\334bx\312="
 109      91714E24 
 109      6AF7C0AC 
 109      DDDC6278 
 109      CA3D
 110 00c0 DB35FA56 		.ascii	"\3335\372V\322\030\3318\225\3329\216<r\3120\324 \223"
 110      D218D938 
 110      95DA398E 
 110      3C72CA30 
 110      D42093
 111 00d3 B9BF8CC4 		.ascii	"\271\277\214\304\337\354\230\265%2\033\227\014:\316"
 111      DFEC98B5 
 111      25321B97 
 111      0C3ACE
 112 00e2 1E9EEE45 		.ascii	"\036\236\356Eg0\235\260\301\334`A\202\317\243L\374\027"
 112      67309DB0 
 112      C1DC6041 
 112      82CFA34C 
 112      FC17
 113 00f4 3103BAC6 		.ascii	"1\003\272\306\310E\262\373{k\372>\363Z\244[\001\302"
 113      C845B2FB 
 113      7B6BFA3E 
 113      F35AA45B 
 113      01C2
 114 0106 92EA4843 		.ascii	"\222\352HC\030\332\2540wHz\356\001\377\244\261[\323"
 114      18DAAC30 
 114      77487AEE 
 114      01FFA4B1 
ARM GAS  C:\Users\gjl\AppData\Local\Temp\ccVrmJeK.s 			page 8


 114      5BD3
 115 0118 A5018B9F 		.ascii	"\245\001\213\237\317\361\003\024\313\010\213\323\212"
 115      CFF10314 
 115      CB088BD3 
 115      8A
 116 0125 DC7F4574 		.ascii	"\334\177Et|\346\340\034i\304\005:D\302\370\230;?\011"
 116      7CE6E01C 
 116      69C4053A 
 116      44C2F898 
 116      3B3F09
 117 0138 E9B67F10 		.ascii	"\351\266\177\020\255~\021\271B$\212\215\321C7\252\014"
 117      AD7E11B9 
 117      42248A8D 
 117      D14337AA 
 117      0C
 118 0149 0281B580 		.ascii	"\002\201\265\200\341\201\235\3403*\302\323\021\253\303"
 118      E1819DE0 
 118      332AC2D3 
 118      11ABC3
 119 0158 9F89C403 		.ascii	"\237\211\304\003\353\237q\262\030\366^Z\002\251VN\370"
 119      EB9F71B2 
 119      18F65E5A 
 119      02A9564E 
 119      F8
 120 0169 6485FC97 		.ascii	"d\205\374\227\362\246X_l\240k0\326\333\331\336?4\320"
 120      F2A6585F 
 120      6CA06B30 
 120      D6DBD9DE 
 120      3F34D0
 121 017c 13EB686D 		.ascii	"\023\353hm\357ol\350h\256o\254\351\241\017\312<\301"
 121      EF6F6CE8 
 121      68AE6FAC 
 121      E9A10FCA 
 121      3CC1
 122 018e 22       		.ascii	"\""
 123              		.text
 124              		.section	.gnu.lto_I2C_Stop.1a3d1c5,"",%progbits
 125 0000 789C7D91 		.ascii	"x\234}\221\315K\033Q\024\305\357yo&\211-\322\3426\021"
 125      CD4B1B51 
 125      14C5EF79 
 125      6F26892D 
 125      D2E23611 
 126 0014 DDBA2928 		.ascii	"\335\272)(\375\017\\\224.\012E]\006D4[\005\251\353\274"
 126      FD0F5C94 
 126      2E0A455D 
 126      0644345B 
 126      05A9EBBC 
 127 0028 983CD482 		.ascii	"\230<\324\202\340F\013\245\222\235\337\032\343\027\014"
 127      E0460BA5 
 127      929DDF1A 
 127      E3170C
 128 0037 2A4E036E 		.ascii	"*N\003nZP\272\350\252\233\"\030\244\270\210\220\242"
 128      5A50BAE8 
 128      AA9B2218 
 128      A4B88890 
 128      A2
 129 0048 16EDF4DE 		.ascii	"\026\355\364\336LUZl/\314\274\031\356\271\277sx\327"
ARM GAS  C:\Users\gjl\AppData\Local\Temp\ccVrmJeK.s 			page 9


 129      4C555A6C 
 129      2FCCBC19 
 129      EEB9BF73 
 129      78D7
 130 005a 2190D40B 		.ascii	"!\220\324\013E\324\304g\234\037h\202\2328 \312\304\024"
 130      45D4C467 
 130      9C1F6882 
 130      9A3820CA 
 130      C414
 131 006c 201F2606 		.ascii	" \037&\006J+\244\361]]+\224F\312\236j\2315\\_\217\317"
 131      4A2BA4F1 
 131      5D5D2B94 
 131      46CA9E6A 
 131      99355C5F 
 132 0082 5BCD9C0F 		.ascii	"[\315\234\017\253\211\002U#\021f\321B,;*\376\234\254"
 132      AB890255 
 132      231166D1 
 132      422C3B2A 
 132      FE9CAC
 133 0095 8FE444D6 		.ascii	"\217\344D\326\03461\207\210\330\025:|\023\004Y\343\177"
 133      1C363187 
 133      88D8153A 
 133      7C130459 
 133      E37F
 134 00a7 7AF47EB5 		.ascii	"z\364~\265\241\316!\253\341\312\213\250\302:q<SJN}\202"
 134      A1CE21AB 
 134      E1CA8BA8 
 134      C23A713C 
 134      534A4E7D 
 135 00bc 9CFFF950 		.ascii	"\234\377\371P\311\2440=\357\364K4}mF\215yl\265\012\024"
 135      C9A4303D 
 135      EFF44B34 
 135      7D6D468D 
 135      796CB50A 
 136 00d1 8F601E69 		.ascii	"\217`\036i\351\275\335\256~p\253\312j\215\030\026\220"
 136      E9BDDDAE 
 136      7E70ABCA 
 136      6A8D1816 
 136      90
 137 00e2 B0DAA113 		.ascii	"\260\332\241\023d\375\213\370\237a\214\327TK\022\260"
 137      64FD8BF8 
 137      9F618CD7 
 137      544B12B0 
 138 00f2 C5DF31B1 		.ascii	"\305\3371\261\310>\204\245\373\334\334@\351Z\037\313"
 138      C83E84A5 
 138      FBDCDC40 
 138      E95A1FCB 
 139 0102 6C687584 		.ascii	"lhu\204\312(\375x}\260\327%\264\254vxb\312\226\016\243"
 139      CA28FD78 
 139      7DB0D725 
 139      B4AC7678 
 139      62CA960E 
 140 0117 92210A01 		.ascii	"\222!\012\001|\234,\317\270\341\2571\023\031Q\354\314"
 140      7C9C2CCF 
 140      B8E1AF31 
 140      131951EC 
 140      CC
ARM GAS  C:\Users\gjl\AppData\Local\Temp\ccVrmJeK.s 			page 10


 141 0128 78399DC7 		.ascii	"x9\235\307t&\307\227\026C\001\011\254 \301\236\253\310"
 141      7426C797 
 141      16430109 
 141      AC20C19E 
 141      ABC8
 142 013a 8389D9AB 		.ascii	"\203\211\331\253H\210sC\242\035_~\363@\020@\300\025"
 142      48887343 
 142      A21D5F7E 
 142      F3401040 
 142      C015
 143 014c 4591D56C 		.ascii	"E\221\325l<\005\221\375\017\270\306@\306\210\270Z\331"
 143      3C0591FD 
 143      0FB8C640 
 143      C688B85A 
 143      D9
 144 015d EFFA2D1F 		.ascii	"\357\372-\037\256lY'\2144\232\017#\345w\375\261\207"
 144      AE6C5927 
 144      8C349A0F 
 144      23E577FD 
 144      B187
 145 016f 7784F55B 		.ascii	"w\204\365[\302\006\023\270_8\365.\353\303\010\204M\356"
 145      C20613B8 
 145      5F38F52E 
 145      EBC30884 
 145      4DEE
 146 0181 C852DE35 		.ascii	"\310R\3365\374s'\016\217n\361\025\335,\341\033\206\375"
 146      FC73270E 
 146      8F6EF115 
 146      DD2CE11B 
 146      86FD
 147 0193 62474D2E 		.ascii	"bGM.U\341\245\361jy\321\215\317R\375\251\301\236W\251"
 147      55E1A5F1 
 147      6A79D18D 
 147      CF52FDA9 
 147      C19E57A9 
 148 01a7 BEEECE81 		.ascii	"\276\356\316\201\241\301\336T\362e\347@\373\323\344"
 148      A1C1DE54 
 148      F265E740 
 148      FBD3E4
 149 01b6 F3B6F627 		.ascii	"\363\266\366'\275\364\013\226\331\325\375"
 149      BDF40B96 
 149      D9D5FD
 150              		.text
 151              		.section	.gnu.lto_I2C_SetRxFifoLevel.1a3d1c5,"",%progbits
 152 0000 789C5D51 		.ascii	"x\234]Q\317k\023Q\020\236\357\275\354&Z\233\202\036"
 152      CF6B1351 
 152      109EEFBD 
 152      EC265A9B 
 152      821E
 153 0012 AD904B2D 		.ascii	"\255\220K-\275\210\024\377\203\200\"^j\203\340\241 "
 153      BD8814FF 
 153      8380225E 
 153      6A83E0A1 
 153      20
 154 0023 52571082 		.ascii	"RW\020\202\201P\305[_\222M\012\026\244VZ\374I\017*\211"
 154      8150C55B 
 154      5F924D0A 
ARM GAS  C:\Users\gjl\AppData\Local\Temp\ccVrmJeK.s 			page 11


 154      16A4565A 
 154      FC490F2A 
 155 0038 56D346BD 		.ascii	"V\323F\275\004<\254A\274\024\025\017\012z(\222\332\034"
 155      043CAC41 
 155      BC14150F 
 155      0A7A2892 
 155      DA1C
 156 004a 7A4AB415 		.ascii	"zJ\264\025\025\355:\263{\2208\360\366\275\031\276\357"
 156      15ED3AB3 
 156      7B9038F0 
 156      F6BD19BE 
 156      EF
 157 005b 9B6F6623 		.ascii	"\233of#\004\222\030UD\007\371\336\313\007\232\240f\336"
 157      04921855 
 157      4407F9DE 
 157      CB079AA0 
 157      66DE
 158 006d 10E5620A 		.ascii	"\020\345b\012\220\207\211\201&\025&\261\245\376(4\246"
 158      90878981 
 158      261526B1 
 158      A5FE2834 
 158      A6
 159 007e 5A753554 		.ascii	"Zu5T6\034\237\327\027\207M\305CQ\023\371*P\"\2241\304"
 159      361C9FD7 
 159      17874DC5 
 159      435113F9 
 159      2A502294 
 160 0094 A877EEF2 		.ascii	"\250w\356\362m\275\251\212\032\210p\332y}s-.\251B\202"
 160      6DBDA98A 
 160      1A8870DA 
 160      797D732D 
 160      2EA94282 
 161 00a8 D3F7737E 		.ascii	"\323\367s~+\256\023 ~O\227\313Wb\203\367\215\311\033"
 161      2BAE1320 
 161      7E4F97CB 
 161      576283F7 
 161      8DC91B
 162 00bb 73D5313B 		.ascii	"s\3251;\212Z\343!4\353\341\001\372QA?q\211\260\210A"
 162      8A5AE321 
 162      34EBE101 
 162      FA51413F 
 162      7189B088 
 163 00d0 813FFFB4 		.ascii	"\201?\377\264\366!\256\367\007\324\237\327_5{\006\356"
 163      F621AEF7 
 163      07D49FD7 
 163      5F357B06 
 163      EE
 164 00e1 0AD5FB36 		.ascii	"\012\325\3736\033\277a<7!\364G\335t\011F7k\333s\275"
 164      1BBF613C 
 164      3721F447 
 164      DD740946 
 164      376BDB73 
 165 00f6 B62BC613 		.ascii	"\266+\306\023x\214\201\3202\252\260y\011\220\312\322"
 165      788C81D0 
 165      32AAB079 
 165      0990CAD2 
 166 0106 A8677CBF 		.ascii	"\250g|\277`\274\316\356\027\263{b,\301E\035|#\020\003"
ARM GAS  C:\Users\gjl\AppData\Local\Temp\ccVrmJeK.s 			page 12


 166      60BCCEEE 
 166      17B37B62 
 166      2CC1451D 
 166      7C231003 
 167 011a 165B89D8 		.ascii	"\026[\211\330A\201\250\315tYOG)\271u\013\215_\227WW"
 167      4181A8CD 
 167      74594F47 
 167      29B9750B 
 167      8D5F9757 
 168 012f 4644B1A0 		.ascii	"FD\261\240eU\363\305\306\333\250Lm\005vW\247\266\315"
 168      6555F3C5 
 168      C6DBA84C 
 168      6D057657 
 168      A7B6CD
 169 0142 AE30754B 		.ascii	"\2560uK39\331\313\307[[\225\350\002\356\344\334\234"
 169      3339D9CB 
 169      C75B5B95 
 169      E802EEE4 
 169      DC9C
 170 0154 312758DD 		.ascii	"1'X\335\3062\273^\022\327\250a\001\324D\336\034\017"
 170      C632BB5E 
 170      12D7A861 
 170      01D444DE 
 170      1C0F
 171 0166 4C725396 		.ascii	"LrS\226\245\026\012\277K\033\307\302.:lT\257O\257\367"
 171      A5160ABF 
 171      4B1BC7C2 
 171      2E3A6C54 
 171      AF4FAFF7 
 172 017a 8A72046D 		.ascii	"\212r\004m\337\367\373\360\204\005\232P\377x:\344}_"
 172      DFF7FBF0 
 172      84059A50 
 172      FF783AE4 
 172      7D5F
 173 018c 391912AD 		.ascii	"9\031\022\255\202\226\376\325\257\233U;$\366\341)\223"
 173      8296FED5 
 173      AF9B553B 
 173      24F6E129 
 173      93
 174 019d 18F5A3F4 		.ascii	"\030\365\243\364R\205\240\260\201\325\255d3\2461_\373"
 174      5285A0B0 
 174      81D5AD64 
 174      33A6315F 
 174      FB
 175 01ae 722F2AB5 		.ascii	"r/*\265\377g\350\351\036\341\031\217 \224\015\344\275"
 175      FF67E8E9 
 175      1EE1198F 
 175      20940DE4 
 175      BD
 176 01bf 6B292104 		.ascii	"k)!\004\177\243\255 +\343\005\356;\342\234w\262\247"
 176      7FA3AD20 
 176      2BE305EE 
 176      3BE29C77 
 176      B2A7
 177 01d1 279C33A7 		.ascii	"'\2343\247R\231\013\331qgl$\225I\036\032;:\234<0NV\332"
 177      52990BD9 
 177      71676C24 
ARM GAS  C:\Users\gjl\AppData\Local\Temp\ccVrmJeK.s 			page 13


 177      95491E1A 
 177      3B3A9C3C 
 178 01e9 B9E8A477 		.ascii	"\271\350\244wf/\035>w6\223\234\310\246\377\002\027\274"
 178      662F1D3E 
 178      7736939C 
 178      C8A6FF02 
 178      17BC
 179 01fb D4B5     		.ascii	"\324\265"
 180              		.text
 181              		.section	.gnu.lto_I2C_SetTxFifoLevel.1a3d1c5,"",%progbits
 182 0000 789C5D51 		.ascii	"x\234]QAk\023Q\020~\337{\273\333\2504=\364h\205\\j\351"
 182      416B1351 
 182      107EDF7B 
 182      BBDBA834 
 182      3DF46885 
 183 0017 45A4F80F 		.ascii	"E\244\370\017\002\212\027\211\006\301CA\244\256 \004"
 183      028A1789 
 183      06C14341 
 183      A4AE2004 
 184 0027 03218A9E 		.ascii	"\003!\212\236\372\222\354\266`K\250H\013\212\322\203"
 184      FA92ECB6 
 184      604BA848 
 184      0B8AD283 
 185 0037 4A6AD5B4 		.ascii	"Jj\325\264Q/\361\264.z\020jD\244\267\036$\342\036<%"
 185      512FF1B4 
 185      2E7A106A 
 185      44A4B71E 
 185      24E21E3C 
 186 004c 250191DA 		.ascii	"%\001\221\332uf\367 \351\300\333\367f\370\276o\276\231"
 186      7566F720 
 186      E9C0DBF7 
 186      66F8BE6F 
 186      BE99
 187 005e 35040447 		.ascii	"5\004\004GF\012q\222\356\243t\240\004\344RK\210RB\002"
 187      460A7192 
 187      EEA374A0 
 187      04E4524B 
 187      88524202 
 188 0072 FCD00988 		.ascii	"\374\320\011\210Y\211Y\364\345_\011\177>h\312\311\232"
 188      598959F4 
 188      E55F097F 
 188      3E68CAC9 
 188      9A
 189 0083 A6F8EEBE 		.ascii	"\246\370\356\276\233\322k\036\\%D(#%\201\032&\011\365"
 189      9BD26B1E 
 189      5C254428 
 189      2325811A 
 189      2609F5
 190 0096 D5D97CA4 		.ascii	"\325\331|\244z\322U\200Ai\367\363\303\037IN%R\224n/"
 190      7AD25580 
 190      4169F7F3 
 190      C31F494E 
 190      2552946E 
 191 00ab 874152A5 		.ascii	"\207AR\245 \350\275P\253U\023\023\317\264.k}\317\326"
 191      20E8BD50 
 191      AB551313 
 191      CFB42E6B 
ARM GAS  C:\Users\gjl\AppData\Local\Temp\ccVrmJeK.s 			page 14


 191      7DCFD6
 192 00be 875CA5B0 		.ascii	"\207\\\245\260\016Ezx\2161\254aLPI\340\005&\030\276"
 192      0E457A78 
 192      8E31AC61 
 192      4C5049E0 
 192      052618BE 
 193 00d2 B8FEB1AC 		.ascii	"\270\376\261\254\324\361\210\332\337\252\366\315\361"
 193      D4F188DA 
 193      DFAAF6CD 
 193      F1
 194 00df 274CF5B6 		.ascii	"'L\365\266\357'\037h\317I1\375\345 \235\203\320\355"
 194      EF271F68 
 194      CF4931FD 
 194      E5209D83 
 194      D0ED
 195 00f1 C6FEF2B0 		.ascii	"\306\376\362\260\345\260\361\024^a<\266\214:,Z\002\270"
 195      E5B0F114 
 195      5E613CB6 
 195      8C3A2C5A 
 195      02B8
 196 0103 B271C1D3 		.ascii	"\262q\301\323aX\321\336\267\321\367\275\321\004IPQE"
 196      6158D1DE 
 196      B7D1F7BD 
 196      D1044950 
 196      5145
 197 0115 5F036CC0 		.ascii	"_\003l\300$+\206\025\025\204\350\020\235\327\323\225"
 197      242B8615 
 197      1584E810 
 197      9DD7D395 
 198 0125 926F15C0 		.ascii	"\222o\025\300\377s7heX\261\242xU+\256\377e\210\2476"
 198      FF733768 
 198      6558B1A2 
 198      78552BAE 
 198      FF6588A7 
 199 013a 23BBFECE 		.ascii	"#\273\376\316VC\306\251\343,\225x/;\325OwV\361\270\344"
 199      5643C6A9 
 199      E32C9578 
 199      2F3BD54F 
 199      7756F1B8 
 200 014f 94B4BE48 		.ascii	"\224\264\276H\342\0266\311\364\006\233F\003\253\020"
 200      E21636C9 
 200      F4069B46 
 200      03AB10
 201 015e 6D94F5F9 		.ascii	"m\224\365\371\310#\365$U\021\240\2627\267{.n\242\342"
 201      C823F524 
 201      5511A0B2 
 201      37B77B2E 
 201      6EA2E2
 202 0171 3ECDE6C2 		.ascii	">\315\346\302\317a\0266\320\011\303p\004\257I\240\015"
 202      CF611636 
 202      D009C370 
 202      04AF49A0 
 202      0D
 203 0182 F99FA762 		.ascii	"\371\237\247b\336~\353RL4+\212\333\327w{u+&\216\340"
 203      DE7EEB52 
 203      4C342B8A 
 203      DBD7777B 
ARM GAS  C:\Users\gjl\AppData\Local\Temp\ccVrmJeK.s 			page 15


 203      752B268E 
 204 0197 0D9108F5 		.ascii	"\015\221\010\365{\356\203\214Aq\003sP\311\"\214\277"
 204      7BEE838C 
 204      41710373 
 204      50C9228C 
 204      BF
 205 01a8 D2DD7B3A 		.ascii	"\322\335{:\304\265\003#\034\031\234\340-M\300\214_("
 205      C4B50323 
 205      1C199CE0 
 205      2D4DC08C 
 205      5F28
 206 01ba 7BFD2CE3 		.ascii	"{\375,\343\243\177\321\221\340\205\321\372\216\235\261"
 206      A37FD191 
 206      E085D1FA 
 206      8E9DB1
 207 01c9 6FD8852B 		.ascii	"o\330\205+E\373\352\345l\376fa\306\236\316d\363\351"
 207      45FBEAE5 
 207      6CFE6661 
 207      C69ECE64 
 207      F3E9
 208 01db 53D367A7 		.ascii	"S\323g\247\322'f\204\231\263o\331\271\303\305\333\247"
 208      D2276684 
 208      99B36FD9 
 208      B9C3C5DB 
 208      A7
 209 01ec AF5FCBA7 		.ascii	"\257_\313\247\213\205\334?\232\017\323\343"
 209      8B85DC3F 
 209      9A0FD3E3 
 210              		.text
 211              		.section	.gnu.lto_I2C_SetCustomInterruptHandler.1a3d1c5,"",%progbits
 212 0000 789C2550 		.ascii	"x\234%P\277K\202Q\024\275\347\275\017\265\240h\222 "
 212      BF4B8251 
 212      14BDE7BD 
 212      0FB5A068 
 212      9220
 213 0012 0387405C 		.ascii	"\003\207@\\\032\242\376\002\207h\013\035Z\204\010\373"
 213      1AA2FE02 
 213      87680B1D 
 213      5A8408FB 
 214 0022 1A152467 		.ascii	"\032\025$g\237?>\312\255\206\032\244p\012\373a\231\243"
 214      9F3F3ECA 
 214      AD861AA4 
 214      700AFB61 
 214      99A3
 215 0034 5322B5F5 		.ascii	"S\"\265\365\003\007[Z\312\310B\032\264r4\273\357\353"
 215      03075B5A 
 215      CAC8421A 
 215      B47234BB 
 215      EFEB
 216 0046 C2E3DE7B 		.ascii	"\302\343\336{\270\367\234s\237A \035\013\234f8O\361"
 216      B8F79C73 
 216      9F41201D 
 216      0B9C6638 
 216      4FF1
 217 0058 8324889D 		.ascii	"\203$\210\235{\242\224K\000\272P.PR \211\276\030\010"
 217      7BA2944B 
 217      00BA502E 
ARM GAS  C:\Users\gjl\AppData\Local\Temp\ccVrmJeK.s 			page 16


 217      50522089 
 217      BE1808
 218 006b D4B7DA55 		.ascii	"\324\267\332U\341/*\216\347\267\367`JY\223\226$\032"
 218      E12F2A8E 
 218      E7B7F760 
 218      4A599396 
 218      241A
 219 007d 0A9B8950 		.ascii	"\012\233\211P\204\237\247\032\331\313\003\371#,\011"
 219      849FA71A 
 219      D9CB03F9 
 219      232C09
 220 008c 18DCF6EE 		.ascii	"\030\334\366\356\362\257\343\272\025\360r\373R\252\347"
 220      F2AFE3BA 
 220      15F072FB 
 220      52AAE7
 221 009b 1CD20BE2 		.ascii	"\034\322\013\342z\367\243\265\342;R*\255\324\225\251"
 221      7AF7A3B5 
 221      E23B522A 
 221      ADD495A9 
 222 00ab 462C2971 		.ascii	"F,)q\012\311t8\201\007\307\360\020C\2043\370\364t\253"
 222      0AC97438 
 222      8107C7F0 
 222      10438433 
 222      F8F474AB 
 223 00bf F2BB37E6 		.ascii	"\362\2737\346\310ju\357\277&Jp\350+\312\301\232\032"
 223      C86A75EF 
 223      BF264A70 
 223      E82BCAC1 
 223      9A1A
 224 00d1 0E33AAD6 		.ascii	"\0163\252\326p\337|\271\015\366\256W\250\3133\372\210"
 224      70DF7CB9 
 224      0DF6AE57 
 224      A8CB33FA 
 224      88
 225 00e2 9E103ACB 		.ascii	"\236\020:\3136\322\371J\263\357\324k\314\267o\325\037"
 225      36D2F94A 
 225      B3EFD46B 
 225      CCB76FD5 
 225      1F
 226 00f3 9CDA9861 		.ascii	"\234\332\230a\233\251V?\237\234\311\201\332Vj\202\261"
 226      9BA9563F 
 226      9F9CC981 
 226      DA566A82 
 226      B1
 227 0104 1C1FA6E1 		.ascii	"\034\037\246\341\316m\363z\264\200\303\224\262q\211"
 227      CE6DF37A 
 227      B480C394 
 227      B27189
 228 0113 0BFE8D73 		.ascii	"\013\376\215s\266F(\243\200\214\024\324A\272\366\375"
 228      B64628A3 
 228      808C14D4 
 228      41BAF6FD 
 229 0123 2834ADFD 		.ascii	"(4\255\375\017]\001\255\307\352\323\213f\324\214\257"
 229      0F5D01AD 
 229      C7EAD38B 
 229      66D48CAF 
 230 0133 6D9AEBAB 		.ascii	"m\232\353\253\241X\"\0361\303\313\241X`>\2744\027\230"
ARM GAS  C:\Users\gjl\AppData\Local\Temp\ccVrmJeK.s 			page 17


 230      A158221E 
 230      31C3CBA1 
 230      58603EBC 
 230      341798
 231 0146 8D90B191 		.ascii	"\215\220\261\221\210F\376\000/gy\313"
 231      8846FE00 
 231      2F6779CB 
 232              		.text
 233              		.section	.gnu.lto_.symbol_nodes.1a3d1c5,"",%progbits
 234 0000 789C558C 		.ascii	"x\234U\214\313\015\302@\014\005\237\327\331\374\303"
 234      CB0DC240 
 234      0C059FD7 
 234      D9FCC3
 235 000f AF023873 		.ascii	"\257\0028s\245\277\267P\001-\200(\201\013\2349S\003"
 235      A5BFB750 
 235      012D8028 
 235      810B9C39 
 235      5303
 236 0021 48A903E1 		.ascii	"H\251\003\341$B\302\247\321\214\255\227A\260\025\000"
 236      2442C2A7 
 236      D18CAD97 
 236      41B01500 
 237 0031 A126707C 		.ascii	"\241&p|\002\206[:%\265\244\224_\272\247\215\205\214"
 237      02865B3A 
 237      25B5A494 
 237      5FBAA78D 
 237      858C
 238 0043 C1874875 		.ascii	"\301\207Hu!\012\366\253a-g\346?\013F\037J\346>T,\374"
 238      210AF6AB 
 238      612D67E6 
 238      3F0B461F 
 238      4AE63E54 
 239 0059 5690714B 		.ascii	"V\220qKf,\307\003\220\322\332\274c\345|\301\332\371"
 239      662CC703 
 239      90D2DABC 
 239      63E57CC1 
 239      DAF9
 240 006b 928DF339 		.ascii	"\222\215\3639\333\177W\324\270\274>\242\322L\014\300"
 240      DB7F57D4 
 240      B8BC3EA2 
 240      D24C0CC0 
 241 007b E16DD406 		.ascii	"\341m\324\006\375u\247\346\347A\343l:\307\016\217\221"
 241      FD75A7E6 
 241      E741E36C 
 241      3AC70E8F 
 241      91
 242 008c 2D7AEBF8 		.ascii	"-z\353\370\002`\037D\014"
 242      02601F44 
 242      0C
 243              		.text
 244              		.section	.gnu.lto_.refs.1a3d1c5,"",%progbits
 245 0000 789C6361 		.ascii	"x\234ca`d\340c```bf`addaa\344`\344dd\000\000\002\213"
 245      6064E063 
 245      60606062 
 245      66606164 
 245      646161E4 
 246 001c 003B     		.ascii	"\000;"
ARM GAS  C:\Users\gjl\AppData\Local\Temp\ccVrmJeK.s 			page 18


 247              		.text
 248              		.section	.gnu.lto_.decls.1a3d1c5,"",%progbits
 249 0000 789C9595 		.ascii	"x\234\225\225yL\024W\030\300\347\315,\327\262\013\225"
 249      794C1457 
 249      18C0E7CD 
 249      2CD7B20B 
 249      95
 250 0011 D8863FD6 		.ascii	"\330\206?\326\224\232\020\374\243\241\025\233\246M\377"
 250      949A10FC 
 250      A3A1159B 
 250      A64DFF
 251 0020 69B31E35 		.ascii	"i\263\0365\241\226T%ibb8\246v\023\272\220ui\312_\035"
 251      A1965425 
 251      69626238 
 251      A67613BA 
 251      907569CA 
 252 0036 4164D5D4 		.ascii	"Ad\325\324\003\225\025\243\200@,\024\204\345\220\303"
 252      039515A3 
 252      80402C14 
 252      84E590C3 
 253 0046 455CF180 		.ascii	"E\\\361\200\252\300r\250\310V@.\255\324\203J\264\210"
 253      AAC072A8 
 253      C856402E 
 253      ADD4834A 
 253      B488
 254 0058 4ABF770C 		.ascii	"J\277w\0143K\241i_\366\233y\363\346\373~\357\273\346"
 254      334BA169 
 254      5FF69B79 
 254      F3E6FB7E 
 254      EFBBE6
 255 006b AD86431C 		.ascii	"\255\206C\034\036\313\0028\356\010LSx\216\233\205\001"
 255      1ECB0238 
 255      EE084C53 
 255      788E9B85 
 255      01
 256 007c 8F5C2C08 		.ascii	"\217\\,\010~k\340\350\320\203\234\006\251\004\251\002"
 256      7E6BE0E8 
 256      D0839C06 
 256      A904A902 
 257 008c A9013903 		.ascii	"\251\0019\003\342\002i\001i\005q\203t\203\364\202\334"
 257      E2026901 
 257      69057183 
 257      7483F482 
 257      DC
 258 009d 04E90301 		.ascii	"\004\351\003\001$\347\001\031\340\274\007fi\330>\203"
 258      24E70119 
 258      E0BC0766 
 258      69D83E83 
 259 00ad 6C9F4EF6 		.ascii	"l\237N\366\216g\357\335\334?\007\336_`v\227@\312U6\225"
 259      8E67EFDD 
 259      DC3F07DE 
 259      5F607697 
 259      40CA5536 
 260 00c2 6CFFF903 		.ascii	"l\377\371\003\373\353\313l\"@FA\206\027\260\257b\373"
 260      FBEBCB6C 
 260      22404641 
 260      8617B0AF 
ARM GAS  C:\Users\gjl\AppData\Local\Temp\ccVrmJeK.s 			page 19


 260      62FB
 261 00d4 CE1F352A 		.ascii	"\316\0375*{\354\347\030H\373<{\015\323\223}\300,\304"
 261      7BECE718 
 261      48FB3C7B 
 261      0DD3937D 
 261      C02CC4
 262 00e7 62570F9C 		.ascii	"bW\017\23439\277\021\363b\227y\262\177x\3700\033\234"
 262      3339BF11 
 262      F3629779 
 262      B27F78F8 
 262      301B9C
 263 00fa CB7B1CCD 		.ascii	"\313{\034\315k\357\002>\272@\374\0307\004d)H\323\274"
 263      6BEF023E 
 263      BA40FC18 
 263      37046429 
 263      48D3BC
 264 010d 7839E693 		.ascii	"x9\346\223k\001\373\226\377a\337\262\200}+\363Um\217"
 264      6B01FB96 
 264      FF61DFB2 
 264      807D2BF3 
 264      556D8F
 265 0120 E3B9AFB2 		.ascii	"\343\271\257\262ke\367\371\275\360\212G\356\235W\352"
 265      6B65F7F9 
 265      BDF08A47 
 265      EE9D57EA 
 266 0130 FD3DE836 		.ascii	"\375=\3506\342\021kJ\016!zED8*\344\021&<\271rsKs7\016"
 266      E2116B4A 
 266      0E217A45 
 266      44382AE4 
 266      11263CB9 
 267 014a 5F39AA4F 		.ascii	"_9\252O\326\024\030\371\311\367Yy\020\210BG\314\010"
 267      D61418F9 
 267      C9F75979 
 267      10884247 
 267      CC08
 268 015c CD7940AD 		.ascii	"\315y@\255\350{^\246\322\033\257\030\250x\324]\225O"
 268      E87B5EA6 
 268      D21BAF18 
 268      A878D45D 
 268      954F
 269 016e C83B2624 		.ascii	"\310;&$\007\375\300VvC'@\3040\037\234.Y\033Y.\3018 "
 269      07FDC056 
 269      76432740 
 269      C4301F9C 
 269      2E591B59 
 270 0186 49FCBB4A 		.ascii	"I\374\273Jf.\317>w\005O\361(D\213xx\354~r\375D <.\325"
 270      662ECF3E 
 270      77054FF1 
 270      28448B78 
 270      78EC7E72 
 271 01a0 A237E071 		.ascii	"\2427\340q\2429wV\037\232\203\355\244\014)\214G\261"
 271      A2397756 
 271      1F9A83ED 
 271      A40C298C 
 271      47B1
 272 01b2 6FA13264 		.ascii	"o\2412d@\277 h*T\216B\341\032\257\241\244\254\302\342"
 272      40BF2068 
ARM GAS  C:\Users\gjl\AppData\Local\Temp\ccVrmJeK.s 			page 20


 272      2A548E42 
 272      E11AAFA1 
 272      A4ACC2E2 
 273 01c6 7DBAE505 		.ascii	"}\272\345\005\222\313!\015\3158\"OTKR&\230i\260\032"
 273      92CB210D 
 273      CD38224F 
 273      544B5226 
 273      9869B01A 
 274 01da 2A41022A 		.ascii	"*A\002*E\221\330=\230\342\333\317\310\003~\237F\313"
 274      4591D83D 
 274      98E2DBCF 
 274      C8037E9F 
 274      46CB
 275 01ec C174E649 		.ascii	"\301t\346I^\236\237\360\011\361tb\340\221#\0300C\016"
 275      5E9E9FF0 
 275      09F17462 
 275      E0912318 
 275      30430E
 276 01ff C9F53C4B 		.ascii	"\311\365<K\310\225\\\351\222\264\203'\224\012\205R\241"
 276      C8955CE9 
 276      92B48327 
 276      940A8552 
 276      A1
 277 0210 A654124A 		.ascii	"\246T\022J]\251\253\204\027V\023\312\210\355\247a=\243"
 277      5DA9AB84 
 277      175613CA 
 277      88EDA761 
 277      3DA3
 278 0222 D45DD349 		.ascii	"\324]\323In\360\344S\302p(\014\207\232QE\030\015\366"
 278      6EF0E453 
 278      C270280C 
 278      879A5145 
 278      180DF6
 279 0235 EEC620E1 		.ascii	"\356\306 \341K\3028\367\264\317\026\010\214\002`\364"
 279      4BC238F7 
 279      B4CF1608 
 279      8C0260F4 
 280 0245 76A819D5 		.ascii	"v\250\031\325\012\243Z\315\250!\214b\317\311K\001\302"
 280      0AA35ACD 
 280      A8218C62 
 280      CFC94B01 
 280      C2
 281 0256 D784919D 		.ascii	"\327\204\221\235_\361\0021Fs\247\232Q\2530j\325\214"
 281      5FF10231 
 281      4673A79A 
 281      51AB306A 
 281      D58C
 282 0268 3384F1E2 		.ascii	"3\204\361\342e\346\224^\210'\214;m\245e\002\324$B\213"
 282      65E6945E 
 282      88278C3B 
 282      6DA56502 
 282      D424428B 
 283 027c 700704C3 		.ascii	"p\007\004\303R\345\037\215\323z\272\2045\256\016\216"
 283      52E51F8D 
 283      D37ABA84 
 283      35AE0E8E 
 284 028c FD1920A4 		.ascii	"\375\031 \244\222y\327N\307q\201\026T\003\217\223\355"
ARM GAS  C:\Users\gjl\AppData\Local\Temp\ccVrmJeK.s 			page 21


 284      9279D74E 
 284      C7718116 
 284      54038F93 
 284      ED
 285 029d C7468268 		.ascii	"\307F\202hA\303^\361|]Q\376S\037\244]a\223\244t\351"
 285      41C35EF1 
 285      7C5D51FE 
 285      531FA45D 
 285      6193A474 
 286 02b2 408614D2 		.ascii	"@\206\024\322\026\304!'T\364,T\024\235C+0\022\273\205"
 286      16C42127 
 286      54F42C54 
 286      149D432B 
 286      3012BB85 
 287 02c6 1A60B11E 		.ascii	"\032`\261\036\026O\341\332\017Mg\305\332\263\240sP\023"
 287      164FE1DA 
 287      0F4D67C5 
 287      DAB3A073 
 287      5013
 288 02d8 D2A246C5 		.ascii	"\322\242F\305\365\010--\376\303\307\371\355~\0328\345"
 288      F5082D2D 
 288      FEC3C7F9 
 288      ED7E1A38 
 288      E5
 289 02e9 8802B404 		.ascii	"\210\002\264\004n\210\342\303\205\332E\233\347<i\236"
 289      6E88E2C3 
 289      85DA459B 
 289      E73C699E 
 290 02f9 66C4BAA7 		.ascii	"f\304\272\247\273>\177\222%jh\246)<'C*\001\2630\254"
 290      BB3E7F92 
 290      256A68A6 
 290      293C2743 
 290      2A01B330 
 291 030e 86EA94FD 		.ascii	"\206\352\224\375\352\324\251r\221T9\355\015GtB\036\""
 291      EAD4A972 
 291      915439ED 
 291      0D477442 
 291      1E22
 292 0320 D1EFADBC 		.ascii	"\321\357\255\274\330\026\300\362\355\356\221\363\215"
 292      D816C0F2 
 292      EDEE91F3 
 292      8D
 293 032d 211714C8 		.ascii	"!\027\024\310\0055\244\205@Z\363\3733y\241\212B\306"
 293      0535A485 
 293      405AF3FB 
 293      3379A18A 
 293      42C6
 294 033f 4B6A0A82 		.ascii	"Kj\012\202t{\224\024\221\202\311Y\342\320%\244c(P.s"
 294      747B9414 
 294      9182C959 
 294      E2D025A4 
 294      6328502E 
 295 0354 CEDAF424 		.ascii	"\316\332\364$r\274L#\337s\317\266\317\177\321\310\257"
 295      72BC4C23 
 295      DF73CFB6 
 295      CF7FD1C8 
 295      AF
ARM GAS  C:\Users\gjl\AppData\Local\Temp\ccVrmJeK.s 			page 22


 296 0365 90C82FCB 		.ascii	"\220\310/\313\221\357\237|l\3272\227\317\347\350i\303"
 296      91EF9F7C 
 296      6CD73297 
 296      CFE7E869 
 296      C3
 297 0376 43A6410D 		.ascii	"C\246A\015]T\234\276\250v\272\2258\235\327o\253\367"
 297      5D549CBE 
 297      A876BA95 
 297      389DD76F 
 297      ABF7
 298 0388 173AA9D3 		.ascii	"\027:\251\323\225\231\243\245\376Ph\003t\011R\265\210"
 298      9599A3A5 
 298      FE506803 
 298      740952B5 
 298      88
 299 0399 81B648EE 		.ascii	"\201\266H\356\301\221\327\201\202\207\350\362=#e\277"
 299      C191D781 
 299      8287E8F2 
 299      3D2365BF 
 300 03a9 6BD00AAD 		.ascii	"k\320\012\255\\\333\315\264\266\355P\272k\312\216\006"
 300      5CDBCDB4 
 300      B6ED50BA 
 300      6BCA8E06 
 301 03b9 5C5BD228 		.ascii	"\\[\322(O\012%\337P\016\2552\240\367\241K\256C\227\030"
 301      4F0A25DF 
 301      500EAD32 
 301      A0F7A14B 
 301      AE439718 
 302 03cd 58975C85 		.ascii	"X\227\\\205\250~\205\250`\2071{\376\204/ID\373\\\013"
 302      A87E85A8 
 302      6087317B 
 302      FE842F49 
 302      44FB5C0B 
 303 03e1 741CBEDD 		.ascii	"t\034\276\335\215\026MD'ID\207\234\210\201\207\257\247"
 303      8D164D44 
 303      27494487 
 303      9C888187 
 303      AFA7
 304 03f3 78FCCD82 		.ascii	"x\374\315\202O\207:\327d\024\355r\305\020%\324\2468"
 304      4F873AD7 
 304      6414ED72 
 304      C51025D4 
 304      A638
 305 0405 D546D200 		.ascii	"\325F\322\000\0237I\301\353\314gG\203\205\035\364\220"
 305      133749C1 
 305      EBCC6747 
 305      83851DF4 
 305      90
 306 0416 BBD97CA5 		.ascii	"\273\331|\245\337\217\001\234\335\321')\000\327\256"
 306      DF8F019C 
 306      DDD12729 
 306      00D7AE
 307 0425 4B0174C9 		.ascii	"K\001t\311\200n\002p\227\236\254\017\026j(\240\263/"
 307      806E0270 
 307      979EAC0F 
 307      166A28A0 
 307      B32F
ARM GAS  C:\Users\gjl\AppData\Local\Temp\ccVrmJeK.s 			page 23


 308 0437 A7C857F6 		.ascii	"\247\310W\366`\177\264\312\203\036\005\320#\003z\011"
 308      607FB4CA 
 308      831E05D0 
 308      23037A09 
 309 0447 C05E3B58 		.ascii	"\300^;X\356+\\\246\200k\247\206\236\311!8\2637\334\255"
 309      EE2B5CA6 
 309      806BA786 
 309      9EC92138 
 309      B337DCAD 
 310 045b 9676FA10 		.ascii	"\226v\372\020\007n(\3667d\373\233\304\376\340tv\256"
 310      076E28F6 
 310      3764FB9B 
 310      C4FEE074 
 310      76AE
 311 046d 207451FB 		.ascii	" tQ\373\243\315\0059\001s)X\253r\340\226\002\270%\003"
 311      A3CD0539 
 311      01732958 
 311      AB72E096 
 311      02B82503 
 312 0481 FA08A0C3 		.ascii	"\372\010\240\303\323\366\361\024-\036F\324\272v\315"
 312      D3F6F114 
 312      2D1E46D4 
 312      BA76CD
 313 0490 E88501CA 		.ascii	"\350\205\001\312{\341\271\360((\274H*(\204\257\252X"
 313      7BE1B9F0 
 313      2828BC48 
 313      2A2884AF 
 313      AA58
 314 04a2 FF3C5D0A 		.ascii	"\377<]\012%\212\375\224\306*\312\221\347\333\370\004"
 314      258AFD94 
 314      C62ACA91 
 314      E7DBF804 
 315 04b2 F0A07030 		.ascii	"\360\240p0\253\332\335\364\027\356\035\334\321\0303"
 315      ABDADDF4 
 315      17EE1DDC 
 315      D11833
 316 04c1 DC717592 		.ascii	"\334qu\222\027\036P\346\263\012\347)-e\272\016e\005"
 316      171E50E6 
 316      B30AE729 
 316      2D65BA0E 
 316      6505
 317 04d3 41BF6A88 		.ascii	"A\277j\210\342\035\306T\276\023\274\362\033\246\016"
 317      E21DC654 
 317      BE13BCF2 
 317      1BA60E
 318 04e2 10EAEE3C 		.ascii	"\020\352\356<\247]\347\365Yuz}V\203HG\302\202;h\237"
 318      A75DE7F5 
 318      59757A7D 
 318      56834847 
 318      C2823B68 
 319 04f7 2DAF3C2A 		.ascii	"-\257<*hm\270o\376\3239\205M\006\244\343>\202$\220\036"
 319      686DB86F 
 319      FED33985 
 319      4D06A4E3 
 319      3E822490 
 320 050c 6F6C9828 		.ascii	"ol\230(\017\242'\335\002\204\221\1779\351~\314\315\336"
 320      0FA227DD 
ARM GAS  C:\Users\gjl\AppData\Local\Temp\ccVrmJeK.s 			page 24


 320      0284917F 
 320      39E97ECC 
 320      CDDE
 321 051e 0127CF30 		.ascii	"\001'\3170\344\351\256\222\365!\304\216\272\272\266"
 321      E4E9AE92 
 321      F521C48E 
 321      BABAB6
 322 052d AE337E5E 		.ascii	"\2563~^a`M%\214Q\026\306(\011co\357\313\317\274\224"
 322      61604D25 
 322      8C5116C6 
 322      2809636F 
 322      EFCBCFBC 
 323 0542 DBBD94C7 		.ascii	"\333\275\224\307\230\362\030Qn\256>\235\253\021v\011"
 323      98F21851 
 323      6EAE3E9D 
 323      AB117609 
 324 0552 34E9F945 		.ascii	"4\351\371E\223s\377\247%\037\262\377\323t\372\177:\256"
 324      9373FFA7 
 324      251FB2FF 
 324      D374FA7F 
 324      3AAE
 325 0564 3836AE3E 		.ascii	"86\256>\030\356\221\226x8\376\350X\260\327\256\270@"
 325      18EE9196 
 325      7838FEE8 
 325      58B0D7AE 
 325      B840
 326 0576 CAAEF7D9 		.ascii	"\312\256\367\331\256\370\276d}\224q\353\306\204\370"
 326      AEF8BE64 
 326      7D9471EB 
 326      C684F8
 327 0585 35E6B8F8 		.ascii	"5\346\270\370$q\275\331j\361_\267as\230q\345Jn\331:"
 327      2471BDD9 
 327      6AF15FB7 
 327      61739871 
 327      E54A6ED9 
 328 059a D12C5AE2 		.ascii	"\321,Z\342\254b\342\326\215\311\251\226\004qK\314\306"
 328      AC62E2D6 
 328      8DC9A996 
 328      04714BCC 
 328      C6
 329 05ab 64E3075B 		.ascii	"d\343\007[\300\"2\201\363\307\206\353\315&\253\026O"
 329      C0223281 
 329      F3C786EB 
 329      CD26AB16 
 329      4F
 330 05bc A8790081 		.ascii	"\250y\000\201Y\343,V\177:KN\011!\023\321\372\325\017"
 330      59E32C56 
 330      7F3A4B4E 
 330      092113D1 
 330      FAD50F
 331 05cf 6B4DDF24 		.ascii	"kM\337$G\213\337\213I\276\251&\263uU\324;\013\343\337"
 331      478BDF8B 
 331      49BEA926 
 331      B37555D4 
 331      3B0BE3DF 
 332 05e3 4B48B3A6 		.ascii	"KH\263\246\245\210\333#\277\345d\333M\212\3552\266d"
 332      A588DB23 
ARM GAS  C:\Users\gjl\AppData\Local\Temp\ccVrmJeK.s 			page 25


 332      BFE564DB 
 332      4D8AED32 
 332      B664
 333 05f5 4CDD6E4D 		.ascii	"L\335nM\376\016\334\025-\226\324\024\353\347q\346\304"
 333      FE0EDC15 
 333      2D96D414 
 333      EBE771E6 
 333      C4
 334 0606 24D11268 		.ascii	"$\321\022hL\203%\352\213\017\336\345\243\267\027\331"
 334      4C8325EA 
 334      8B0FDEE5 
 334      A3B717D9 
 335 0616 C498166D 		.ascii	"\304\230\026m\212\207-\002I\024QF\034H\370\342\361b"
 335      8A872D02 
 335      49145146 
 335      1C48F8E2 
 335      F162
 336 0628 95AD31B1 		.ascii	"\225\2551\261\233\300b\011\331\303\230$\306YbDs\242"
 336      9BC06209 
 336      D9C39824 
 336      C6596244 
 336      73A2
 337 063a C9BC4D66 		.ascii	"\311\274Mf\340pu\344\355j\323v\354\002ya\002rl\234\345"
 337      E07075E4 
 337      ED6AD376 
 337      EC027961 
 337      02726C9C 
 338 064f 4D3C4F90 		.ascii	"M<O\220\275\2660\207},\342\266UQ\301\254\006_$'\212"
 338      BDB63087 
 338      7D2CE2B6 
 338      5551C1AC 
 338      065F2427 
 339 0664 18F2378E 		.ascii	"\030\3627\216\212ue"
 339      8A7565
 340              		.text
 341              		.section	.gnu.lto_.symtab.1a3d1c5,"",%progbits
 342 0000 4932435F 		.ascii	"I2C_Init\000"
 342      496E6974 
 342      00
 343 0009 00       		.ascii	"\000"
 344 000a 00       		.ascii	"\000"
 345 000b 00       		.ascii	"\000"
 346 000c 00000000 		.ascii	"\000\000\000\000\000\000\000\000"
 346      00000000 
 347 0014 AF000000 		.ascii	"\257\000\000\000"
 348 0018 4932435F 		.ascii	"I2C_Enable\000"
 348      456E6162 
 348      6C6500
 349 0023 00       		.ascii	"\000"
 350 0024 00       		.ascii	"\000"
 351 0025 00       		.ascii	"\000"
 352 0026 00000000 		.ascii	"\000\000\000\000\000\000\000\000"
 352      00000000 
 353 002e B1000000 		.ascii	"\261\000\000\000"
 354 0032 4932435F 		.ascii	"I2C_Start\000"
 354      53746172 
 354      7400
ARM GAS  C:\Users\gjl\AppData\Local\Temp\ccVrmJeK.s 			page 26


 355 003c 00       		.ascii	"\000"
 356 003d 00       		.ascii	"\000"
 357 003e 00       		.ascii	"\000"
 358 003f 00000000 		.ascii	"\000\000\000\000\000\000\000\000"
 358      00000000 
 359 0047 B3000000 		.ascii	"\263\000\000\000"
 360 004b 4932435F 		.ascii	"I2C_initVar\000"
 360      696E6974 
 360      56617200 
 361 0057 00       		.ascii	"\000"
 362 0058 00       		.ascii	"\000"
 363 0059 00       		.ascii	"\000"
 364 005a 00000000 		.ascii	"\000\000\000\000\000\000\000\000"
 364      00000000 
 365 0062 DB000000 		.ascii	"\333\000\000\000"
 366 0066 4932435F 		.ascii	"I2C_Stop\000"
 366      53746F70 
 366      00
 367 006f 00       		.ascii	"\000"
 368 0070 00       		.ascii	"\000"
 369 0071 00       		.ascii	"\000"
 370 0072 00000000 		.ascii	"\000\000\000\000\000\000\000\000"
 370      00000000 
 371 007a B5000000 		.ascii	"\265\000\000\000"
 372 007e 4932435F 		.ascii	"I2C_SetRxFifoLevel\000"
 372      53657452 
 372      78466966 
 372      6F4C6576 
 372      656C00
 373 0091 00       		.ascii	"\000"
 374 0092 00       		.ascii	"\000"
 375 0093 00       		.ascii	"\000"
 376 0094 00000000 		.ascii	"\000\000\000\000\000\000\000\000"
 376      00000000 
 377 009c C0000000 		.ascii	"\300\000\000\000"
 378 00a0 4932435F 		.ascii	"I2C_SetTxFifoLevel\000"
 378      53657454 
 378      78466966 
 378      6F4C6576 
 378      656C00
 379 00b3 00       		.ascii	"\000"
 380 00b4 00       		.ascii	"\000"
 381 00b5 00       		.ascii	"\000"
 382 00b6 00000000 		.ascii	"\000\000\000\000\000\000\000\000"
 382      00000000 
 383 00be C2000000 		.ascii	"\302\000\000\000"
 384 00c2 4932435F 		.ascii	"I2C_SetCustomInterruptHandler\000"
 384      53657443 
 384      7573746F 
 384      6D496E74 
 384      65727275 
 385 00e0 00       		.ascii	"\000"
 386 00e1 00       		.ascii	"\000"
 387 00e2 00       		.ascii	"\000"
 388 00e3 00000000 		.ascii	"\000\000\000\000\000\000\000\000"
 388      00000000 
 389 00eb C7000000 		.ascii	"\307\000\000\000"
ARM GAS  C:\Users\gjl\AppData\Local\Temp\ccVrmJeK.s 			page 27


 390 00ef 4932435F 		.ascii	"I2C_customIntrHandler\000"
 390      63757374 
 390      6F6D496E 
 390      74724861 
 390      6E646C65 
 391 0105 00       		.ascii	"\000"
 392 0106 00       		.ascii	"\000"
 393 0107 00       		.ascii	"\000"
 394 0108 00000000 		.ascii	"\000\000\000\000\000\000\000\000"
 394      00000000 
 395 0110 DE000000 		.ascii	"\336\000\000\000"
 396 0114 4379496E 		.ascii	"CyIntEnable\000"
 396      74456E61 
 396      626C6500 
 397 0120 00       		.ascii	"\000"
 398 0121 02       		.ascii	"\002"
 399 0122 00       		.ascii	"\000"
 400 0123 00000000 		.ascii	"\000\000\000\000\000\000\000\000"
 400      00000000 
 401 012b D0000000 		.ascii	"\320\000\000\000"
 402 012f 4932435F 		.ascii	"I2C_I2CInit\000"
 402      49324349 
 402      6E697400 
 403 013b 00       		.ascii	"\000"
 404 013c 02       		.ascii	"\002"
 405 013d 00       		.ascii	"\000"
 406 013e 00000000 		.ascii	"\000\000\000\000\000\000\000\000"
 406      00000000 
 407 0146 D2000000 		.ascii	"\322\000\000\000"
 408 014a 4379496E 		.ascii	"CyIntClearPending\000"
 408      74436C65 
 408      61725065 
 408      6E64696E 
 408      6700
 409 015c 00       		.ascii	"\000"
 410 015d 02       		.ascii	"\002"
 411 015e 00       		.ascii	"\000"
 412 015f 00000000 		.ascii	"\000\000\000\000\000\000\000\000"
 412      00000000 
 413 0167 D4000000 		.ascii	"\324\000\000\000"
 414 016b 4932435F 		.ascii	"I2C_I2CStop\000"
 414      49324353 
 414      746F7000 
 415 0177 00       		.ascii	"\000"
 416 0178 02       		.ascii	"\002"
 417 0179 00       		.ascii	"\000"
 418 017a 00000000 		.ascii	"\000\000\000\000\000\000\000\000"
 418      00000000 
 419 0182 D6000000 		.ascii	"\326\000\000\000"
 420 0186 4379496E 		.ascii	"CyIntDisable\000"
 420      74446973 
 420      61626C65 
 420      00
 421 0193 00       		.ascii	"\000"
 422 0194 02       		.ascii	"\002"
 423 0195 00       		.ascii	"\000"
 424 0196 00000000 		.ascii	"\000\000\000\000\000\000\000\000"
ARM GAS  C:\Users\gjl\AppData\Local\Temp\ccVrmJeK.s 			page 28


 424      00000000 
 425 019e D8000000 		.ascii	"\330\000\000\000"
 426              		.text
 427              		.section	.gnu.lto_.opts,"",%progbits
 428 0000 272D666D 		.ascii	"'-fmath-errno' '-fsigned-zeros' '-ftrapping-math' '"
 428      6174682D 
 428      6572726E 
 428      6F272027 
 428      2D667369 
 429 0033 2D666E6F 		.ascii	"-fno-trapv' '-fno-openmp' '-fno-openacc' '-mcpu=cor"
 429      2D747261 
 429      70762720 
 429      272D666E 
 429      6F2D6F70 
 430 0066 7465782D 		.ascii	"tex-m0' '-mthumb' '-g' '-Os' '-ffunction-sections' "
 430      6D302720 
 430      272D6D74 
 430      68756D62 
 430      2720272D 
 431 0099 272D6666 		.ascii	"'-ffat-lto-objects' '-flto'\000"
 431      61742D6C 
 431      746F2D6F 
 431      626A6563 
 431      74732720 
 432              		.text
 433              		.cfi_sections	.debug_frame
 434              		.section	.text.I2C_Init,"ax",%progbits
 435              		.align	1
 436              		.global	I2C_Init
 437              		.code	16
 438              		.thumb_func
 439              		.type	I2C_Init, %function
 440              	I2C_Init:
 441              	.LFB1:
 442              		.file 1 "Generated_Source\\PSoC4\\I2C.c"
   1:Generated_Source\PSoC4/I2C.c **** /***************************************************************************//**
   2:Generated_Source\PSoC4/I2C.c **** * \file I2C.c
   3:Generated_Source\PSoC4/I2C.c **** * \version 3.20
   4:Generated_Source\PSoC4/I2C.c **** *
   5:Generated_Source\PSoC4/I2C.c **** * \brief
   6:Generated_Source\PSoC4/I2C.c **** *  This file provides the source code to the API for the SCB Component.
   7:Generated_Source\PSoC4/I2C.c **** *
   8:Generated_Source\PSoC4/I2C.c **** * Note:
   9:Generated_Source\PSoC4/I2C.c **** *
  10:Generated_Source\PSoC4/I2C.c **** *******************************************************************************
  11:Generated_Source\PSoC4/I2C.c **** * \copyright
  12:Generated_Source\PSoC4/I2C.c **** * Copyright 2013-2016, Cypress Semiconductor Corporation.  All rights reserved.
  13:Generated_Source\PSoC4/I2C.c **** * You may use this file only in accordance with the license, terms, conditions,
  14:Generated_Source\PSoC4/I2C.c **** * disclaimers, and limitations in the end user license agreement accompanying
  15:Generated_Source\PSoC4/I2C.c **** * the software package with which this file was provided.
  16:Generated_Source\PSoC4/I2C.c **** *******************************************************************************/
  17:Generated_Source\PSoC4/I2C.c **** 
  18:Generated_Source\PSoC4/I2C.c **** #include "I2C_PVT.h"
  19:Generated_Source\PSoC4/I2C.c **** 
  20:Generated_Source\PSoC4/I2C.c **** #if (I2C_SCB_MODE_I2C_INC)
  21:Generated_Source\PSoC4/I2C.c ****     #include "I2C_I2C_PVT.h"
  22:Generated_Source\PSoC4/I2C.c **** #endif /* (I2C_SCB_MODE_I2C_INC) */
ARM GAS  C:\Users\gjl\AppData\Local\Temp\ccVrmJeK.s 			page 29


  23:Generated_Source\PSoC4/I2C.c **** 
  24:Generated_Source\PSoC4/I2C.c **** #if (I2C_SCB_MODE_EZI2C_INC)
  25:Generated_Source\PSoC4/I2C.c ****     #include "I2C_EZI2C_PVT.h"
  26:Generated_Source\PSoC4/I2C.c **** #endif /* (I2C_SCB_MODE_EZI2C_INC) */
  27:Generated_Source\PSoC4/I2C.c **** 
  28:Generated_Source\PSoC4/I2C.c **** #if (I2C_SCB_MODE_SPI_INC || I2C_SCB_MODE_UART_INC)
  29:Generated_Source\PSoC4/I2C.c ****     #include "I2C_SPI_UART_PVT.h"
  30:Generated_Source\PSoC4/I2C.c **** #endif /* (I2C_SCB_MODE_SPI_INC || I2C_SCB_MODE_UART_INC) */
  31:Generated_Source\PSoC4/I2C.c **** 
  32:Generated_Source\PSoC4/I2C.c **** 
  33:Generated_Source\PSoC4/I2C.c **** /***************************************
  34:Generated_Source\PSoC4/I2C.c **** *    Run Time Configuration Vars
  35:Generated_Source\PSoC4/I2C.c **** ***************************************/
  36:Generated_Source\PSoC4/I2C.c **** 
  37:Generated_Source\PSoC4/I2C.c **** /* Stores internal component configuration for Unconfigured mode */
  38:Generated_Source\PSoC4/I2C.c **** #if (I2C_SCB_MODE_UNCONFIG_CONST_CFG)
  39:Generated_Source\PSoC4/I2C.c ****     /* Common configuration variables */
  40:Generated_Source\PSoC4/I2C.c ****     uint8 I2C_scbMode = I2C_SCB_MODE_UNCONFIG;
  41:Generated_Source\PSoC4/I2C.c ****     uint8 I2C_scbEnableWake;
  42:Generated_Source\PSoC4/I2C.c ****     uint8 I2C_scbEnableIntr;
  43:Generated_Source\PSoC4/I2C.c **** 
  44:Generated_Source\PSoC4/I2C.c ****     /* I2C configuration variables */
  45:Generated_Source\PSoC4/I2C.c ****     uint8 I2C_mode;
  46:Generated_Source\PSoC4/I2C.c ****     uint8 I2C_acceptAddr;
  47:Generated_Source\PSoC4/I2C.c **** 
  48:Generated_Source\PSoC4/I2C.c ****     /* SPI/UART configuration variables */
  49:Generated_Source\PSoC4/I2C.c ****     volatile uint8 * I2C_rxBuffer;
  50:Generated_Source\PSoC4/I2C.c ****     uint8  I2C_rxDataBits;
  51:Generated_Source\PSoC4/I2C.c ****     uint32 I2C_rxBufferSize;
  52:Generated_Source\PSoC4/I2C.c **** 
  53:Generated_Source\PSoC4/I2C.c ****     volatile uint8 * I2C_txBuffer;
  54:Generated_Source\PSoC4/I2C.c ****     uint8  I2C_txDataBits;
  55:Generated_Source\PSoC4/I2C.c ****     uint32 I2C_txBufferSize;
  56:Generated_Source\PSoC4/I2C.c **** 
  57:Generated_Source\PSoC4/I2C.c ****     /* EZI2C configuration variables */
  58:Generated_Source\PSoC4/I2C.c ****     uint8 I2C_numberOfAddr;
  59:Generated_Source\PSoC4/I2C.c ****     uint8 I2C_subAddrSize;
  60:Generated_Source\PSoC4/I2C.c **** #endif /* (I2C_SCB_MODE_UNCONFIG_CONST_CFG) */
  61:Generated_Source\PSoC4/I2C.c **** 
  62:Generated_Source\PSoC4/I2C.c **** 
  63:Generated_Source\PSoC4/I2C.c **** /***************************************
  64:Generated_Source\PSoC4/I2C.c **** *     Common SCB Vars
  65:Generated_Source\PSoC4/I2C.c **** ***************************************/
  66:Generated_Source\PSoC4/I2C.c **** /**
  67:Generated_Source\PSoC4/I2C.c **** * \addtogroup group_general
  68:Generated_Source\PSoC4/I2C.c **** * \{
  69:Generated_Source\PSoC4/I2C.c **** */
  70:Generated_Source\PSoC4/I2C.c **** 
  71:Generated_Source\PSoC4/I2C.c **** /** I2C_initVar indicates whether the I2C 
  72:Generated_Source\PSoC4/I2C.c **** *  component has been initialized. The variable is initialized to 0 
  73:Generated_Source\PSoC4/I2C.c **** *  and set to 1 the first time SCB_Start() is called. This allows 
  74:Generated_Source\PSoC4/I2C.c **** *  the component to restart without reinitialization after the first 
  75:Generated_Source\PSoC4/I2C.c **** *  call to the I2C_Start() routine.
  76:Generated_Source\PSoC4/I2C.c **** *
  77:Generated_Source\PSoC4/I2C.c **** *  If re-initialization of the component is required, then the 
  78:Generated_Source\PSoC4/I2C.c **** *  I2C_Init() function can be called before the 
  79:Generated_Source\PSoC4/I2C.c **** *  I2C_Start() or I2C_Enable() function.
ARM GAS  C:\Users\gjl\AppData\Local\Temp\ccVrmJeK.s 			page 30


  80:Generated_Source\PSoC4/I2C.c **** */
  81:Generated_Source\PSoC4/I2C.c **** uint8 I2C_initVar = 0u;
  82:Generated_Source\PSoC4/I2C.c **** 
  83:Generated_Source\PSoC4/I2C.c **** 
  84:Generated_Source\PSoC4/I2C.c **** #if (! (I2C_SCB_MODE_I2C_CONST_CFG || \
  85:Generated_Source\PSoC4/I2C.c ****         I2C_SCB_MODE_EZI2C_CONST_CFG))
  86:Generated_Source\PSoC4/I2C.c ****     /** This global variable stores TX interrupt sources after 
  87:Generated_Source\PSoC4/I2C.c ****     * I2C_Stop() is called. Only these TX interrupt sources 
  88:Generated_Source\PSoC4/I2C.c ****     * will be restored on a subsequent I2C_Enable() call.
  89:Generated_Source\PSoC4/I2C.c ****     */
  90:Generated_Source\PSoC4/I2C.c ****     uint16 I2C_IntrTxMask = 0u;
  91:Generated_Source\PSoC4/I2C.c **** #endif /* (! (I2C_SCB_MODE_I2C_CONST_CFG || \
  92:Generated_Source\PSoC4/I2C.c ****               I2C_SCB_MODE_EZI2C_CONST_CFG)) */
  93:Generated_Source\PSoC4/I2C.c **** /** \} globals */
  94:Generated_Source\PSoC4/I2C.c **** 
  95:Generated_Source\PSoC4/I2C.c **** #if (I2C_SCB_IRQ_INTERNAL)
  96:Generated_Source\PSoC4/I2C.c **** #if !defined (CY_REMOVE_I2C_CUSTOM_INTR_HANDLER)
  97:Generated_Source\PSoC4/I2C.c ****     void (*I2C_customIntrHandler)(void) = NULL;
  98:Generated_Source\PSoC4/I2C.c **** #endif /* !defined (CY_REMOVE_I2C_CUSTOM_INTR_HANDLER) */
  99:Generated_Source\PSoC4/I2C.c **** #endif /* (I2C_SCB_IRQ_INTERNAL) */
 100:Generated_Source\PSoC4/I2C.c **** 
 101:Generated_Source\PSoC4/I2C.c **** 
 102:Generated_Source\PSoC4/I2C.c **** /***************************************
 103:Generated_Source\PSoC4/I2C.c **** *    Private Function Prototypes
 104:Generated_Source\PSoC4/I2C.c **** ***************************************/
 105:Generated_Source\PSoC4/I2C.c **** 
 106:Generated_Source\PSoC4/I2C.c **** static void I2C_ScbEnableIntr(void);
 107:Generated_Source\PSoC4/I2C.c **** static void I2C_ScbModeStop(void);
 108:Generated_Source\PSoC4/I2C.c **** static void I2C_ScbModePostEnable(void);
 109:Generated_Source\PSoC4/I2C.c **** 
 110:Generated_Source\PSoC4/I2C.c **** 
 111:Generated_Source\PSoC4/I2C.c **** /*******************************************************************************
 112:Generated_Source\PSoC4/I2C.c **** * Function Name: I2C_Init
 113:Generated_Source\PSoC4/I2C.c **** ****************************************************************************//**
 114:Generated_Source\PSoC4/I2C.c **** *
 115:Generated_Source\PSoC4/I2C.c **** *  Initializes the I2C component to operate in one of the selected
 116:Generated_Source\PSoC4/I2C.c **** *  configurations: I2C, SPI, UART or EZI2C.
 117:Generated_Source\PSoC4/I2C.c **** *  When the configuration is set to "Unconfigured SCB", this function does
 118:Generated_Source\PSoC4/I2C.c **** *  not do any initialization. Use mode-specific initialization APIs instead:
 119:Generated_Source\PSoC4/I2C.c **** *  I2C_I2CInit, I2C_SpiInit, 
 120:Generated_Source\PSoC4/I2C.c **** *  I2C_UartInit or I2C_EzI2CInit.
 121:Generated_Source\PSoC4/I2C.c **** *
 122:Generated_Source\PSoC4/I2C.c **** *******************************************************************************/
 123:Generated_Source\PSoC4/I2C.c **** void I2C_Init(void)
 124:Generated_Source\PSoC4/I2C.c **** {
 443              		.loc 1 124 0
 444              		.cfi_startproc
 445              		@ args = 0, pretend = 0, frame = 0
 446              		@ frame_needed = 0, uses_anonymous_args = 0
 447 0000 10B5     		push	{r4, lr}
 448              		.cfi_def_cfa_offset 8
 449              		.cfi_offset 4, -8
 450              		.cfi_offset 14, -4
 125:Generated_Source\PSoC4/I2C.c **** #if (I2C_SCB_MODE_UNCONFIG_CONST_CFG)
 126:Generated_Source\PSoC4/I2C.c ****     if (I2C_SCB_MODE_UNCONFIG_RUNTM_CFG)
 127:Generated_Source\PSoC4/I2C.c ****     {
 128:Generated_Source\PSoC4/I2C.c ****         I2C_initVar = 0u;
ARM GAS  C:\Users\gjl\AppData\Local\Temp\ccVrmJeK.s 			page 31


 129:Generated_Source\PSoC4/I2C.c ****     }
 130:Generated_Source\PSoC4/I2C.c ****     else
 131:Generated_Source\PSoC4/I2C.c ****     {
 132:Generated_Source\PSoC4/I2C.c ****         /* Initialization was done before this function call */
 133:Generated_Source\PSoC4/I2C.c ****     }
 134:Generated_Source\PSoC4/I2C.c **** 
 135:Generated_Source\PSoC4/I2C.c **** #elif (I2C_SCB_MODE_I2C_CONST_CFG)
 136:Generated_Source\PSoC4/I2C.c ****     I2C_I2CInit();
 451              		.loc 1 136 0
 452 0002 FFF7FEFF 		bl	I2C_I2CInit
 453              	.LVL0:
 137:Generated_Source\PSoC4/I2C.c **** 
 138:Generated_Source\PSoC4/I2C.c **** #elif (I2C_SCB_MODE_SPI_CONST_CFG)
 139:Generated_Source\PSoC4/I2C.c ****     I2C_SpiInit();
 140:Generated_Source\PSoC4/I2C.c **** 
 141:Generated_Source\PSoC4/I2C.c **** #elif (I2C_SCB_MODE_UART_CONST_CFG)
 142:Generated_Source\PSoC4/I2C.c ****     I2C_UartInit();
 143:Generated_Source\PSoC4/I2C.c **** 
 144:Generated_Source\PSoC4/I2C.c **** #elif (I2C_SCB_MODE_EZI2C_CONST_CFG)
 145:Generated_Source\PSoC4/I2C.c ****     I2C_EzI2CInit();
 146:Generated_Source\PSoC4/I2C.c **** 
 147:Generated_Source\PSoC4/I2C.c **** #endif /* (I2C_SCB_MODE_UNCONFIG_CONST_CFG) */
 148:Generated_Source\PSoC4/I2C.c **** }
 454              		.loc 1 148 0
 455              		@ sp needed
 456 0006 10BD     		pop	{r4, pc}
 457              		.cfi_endproc
 458              	.LFE1:
 459              		.size	I2C_Init, .-I2C_Init
 460              		.section	.text.I2C_Enable,"ax",%progbits
 461              		.align	1
 462              		.global	I2C_Enable
 463              		.code	16
 464              		.thumb_func
 465              		.type	I2C_Enable, %function
 466              	I2C_Enable:
 467              	.LFB2:
 149:Generated_Source\PSoC4/I2C.c **** 
 150:Generated_Source\PSoC4/I2C.c **** 
 151:Generated_Source\PSoC4/I2C.c **** /*******************************************************************************
 152:Generated_Source\PSoC4/I2C.c **** * Function Name: I2C_Enable
 153:Generated_Source\PSoC4/I2C.c **** ****************************************************************************//**
 154:Generated_Source\PSoC4/I2C.c **** *
 155:Generated_Source\PSoC4/I2C.c **** *  Enables I2C component operation: activates the hardware and 
 156:Generated_Source\PSoC4/I2C.c **** *  internal interrupt. It also restores TX interrupt sources disabled after the 
 157:Generated_Source\PSoC4/I2C.c **** *  I2C_Stop() function was called (note that level-triggered TX 
 158:Generated_Source\PSoC4/I2C.c **** *  interrupt sources remain disabled to not cause code lock-up).
 159:Generated_Source\PSoC4/I2C.c **** *  For I2C and EZI2C modes the interrupt is internal and mandatory for 
 160:Generated_Source\PSoC4/I2C.c **** *  operation. For SPI and UART modes the interrupt can be configured as none, 
 161:Generated_Source\PSoC4/I2C.c **** *  internal or external.
 162:Generated_Source\PSoC4/I2C.c **** *  The I2C configuration should be not changed when the component
 163:Generated_Source\PSoC4/I2C.c **** *  is enabled. Any configuration changes should be made after disabling the 
 164:Generated_Source\PSoC4/I2C.c **** *  component.
 165:Generated_Source\PSoC4/I2C.c **** *  When configuration is set to Unconfigured I2C, the component 
 166:Generated_Source\PSoC4/I2C.c **** *  must first be initialized to operate in one of the following configurations: 
 167:Generated_Source\PSoC4/I2C.c **** *  I2C, SPI, UART or EZ I2C, using the mode-specific initialization API. 
 168:Generated_Source\PSoC4/I2C.c **** *  Otherwise this function does not enable the component.
ARM GAS  C:\Users\gjl\AppData\Local\Temp\ccVrmJeK.s 			page 32


 169:Generated_Source\PSoC4/I2C.c **** *
 170:Generated_Source\PSoC4/I2C.c **** *******************************************************************************/
 171:Generated_Source\PSoC4/I2C.c **** void I2C_Enable(void)
 172:Generated_Source\PSoC4/I2C.c **** {
 468              		.loc 1 172 0
 469              		.cfi_startproc
 470              		@ args = 0, pretend = 0, frame = 0
 471              		@ frame_needed = 0, uses_anonymous_args = 0
 173:Generated_Source\PSoC4/I2C.c **** #if (I2C_SCB_MODE_UNCONFIG_CONST_CFG)
 174:Generated_Source\PSoC4/I2C.c ****     /* Enable SCB block, only if it is already configured */
 175:Generated_Source\PSoC4/I2C.c ****     if (!I2C_SCB_MODE_UNCONFIG_RUNTM_CFG)
 176:Generated_Source\PSoC4/I2C.c ****     {
 177:Generated_Source\PSoC4/I2C.c ****         I2C_CTRL_REG |= I2C_CTRL_ENABLED;
 178:Generated_Source\PSoC4/I2C.c **** 
 179:Generated_Source\PSoC4/I2C.c ****         I2C_ScbEnableIntr();
 180:Generated_Source\PSoC4/I2C.c **** 
 181:Generated_Source\PSoC4/I2C.c ****         /* Call PostEnable function specific to current operation mode */
 182:Generated_Source\PSoC4/I2C.c ****         I2C_ScbModePostEnable();
 183:Generated_Source\PSoC4/I2C.c ****     }
 184:Generated_Source\PSoC4/I2C.c **** #else
 185:Generated_Source\PSoC4/I2C.c ****     I2C_CTRL_REG |= I2C_CTRL_ENABLED;
 472              		.loc 1 185 0
 473 0000 8021     		movs	r1, #128
 474 0002 054A     		ldr	r2, .L3
 172:Generated_Source\PSoC4/I2C.c **** #if (I2C_SCB_MODE_UNCONFIG_CONST_CFG)
 475              		.loc 1 172 0
 476 0004 10B5     		push	{r4, lr}
 477              		.cfi_def_cfa_offset 8
 478              		.cfi_offset 4, -8
 479              		.cfi_offset 14, -4
 480              		.loc 1 185 0
 481 0006 1368     		ldr	r3, [r2]
 482 0008 0906     		lsls	r1, r1, #24
 483 000a 0B43     		orrs	r3, r1
 484 000c 1360     		str	r3, [r2]
 485              	.LBB10:
 486              	.LBB11:
 186:Generated_Source\PSoC4/I2C.c **** 
 187:Generated_Source\PSoC4/I2C.c ****     I2C_ScbEnableIntr();
 188:Generated_Source\PSoC4/I2C.c **** 
 189:Generated_Source\PSoC4/I2C.c ****     /* Call PostEnable function specific to current operation mode */
 190:Generated_Source\PSoC4/I2C.c ****     I2C_ScbModePostEnable();
 191:Generated_Source\PSoC4/I2C.c **** #endif /* (I2C_SCB_MODE_UNCONFIG_CONST_CFG) */
 192:Generated_Source\PSoC4/I2C.c **** }
 193:Generated_Source\PSoC4/I2C.c **** 
 194:Generated_Source\PSoC4/I2C.c **** 
 195:Generated_Source\PSoC4/I2C.c **** /*******************************************************************************
 196:Generated_Source\PSoC4/I2C.c **** * Function Name: I2C_Start
 197:Generated_Source\PSoC4/I2C.c **** ****************************************************************************//**
 198:Generated_Source\PSoC4/I2C.c **** *
 199:Generated_Source\PSoC4/I2C.c **** *  Invokes I2C_Init() and I2C_Enable().
 200:Generated_Source\PSoC4/I2C.c **** *  After this function call, the component is enabled and ready for operation.
 201:Generated_Source\PSoC4/I2C.c **** *  When configuration is set to "Unconfigured SCB", the component must first be
 202:Generated_Source\PSoC4/I2C.c **** *  initialized to operate in one of the following configurations: I2C, SPI, UART
 203:Generated_Source\PSoC4/I2C.c **** *  or EZI2C. Otherwise this function does not enable the component.
 204:Generated_Source\PSoC4/I2C.c **** *
 205:Generated_Source\PSoC4/I2C.c **** * \globalvars
ARM GAS  C:\Users\gjl\AppData\Local\Temp\ccVrmJeK.s 			page 33


 206:Generated_Source\PSoC4/I2C.c **** *  I2C_initVar - used to check initial configuration, modified
 207:Generated_Source\PSoC4/I2C.c **** *  on first function call.
 208:Generated_Source\PSoC4/I2C.c **** *
 209:Generated_Source\PSoC4/I2C.c **** *******************************************************************************/
 210:Generated_Source\PSoC4/I2C.c **** void I2C_Start(void)
 211:Generated_Source\PSoC4/I2C.c **** {
 212:Generated_Source\PSoC4/I2C.c ****     if (0u == I2C_initVar)
 213:Generated_Source\PSoC4/I2C.c ****     {
 214:Generated_Source\PSoC4/I2C.c ****         I2C_Init();
 215:Generated_Source\PSoC4/I2C.c ****         I2C_initVar = 1u; /* Component was initialized */
 216:Generated_Source\PSoC4/I2C.c ****     }
 217:Generated_Source\PSoC4/I2C.c **** 
 218:Generated_Source\PSoC4/I2C.c ****     I2C_Enable();
 219:Generated_Source\PSoC4/I2C.c **** }
 220:Generated_Source\PSoC4/I2C.c **** 
 221:Generated_Source\PSoC4/I2C.c **** 
 222:Generated_Source\PSoC4/I2C.c **** /*******************************************************************************
 223:Generated_Source\PSoC4/I2C.c **** * Function Name: I2C_Stop
 224:Generated_Source\PSoC4/I2C.c **** ****************************************************************************//**
 225:Generated_Source\PSoC4/I2C.c **** *
 226:Generated_Source\PSoC4/I2C.c **** *  Disables the I2C component: disable the hardware and internal 
 227:Generated_Source\PSoC4/I2C.c **** *  interrupt. It also disables all TX interrupt sources so as not to cause an 
 228:Generated_Source\PSoC4/I2C.c **** *  unexpected interrupt trigger because after the component is enabled, the 
 229:Generated_Source\PSoC4/I2C.c **** *  TX FIFO is empty.
 230:Generated_Source\PSoC4/I2C.c **** *  Refer to the function I2C_Enable() for the interrupt 
 231:Generated_Source\PSoC4/I2C.c **** *  configuration details.
 232:Generated_Source\PSoC4/I2C.c **** *  This function disables the SCB component without checking to see if 
 233:Generated_Source\PSoC4/I2C.c **** *  communication is in progress. Before calling this function it may be 
 234:Generated_Source\PSoC4/I2C.c **** *  necessary to check the status of communication to make sure communication 
 235:Generated_Source\PSoC4/I2C.c **** *  is complete. If this is not done then communication could be stopped mid 
 236:Generated_Source\PSoC4/I2C.c **** *  byte and corrupted data could result.
 237:Generated_Source\PSoC4/I2C.c **** *
 238:Generated_Source\PSoC4/I2C.c **** *******************************************************************************/
 239:Generated_Source\PSoC4/I2C.c **** void I2C_Stop(void)
 240:Generated_Source\PSoC4/I2C.c **** {
 241:Generated_Source\PSoC4/I2C.c **** #if (I2C_SCB_IRQ_INTERNAL)
 242:Generated_Source\PSoC4/I2C.c ****     I2C_DisableInt();
 243:Generated_Source\PSoC4/I2C.c **** #endif /* (I2C_SCB_IRQ_INTERNAL) */
 244:Generated_Source\PSoC4/I2C.c **** 
 245:Generated_Source\PSoC4/I2C.c ****     /* Call Stop function specific to current operation mode */
 246:Generated_Source\PSoC4/I2C.c ****     I2C_ScbModeStop();
 247:Generated_Source\PSoC4/I2C.c **** 
 248:Generated_Source\PSoC4/I2C.c ****     /* Disable SCB IP */
 249:Generated_Source\PSoC4/I2C.c ****     I2C_CTRL_REG &= (uint32) ~I2C_CTRL_ENABLED;
 250:Generated_Source\PSoC4/I2C.c **** 
 251:Generated_Source\PSoC4/I2C.c ****     /* Disable all TX interrupt sources so as not to cause an unexpected
 252:Generated_Source\PSoC4/I2C.c ****     * interrupt trigger after the component will be enabled because the 
 253:Generated_Source\PSoC4/I2C.c ****     * TX FIFO is empty.
 254:Generated_Source\PSoC4/I2C.c ****     * For SCB IP v0, it is critical as it does not mask-out interrupt
 255:Generated_Source\PSoC4/I2C.c ****     * sources when it is disabled. This can cause a code lock-up in the
 256:Generated_Source\PSoC4/I2C.c ****     * interrupt handler because TX FIFO cannot be loaded after the block
 257:Generated_Source\PSoC4/I2C.c ****     * is disabled.
 258:Generated_Source\PSoC4/I2C.c ****     */
 259:Generated_Source\PSoC4/I2C.c ****     I2C_SetTxInterruptMode(I2C_NO_INTR_SOURCES);
 260:Generated_Source\PSoC4/I2C.c **** 
 261:Generated_Source\PSoC4/I2C.c **** #if (I2C_SCB_IRQ_INTERNAL)
 262:Generated_Source\PSoC4/I2C.c ****     I2C_ClearPendingInt();
ARM GAS  C:\Users\gjl\AppData\Local\Temp\ccVrmJeK.s 			page 34


 263:Generated_Source\PSoC4/I2C.c **** #endif /* (I2C_SCB_IRQ_INTERNAL) */
 264:Generated_Source\PSoC4/I2C.c **** }
 265:Generated_Source\PSoC4/I2C.c **** 
 266:Generated_Source\PSoC4/I2C.c **** 
 267:Generated_Source\PSoC4/I2C.c **** /*******************************************************************************
 268:Generated_Source\PSoC4/I2C.c **** * Function Name: I2C_SetRxFifoLevel
 269:Generated_Source\PSoC4/I2C.c **** ****************************************************************************//**
 270:Generated_Source\PSoC4/I2C.c **** *
 271:Generated_Source\PSoC4/I2C.c **** *  Sets level in the RX FIFO to generate a RX level interrupt.
 272:Generated_Source\PSoC4/I2C.c **** *  When the RX FIFO has more entries than the RX FIFO level an RX level
 273:Generated_Source\PSoC4/I2C.c **** *  interrupt request is generated.
 274:Generated_Source\PSoC4/I2C.c **** *
 275:Generated_Source\PSoC4/I2C.c **** *  \param level: Level in the RX FIFO to generate RX level interrupt.
 276:Generated_Source\PSoC4/I2C.c **** *   The range of valid level values is between 0 and RX FIFO depth - 1.
 277:Generated_Source\PSoC4/I2C.c **** *
 278:Generated_Source\PSoC4/I2C.c **** *******************************************************************************/
 279:Generated_Source\PSoC4/I2C.c **** void I2C_SetRxFifoLevel(uint32 level)
 280:Generated_Source\PSoC4/I2C.c **** {
 281:Generated_Source\PSoC4/I2C.c ****     uint32 rxFifoCtrl;
 282:Generated_Source\PSoC4/I2C.c **** 
 283:Generated_Source\PSoC4/I2C.c ****     rxFifoCtrl = I2C_RX_FIFO_CTRL_REG;
 284:Generated_Source\PSoC4/I2C.c **** 
 285:Generated_Source\PSoC4/I2C.c ****     rxFifoCtrl &= ((uint32) ~I2C_RX_FIFO_CTRL_TRIGGER_LEVEL_MASK); /* Clear level mask bits */
 286:Generated_Source\PSoC4/I2C.c ****     rxFifoCtrl |= ((uint32) (I2C_RX_FIFO_CTRL_TRIGGER_LEVEL_MASK & level));
 287:Generated_Source\PSoC4/I2C.c **** 
 288:Generated_Source\PSoC4/I2C.c ****     I2C_RX_FIFO_CTRL_REG = rxFifoCtrl;
 289:Generated_Source\PSoC4/I2C.c **** }
 290:Generated_Source\PSoC4/I2C.c **** 
 291:Generated_Source\PSoC4/I2C.c **** 
 292:Generated_Source\PSoC4/I2C.c **** /*******************************************************************************
 293:Generated_Source\PSoC4/I2C.c **** * Function Name: I2C_SetTxFifoLevel
 294:Generated_Source\PSoC4/I2C.c **** ****************************************************************************//**
 295:Generated_Source\PSoC4/I2C.c **** *
 296:Generated_Source\PSoC4/I2C.c **** *  Sets level in the TX FIFO to generate a TX level interrupt.
 297:Generated_Source\PSoC4/I2C.c **** *  When the TX FIFO has less entries than the TX FIFO level an TX level
 298:Generated_Source\PSoC4/I2C.c **** *  interrupt request is generated.
 299:Generated_Source\PSoC4/I2C.c **** *
 300:Generated_Source\PSoC4/I2C.c **** *  \param level: Level in the TX FIFO to generate TX level interrupt.
 301:Generated_Source\PSoC4/I2C.c **** *   The range of valid level values is between 0 and TX FIFO depth - 1.
 302:Generated_Source\PSoC4/I2C.c **** *
 303:Generated_Source\PSoC4/I2C.c **** *******************************************************************************/
 304:Generated_Source\PSoC4/I2C.c **** void I2C_SetTxFifoLevel(uint32 level)
 305:Generated_Source\PSoC4/I2C.c **** {
 306:Generated_Source\PSoC4/I2C.c ****     uint32 txFifoCtrl;
 307:Generated_Source\PSoC4/I2C.c **** 
 308:Generated_Source\PSoC4/I2C.c ****     txFifoCtrl = I2C_TX_FIFO_CTRL_REG;
 309:Generated_Source\PSoC4/I2C.c **** 
 310:Generated_Source\PSoC4/I2C.c ****     txFifoCtrl &= ((uint32) ~I2C_TX_FIFO_CTRL_TRIGGER_LEVEL_MASK); /* Clear level mask bits */
 311:Generated_Source\PSoC4/I2C.c ****     txFifoCtrl |= ((uint32) (I2C_TX_FIFO_CTRL_TRIGGER_LEVEL_MASK & level));
 312:Generated_Source\PSoC4/I2C.c **** 
 313:Generated_Source\PSoC4/I2C.c ****     I2C_TX_FIFO_CTRL_REG = txFifoCtrl;
 314:Generated_Source\PSoC4/I2C.c **** }
 315:Generated_Source\PSoC4/I2C.c **** 
 316:Generated_Source\PSoC4/I2C.c **** 
 317:Generated_Source\PSoC4/I2C.c **** #if (I2C_SCB_IRQ_INTERNAL)
 318:Generated_Source\PSoC4/I2C.c ****     /*******************************************************************************
 319:Generated_Source\PSoC4/I2C.c ****     * Function Name: I2C_SetCustomInterruptHandler
ARM GAS  C:\Users\gjl\AppData\Local\Temp\ccVrmJeK.s 			page 35


 320:Generated_Source\PSoC4/I2C.c ****     ****************************************************************************//**
 321:Generated_Source\PSoC4/I2C.c ****     *
 322:Generated_Source\PSoC4/I2C.c ****     *  Registers a function to be called by the internal interrupt handler.
 323:Generated_Source\PSoC4/I2C.c ****     *  First the function that is registered is called, then the internal interrupt
 324:Generated_Source\PSoC4/I2C.c ****     *  handler performs any operation such as software buffer management functions
 325:Generated_Source\PSoC4/I2C.c ****     *  before the interrupt returns.  It is the user's responsibility not to break
 326:Generated_Source\PSoC4/I2C.c ****     *  the software buffer operations. Only one custom handler is supported, which
 327:Generated_Source\PSoC4/I2C.c ****     *  is the function provided by the most recent call.
 328:Generated_Source\PSoC4/I2C.c ****     *  At the initialization time no custom handler is registered.
 329:Generated_Source\PSoC4/I2C.c ****     *
 330:Generated_Source\PSoC4/I2C.c ****     *  \param func: Pointer to the function to register.
 331:Generated_Source\PSoC4/I2C.c ****     *        The value NULL indicates to remove the current custom interrupt
 332:Generated_Source\PSoC4/I2C.c ****     *        handler.
 333:Generated_Source\PSoC4/I2C.c ****     *
 334:Generated_Source\PSoC4/I2C.c ****     *******************************************************************************/
 335:Generated_Source\PSoC4/I2C.c ****     void I2C_SetCustomInterruptHandler(void (*func)(void))
 336:Generated_Source\PSoC4/I2C.c ****     {
 337:Generated_Source\PSoC4/I2C.c ****     #if !defined (CY_REMOVE_I2C_CUSTOM_INTR_HANDLER)
 338:Generated_Source\PSoC4/I2C.c ****         I2C_customIntrHandler = func; /* Register interrupt handler */
 339:Generated_Source\PSoC4/I2C.c ****     #else
 340:Generated_Source\PSoC4/I2C.c ****         if (NULL != func)
 341:Generated_Source\PSoC4/I2C.c ****         {
 342:Generated_Source\PSoC4/I2C.c ****             /* Suppress compiler warning */
 343:Generated_Source\PSoC4/I2C.c ****         }
 344:Generated_Source\PSoC4/I2C.c ****     #endif /* !defined (CY_REMOVE_I2C_CUSTOM_INTR_HANDLER) */
 345:Generated_Source\PSoC4/I2C.c ****     }
 346:Generated_Source\PSoC4/I2C.c **** #endif /* (I2C_SCB_IRQ_INTERNAL) */
 347:Generated_Source\PSoC4/I2C.c **** 
 348:Generated_Source\PSoC4/I2C.c **** 
 349:Generated_Source\PSoC4/I2C.c **** /*******************************************************************************
 350:Generated_Source\PSoC4/I2C.c **** * Function Name: I2C_ScbModeEnableIntr
 351:Generated_Source\PSoC4/I2C.c **** ****************************************************************************//**
 352:Generated_Source\PSoC4/I2C.c **** *
 353:Generated_Source\PSoC4/I2C.c **** *  Enables an interrupt for a specific mode.
 354:Generated_Source\PSoC4/I2C.c **** *
 355:Generated_Source\PSoC4/I2C.c **** *******************************************************************************/
 356:Generated_Source\PSoC4/I2C.c **** static void I2C_ScbEnableIntr(void)
 357:Generated_Source\PSoC4/I2C.c **** {
 358:Generated_Source\PSoC4/I2C.c **** #if (I2C_SCB_IRQ_INTERNAL)
 359:Generated_Source\PSoC4/I2C.c ****     /* Enable interrupt in NVIC */
 360:Generated_Source\PSoC4/I2C.c ****     #if (I2C_SCB_MODE_UNCONFIG_CONST_CFG)
 361:Generated_Source\PSoC4/I2C.c ****         if (0u != I2C_scbEnableIntr)
 362:Generated_Source\PSoC4/I2C.c ****         {
 363:Generated_Source\PSoC4/I2C.c ****             I2C_EnableInt();
 364:Generated_Source\PSoC4/I2C.c ****         }
 365:Generated_Source\PSoC4/I2C.c **** 
 366:Generated_Source\PSoC4/I2C.c ****     #else
 367:Generated_Source\PSoC4/I2C.c ****         I2C_EnableInt();
 487              		.loc 1 367 0
 488 000e 0820     		movs	r0, #8
 489 0010 FFF7FEFF 		bl	CyIntEnable
 490              	.LVL1:
 491              	.LBE11:
 492              	.LBE10:
 192:Generated_Source\PSoC4/I2C.c **** 
 493              		.loc 1 192 0
 494              		@ sp needed
ARM GAS  C:\Users\gjl\AppData\Local\Temp\ccVrmJeK.s 			page 36


 495 0014 10BD     		pop	{r4, pc}
 496              	.L4:
 497 0016 C046     		.align	2
 498              	.L3:
 499 0018 00002440 		.word	1076101120
 500              		.cfi_endproc
 501              	.LFE2:
 502              		.size	I2C_Enable, .-I2C_Enable
 503              		.section	.text.I2C_Start,"ax",%progbits
 504              		.align	1
 505              		.global	I2C_Start
 506              		.code	16
 507              		.thumb_func
 508              		.type	I2C_Start, %function
 509              	I2C_Start:
 510              	.LFB3:
 211:Generated_Source\PSoC4/I2C.c ****     if (0u == I2C_initVar)
 511              		.loc 1 211 0
 512              		.cfi_startproc
 513              		@ args = 0, pretend = 0, frame = 0
 514              		@ frame_needed = 0, uses_anonymous_args = 0
 515 0000 10B5     		push	{r4, lr}
 516              		.cfi_def_cfa_offset 8
 517              		.cfi_offset 4, -8
 518              		.cfi_offset 14, -4
 212:Generated_Source\PSoC4/I2C.c ****     {
 519              		.loc 1 212 0
 520 0002 054C     		ldr	r4, .L8
 521 0004 2378     		ldrb	r3, [r4]
 522 0006 002B     		cmp	r3, #0
 523 0008 03D1     		bne	.L6
 524              	.LBB12:
 525              	.LBB13:
 136:Generated_Source\PSoC4/I2C.c **** 
 526              		.loc 1 136 0
 527 000a FFF7FEFF 		bl	I2C_I2CInit
 528              	.LVL2:
 529              	.LBE13:
 530              	.LBE12:
 215:Generated_Source\PSoC4/I2C.c ****     }
 531              		.loc 1 215 0
 532 000e 0123     		movs	r3, #1
 533 0010 2370     		strb	r3, [r4]
 534              	.L6:
 218:Generated_Source\PSoC4/I2C.c **** }
 535              		.loc 1 218 0
 536 0012 FFF7FEFF 		bl	I2C_Enable
 537              	.LVL3:
 219:Generated_Source\PSoC4/I2C.c **** 
 538              		.loc 1 219 0
 539              		@ sp needed
 540 0016 10BD     		pop	{r4, pc}
 541              	.L9:
 542              		.align	2
 543              	.L8:
 544 0018 00000000 		.word	.LANCHOR0
 545              		.cfi_endproc
ARM GAS  C:\Users\gjl\AppData\Local\Temp\ccVrmJeK.s 			page 37


 546              	.LFE3:
 547              		.size	I2C_Start, .-I2C_Start
 548              		.section	.text.I2C_Stop,"ax",%progbits
 549              		.align	1
 550              		.global	I2C_Stop
 551              		.code	16
 552              		.thumb_func
 553              		.type	I2C_Stop, %function
 554              	I2C_Stop:
 555              	.LFB4:
 240:Generated_Source\PSoC4/I2C.c **** #if (I2C_SCB_IRQ_INTERNAL)
 556              		.loc 1 240 0
 557              		.cfi_startproc
 558              		@ args = 0, pretend = 0, frame = 0
 559              		@ frame_needed = 0, uses_anonymous_args = 0
 560 0000 10B5     		push	{r4, lr}
 561              		.cfi_def_cfa_offset 8
 562              		.cfi_offset 4, -8
 563              		.cfi_offset 14, -4
 242:Generated_Source\PSoC4/I2C.c **** #endif /* (I2C_SCB_IRQ_INTERNAL) */
 564              		.loc 1 242 0
 565 0002 0820     		movs	r0, #8
 566 0004 FFF7FEFF 		bl	CyIntDisable
 567              	.LVL4:
 568              	.LBB14:
 569              	.LBB15:
 368:Generated_Source\PSoC4/I2C.c **** 
 369:Generated_Source\PSoC4/I2C.c ****     #endif /* (I2C_SCB_MODE_UNCONFIG_CONST_CFG) */
 370:Generated_Source\PSoC4/I2C.c **** #endif /* (I2C_SCB_IRQ_INTERNAL) */
 371:Generated_Source\PSoC4/I2C.c **** }
 372:Generated_Source\PSoC4/I2C.c **** 
 373:Generated_Source\PSoC4/I2C.c **** 
 374:Generated_Source\PSoC4/I2C.c **** /*******************************************************************************
 375:Generated_Source\PSoC4/I2C.c **** * Function Name: I2C_ScbModePostEnable
 376:Generated_Source\PSoC4/I2C.c **** ****************************************************************************//**
 377:Generated_Source\PSoC4/I2C.c **** *
 378:Generated_Source\PSoC4/I2C.c **** *  Calls the PostEnable function for a specific operation mode.
 379:Generated_Source\PSoC4/I2C.c **** *
 380:Generated_Source\PSoC4/I2C.c **** *******************************************************************************/
 381:Generated_Source\PSoC4/I2C.c **** static void I2C_ScbModePostEnable(void)
 382:Generated_Source\PSoC4/I2C.c **** {
 383:Generated_Source\PSoC4/I2C.c **** #if (I2C_SCB_MODE_UNCONFIG_CONST_CFG)
 384:Generated_Source\PSoC4/I2C.c **** #if (!I2C_CY_SCBIP_V1)
 385:Generated_Source\PSoC4/I2C.c ****     if (I2C_SCB_MODE_SPI_RUNTM_CFG)
 386:Generated_Source\PSoC4/I2C.c ****     {
 387:Generated_Source\PSoC4/I2C.c ****         I2C_SpiPostEnable();
 388:Generated_Source\PSoC4/I2C.c ****     }
 389:Generated_Source\PSoC4/I2C.c ****     else if (I2C_SCB_MODE_UART_RUNTM_CFG)
 390:Generated_Source\PSoC4/I2C.c ****     {
 391:Generated_Source\PSoC4/I2C.c ****         I2C_UartPostEnable();
 392:Generated_Source\PSoC4/I2C.c ****     }
 393:Generated_Source\PSoC4/I2C.c ****     else
 394:Generated_Source\PSoC4/I2C.c ****     {
 395:Generated_Source\PSoC4/I2C.c ****         /* Unknown mode: do nothing */
 396:Generated_Source\PSoC4/I2C.c ****     }
 397:Generated_Source\PSoC4/I2C.c **** #endif /* (!I2C_CY_SCBIP_V1) */
 398:Generated_Source\PSoC4/I2C.c **** 
ARM GAS  C:\Users\gjl\AppData\Local\Temp\ccVrmJeK.s 			page 38


 399:Generated_Source\PSoC4/I2C.c **** #elif (I2C_SCB_MODE_SPI_CONST_CFG)
 400:Generated_Source\PSoC4/I2C.c ****     I2C_SpiPostEnable();
 401:Generated_Source\PSoC4/I2C.c **** 
 402:Generated_Source\PSoC4/I2C.c **** #elif (I2C_SCB_MODE_UART_CONST_CFG)
 403:Generated_Source\PSoC4/I2C.c ****     I2C_UartPostEnable();
 404:Generated_Source\PSoC4/I2C.c **** 
 405:Generated_Source\PSoC4/I2C.c **** #else
 406:Generated_Source\PSoC4/I2C.c ****     /* Unknown mode: do nothing */
 407:Generated_Source\PSoC4/I2C.c **** #endif /* (I2C_SCB_MODE_UNCONFIG_CONST_CFG) */
 408:Generated_Source\PSoC4/I2C.c **** }
 409:Generated_Source\PSoC4/I2C.c **** 
 410:Generated_Source\PSoC4/I2C.c **** 
 411:Generated_Source\PSoC4/I2C.c **** /*******************************************************************************
 412:Generated_Source\PSoC4/I2C.c **** * Function Name: I2C_ScbModeStop
 413:Generated_Source\PSoC4/I2C.c **** ****************************************************************************//**
 414:Generated_Source\PSoC4/I2C.c **** *
 415:Generated_Source\PSoC4/I2C.c **** *  Calls the Stop function for a specific operation mode.
 416:Generated_Source\PSoC4/I2C.c **** *
 417:Generated_Source\PSoC4/I2C.c **** *******************************************************************************/
 418:Generated_Source\PSoC4/I2C.c **** static void I2C_ScbModeStop(void)
 419:Generated_Source\PSoC4/I2C.c **** {
 420:Generated_Source\PSoC4/I2C.c **** #if (I2C_SCB_MODE_UNCONFIG_CONST_CFG)
 421:Generated_Source\PSoC4/I2C.c ****     if (I2C_SCB_MODE_I2C_RUNTM_CFG)
 422:Generated_Source\PSoC4/I2C.c ****     {
 423:Generated_Source\PSoC4/I2C.c ****         I2C_I2CStop();
 424:Generated_Source\PSoC4/I2C.c ****     }
 425:Generated_Source\PSoC4/I2C.c ****     else if (I2C_SCB_MODE_EZI2C_RUNTM_CFG)
 426:Generated_Source\PSoC4/I2C.c ****     {
 427:Generated_Source\PSoC4/I2C.c ****         I2C_EzI2CStop();
 428:Generated_Source\PSoC4/I2C.c ****     }
 429:Generated_Source\PSoC4/I2C.c **** #if (!I2C_CY_SCBIP_V1)
 430:Generated_Source\PSoC4/I2C.c ****     else if (I2C_SCB_MODE_SPI_RUNTM_CFG)
 431:Generated_Source\PSoC4/I2C.c ****     {
 432:Generated_Source\PSoC4/I2C.c ****         I2C_SpiStop();
 433:Generated_Source\PSoC4/I2C.c ****     }
 434:Generated_Source\PSoC4/I2C.c ****     else if (I2C_SCB_MODE_UART_RUNTM_CFG)
 435:Generated_Source\PSoC4/I2C.c ****     {
 436:Generated_Source\PSoC4/I2C.c ****         I2C_UartStop();
 437:Generated_Source\PSoC4/I2C.c ****     }
 438:Generated_Source\PSoC4/I2C.c **** #endif /* (!I2C_CY_SCBIP_V1) */
 439:Generated_Source\PSoC4/I2C.c ****     else
 440:Generated_Source\PSoC4/I2C.c ****     {
 441:Generated_Source\PSoC4/I2C.c ****         /* Unknown mode: do nothing */
 442:Generated_Source\PSoC4/I2C.c ****     }
 443:Generated_Source\PSoC4/I2C.c **** #elif (I2C_SCB_MODE_I2C_CONST_CFG)
 444:Generated_Source\PSoC4/I2C.c ****     I2C_I2CStop();
 570              		.loc 1 444 0
 571 0008 FFF7FEFF 		bl	I2C_I2CStop
 572              	.LVL5:
 573              	.LBE15:
 574              	.LBE14:
 249:Generated_Source\PSoC4/I2C.c **** 
 575              		.loc 1 249 0
 576 000c 054A     		ldr	r2, .L11
 262:Generated_Source\PSoC4/I2C.c **** #endif /* (I2C_SCB_IRQ_INTERNAL) */
 577              		.loc 1 262 0
 578 000e 0820     		movs	r0, #8
ARM GAS  C:\Users\gjl\AppData\Local\Temp\ccVrmJeK.s 			page 39


 249:Generated_Source\PSoC4/I2C.c **** 
 579              		.loc 1 249 0
 580 0010 1368     		ldr	r3, [r2]
 264:Generated_Source\PSoC4/I2C.c **** 
 581              		.loc 1 264 0
 582              		@ sp needed
 249:Generated_Source\PSoC4/I2C.c **** 
 583              		.loc 1 249 0
 584 0012 5B00     		lsls	r3, r3, #1
 585 0014 5B08     		lsrs	r3, r3, #1
 586 0016 1360     		str	r3, [r2]
 259:Generated_Source\PSoC4/I2C.c **** 
 587              		.loc 1 259 0
 588 0018 0022     		movs	r2, #0
 589 001a 034B     		ldr	r3, .L11+4
 590 001c 1A60     		str	r2, [r3]
 262:Generated_Source\PSoC4/I2C.c **** #endif /* (I2C_SCB_IRQ_INTERNAL) */
 591              		.loc 1 262 0
 592 001e FFF7FEFF 		bl	CyIntClearPending
 593              	.LVL6:
 264:Generated_Source\PSoC4/I2C.c **** 
 594              		.loc 1 264 0
 595 0022 10BD     		pop	{r4, pc}
 596              	.L12:
 597              		.align	2
 598              	.L11:
 599 0024 00002440 		.word	1076101120
 600 0028 880F2440 		.word	1076105096
 601              		.cfi_endproc
 602              	.LFE4:
 603              		.size	I2C_Stop, .-I2C_Stop
 604              		.section	.text.I2C_SetRxFifoLevel,"ax",%progbits
 605              		.align	1
 606              		.global	I2C_SetRxFifoLevel
 607              		.code	16
 608              		.thumb_func
 609              		.type	I2C_SetRxFifoLevel, %function
 610              	I2C_SetRxFifoLevel:
 611              	.LFB5:
 280:Generated_Source\PSoC4/I2C.c ****     uint32 rxFifoCtrl;
 612              		.loc 1 280 0
 613              		.cfi_startproc
 614              		@ args = 0, pretend = 0, frame = 0
 615              		@ frame_needed = 0, uses_anonymous_args = 0
 616              		@ link register save eliminated.
 617              	.LVL7:
 285:Generated_Source\PSoC4/I2C.c ****     rxFifoCtrl |= ((uint32) (I2C_RX_FIFO_CTRL_TRIGGER_LEVEL_MASK & level));
 618              		.loc 1 285 0
 619 0000 0F22     		movs	r2, #15
 283:Generated_Source\PSoC4/I2C.c **** 
 620              		.loc 1 283 0
 621 0002 0349     		ldr	r1, .L14
 286:Generated_Source\PSoC4/I2C.c **** 
 622              		.loc 1 286 0
 623 0004 1040     		ands	r0, r2
 624              	.LVL8:
 283:Generated_Source\PSoC4/I2C.c **** 
ARM GAS  C:\Users\gjl\AppData\Local\Temp\ccVrmJeK.s 			page 40


 625              		.loc 1 283 0
 626 0006 0B68     		ldr	r3, [r1]
 627              	.LVL9:
 289:Generated_Source\PSoC4/I2C.c **** 
 628              		.loc 1 289 0
 629              		@ sp needed
 285:Generated_Source\PSoC4/I2C.c ****     rxFifoCtrl |= ((uint32) (I2C_RX_FIFO_CTRL_TRIGGER_LEVEL_MASK & level));
 630              		.loc 1 285 0
 631 0008 9343     		bics	r3, r2
 632              	.LVL10:
 286:Generated_Source\PSoC4/I2C.c **** 
 633              		.loc 1 286 0
 634 000a 1843     		orrs	r0, r3
 635              	.LVL11:
 288:Generated_Source\PSoC4/I2C.c **** }
 636              		.loc 1 288 0
 637 000c 0860     		str	r0, [r1]
 289:Generated_Source\PSoC4/I2C.c **** 
 638              		.loc 1 289 0
 639 000e 7047     		bx	lr
 640              	.L15:
 641              		.align	2
 642              	.L14:
 643 0010 04032440 		.word	1076101892
 644              		.cfi_endproc
 645              	.LFE5:
 646              		.size	I2C_SetRxFifoLevel, .-I2C_SetRxFifoLevel
 647              		.section	.text.I2C_SetTxFifoLevel,"ax",%progbits
 648              		.align	1
 649              		.global	I2C_SetTxFifoLevel
 650              		.code	16
 651              		.thumb_func
 652              		.type	I2C_SetTxFifoLevel, %function
 653              	I2C_SetTxFifoLevel:
 654              	.LFB6:
 305:Generated_Source\PSoC4/I2C.c ****     uint32 txFifoCtrl;
 655              		.loc 1 305 0
 656              		.cfi_startproc
 657              		@ args = 0, pretend = 0, frame = 0
 658              		@ frame_needed = 0, uses_anonymous_args = 0
 659              		@ link register save eliminated.
 660              	.LVL12:
 310:Generated_Source\PSoC4/I2C.c ****     txFifoCtrl |= ((uint32) (I2C_TX_FIFO_CTRL_TRIGGER_LEVEL_MASK & level));
 661              		.loc 1 310 0
 662 0000 0F22     		movs	r2, #15
 308:Generated_Source\PSoC4/I2C.c **** 
 663              		.loc 1 308 0
 664 0002 0349     		ldr	r1, .L17
 311:Generated_Source\PSoC4/I2C.c **** 
 665              		.loc 1 311 0
 666 0004 1040     		ands	r0, r2
 667              	.LVL13:
 308:Generated_Source\PSoC4/I2C.c **** 
 668              		.loc 1 308 0
 669 0006 0B68     		ldr	r3, [r1]
 670              	.LVL14:
 314:Generated_Source\PSoC4/I2C.c **** 
ARM GAS  C:\Users\gjl\AppData\Local\Temp\ccVrmJeK.s 			page 41


 671              		.loc 1 314 0
 672              		@ sp needed
 310:Generated_Source\PSoC4/I2C.c ****     txFifoCtrl |= ((uint32) (I2C_TX_FIFO_CTRL_TRIGGER_LEVEL_MASK & level));
 673              		.loc 1 310 0
 674 0008 9343     		bics	r3, r2
 675              	.LVL15:
 311:Generated_Source\PSoC4/I2C.c **** 
 676              		.loc 1 311 0
 677 000a 1843     		orrs	r0, r3
 678              	.LVL16:
 313:Generated_Source\PSoC4/I2C.c **** }
 679              		.loc 1 313 0
 680 000c 0860     		str	r0, [r1]
 314:Generated_Source\PSoC4/I2C.c **** 
 681              		.loc 1 314 0
 682 000e 7047     		bx	lr
 683              	.L18:
 684              		.align	2
 685              	.L17:
 686 0010 04022440 		.word	1076101636
 687              		.cfi_endproc
 688              	.LFE6:
 689              		.size	I2C_SetTxFifoLevel, .-I2C_SetTxFifoLevel
 690              		.section	.text.I2C_SetCustomInterruptHandler,"ax",%progbits
 691              		.align	1
 692              		.global	I2C_SetCustomInterruptHandler
 693              		.code	16
 694              		.thumb_func
 695              		.type	I2C_SetCustomInterruptHandler, %function
 696              	I2C_SetCustomInterruptHandler:
 697              	.LFB7:
 336:Generated_Source\PSoC4/I2C.c ****     #if !defined (CY_REMOVE_I2C_CUSTOM_INTR_HANDLER)
 698              		.loc 1 336 0
 699              		.cfi_startproc
 700              		@ args = 0, pretend = 0, frame = 0
 701              		@ frame_needed = 0, uses_anonymous_args = 0
 702              		@ link register save eliminated.
 703              	.LVL17:
 338:Generated_Source\PSoC4/I2C.c ****     #else
 704              		.loc 1 338 0
 705 0000 014B     		ldr	r3, .L20
 345:Generated_Source\PSoC4/I2C.c **** #endif /* (I2C_SCB_IRQ_INTERNAL) */
 706              		.loc 1 345 0
 707              		@ sp needed
 338:Generated_Source\PSoC4/I2C.c ****     #else
 708              		.loc 1 338 0
 709 0002 5860     		str	r0, [r3, #4]
 345:Generated_Source\PSoC4/I2C.c **** #endif /* (I2C_SCB_IRQ_INTERNAL) */
 710              		.loc 1 345 0
 711 0004 7047     		bx	lr
 712              	.L21:
 713 0006 C046     		.align	2
 714              	.L20:
 715 0008 00000000 		.word	.LANCHOR0
 716              		.cfi_endproc
 717              	.LFE7:
 718              		.size	I2C_SetCustomInterruptHandler, .-I2C_SetCustomInterruptHandler
ARM GAS  C:\Users\gjl\AppData\Local\Temp\ccVrmJeK.s 			page 42


 719              		.global	I2C_customIntrHandler
 720              		.global	I2C_initVar
 721              		.bss
 722              		.align	2
 723              		.set	.LANCHOR0,. + 0
 724              		.type	I2C_initVar, %object
 725              		.size	I2C_initVar, 1
 726              	I2C_initVar:
 727 0000 00       		.space	1
 728 0001 000000   		.space	3
 729              		.type	I2C_customIntrHandler, %object
 730              		.size	I2C_customIntrHandler, 4
 731              	I2C_customIntrHandler:
 732 0004 00000000 		.space	4
 733              		.text
 734              	.Letext0:
 735              		.file 2 "Generated_Source\\PSoC4/cytypes.h"
 736              		.file 3 "Generated_Source\\PSoC4\\I2C_I2C_PVT.h"
 737              		.file 4 "Generated_Source\\PSoC4/CyLib.h"