ARM GAS  C:\Users\gjl\AppData\Local\Temp\ccSCsI4f.s 			page 1


   1              		.syntax unified
   2              		.cpu cortex-m0
   3              		.fpu softvfp
   4              		.eabi_attribute 20, 1
   5              		.eabi_attribute 21, 1
   6              		.eabi_attribute 23, 3
   7              		.eabi_attribute 24, 1
   8              		.eabi_attribute 25, 1
   9              		.eabi_attribute 26, 1
  10              		.eabi_attribute 30, 4
  11              		.eabi_attribute 34, 0
  12              		.eabi_attribute 18, 4
  13              		.thumb
  14              		.syntax unified
  15              		.file	"I2C_scl.c"
  16              		.text
  17              	.Ltext0:
  18              		.section	.gnu.lto_.profile.b55e0e9,"",%progbits
  19 0000 789C6361 		.ascii	"x\234ca`d`a`\000\222J2\000\000\312\000I"
  19      60646061 
  19      6000924A 
  19      320000CA 
  19      0049
  20              		.text
  21              		.section	.gnu.lto_.icf.b55e0e9,"",%progbits
  22 0000 789C6361 		.ascii	"x\234ca`d\000\0015\006\004`c\270\371\275\343 \017\343"
  22      60640001 
  22      35060460 
  22      63B8F9BD 
  22      E3200FE3 
  23 0014 F5737F4E 		.ascii	"\365s\177N\26225\035\375\331\310\303\374\347\335\315"
  23      B232351D 
  23      FDD9C8C3 
  23      FCE7DDCD 
  24 0024 6F9C2C3B 		.ascii	"o\234,;\377\037\232\310\301\272j\317\244\335\214\014"
  24      FF1F9AC8 
  24      C1BA6ACF 
  24      A4DD8C0C 
  25 0034 00829E13 		.ascii	"\000\202\236\023+"
  25      2B
  26              		.text
  27              		.section	.gnu.lto_.jmpfuncs.b55e0e9,"",%progbits
  28 0000 789C45C9 		.ascii	"x\234E\311\261\001\000 \010\300\260\026\320+\374\225"
  28      B1010020 
  28      08C0B016 
  28      D02BFC95 
  29 0010 D795C90C 		.ascii	"\327\225\311\014]Z\3108|\033\265\235\004$Thv\257\367"
  29      5D5AC838 
  29      7C1BB59D 
  29      04245468 
  29      76AFF7
  30 0023 2E215502 		.ascii	".!U\002@"
  30      40
  31              		.text
  32              		.section	.gnu.lto_.inline.b55e0e9,"",%progbits
  33 0000 789C658C 		.ascii	"x\234e\214\313\015\2000\014C\2354M\213\204\004\033t"
  33      CB0D8030 
ARM GAS  C:\Users\gjl\AppData\Local\Temp\ccSCsI4f.s 			page 2


  33      0C439D34 
  33      4D8B8404 
  33      1B74
  34 0012 0346E89A 		.ascii	"\003F\350\232\\;\012#0\012#\220H(\010\341\203\017\317"
  34      5C3B0A23 
  34      300A2390 
  34      482808E1 
  34      830FCF
  35 0025 1F01C1B5 		.ascii	"\037\001\301\265\343\225\002E\211P-\342zt\350h\354\201"
  35      E3950245 
  35      89502DE2 
  35      7A74E868 
  35      EC81
  36 0037 A1F2F014 		.ascii	"\241\362\360\024\234\317E<dd!\260\214\026\375\364G\202"
  36      9CCF453C 
  36      646421B0 
  36      8C16FDF4 
  36      4782
  37 0049 A91263B5 		.ascii	"\251\022c\265\013r\223\357\217\331\354\265\014\315\266"
  37      0B7293EF 
  37      8FD9ECB5 
  37      0CCDB6
  38 0058 D46B8B25 		.ascii	"\324k\213%n2B\016g"
  38      6E32420E 
  38      67
  39              		.text
  40              		.section	.gnu.lto_.pureconst.b55e0e9,"",%progbits
  41 0000 789C6361 		.ascii	"x\234ca`d\340e```c\220b\224b\222b\226b\221b\225\002"
  41      6064E065 
  41      60606063 
  41      90629462 
  41      92629662 
  42 0018 00059500 		.ascii	"\000\005\225\000\304"
  42      C4
  43              		.text
  44              		.section	.gnu.lto_I2C_scl_SetDriveMode.b55e0e9,"",%progbits
  45 0000 789C7D50 		.ascii	"x\234}PM+Da\024>\317\373\336\271F\302V\231\005\245\260"
  45      4D2B4461 
  45      143ECFFB 
  45      DEB946C2 
  45      569905A5 
  46 0015 91F00F2C 		.ascii	"\221\360\017,d7\261%i\334\035\246|\254\347\235\271s"
  46      6437B125 
  46      69DC1DA6 
  46      7CACE79D 
  46      B973
  47 0027 232B254A 		.ascii	"#+%J\223fC\276I\212\354\246)v\330\210\235D\335\205\325"
  47      936643BE 
  47      498AECA6 
  47      2976D888 
  47      9D44DD85 
  48 003c F8AA49B8 		.ascii	"\370\252I\270\316\231k\355\324\371xO\317\363\234s^\213"
  48      CE996BED 
  48      D4F9784F 
  48      CFF39C73 
  48      5E8B
  49 004e 4062394E 		.ascii	"@b9Nm\234\033\331\241\011j\361\212(\035U\200\024&\012"
ARM GAS  C:\Users\gjl\AppData\Local\Temp\ccSCsI4f.s 			page 3


  49      6D9C1BD9 
  49      A1096AF1 
  49      8A281D55 
  49      8014260A 
  50 0062 4A29A4F0 		.ascii	"J)\244\360\241\276\025\212s\376\231j\3374l\017\236\037"
  50      A1BE158A 
  50      73FE996A 
  50      DF346C0F 
  50      9E1F
  51 0074 4F1BAFC1 		.ascii	"O\033\257\301\323D\201\252(\0216\321\316\250\267\343"
  51      D34481AA 
  51      281136D1 
  51      CEA8B7E3 
  52 0084 8DA51ADD 		.ascii	"\215\245\032\335\002\342\372\345\252t_\327\272aL\306"
  52      02E2FAE5 
  52      AA745FD7 
  52      BA614CC6 
  53 0094 98DCB0D1 		.ascii	"\230\334\260\321\236\006\266\240\231\201\356\030:c\304"
  53      9E06B6A0 
  53      9981EE18 
  53      3A63C4
  54 00a3 0DC2365A 		.ascii	"\015\3026Z\005\374x\364\263\\kgE\276)\024\305\016lY"
  54      05FC78F4 
  54      B35C6B67 
  54      45BE2914 
  54      C50E6C59 
  55 00b7 F370A060 		.ascii	"\363p\240`\202\3005\205c\373\374\304\216*\246)-\301"
  55      82C03585 
  55      63FBFCC4 
  55      8E2AA629 
  55      2DC1
  56 00c9 82902352 		.ascii	"\202\220#R\332\022\210J\354\262\371\213R\222\265\217"
  56      DA12884A 
  56      ECB2F98B 
  56      5292B58F 
  57 00d9 E2E7C2ED 		.ascii	"\342\347\302\355\252-R\256\226+V\274\342u\325\273\362"
  57      AA2D52AE 
  57      962B56BC 
  57      E275D5BB 
  57      F2
  58 00ea B4AEAC78 		.ascii	"\264\256\254x\367t\236\267\302\347\374\374\242\261\270"
  58      F7749EB7 
  58      C2E7FCFC 
  58      A2B1B8
  59 00f9 75E9FE2C 		.ascii	"u\351\376,\331y\254\245\263\360\264\205=\304\260\213"
  59      D979ACA5 
  59      B3F0B485 
  59      3DC4B08B 
  60 0109 18AFB38F 		.ascii	"\030\257\263\217<\310\207\373\365'\247C\305\233\354"
  60      3CC887FB 
  60      F527A743 
  60      C59BEC
  61 0118 FA7DB548 		.ascii	"\372}\265H(\224\203 \250\307\001\243}d^\253BX\304\325"
  61      28948320 
  61      A8C701A3 
  61      7D645EAB 
  61      4258C4D5 
ARM GAS  C:\Users\gjl\AppData\Local\Temp\ccSCsI4f.s 			page 4


  62 012c 96D0CA7F 		.ascii	"\226\320\312\177\264\220\031\341Vq\005\322\372o\346"
  62      B49019E1 
  62      567105D2 
  62      FA6FE6
  63 013b 21CF640A 		.ascii	"!\317d\012=#S8\275P\002\257\374vIA\016\344s\233\373"
  63      3D235338 
  63      BD5002AF 
  63      FC764941 
  63      0EE4739B 
  64 0150 9C49676A 		.ascii	"\234Igjt\306\031\033\031L\316N%\234\241\370`\262\267"
  64      74C6191B 
  64      194CCE4E 
  64      259CA1F8 
  64      60B2B7
  65 0163 67A8BFAB 		.ascii	"g\250\277\253wd:1\336\221 k\"9\346\374\002\322+\223"
  65      77643A31 
  65      DE91206B 
  65      2239E6FC 
  65      02D22B93 
  66 0177 0D       		.ascii	"\015"
  67              		.text
  68              		.section	.gnu.lto_I2C_scl_Write.b55e0e9,"",%progbits
  69 0000 789C5551 		.ascii	"x\234UQMk\023Q\024\275\347\275\371\242\241\270qg\220"
  69      4D6B1351 
  69      14BDE7BD 
  69      F9A2A1B8 
  69      716790
  70 0013 0A965217 		.ascii	"\012\226R\027Z\324\037 tQ\272\023+\256\002%\244\263"
  70      5AD41F20 
  70      7451BA13 
  70      2BAE0225 
  70      A4B3
  71 0025 0B16A2ED 		.ascii	"\013\026\242\355\266/I\323\210n\352\302\272\020\033"
  71      B62F49D3 
  71      886EEAC2 
  71      BA101B
  72 0034 4424F5B3 		.ascii	"D$\365\263FP\250\270\030g\323\205\245buQ\241\210\024"
  72      4650A8B8 
  72      1867D385 
  72      A5627551 
  72      A18814
  73 0047 8CF8B188 		.ascii	"\214\370\261\210bTD\033\357\235\267i.\363\346\2759s"
  73      6254441B 
  73      EF9DB769 
  73      2EF3E6BD 
  73      3973
  74 0059 CE9973EF 		.ascii	"\316\231s\3578\004\222:\241\210\216\360\276\217\027"
  74      3804923A 
  74      A1888EF0 
  74      BE8F17
  75 0068 3441CDAF 		.ascii	"4A\315\257\023\025\003\005\310\301\004\240\031\205\031"
  75      13150305 
  75      C8C104A0 
  75      198519
  76 0077 B4D53F85 		.ascii	"\264\325?\205\270\332\\Q\203u\303\365\376\303\257!\263"
  76      B8DA5C51 
  76      8375C3F5 
ARM GAS  C:\Users\gjl\AppData\Local\Temp\ccSCsI4f.s 			page 5


  76      FEC3AF21 
  76      B3
  77 0088 14A1A289 		.ascii	"\024\241\242\211:*q\"\3241\310\254\217\317\252o\240"
  77      3A2A7122 
  77      D431C8AC 
  77      8FCFAA6F 
  77      A0
  78 0099 0F82F83C 		.ascii	"\017\202\370<\027\267[\251\201[\306\224\214ig\214\256"
  78      17B75BA9 
  78      815BC694 
  78      8C69678C 
  78      AE
  79 00aa 6860099A 		.ascii	"h`\011\232\0258\226\306P\232\030 \334\306\200\220?\305"
  79      153896C6 
  79      509A1820 
  79      DCC68090 
  79      3FC5
  80 00bc 97F2FA50 		.ascii	"\227\362\372P\242[}r\271\203\376\233\242\213^\257\366"
  80      A25B7D72 
  80      B983FE9B 
  80      A28B5EAF 
  80      F6
  81 00cd 5E3551B1 		.ascii	"^5Q\261O\264wvk\245\230\273\335\330\271\322\353\315"
  81      4FB47776 
  81      6BA598BB 
  81      DDD8B9D2 
  81      EBCD
  82 00df 4AAA3EDC 		.ascii	"J\252>\334E\277\315\203{\360\270C\010\262|*2\235N\331"
  82      45BFCD83 
  82      7BF0B843 
  82      08B27C2A 
  82      329D4ED9 
  83 00f3 44AFFCE7 		.ascii	"D\257\374\347\233~\217\342\257*\3157\355\220\274v!\011"
  83      9B7E8FE2 
  83      AF2ACD37 
  83      ED90BC76 
  83      2109
  84 0105 3C01FC04 		.ascii	"<\001\374\004\010\204@\324\342%C\370\246\224\354\272"
  84      088440D4 
  84      E22543F8 
  84      A694ECBA 
  85 0115 89F8CFC5 		.ascii	"\211\370\317\305\365\305i\261.k\031\310B%~\351\377P"
  85      F5C569B1 
  85      2E6B19C8 
  85      42257EE9 
  85      FF50
  86 0127 15ED24A9 		.ascii	"\025\355$\251\353?\277>\335c\037\315\205y\3430tme\255"
  86      EB3FBF3E 
  86      DD631FCD 
  86      8579E330 
  86      746D65AD 
  87 013b 16D470BD 		.ascii	"\026\324p\2758\313\243r\361\000i\334\007G\3072j\240"
  87      38CBA372 
  87      F10069DC 
  87      0747C732 
  87      6AA0
  88 014d 264ADFAB 		.ascii	"&J\337\253[\312\032j\366d\244\374wn\013\026q\030d\217"
ARM GAS  C:\Users\gjl\AppData\Local\Temp\ccSCsI4f.s 			page 6


  88      5BCA1A6A 
  88      F664A4FC 
  88      776E0B16 
  88      7118648F 
  89 0161 CD2F1B2F 		.ascii	"\315/\033/Rb\253\261\003<d\3716\022\215de\226\025m\354"
  89      5262ABB1 
  89      033C64F9 
  89      36128D64 
  89      6596156D 
  90 0176 B722BE5C 		.ascii	"\267\"\276\\\026=\256\2565zD\004\256\006k\230\364\333"
  90      163DAEAE 
  90      357A4404 
  90      AE066B98 
  90      F4DB
  91 0188 B3143FB1 		.ascii	"\263\024?\261\366\272m|\233\346\335\342iK\012,\024/"
  91      F6BA6D7C 
  91      9BE6DDE2 
  91      694B0A2C 
  91      142F
  92 019a DCD82B40 		.ascii	"\334\330+@W/EcR\335\355<\342vXC\237Q\212\336\216\210"
  92      572F4563 
  92      52DDED3C 
  92      E2765843 
  92      9F518ADE 
  93 01b0 20F93D2D 		.ascii	" \371=-\005\031\035\017\362\300Hx6,d\317\207\023\343"
  93      05191D0F 
  93      F2C04878 
  93      362C64CF 
  93      8713E3
  94 01c3 63935385 		.ascii	"c\223S\205\\\2309969|<3ztx\374\\.\1778G\356t6?\025\272"
  94      5C983939 
  94      36397C3C 
  94      337A7478 
  94      FC5C2E7F 
  95 01df 138533D9 		.ascii	"\023\2053\331\374\177F\303\306\220"
  95      FC7F46C3 
  95      C690
  96              		.text
  97              		.section	.gnu.lto_I2C_scl_Read.b55e0e9,"",%progbits
  98 0000 789C2D4E 		.ascii	"x\234-N1,CQ\024\275\347\275\257\232\237\230\015\376"
  98      312C4351 
  98      14BDE7BD 
  98      AF9A9F98 
  98      0DFE
  99 0012 404C5D44 		.ascii	"@L]D\260\230;\210Mt\223&\215|\177\023M\212\271\257\375"
  99      B0983B88 
  99      4D749326 
  99      8D7C7F13 
  99      4D8AB9AF 
 100 0027 FD2A181A 		.ascii	"\375*\030\032\011\026\215M[$\322\010\363\327IB\330\314"
 100      09168D4D 
 100      5B24D208 
 100      F3D74942 
 100      D8CC
 101 0039 8874E8A4 		.ascii	"\210t\350\244B$\202\272W\335\344\345\336{\336\271\347"
 101      422482BA 
 101      57DDE4E5 
ARM GAS  C:\Users\gjl\AppData\Local\Temp\ccSCsI4f.s 			page 7


 101      DE7BDEB9 
 101      E7
 102 004a 1C8B4052 		.ascii	"\034\213@R\375\334\206\271\017\360\203&\250\322-Q.\252"
 102      FDDC86B9 
 102      0FF08326 
 102      A8D22D51 
 102      2EAA
 103 005c 00194C14 		.ascii	"\000\031L\024\224U\310\342]}+\\\177\\m\331\261\2121"
 103      9455C8E2 
 103      5D7D2B5C 
 103      7F5C6DD9 
 103      B18A31
 104 006f 79F3101C 		.ascii	"y\363\020\034N\356UC\004\232\250\243\010\343\016F\035"
 104      4EEE5543 
 104      049AA8A3 
 104      08E30E46 
 104      1D
 105 0080 91A82046 		.ascii	"\221\250 FL}\252\377\354\364E\012\206kP\010\374SED,"
 105      4C7DAAFF 
 105      ECF4450A 
 105      866B5008 
 105      FC534544 
 106 0095 4F6743D3 		.ascii	"OgC\323\351\370&<\263//\354\036E\201f\337@+\213D\214"
 106      E9F8263C 
 106      B32F2FEC 
 106      1E458166 
 106      DF402B8B 
 107 00ab 5E982CD6 		.ascii	"^\230,\326m\245\244\353&\032\237\033\367\2659\271\367"
 107      6DA5A4EB 
 107      261A9F1B 
 107      F7B539B9 
 107      F7
 108 00bc B5C4D80D 		.ascii	"\265\304\330\015\032w\275o*\320\032b\265\275\271\357"
 108      1A77BD6F 
 108      2AD01A62 
 108      B5BDB9EF 
 109 00cc 74B7C27A 		.ascii	"t\267\302z\311X\214\254=\266[8@9W\340|\026\216\340\240"
 109      C9588CAC 
 109      3DB65B38 
 109      403957E0 
 109      7C168EE0 
 110 00e1 064E8763 		.ascii	"\006N\207cF\251\211\374k\361\031]=\315\222\214\370_"
 110      46A989FC 
 110      6BF1195D 
 110      3DCD928C 
 110      F85F
 111 00f3 91EE6E31 		.ascii	"\221\356n1\304\012\347\305\233\272-\242\004\340\204"
 111      C40AE7C5 
 111      9BBA2DA2 
 111      04E084
 112 0102 6F5B50FF 		.ascii	"o[P\377\004\372\313\010\311\306I\207\246\274%/3\277"
 112      04FACB08 
 112      C9C64987 
 112      A6BC252F 
 112      33BF
 113 0114 E22DA412 		.ascii	"\342-\244\022\351\325\214\353%g\022\351\370Drz,\236"
 113      E9D58CEB 
ARM GAS  C:\Users\gjl\AppData\Local\Temp\ccSCsI4f.s 			page 8


 113      256712E9 
 113      F844727A 
 113      2C9E
 114 0126 5A761747 		.ascii	"Zv\027G\\\372\005\340\270gA"
 114      5CFA05E0 
 114      B86741
 115              		.text
 116              		.section	.gnu.lto_I2C_scl_ReadDataReg.b55e0e9,"",%progbits
 117 0000 789C2D4E 		.ascii	"x\234-N1KBa\024\275\347\373^/Q\2425\310\241hr\211\250"
 117      314B4261 
 117      14BDE7FB 
 117      5E2F51A2 
 117      35C8A168 
 118 0017 96668768 		.ascii	"\226f\207h\213\334B\220\260\267E\202\325\354\247\317"
 118      8BDC4290 
 118      B0B74582 
 118      D5ECA7CF 
 119 0027 87110D2E 		.ascii	"\207\021\015.\325 \345\250\225\020\022\0155\231S\220"
 119      D520E5A8 
 119      9510120D 
 119      35995390 
 120 0037 D45F8808 		.ascii	"\324_\210\010\207h\250(\203\250^\367\366\272\360q\357"
 120      8768A828 
 120      83A85EF7 
 120      F6BAF071 
 120      EF
 121 0048 3DDFB9E7 		.ascii	"=\337\271\347\034\213@RC\334\306\270\017\363\203&\250"
 121      1C8B4052 
 121      43DCC6B8 
 121      0FF38326 
 121      A8
 122 0059 F20D513E 		.ascii	"\362\015Q>\244\000\031L\010\224S\310\341]}+\\\177\\"
 122      A400194C 
 122      089453C8 
 122      E15D7D2B 
 122      5C7F5C
 123 006c 6D876335 		.ascii	"m\207c5c\012\346\316;\235\331\253\267\340i\"_\021\246"
 123      630AE6CE 
 123      3B9DD9AB 
 123      B7E06922 
 123      5F11A6
 124 007f A298888A 		.ascii	"\242\230\210\212D\0151b\352}\363gg\300.\032\256\021"
 124      440D3162 
 124      EA7DF367 
 124      67C02E1A 
 124      AE11
 125 0091 21F04F1D 		.ascii	"!\360O\035\266X\236,\264\214\357\273\246U\211\\\036"
 125      B6589E2C 
 125      B48CEFBB 
 125      A655895C 
 125      1E
 126 00a2 44FA1479 		.ascii	"D\372\024y\232}=\255,\0221zf\262X\277(%]w\321\376\334"
 126      9A7D3DAD 
 126      2C12317A 
 126      66B258BF 
 126      28255D77 
 127 00b9 EA3516E5 		.ascii	"\3525\026\345\336\325\022c\327k\337\366\277)Ok\210U"
ARM GAS  C:\Users\gjl\AppData\Local\Temp\ccSCsI4f.s 			page 9


 127      DED51263 
 127      D76BDFF6 
 127      BF294F6B 
 127      8855
 128 00cb ADF77431 		.ascii	"\255\367t1\030\254f\263l,\206*\347\235j\250\212\375"
 128      18AC66B3 
 128      6C2C862A 
 128      E79D6AA8 
 128      8AFD
 129 00dd 7C91035A 		.ascii	"|\221\003Z8B\024\207\340x8F\025\324E\341\265\364\200"
 129      38421487 
 129      E0783846 
 129      15D445E1 
 129      B5F480
 130 00f0 4050B326 		.ascii	"@P\263&#\356\227\035\354\026C\254pV\3524\303\"J\000"
 130      23EE971D 
 130      EC1643AC 
 130      7056EA34 
 130      C3224A00 
 131 0104 1A7CFB08 		.ascii	"\032|\373\010\365O\240\277\220\220p\034ut\326Yu\262"
 131      F54FA0BF 
 131      9090701C 
 131      7574D659 
 131      75B2
 132 0116 4BEBCE72 		.ascii	"K\353\316r*\221\331\310\246\235\344|\"\023\237N\316"
 132      2A91D9C8 
 132      A69DE47C 
 132      22139F4E 
 132      CE
 133 0127 4DC6536B 		.ascii	"M\306Sk\351\225\3614\375\002\300\332hA"
 133      E995F134 
 133      FD02C0DA 
 133      6841
 134              		.text
 135              		.section	.gnu.lto_I2C_scl_SetInterruptMode.b55e0e9,"",%progbits
 136 0000 789C6D91 		.ascii	"x\234m\221Mh\023A\024\307\347\315l\262\233\217\256\236"
 136      4D681341 
 136      14C7E7CD 
 136      6CB29B8F 
 136      AE9E
 137 0012 BCD84304 		.ascii	"\274\330C\004K\350A\301\342\305s\016\342E\212\275\026"
 137      4BE841C1 
 137      E2C5730E 
 137      E2458ABD 
 137      16
 138 0023 4A49A304 		.ascii	"JI\243\0044\2214\236;\311&\251\224\"E1`1\024\225\245"
 138      3491349E 
 138      3BC926A9 
 138      94224531 
 138      60311495 
 139 0038 D1AAFD48 		.ascii	"\321\252\375H\025\354i\033\360V\225ZE\252b\245b\002"
 139      15EC691B 
 139      F056955A 
 139      45AA62A5 
 139      6202
 140 004a C5425A5B 		.ascii	"\305BZ[\024?\032\337\333\311\245\340\300\356\314\373"
 140      143F1ADF 
ARM GAS  C:\Users\gjl\AppData\Local\Temp\ccSCsI4f.s 			page 10


 140      DBC9A5E0 
 140      C0EECCFB 
 141 005a F1DE7FFE 		.ascii	"\361\336\177\376\357\215\306\200\321*s\306N\341~\030"
 141      EF8DC680 
 141      D12A73C6 
 141      4EE17E18 
 142 006a 3F100CF8 		.ascii	"?\020\014\370\330K\3062\006\007\240\2034\200\015q\030"
 142      D84BC632 
 142      0607A083 
 142      34800D71 
 142      18
 143 007b 825DFE97 		.ascii	"\202]\376\227Cu\270\366\214wNJ\\\237\277\326O\310\262"
 143      4375B8F6 
 143      8C774E4A 
 143      5C9FBFD6 
 143      4FC8B2
 144 008e 0379C158 		.ascii	"\003y\301X\223\273J\014&\241\023\263\2367\1778\007v"
 144      93BB4A0C 
 144      26A113B3 
 144      9E377F38 
 144      0776
 145 00a0 785E0050 		.ascii	"x^\000P\321\353\306R)@!\207\203\030\216o\330ES\034\005"
 145      D1EBC652 
 145      29402187 
 145      83188E6F 
 145      D845531C 
 146 00b5 86E7FAFC 		.ascii	"\206\347\372\374\335w\376\260-eV\312R\277\364\344\205"
 146      DD77FEB0 
 146      2D6556CA 
 146      52BFF4E4 
 146      85
 147 00c6 80072050 		.ascii	"\200\007 P\017\356C;\224\241\235!b0\005a\314\376^\261"
 147      0FEE433B 
 147      94A19D21 
 147      62300561 
 147      CCFE5EB1 
 148 00da 6F04C431 		.ascii	"o\004\3041\267r\333\262\255`\253r\255U\371\360?\225"
 148      B772DBB2 
 148      AD60AB72 
 148      AD55F9F0 
 148      3F95
 149 00ec 8F204CE9 		.ascii	"\217 L\351\313\271\231\333BY\3220\334z1\376\305T\226"
 149      CBB999DB 
 149      4259D230 
 149      DC7A31FE 
 149      C55496
 150 00ff 42184ED9 		.ascii	"B\030N\331om.\272\\\341\221\325\353sm\035\367H\330Y"
 150      6F6D2EBA 
 150      5CE191D5 
 150      EB736D1D 
 150      F748D859 
 151 0113 B966DE92 		.ascii	"\271f\336\222N.\224\027\032\314(\361i\024\177\214\342"
 151      4E2E9417 
 151      1ACC28F1 
 151      69147F8C 
 151      E2
 152 0124 B4307B7D 		.ascii	"\2640{}v\357f\2337G\003\011\301,t\250Q\300\034xq\270"
ARM GAS  C:\Users\gjl\AppData\Local\Temp\ccSCsI4f.s 			page 11


 152      76EF669B 
 152      37470309 
 152      C12C74A8 
 152      51C01C78 
 153 013a 4064FA9C 		.ascii	"@d\372\234#\233MK:\313\346\342{3\310\321\226\007]`G"
 153      239B4D4B 
 153      3ACBE6E2 
 153      7B33C8D1 
 153      96075D60 
 154 014f 1A1D3DF4 		.ascii	"\032\035=\364\3632\312\324\201\334\032\010\274>\242"
 154      F332CAD4 
 154      81DC1A08 
 154      BC3EA2
 155 015e 7EFA31D6 		.ascii	"~\3721\326@Ez\211-\316i\0275\250\376\032\371\264\320"
 155      40457A89 
 155      2DCE6917 
 155      35A8FE1A 
 155      F9B4D0
 156 0171 4D975882 		.ascii	"M\227X\202\006\\\314W_\351\324\215\356vP\371\275\262"
 156      065CCC57 
 156      5FE9D48D 
 156      EE7650F9 
 156      BDB2
 157 0183 1854E1E8 		.ascii	"\030T\341\350\3251I\375\256\325W7\375\023P\312\344\360"
 157      D53149FD 
 157      AED55737 
 157      FD1350CA 
 157      E4F0
 158 0195 BD0C98C7 		.ascii	"\275\014\230\307&*\324\004<\201\011`5\310n\017\177\364"
 158      262AD404 
 158      3C810960 
 158      35C86E0F 
 158      7FF4
 159 01a7 2841CDC2 		.ascii	"(A\315\302\261!\331+,i\212x\020\"\261\376\024\276\201"
 159      B121D92B 
 159      2C698A78 
 159      1022B1FE 
 159      14BE81
 160 01ba 22742F72 		.ascii	"\"t/r\266\016\334m\025\315#T9\265\2057\255,\003\225"
 160      B60EDC6D 
 160      15CD2354 
 160      39B58537 
 160      AD2C0395 
 161 01ce 2CA1BBF2 		.ascii	",\241\273\362\272B>\244\224\366\263\260#\024\361\273"
 161      BA423EA4 
 161      94F6B3B0 
 161      2314F1BB 
 162 01de 6A3E84D5 		.ascii	"j>\204\325\342\235C\304\366\331\315H\031\330\357\370"
 162      E29D43C4 
 162      F6D9CD48 
 162      19D8EFF8 
 163 01ee 293AC632 		.ascii	"):\3062\266\001Y\347\303Y*p\337\242\301\201\246\203"
 163      B60159E7 
 163      C3592A70 
 163      DFA2C181 
 163      A683
 164 0200 B33A723A 		.ascii	"\263:r:\226\210\245\372\323\261\201\276\236\344\225"
ARM GAS  C:\Users\gjl\AppData\Local\Temp\ccSCsI4f.s 			page 12


 164      9688A5FA 
 164      D3B181BE 
 164      9EE495
 165 020f 5434D6DB 		.ascii	"T4\326\333\335\223\214\234\354=\323\025\351\033\214"
 165      DD938C9C 
 165      EC3DD315 
 165      E91B8C
 166 021e 5E3C1E65 		.ascii	"^<\036e\306\345\344`<\035O&\264K\311\201\230\036O\244"
 166      C6E5E460 
 166      3C1D4F26 
 166      B44BC981 
 166      981E4FA4 
 167 0232 5391F317 		.ascii	"S\221\363\027\376\001x\001\356\361"
 167      FE017801 
 167      EEF1
 168              		.text
 169              		.section	.gnu.lto_I2C_scl_ClearInterrupt.b55e0e9,"",%progbits
 170 0000 789C5590 		.ascii	"x\234U\220\317+tQ\030\307\237\3579w\2304\370\003\314"
 170      CF2B7451 
 170      18C79FEF 
 170      39779834 
 170      F803CC
 171 0013 82626123 		.ascii	"\202ba#acm!;\031K\245i\334\225_e\306\22633.\2222%\254"
 171      61636D21 
 171      3B194BA5 
 171      69DC955F 
 171      65C69633 
 172 002d 64A18CDF 		.ascii	"d\241\214\337RX\320\350\232\024%\304_ \312B)\344}\365"
 172      5258D0E8 
 172      9A1425C4 
 172      5F20CA42 
 172      29E47DF5 
 173 0041 BEAFD778 		.ascii	"\276\257\327x\236\271\026\234\272\235s\276\367\371~"
 173      9EB9169C 
 173      BA9D73BE 
 173      F7F97E
 174 0050 CEF7792C 		.ascii	"\316\367y,\002\311\332\343\255\226\3672\376\240\011"
 174      02C9DAE3 
 174      AD96F732 
 174      FEA009
 175 005f 2A754114 		.ascii	"*uA\024\367+@\016\306\017\032V\030\306/\365_\341\354"
 175      F72B400E 
 175      C60F1A56 
 175      18C62FF5 
 175      5FE1EC
 176 0072 ED74B2A8 		.ascii	"\355t\262\250:mL\302\3348o\215s\313.\034M\224S\204\372"
 176      3A6D4CC2 
 176      DC386F8D 
 176      73CB2E1C 
 176      4D945384 
 177 0087 206A8382 		.ascii	" j\203\202H\243\232\270\364n\363_\272XWB\316\347K\217"
 177      48A39AB8 
 177      F46EF35F 
 177      BA585742 
 177      CEE74B8F 
 178 009b BBA85A14 		.ascii	"\273\250Z\024\233\233\231\012\314\0317^\316>,C\177\267"
 178      9B9B990A 
ARM GAS  C:\Users\gjl\AppData\Local\Temp\ccSCsI4f.s 			page 13


 178      CC19375E 
 178      CE3E2C43 
 178      7FB7
 179 00ad 92D4DE6E 		.ascii	"\222\324\336n\177\314\024\027\214\030^\345XA\225\300"
 179      7FCC1417 
 179      8C185EE5 
 179      584195C0 
 180 00bd 99BA8A02 		.ascii	"\231\272\212\002\316\011Q\266\332\\\223\313%\215{Pz"
 180      CE0951B6 
 180      DA5C93CB 
 180      258D7B50 
 180      7A
 181 00ce 745D5AA8 		.ascii	"t]Z\250\310\321\234\333\321\312\"\371\355\223;\321\023"
 181      C8D19CDB 
 181      D1CA22F9 
 181      ED933BD1 
 181      13
 182 00df DBA48167 		.ascii	"\333\244\201g\245d\327\367\310\376\235\370\235\031\022"
 182      A564D7F7 
 182      C8FE9DF8 
 182      9D1912
 183 00ee 52524B33 		.ascii	"RRK3\263N\366\262\360U9Z\347C:'\017\257\001\357\232"
 183      B34EF6B2 
 183      F055395A 
 183      E7433A27 
 183      0FAF01EF 
 184 0103 1A4F198B 		.ascii	"\032O\031\213\245\303\351\375?\376\005\314\307G\270"
 184      A5C3E9FD 
 184      3FFE05CC 
 184      C747B8
 185 0112 4D0BEB08 		.ascii	"M\013\353\010b\015\234\024\033X\000\335#\3612\366\256"
 185      620D9C14 
 185      1B5800DD 
 185      23F132F6 
 185      AE
 186 0123 3CA06626 		.ascii	"<\240f&+\311\367\321cx\212\305\"3v\216OF\375\202\345"
 186      2BC9F7D1 
 186      63788AC5 
 186      2233768E 
 186      4F46FD82 
 187 0138 816293DD 		.ascii	"\201b\223\335\267\310[$*\027y\224\217L\273g\362yRv6"
 187      B7C85B24 
 187      2A177994 
 187      8F4CBB67 
 187      F2795276 
 188 014d 0FF91121 		.ascii	"\017\371\021!n\214\357g\212-N\301\026z@\302\275\232"
 188      6E8CEF67 
 188      8A2D4EC1 
 188      167A40C2 
 188      BD9A
 189 015f 2AF97A56 		.ascii	"*\371zV\346\370\244 M\363\010*\232\355>{ \034\263\273"
 189      E6F8A420 
 189      4DF3082A 
 189      9AED3E7B 
 189      201CB3BB 
 190 0173 3A43FD83 		.ascii	":C\375\203\003\021\273\2435\324\337\324\320\321R\327"
 190      0311BBA3 
ARM GAS  C:\Users\gjl\AppData\Local\Temp\ccSCsI4f.s 			page 14


 190      35D4DFD4 
 190      D0D152D7 
 191 0183 D4198DF4 		.ascii	"\324\031\215\364\324D(\320\033\216v\333]\241X86\030"
 191      D44428D0 
 191      1B8E76DB 
 191      5DA15838 
 191      3618
 192 0195 FD0490A5 		.ascii	"\375\004\220\245\240\267"
 192      A0B7
 193              		.text
 194              		.section	.gnu.lto_.symbol_nodes.b55e0e9,"",%progbits
 195 0000 789C6361 		.ascii	"x\234ca`d\310`\000\002&\206z\006\206\011\347\030@\324"
 195      6064C860 
 195      00022686 
 195      7A068609 
 195      E71840D4 
 196 0014 AE0645A0 		.ascii	"\256\006E\240\000c=#\252\000S=\023\252\000s=3\252\000"
 196      00633D23 
 196      AA00533D 
 196      13AA0073 
 196      3D33AA00 
 197 0028 4B3D0BAA 		.ascii	"K=\013\252\000k=+\212\000\003\000\305\333\026\342"
 197      006B3D2B 
 197      8A000300 
 197      C5DB16E2 
 198              		.text
 199              		.section	.gnu.lto_.refs.b55e0e9,"",%progbits
 200 0000 789C6361 		.ascii	"x\234ca`\004B \000\000\0009\000\007"
 200      60044220 
 200      00000039 
 200      0007
 201              		.text
 202              		.section	.gnu.lto_.decls.b55e0e9,"",%progbits
 203 0000 789C8D54 		.ascii	"x\234\215T_L[e\024\277\347\336\266\243\227\002\013\222"
 203      5F4C5B65 
 203      14BFE7DE 
 203      B6A39702 
 203      0B92
 204 0012 85873EE0 		.ascii	"\205\207>\340\036Z\236P\300\030_LLX\234K\374\227\021"
 204      1E5A9E50 
 204      C0185F4C 
 204      4C589C4B 
 204      FC9711
 205 0025 E7CB12D2 		.ascii	"\347\313\022\322\301\315\206Y`\351\212qo_\370\263M\037"
 205      C1CD8659 
 205      60E98A71 
 205      6F5FF8B3 
 205      4D1F
 206 0037 16960C1C 		.ascii	"\026\226\014\034\012\322\255S\313\277\361o@\333\351"
 206      0AD2AD53 
 206      CBBFF16F 
 206      40DBE9
 207 0046 5A36DA55 		.ascii	"Z6\332U`\243\300\203.\350\266\004\027\2433\021\335\314"
 207      60A3C083 
 207      2EE8B604 
 207      17A33311 
 207      DDCC
ARM GAS  C:\Users\gjl\AppData\Local\Temp\ccSCsI4f.s 			page 15


 208 0058 8204EBF9 		.ascii	"\202\004\353\371\376\334\336;-\206/=\367\273\347\373"
 208      FEDCDE3B 
 208      2D862F3D 
 208      F7BBE7FB 
 209 0068 CEF99DDF 		.ascii	"\316\371\235\337\371\335\223Z$\220\350\262\332$\351"
 209      F9DD935A 
 209      2490E8B2 
 209      DA24E9
 210 0077 7BDCFDE8 		.ascii	"{\334\375\350\246q\355\300\367\003\222\261\360Z\032"
 210      A671EDC0 
 210      F70392B1 
 210      F05A1A
 211 0086 479B400B 		.ascii	"G\233@\013\241E\320f\320\022\322\177\027\215\263\212"
 211      A145D066 
 211      D012D27F 
 211      178DB38A 
 212 0096 FCCB686E 		.ascii	"\374\313hn\264%\264\224\270\007\021\363\3575!\352\230"
 212      B425B494 
 212      B80711F3 
 212      EF3521EA 
 212      98
 213 00a7 F39C5972 		.ascii	"\363\234Yr'\262\344\206D\315\377\313\013e\311\213l#"
 213      27B2E486 
 213      44CDFFCB 
 213      0B65C98B 
 213      6C23
 214 00b9 2F92258F 		.ascii	"/\222%\217\366n\027\\\013\321\212\320\242h\363\002\307"
 214      F66E175C 
 214      0BD18AD0 
 214      A268F302 
 214      C7
 215 00ca 95056726 		.ascii	"\225\005g&\013Nb\033\365\263i\274)C\25251\225\263\002"
 215      0B4E621B 
 215      F5B369BC 
 215      2943AA35 
 215      3195B302 
 216 00de 774006F1 		.ascii	"w@\006\361\021%\000\376\004f\0227\346\342\213\314\236"
 216      112500FE 
 216      04661237 
 216      E6E28BCC 
 216      9E
 217 00ef 52E628B3 		.ascii	"R\346(\263I\364)\361xvf\200\261\237\276\247\365\305"
 217      49F429F1 
 217      78766680 
 217      B19FBEA7 
 217      F5C5
 218 0101 400C7410 		.ascii	"@\014t\020I\220a\300\263\370\275\254\243\362M6\022L"
 218      499061C0 
 218      B3F8BDAC 
 218      A3F24D36 
 218      124C
 219 0113 789CAE89 		.ascii	"x\234\256\211\023<\335\023\350MwvD7\362\024\354\030"
 219      133CDD13 
 219      E84D7776 
 219      4437F214 
 219      EC18
 220 0125 DFEFAD07 		.ascii	"\337\357\255\007_-\033$\270\332\011\221\2373\224\031"
ARM GAS  C:\Users\gjl\AppData\Local\Temp\ccSCsI4f.s 			page 16


 220      5F2D1B24 
 220      B8DA0991 
 220      9F339419 
 221 0135 6EFBB12F 		.ascii	"n\373\261/\347\261\014N\025\322@\375_\303\353y\334\247"
 221      E7B10C4E 
 221      15D240FD 
 221      5FC3EB79 
 221      DCA7
 222 0147 D75D6757 		.ascii	"\327]gW\377\316UJ\350\273\274\274:\360\263\005J\325"
 222      FFCE554A 
 222      E8BBBCBC 
 222      3AF0B305 
 222      4AD5
 223 0159 2F28CCFD 		.ascii	"/(\314\375\236\276\227\303\204\354\204\313\240\302 "
 223      9EBE97C3 
 223      84EC84CB 
 223      A0C220
 224 0168 28D00765 		.ascii	"(\320\007e\264\270S\305\347iB\232\311\332Eb+\226\240"
 224      B4B853C5 
 224      E769429A 
 224      C9DA4562 
 224      2B96A0
 225 017b D209CF3B 		.ascii	"\322\011\317;%\030\202R\212I\243`\000\234\320\017N\212"
 225      25188252 
 225      8A49A360 
 225      009CD00F 
 225      4E8A
 226 018d FFE0E3DE 		.ascii	"\377\340\343\336\2076\213\214\211\024\347\220\205\236"
 226      87368B8C 
 226      8914E790 
 226      859E
 227 019b C5D34F62 		.ascii	"\305\323Ob\005H\241P\005\031\335\245\265\371\236\\t"
 227      0548A150 
 227      0519DDA5 
 227      B5F99E5C 
 227      74
 228 01ac 8B54D889 		.ascii	"\213T\330\211\356\355sw\226\240\270\223r -\244D\206"
 228      EEED7377 
 228      96A0B893 
 228      72202DA4 
 228      4486
 229 01be 03BB6014 		.ascii	"\003\273`\024\001G\020P\2021(\306\3470Xxw\237\006\236"
 229      01471050 
 229      823128C6 
 229      E7305878 
 229      779F069E 
 230 01d2 DC5576FB 		.ascii	"\334Uv\373\211\177\204\334\037=\371\372\205\300I\222"
 230      897F84DC 
 230      1F3DF9FA 
 230      85C04992 
 231 01e2 C2BC5758 		.ascii	"\302\274WX \004\015\332\370J\267/a\005\305\034\207\335"
 231      20040DDA 
 231      F84AB72F 
 231      6105C51C 
 231      87DD
 232 01f4 981BECF9 		.ascii	"\230\033\354\371.\220\253\274\307d\370,\356\367\333"
 232      2E90ABBC 
ARM GAS  C:\Users\gjl\AppData\Local\Temp\ccSCsI4f.s 			page 17


 232      C764F82C 
 232      EEF7DB
 233 0203 394E2C7A 		.ascii	"9N,zJ\351\"\261f\204\221\031\312\025\003\345\212\031"
 233      4AE922B1 
 233      66849119 
 233      CA1503E5 
 233      8A19
 234 0215 6582A124 		.ascii	"e\202\241$;\316\\\222\225\017\030JO{\240?\327L\235\366"
 234      3BCE5C92 
 234      950F184A 
 234      4F7BA03F 
 234      D74C9DF6 
 235 0229 6C709F62 		.ascii	"lp\237b\334\017\011\352\275+\301k\016Qrt\326(\211Q0"
 235      DC0F09EA 
 235      BD2BC16B 
 235      0E517274 
 235      D6288951 
 236 023e 69949C34 		.ascii	"i\224\2344\227\014\261\222\361K\233\323v\245\015X\315"
 236      970CB192 
 236      F14B9BD3 
 236      76A50D58 
 236      CD
 237 024f F93F5B5A 		.ascii	"\371?[Z\255\002\346\374\234\203\267\317@\302\006H\330"
 237      AD02E6FC 
 237      9C83B7CF 
 237      40C20648 
 237      D8
 238 0260 0C126120 		.ascii	"\014\022a \375\013\327\317\330\225.\016\362\371_\033"
 238      FD0BD7CF 
 238      D8952E0E 
 238      F2F95F1B 
 239 0270 6B0A7E02 		.ascii	"k\012~\002\027\016IZ1M\211\213OI\360Bb\\U\306X\260\334"
 239      170E495A 
 239      314D898B 
 239      4F49F042 
 239      625C55C6 
 240 0287 7D6E7AC8 		.ascii	"}nz\310\006j)\033\002\354S\015\346K\231.!\206s\340\022"
 240      066A291B 
 240      02EC530D 
 240      E64B992E 
 240      218673E0 
 241 029c 73F0351E 		.ascii	"s\3605\036~\205\207b\240\206\370@EQ\224k\0067\227*\246"
 241      7E858762 
 241      A086F840 
 241      4551946B 
 241      0637972A 
 242 02b1 79F9F13A 		.ascii	"y\371\361:\260I\211f&\345\342o\217\316\346d\316\246"
 242      B0498966 
 242      26E5E26F 
 242      8FCEE664 
 242      CEA6
 243 02c3 811DF6FF 		.ascii	"\201\035\366\377\262\036\265m9 7\230\310\327\365\001"
 243      B21EB56D 
 243      39203798 
 243      C8D7F501 
 244 02d3 199B1EFF 		.ascii	"\031\233\036\377\260@\037\220\304[\253c\204\264a\236"
 244      B0401F90 
ARM GAS  C:\Users\gjl\AppData\Local\Temp\ccSCsI4f.s 			page 18


 244      C45BAB63 
 244      84B4619E 
 245 02e3 85C6C155 		.ascii	"\205\306\301U\203\305U\263B3L\241SSs\313V%\314\025\332"
 245      83C555B3 
 245      42334CA1 
 245      535373CB 
 245      5625CC15 
 246 02f8 68EEECB0 		.ascii	"h\356\354\260\011\231\303\013O\177\255\270\001\0237"
 246      0999C30B 
 246      4F7FADB8 
 246      011337
 247 0307 C32418CC 		.ascii	"\303$\030\314b\353H\267\302\247\335\202\356\357\267"
 247      62EB48B7 
 247      C2A7DD82 
 247      EEEFB7
 248 0316 3E59CDE7 		.ascii	">Y\315\347\323^\202\356\017\311\276\001z\353\246\312"
 248      D35E82EE 
 248      0FC9BE01 
 248      7AEBA6CA 
 249 0326 A7D30526 		.ascii	"\247\323\005&\355\335\\\373\331{\017\376\260+)\256\375"
 249      EDDD5CFB 
 249      D97B0FFE 
 249      B02B29AE 
 249      FD
 250 0337 64A0F791 		.ascii	"d\240\367\221U\327\276\275\205\024&Q\373$6\177\223j"
 250      55D7BEBD 
 250      85142651 
 250      FB24367F 
 250      936A
 251 0349 7F0BB577 		.ascii	"\177\013\265w\013\355g\361\360\033C\373Q\256\375<\312"
 251      0BED67F1 
 251      F01B43FB 
 251      51AEFD3C 
 251      CA
 252 035a 3867D075 		.ascii	"8g\320u\013\355#\203\303\347\025\3654\325s[\2404\345"
 252      0BED2383 
 252      C3E715F5 
 252      34D5735B 
 252      A034E5
 253 036d 2EE9B62A 		.ascii	".\351\266*\337rZ\341\320\303\301|N+\013\302\342V\264"
 253      DF725AE1 
 253      D0C3C17C 
 253      4E2B0BC2 
 253      E256B4
 254 0380 629B3FBD 		.ascii	"b\233?\275\326J\010@\012i-\030\264n\203\3405\231\\\234"
 254      D64A0840 
 254      0A692D18 
 254      B46E83E0 
 254      35995C9C 
 255 0394 D8E1F8C8 		.ascii	"\330\341\370\310h\226E\352\300\022,\201\203\375-\322"
 255      689645EA 
 255      C0122C81 
 255      83FD2DD2 
 256 03a4 BD685F45 		.ascii	"\275h_EU\315\361\332\2435\325\232o\217\267\376}\355"
 256      55CDF1DA 
 256      A335D59A 
 256      6F8FB7FE 
ARM GAS  C:\Users\gjl\AppData\Local\Temp\ccSCsI4f.s 			page 19


 256      7DED
 257 03b6 8DC63A2D 		.ascii	"\215\306:-g\357\233\357\224T\225\227K\326\246\372\006"
 257      67EF9BEF 
 257      94549597 
 257      4BD6A6FA 
 257      06
 258 03c7 DF4BCFEE 		.ascii	"\337K\317\356\325\0324\257\307\247\325\325T76yk\265"
 258      D51A34AF 
 258      C7A7D5D5 
 258      54373679 
 258      6BB5
 259 03d9 836F5737 		.ascii	"\203oW7V\275p\260\366\204\357\3041\355x\331\021i\253"
 259      56BD70B0 
 259      F684EFC4 
 259      31ED78D9 
 259      1169AB
 260 03ec 08015E56 		.ascii	"\010\001^V+\345\351u\336\365\326\3734\207\356\355\327"
 260      2BE5E975 
 260      DEF5D6FB 
 260      3487EEED 
 260      D7
 261 03fd 3C75CF98 		.ascii	"<u\317\230\235=\036\237g\277v\270\330Dk_\203O\363z\233"
 261      9D3D1E9F 
 261      67BF76B8 
 261      D8446B5F 
 261      834FF37A 
 262 0412 8EF92835 		.ascii	"\216\371(5\033eT\376\342.\375\276\352\250\346\361f\""
 262      1B6554FE 
 262      E22EFDBE 
 262      EAA8E6F1 
 262      6622
 263 0424 D86D6585 		.ascii	"\330me\205\325\253\035\256\254\370\007k\207\031t"
 263      D5AB1DAE 
 263      ACF8076B 
 263      871974
 264              		.text
 265              		.section	.gnu.lto_.symtab.b55e0e9,"",%progbits
 266 0000 4932435F 		.ascii	"I2C_scl_SetDriveMode\000"
 266      73636C5F 
 266      53657444 
 266      72697665 
 266      4D6F6465 
 267 0015 00       		.ascii	"\000"
 268 0016 00       		.ascii	"\000"
 269 0017 00       		.ascii	"\000"
 270 0018 00000000 		.ascii	"\000\000\000\000\000\000\000\000"
 270      00000000 
 271 0020 B3000000 		.ascii	"\263\000\000\000"
 272 0024 4932435F 		.ascii	"I2C_scl_Write\000"
 272      73636C5F 
 272      57726974 
 272      6500
 273 0032 00       		.ascii	"\000"
 274 0033 00       		.ascii	"\000"
 275 0034 00       		.ascii	"\000"
 276 0035 00000000 		.ascii	"\000\000\000\000\000\000\000\000"
 276      00000000 
ARM GAS  C:\Users\gjl\AppData\Local\Temp\ccSCsI4f.s 			page 20


 277 003d B5000000 		.ascii	"\265\000\000\000"
 278 0041 4932435F 		.ascii	"I2C_scl_Read\000"
 278      73636C5F 
 278      52656164 
 278      00
 279 004e 00       		.ascii	"\000"
 280 004f 00       		.ascii	"\000"
 281 0050 00       		.ascii	"\000"
 282 0051 00000000 		.ascii	"\000\000\000\000\000\000\000\000"
 282      00000000 
 283 0059 B8000000 		.ascii	"\270\000\000\000"
 284 005d 4932435F 		.ascii	"I2C_scl_ReadDataReg\000"
 284      73636C5F 
 284      52656164 
 284      44617461 
 284      52656700 
 285 0071 00       		.ascii	"\000"
 286 0072 00       		.ascii	"\000"
 287 0073 00       		.ascii	"\000"
 288 0074 00000000 		.ascii	"\000\000\000\000\000\000\000\000"
 288      00000000 
 289 007c BA000000 		.ascii	"\272\000\000\000"
 290 0080 4932435F 		.ascii	"I2C_scl_SetInterruptMode\000"
 290      73636C5F 
 290      53657449 
 290      6E746572 
 290      72757074 
 291 0099 00       		.ascii	"\000"
 292 009a 00       		.ascii	"\000"
 293 009b 00       		.ascii	"\000"
 294 009c 00000000 		.ascii	"\000\000\000\000\000\000\000\000"
 294      00000000 
 295 00a4 C4000000 		.ascii	"\304\000\000\000"
 296 00a8 4932435F 		.ascii	"I2C_scl_ClearInterrupt\000"
 296      73636C5F 
 296      436C6561 
 296      72496E74 
 296      65727275 
 297 00bf 00       		.ascii	"\000"
 298 00c0 00       		.ascii	"\000"
 299 00c1 00       		.ascii	"\000"
 300 00c2 00000000 		.ascii	"\000\000\000\000\000\000\000\000"
 300      00000000 
 301 00ca C6000000 		.ascii	"\306\000\000\000"
 302              		.text
 303              		.section	.gnu.lto_.opts,"",%progbits
 304 0000 272D666D 		.ascii	"'-fmath-errno' '-fsigned-zeros' '-ftrapping-math' '"
 304      6174682D 
 304      6572726E 
 304      6F272027 
 304      2D667369 
 305 0033 2D666E6F 		.ascii	"-fno-trapv' '-fno-openmp' '-fno-openacc' '-mcpu=cor"
 305      2D747261 
 305      70762720 
 305      272D666E 
 305      6F2D6F70 
 306 0066 7465782D 		.ascii	"tex-m0' '-mthumb' '-g' '-Os' '-ffunction-sections' "
ARM GAS  C:\Users\gjl\AppData\Local\Temp\ccSCsI4f.s 			page 21


 306      6D302720 
 306      272D6D74 
 306      68756D62 
 306      2720272D 
 307 0099 272D6666 		.ascii	"'-ffat-lto-objects' '-flto'\000"
 307      61742D6C 
 307      746F2D6F 
 307      626A6563 
 307      74732720 
 308              		.text
 309              		.cfi_sections	.debug_frame
 310              		.section	.text.I2C_scl_SetDriveMode,"ax",%progbits
 311              		.align	1
 312              		.global	I2C_scl_SetDriveMode
 313              		.code	16
 314              		.thumb_func
 315              		.type	I2C_scl_SetDriveMode, %function
 316              	I2C_scl_SetDriveMode:
 317              	.LFB0:
 318              		.file 1 "Generated_Source\\PSoC4\\I2C_scl.c"
   1:Generated_Source\PSoC4/I2C_scl.c **** /*******************************************************************************
   2:Generated_Source\PSoC4/I2C_scl.c **** * File Name: I2C_scl.c  
   3:Generated_Source\PSoC4/I2C_scl.c **** * Version 2.20
   4:Generated_Source\PSoC4/I2C_scl.c **** *
   5:Generated_Source\PSoC4/I2C_scl.c **** * Description:
   6:Generated_Source\PSoC4/I2C_scl.c **** *  This file contains API to enable firmware control of a Pins component.
   7:Generated_Source\PSoC4/I2C_scl.c **** *
   8:Generated_Source\PSoC4/I2C_scl.c **** ********************************************************************************
   9:Generated_Source\PSoC4/I2C_scl.c **** * Copyright 2008-2015, Cypress Semiconductor Corporation.  All rights reserved.
  10:Generated_Source\PSoC4/I2C_scl.c **** * You may use this file only in accordance with the license, terms, conditions, 
  11:Generated_Source\PSoC4/I2C_scl.c **** * disclaimers, and limitations in the end user license agreement accompanying 
  12:Generated_Source\PSoC4/I2C_scl.c **** * the software package with which this file was provided.
  13:Generated_Source\PSoC4/I2C_scl.c **** *******************************************************************************/
  14:Generated_Source\PSoC4/I2C_scl.c **** 
  15:Generated_Source\PSoC4/I2C_scl.c **** #include "cytypes.h"
  16:Generated_Source\PSoC4/I2C_scl.c **** #include "I2C_scl.h"
  17:Generated_Source\PSoC4/I2C_scl.c **** 
  18:Generated_Source\PSoC4/I2C_scl.c **** 
  19:Generated_Source\PSoC4/I2C_scl.c **** #if defined(I2C_scl__PC)
  20:Generated_Source\PSoC4/I2C_scl.c ****     #define I2C_scl_SetP4PinDriveMode(shift, mode)  \
  21:Generated_Source\PSoC4/I2C_scl.c ****     do { \
  22:Generated_Source\PSoC4/I2C_scl.c ****         I2C_scl_PC =   (I2C_scl_PC & \
  23:Generated_Source\PSoC4/I2C_scl.c ****                                 (uint32)(~(uint32)(I2C_scl_DRIVE_MODE_IND_MASK << \
  24:Generated_Source\PSoC4/I2C_scl.c ****                                 (I2C_scl_DRIVE_MODE_BITS * (shift))))) | \
  25:Generated_Source\PSoC4/I2C_scl.c ****                                 (uint32)((uint32)(mode) << \
  26:Generated_Source\PSoC4/I2C_scl.c ****                                 (I2C_scl_DRIVE_MODE_BITS * (shift))); \
  27:Generated_Source\PSoC4/I2C_scl.c ****     } while (0)
  28:Generated_Source\PSoC4/I2C_scl.c **** #else
  29:Generated_Source\PSoC4/I2C_scl.c ****     #if (CY_PSOC4_4200L)
  30:Generated_Source\PSoC4/I2C_scl.c ****         #define I2C_scl_SetP4PinDriveMode(shift, mode)  \
  31:Generated_Source\PSoC4/I2C_scl.c ****         do { \
  32:Generated_Source\PSoC4/I2C_scl.c ****             I2C_scl_USBIO_CTRL_REG = (I2C_scl_USBIO_CTRL_REG & \
  33:Generated_Source\PSoC4/I2C_scl.c ****                                     (uint32)(~(uint32)(I2C_scl_DRIVE_MODE_IND_MASK << \
  34:Generated_Source\PSoC4/I2C_scl.c ****                                     (I2C_scl_DRIVE_MODE_BITS * (shift))))) | \
  35:Generated_Source\PSoC4/I2C_scl.c ****                                     (uint32)((uint32)(mode) << \
  36:Generated_Source\PSoC4/I2C_scl.c ****                                     (I2C_scl_DRIVE_MODE_BITS * (shift))); \
  37:Generated_Source\PSoC4/I2C_scl.c ****         } while (0)
ARM GAS  C:\Users\gjl\AppData\Local\Temp\ccSCsI4f.s 			page 22


  38:Generated_Source\PSoC4/I2C_scl.c ****     #endif
  39:Generated_Source\PSoC4/I2C_scl.c **** #endif
  40:Generated_Source\PSoC4/I2C_scl.c ****   
  41:Generated_Source\PSoC4/I2C_scl.c **** 
  42:Generated_Source\PSoC4/I2C_scl.c **** #if defined(I2C_scl__PC) || (CY_PSOC4_4200L) 
  43:Generated_Source\PSoC4/I2C_scl.c ****     /*******************************************************************************
  44:Generated_Source\PSoC4/I2C_scl.c ****     * Function Name: I2C_scl_SetDriveMode
  45:Generated_Source\PSoC4/I2C_scl.c ****     ****************************************************************************//**
  46:Generated_Source\PSoC4/I2C_scl.c ****     *
  47:Generated_Source\PSoC4/I2C_scl.c ****     * \brief Sets the drive mode for each of the Pins component's pins.
  48:Generated_Source\PSoC4/I2C_scl.c ****     * 
  49:Generated_Source\PSoC4/I2C_scl.c ****     * <b>Note</b> This affects all pins in the Pins component instance. Use the
  50:Generated_Source\PSoC4/I2C_scl.c ****     * Per-Pin APIs if you wish to control individual pin's drive modes.
  51:Generated_Source\PSoC4/I2C_scl.c ****     *
  52:Generated_Source\PSoC4/I2C_scl.c ****     * <b>Note</b> USBIOs have limited drive functionality. Refer to the Drive Mode
  53:Generated_Source\PSoC4/I2C_scl.c ****     * parameter for more information.
  54:Generated_Source\PSoC4/I2C_scl.c ****     *
  55:Generated_Source\PSoC4/I2C_scl.c ****     * \param mode
  56:Generated_Source\PSoC4/I2C_scl.c ****     *  Mode for the selected signals. Valid options are documented in 
  57:Generated_Source\PSoC4/I2C_scl.c ****     *  \ref driveMode.
  58:Generated_Source\PSoC4/I2C_scl.c ****     *
  59:Generated_Source\PSoC4/I2C_scl.c ****     * \return
  60:Generated_Source\PSoC4/I2C_scl.c ****     *  None
  61:Generated_Source\PSoC4/I2C_scl.c ****     *
  62:Generated_Source\PSoC4/I2C_scl.c ****     * \sideeffect
  63:Generated_Source\PSoC4/I2C_scl.c ****     *  If you use read-modify-write operations that are not atomic, the ISR can
  64:Generated_Source\PSoC4/I2C_scl.c ****     *  cause corruption of this function. An ISR that interrupts this function 
  65:Generated_Source\PSoC4/I2C_scl.c ****     *  and performs writes to the Pins component Drive Mode registers can cause 
  66:Generated_Source\PSoC4/I2C_scl.c ****     *  corrupted port data. To avoid this issue, you should either use the Per-Pin
  67:Generated_Source\PSoC4/I2C_scl.c ****     *  APIs (primary method) or disable interrupts around this function.
  68:Generated_Source\PSoC4/I2C_scl.c ****     *
  69:Generated_Source\PSoC4/I2C_scl.c ****     * \funcusage
  70:Generated_Source\PSoC4/I2C_scl.c ****     *  \snippet I2C_scl_SUT.c usage_I2C_scl_SetDriveMode
  71:Generated_Source\PSoC4/I2C_scl.c ****     *******************************************************************************/
  72:Generated_Source\PSoC4/I2C_scl.c ****     void I2C_scl_SetDriveMode(uint8 mode)
  73:Generated_Source\PSoC4/I2C_scl.c ****     {
 319              		.loc 1 73 0
 320              		.cfi_startproc
 321              		@ args = 0, pretend = 0, frame = 0
 322              		@ frame_needed = 0, uses_anonymous_args = 0
 323              		@ link register save eliminated.
 324              	.LVL0:
  74:Generated_Source\PSoC4/I2C_scl.c **** 		I2C_scl_SetP4PinDriveMode(I2C_scl__0__SHIFT, mode);
 325              		.loc 1 74 0
 326 0000 0721     		movs	r1, #7
 327 0002 034A     		ldr	r2, .L2
  75:Generated_Source\PSoC4/I2C_scl.c ****     }
 328              		.loc 1 75 0
 329              		@ sp needed
  74:Generated_Source\PSoC4/I2C_scl.c **** 		I2C_scl_SetP4PinDriveMode(I2C_scl__0__SHIFT, mode);
 330              		.loc 1 74 0
 331 0004 1368     		ldr	r3, [r2]
 332 0006 8B43     		bics	r3, r1
 333 0008 1843     		orrs	r0, r3
 334              	.LVL1:
 335 000a 1060     		str	r0, [r2]
 336              		.loc 1 75 0
ARM GAS  C:\Users\gjl\AppData\Local\Temp\ccSCsI4f.s 			page 23


 337 000c 7047     		bx	lr
 338              	.L3:
 339 000e C046     		.align	2
 340              	.L2:
 341 0010 08040440 		.word	1074005000
 342              		.cfi_endproc
 343              	.LFE0:
 344              		.size	I2C_scl_SetDriveMode, .-I2C_scl_SetDriveMode
 345              		.section	.text.I2C_scl_Write,"ax",%progbits
 346              		.align	1
 347              		.global	I2C_scl_Write
 348              		.code	16
 349              		.thumb_func
 350              		.type	I2C_scl_Write, %function
 351              	I2C_scl_Write:
 352              	.LFB1:
  76:Generated_Source\PSoC4/I2C_scl.c **** #endif
  77:Generated_Source\PSoC4/I2C_scl.c **** 
  78:Generated_Source\PSoC4/I2C_scl.c **** 
  79:Generated_Source\PSoC4/I2C_scl.c **** /*******************************************************************************
  80:Generated_Source\PSoC4/I2C_scl.c **** * Function Name: I2C_scl_Write
  81:Generated_Source\PSoC4/I2C_scl.c **** ****************************************************************************//**
  82:Generated_Source\PSoC4/I2C_scl.c **** *
  83:Generated_Source\PSoC4/I2C_scl.c **** * \brief Writes the value to the physical port (data output register), masking
  84:Generated_Source\PSoC4/I2C_scl.c **** *  and shifting the bits appropriately. 
  85:Generated_Source\PSoC4/I2C_scl.c **** *
  86:Generated_Source\PSoC4/I2C_scl.c **** * The data output register controls the signal applied to the physical pin in 
  87:Generated_Source\PSoC4/I2C_scl.c **** * conjunction with the drive mode parameter. This function avoids changing 
  88:Generated_Source\PSoC4/I2C_scl.c **** * other bits in the port by using the appropriate method (read-modify-write or
  89:Generated_Source\PSoC4/I2C_scl.c **** * bit banding).
  90:Generated_Source\PSoC4/I2C_scl.c **** *
  91:Generated_Source\PSoC4/I2C_scl.c **** * <b>Note</b> This function should not be used on a hardware digital output pin 
  92:Generated_Source\PSoC4/I2C_scl.c **** * as it is driven by the hardware signal attached to it.
  93:Generated_Source\PSoC4/I2C_scl.c **** *
  94:Generated_Source\PSoC4/I2C_scl.c **** * \param value
  95:Generated_Source\PSoC4/I2C_scl.c **** *  Value to write to the component instance.
  96:Generated_Source\PSoC4/I2C_scl.c **** *
  97:Generated_Source\PSoC4/I2C_scl.c **** * \return 
  98:Generated_Source\PSoC4/I2C_scl.c **** *  None 
  99:Generated_Source\PSoC4/I2C_scl.c **** *
 100:Generated_Source\PSoC4/I2C_scl.c **** * \sideeffect
 101:Generated_Source\PSoC4/I2C_scl.c **** *  If you use read-modify-write operations that are not atomic; the Interrupt 
 102:Generated_Source\PSoC4/I2C_scl.c **** *  Service Routines (ISR) can cause corruption of this function. An ISR that 
 103:Generated_Source\PSoC4/I2C_scl.c **** *  interrupts this function and performs writes to the Pins component data 
 104:Generated_Source\PSoC4/I2C_scl.c **** *  register can cause corrupted port data. To avoid this issue, you should 
 105:Generated_Source\PSoC4/I2C_scl.c **** *  either use the Per-Pin APIs (primary method) or disable interrupts around 
 106:Generated_Source\PSoC4/I2C_scl.c **** *  this function.
 107:Generated_Source\PSoC4/I2C_scl.c **** *
 108:Generated_Source\PSoC4/I2C_scl.c **** * \funcusage
 109:Generated_Source\PSoC4/I2C_scl.c **** *  \snippet I2C_scl_SUT.c usage_I2C_scl_Write
 110:Generated_Source\PSoC4/I2C_scl.c **** *******************************************************************************/
 111:Generated_Source\PSoC4/I2C_scl.c **** void I2C_scl_Write(uint8 value)
 112:Generated_Source\PSoC4/I2C_scl.c **** {
 353              		.loc 1 112 0
 354              		.cfi_startproc
 355              		@ args = 0, pretend = 0, frame = 0
 356              		@ frame_needed = 0, uses_anonymous_args = 0
ARM GAS  C:\Users\gjl\AppData\Local\Temp\ccSCsI4f.s 			page 24


 357              		@ link register save eliminated.
 358              	.LVL2:
 113:Generated_Source\PSoC4/I2C_scl.c ****     uint8 drVal = (uint8)(I2C_scl_DR & (uint8)(~I2C_scl_MASK));
 359              		.loc 1 113 0
 360 0000 0123     		movs	r3, #1
 361 0002 0449     		ldr	r1, .L5
 114:Generated_Source\PSoC4/I2C_scl.c ****     drVal = (drVal | ((uint8)(value << I2C_scl_SHIFT) & I2C_scl_MASK));
 115:Generated_Source\PSoC4/I2C_scl.c ****     I2C_scl_DR = (uint32)drVal;
 116:Generated_Source\PSoC4/I2C_scl.c **** }
 362              		.loc 1 116 0
 363              		@ sp needed
 113:Generated_Source\PSoC4/I2C_scl.c ****     uint8 drVal = (uint8)(I2C_scl_DR & (uint8)(~I2C_scl_MASK));
 364              		.loc 1 113 0
 365 0004 0A68     		ldr	r2, [r1]
 366 0006 9A43     		bics	r2, r3
 367 0008 D2B2     		uxtb	r2, r2
 368              	.LVL3:
 115:Generated_Source\PSoC4/I2C_scl.c **** }
 369              		.loc 1 115 0
 370 000a 0340     		ands	r3, r0
 371 000c 1343     		orrs	r3, r2
 372 000e 0B60     		str	r3, [r1]
 373              		.loc 1 116 0
 374 0010 7047     		bx	lr
 375              	.L6:
 376 0012 C046     		.align	2
 377              	.L5:
 378 0014 00040440 		.word	1074004992
 379              		.cfi_endproc
 380              	.LFE1:
 381              		.size	I2C_scl_Write, .-I2C_scl_Write
 382              		.section	.text.I2C_scl_Read,"ax",%progbits
 383              		.align	1
 384              		.global	I2C_scl_Read
 385              		.code	16
 386              		.thumb_func
 387              		.type	I2C_scl_Read, %function
 388              	I2C_scl_Read:
 389              	.LFB2:
 117:Generated_Source\PSoC4/I2C_scl.c **** 
 118:Generated_Source\PSoC4/I2C_scl.c **** 
 119:Generated_Source\PSoC4/I2C_scl.c **** /*******************************************************************************
 120:Generated_Source\PSoC4/I2C_scl.c **** * Function Name: I2C_scl_Read
 121:Generated_Source\PSoC4/I2C_scl.c **** ****************************************************************************//**
 122:Generated_Source\PSoC4/I2C_scl.c **** *
 123:Generated_Source\PSoC4/I2C_scl.c **** * \brief Reads the associated physical port (pin status register) and masks 
 124:Generated_Source\PSoC4/I2C_scl.c **** *  the required bits according to the width and bit position of the component
 125:Generated_Source\PSoC4/I2C_scl.c **** *  instance. 
 126:Generated_Source\PSoC4/I2C_scl.c **** *
 127:Generated_Source\PSoC4/I2C_scl.c **** * The pin's status register returns the current logic level present on the 
 128:Generated_Source\PSoC4/I2C_scl.c **** * physical pin.
 129:Generated_Source\PSoC4/I2C_scl.c **** *
 130:Generated_Source\PSoC4/I2C_scl.c **** * \return 
 131:Generated_Source\PSoC4/I2C_scl.c **** *  The current value for the pins in the component as a right justified number.
 132:Generated_Source\PSoC4/I2C_scl.c **** *
 133:Generated_Source\PSoC4/I2C_scl.c **** * \funcusage
 134:Generated_Source\PSoC4/I2C_scl.c **** *  \snippet I2C_scl_SUT.c usage_I2C_scl_Read  
ARM GAS  C:\Users\gjl\AppData\Local\Temp\ccSCsI4f.s 			page 25


 135:Generated_Source\PSoC4/I2C_scl.c **** *******************************************************************************/
 136:Generated_Source\PSoC4/I2C_scl.c **** uint8 I2C_scl_Read(void)
 137:Generated_Source\PSoC4/I2C_scl.c **** {
 390              		.loc 1 137 0
 391              		.cfi_startproc
 392              		@ args = 0, pretend = 0, frame = 0
 393              		@ frame_needed = 0, uses_anonymous_args = 0
 394              		@ link register save eliminated.
 138:Generated_Source\PSoC4/I2C_scl.c ****     return (uint8)((I2C_scl_PS & I2C_scl_MASK) >> I2C_scl_SHIFT);
 395              		.loc 1 138 0
 396 0000 024B     		ldr	r3, .L8
 139:Generated_Source\PSoC4/I2C_scl.c **** }
 397              		.loc 1 139 0
 398              		@ sp needed
 138:Generated_Source\PSoC4/I2C_scl.c ****     return (uint8)((I2C_scl_PS & I2C_scl_MASK) >> I2C_scl_SHIFT);
 399              		.loc 1 138 0
 400 0002 1868     		ldr	r0, [r3]
 401 0004 0123     		movs	r3, #1
 402 0006 1840     		ands	r0, r3
 403              		.loc 1 139 0
 404 0008 7047     		bx	lr
 405              	.L9:
 406 000a C046     		.align	2
 407              	.L8:
 408 000c 04040440 		.word	1074004996
 409              		.cfi_endproc
 410              	.LFE2:
 411              		.size	I2C_scl_Read, .-I2C_scl_Read
 412              		.section	.text.I2C_scl_ReadDataReg,"ax",%progbits
 413              		.align	1
 414              		.global	I2C_scl_ReadDataReg
 415              		.code	16
 416              		.thumb_func
 417              		.type	I2C_scl_ReadDataReg, %function
 418              	I2C_scl_ReadDataReg:
 419              	.LFB3:
 140:Generated_Source\PSoC4/I2C_scl.c **** 
 141:Generated_Source\PSoC4/I2C_scl.c **** 
 142:Generated_Source\PSoC4/I2C_scl.c **** /*******************************************************************************
 143:Generated_Source\PSoC4/I2C_scl.c **** * Function Name: I2C_scl_ReadDataReg
 144:Generated_Source\PSoC4/I2C_scl.c **** ****************************************************************************//**
 145:Generated_Source\PSoC4/I2C_scl.c **** *
 146:Generated_Source\PSoC4/I2C_scl.c **** * \brief Reads the associated physical port's data output register and masks 
 147:Generated_Source\PSoC4/I2C_scl.c **** *  the correct bits according to the width and bit position of the component 
 148:Generated_Source\PSoC4/I2C_scl.c **** *  instance. 
 149:Generated_Source\PSoC4/I2C_scl.c **** *
 150:Generated_Source\PSoC4/I2C_scl.c **** * The data output register controls the signal applied to the physical pin in 
 151:Generated_Source\PSoC4/I2C_scl.c **** * conjunction with the drive mode parameter. This is not the same as the 
 152:Generated_Source\PSoC4/I2C_scl.c **** * preferred I2C_scl_Read() API because the 
 153:Generated_Source\PSoC4/I2C_scl.c **** * I2C_scl_ReadDataReg() reads the data register instead of the status 
 154:Generated_Source\PSoC4/I2C_scl.c **** * register. For output pins this is a useful function to determine the value 
 155:Generated_Source\PSoC4/I2C_scl.c **** * just written to the pin.
 156:Generated_Source\PSoC4/I2C_scl.c **** *
 157:Generated_Source\PSoC4/I2C_scl.c **** * \return 
 158:Generated_Source\PSoC4/I2C_scl.c **** *  The current value of the data register masked and shifted into a right 
 159:Generated_Source\PSoC4/I2C_scl.c **** *  justified number for the component instance.
 160:Generated_Source\PSoC4/I2C_scl.c **** *
ARM GAS  C:\Users\gjl\AppData\Local\Temp\ccSCsI4f.s 			page 26


 161:Generated_Source\PSoC4/I2C_scl.c **** * \funcusage
 162:Generated_Source\PSoC4/I2C_scl.c **** *  \snippet I2C_scl_SUT.c usage_I2C_scl_ReadDataReg 
 163:Generated_Source\PSoC4/I2C_scl.c **** *******************************************************************************/
 164:Generated_Source\PSoC4/I2C_scl.c **** uint8 I2C_scl_ReadDataReg(void)
 165:Generated_Source\PSoC4/I2C_scl.c **** {
 420              		.loc 1 165 0
 421              		.cfi_startproc
 422              		@ args = 0, pretend = 0, frame = 0
 423              		@ frame_needed = 0, uses_anonymous_args = 0
 424              		@ link register save eliminated.
 166:Generated_Source\PSoC4/I2C_scl.c ****     return (uint8)((I2C_scl_DR & I2C_scl_MASK) >> I2C_scl_SHIFT);
 425              		.loc 1 166 0
 426 0000 024B     		ldr	r3, .L11
 167:Generated_Source\PSoC4/I2C_scl.c **** }
 427              		.loc 1 167 0
 428              		@ sp needed
 166:Generated_Source\PSoC4/I2C_scl.c ****     return (uint8)((I2C_scl_DR & I2C_scl_MASK) >> I2C_scl_SHIFT);
 429              		.loc 1 166 0
 430 0002 1868     		ldr	r0, [r3]
 431 0004 0123     		movs	r3, #1
 432 0006 1840     		ands	r0, r3
 433              		.loc 1 167 0
 434 0008 7047     		bx	lr
 435              	.L12:
 436 000a C046     		.align	2
 437              	.L11:
 438 000c 00040440 		.word	1074004992
 439              		.cfi_endproc
 440              	.LFE3:
 441              		.size	I2C_scl_ReadDataReg, .-I2C_scl_ReadDataReg
 442              		.section	.text.I2C_scl_SetInterruptMode,"ax",%progbits
 443              		.align	1
 444              		.global	I2C_scl_SetInterruptMode
 445              		.code	16
 446              		.thumb_func
 447              		.type	I2C_scl_SetInterruptMode, %function
 448              	I2C_scl_SetInterruptMode:
 449              	.LFB4:
 168:Generated_Source\PSoC4/I2C_scl.c **** 
 169:Generated_Source\PSoC4/I2C_scl.c **** 
 170:Generated_Source\PSoC4/I2C_scl.c **** /*******************************************************************************
 171:Generated_Source\PSoC4/I2C_scl.c **** * Function Name: I2C_scl_SetInterruptMode
 172:Generated_Source\PSoC4/I2C_scl.c **** ****************************************************************************//**
 173:Generated_Source\PSoC4/I2C_scl.c **** *
 174:Generated_Source\PSoC4/I2C_scl.c **** * \brief Configures the interrupt mode for each of the Pins component's
 175:Generated_Source\PSoC4/I2C_scl.c **** *  pins. Alternatively you may set the interrupt mode for all the pins
 176:Generated_Source\PSoC4/I2C_scl.c **** *  specified in the Pins component.
 177:Generated_Source\PSoC4/I2C_scl.c **** *
 178:Generated_Source\PSoC4/I2C_scl.c **** *  <b>Note</b> The interrupt is port-wide and therefore any enabled pin
 179:Generated_Source\PSoC4/I2C_scl.c **** *  interrupt may trigger it.
 180:Generated_Source\PSoC4/I2C_scl.c **** *
 181:Generated_Source\PSoC4/I2C_scl.c **** * \param position
 182:Generated_Source\PSoC4/I2C_scl.c **** *  The pin position as listed in the Pins component. You may OR these to be 
 183:Generated_Source\PSoC4/I2C_scl.c **** *  able to configure the interrupt mode of multiple pins within a Pins 
 184:Generated_Source\PSoC4/I2C_scl.c **** *  component. Or you may use I2C_scl_INTR_ALL to configure the
 185:Generated_Source\PSoC4/I2C_scl.c **** *  interrupt mode of all the pins in the Pins component.       
 186:Generated_Source\PSoC4/I2C_scl.c **** *  - I2C_scl_0_INTR       (First pin in the list)
ARM GAS  C:\Users\gjl\AppData\Local\Temp\ccSCsI4f.s 			page 27


 187:Generated_Source\PSoC4/I2C_scl.c **** *  - I2C_scl_1_INTR       (Second pin in the list)
 188:Generated_Source\PSoC4/I2C_scl.c **** *  - ...
 189:Generated_Source\PSoC4/I2C_scl.c **** *  - I2C_scl_INTR_ALL     (All pins in Pins component)
 190:Generated_Source\PSoC4/I2C_scl.c **** *
 191:Generated_Source\PSoC4/I2C_scl.c **** * \param mode
 192:Generated_Source\PSoC4/I2C_scl.c **** *  Interrupt mode for the selected pins. Valid options are documented in
 193:Generated_Source\PSoC4/I2C_scl.c **** *  \ref intrMode.
 194:Generated_Source\PSoC4/I2C_scl.c **** *
 195:Generated_Source\PSoC4/I2C_scl.c **** * \return 
 196:Generated_Source\PSoC4/I2C_scl.c **** *  None
 197:Generated_Source\PSoC4/I2C_scl.c **** *  
 198:Generated_Source\PSoC4/I2C_scl.c **** * \sideeffect
 199:Generated_Source\PSoC4/I2C_scl.c **** *  It is recommended that the interrupt be disabled before calling this 
 200:Generated_Source\PSoC4/I2C_scl.c **** *  function to avoid unintended interrupt requests. Note that the interrupt
 201:Generated_Source\PSoC4/I2C_scl.c **** *  type is port wide, and therefore will trigger for any enabled pin on the 
 202:Generated_Source\PSoC4/I2C_scl.c **** *  port.
 203:Generated_Source\PSoC4/I2C_scl.c **** *
 204:Generated_Source\PSoC4/I2C_scl.c **** * \funcusage
 205:Generated_Source\PSoC4/I2C_scl.c **** *  \snippet I2C_scl_SUT.c usage_I2C_scl_SetInterruptMode
 206:Generated_Source\PSoC4/I2C_scl.c **** *******************************************************************************/
 207:Generated_Source\PSoC4/I2C_scl.c **** void I2C_scl_SetInterruptMode(uint16 position, uint16 mode)
 208:Generated_Source\PSoC4/I2C_scl.c **** {
 450              		.loc 1 208 0
 451              		.cfi_startproc
 452              		@ args = 0, pretend = 0, frame = 0
 453              		@ frame_needed = 0, uses_anonymous_args = 0
 454              		@ link register save eliminated.
 455              	.LVL4:
 209:Generated_Source\PSoC4/I2C_scl.c ****     uint32 intrCfg;
 210:Generated_Source\PSoC4/I2C_scl.c ****     
 211:Generated_Source\PSoC4/I2C_scl.c ****     intrCfg =  I2C_scl_INTCFG & (uint32)(~(uint32)position);
 456              		.loc 1 211 0
 457 0000 034A     		ldr	r2, .L14
 212:Generated_Source\PSoC4/I2C_scl.c ****     I2C_scl_INTCFG = intrCfg | ((uint32)position & (uint32)mode);
 213:Generated_Source\PSoC4/I2C_scl.c **** }
 458              		.loc 1 213 0
 459              		@ sp needed
 211:Generated_Source\PSoC4/I2C_scl.c ****     I2C_scl_INTCFG = intrCfg | ((uint32)position & (uint32)mode);
 460              		.loc 1 211 0
 461 0002 1368     		ldr	r3, [r2]
 462              	.LVL5:
 212:Generated_Source\PSoC4/I2C_scl.c ****     I2C_scl_INTCFG = intrCfg | ((uint32)position & (uint32)mode);
 463              		.loc 1 212 0
 464 0004 8343     		bics	r3, r0
 465              	.LVL6:
 466 0006 0840     		ands	r0, r1
 467              	.LVL7:
 468 0008 1843     		orrs	r0, r3
 469 000a 1060     		str	r0, [r2]
 470              		.loc 1 213 0
 471 000c 7047     		bx	lr
 472              	.L15:
 473 000e C046     		.align	2
 474              	.L14:
 475 0010 0C040440 		.word	1074005004
 476              		.cfi_endproc
 477              	.LFE4:
ARM GAS  C:\Users\gjl\AppData\Local\Temp\ccSCsI4f.s 			page 28


 478              		.size	I2C_scl_SetInterruptMode, .-I2C_scl_SetInterruptMode
 479              		.section	.text.I2C_scl_ClearInterrupt,"ax",%progbits
 480              		.align	1
 481              		.global	I2C_scl_ClearInterrupt
 482              		.code	16
 483              		.thumb_func
 484              		.type	I2C_scl_ClearInterrupt, %function
 485              	I2C_scl_ClearInterrupt:
 486              	.LFB5:
 214:Generated_Source\PSoC4/I2C_scl.c **** 
 215:Generated_Source\PSoC4/I2C_scl.c **** 
 216:Generated_Source\PSoC4/I2C_scl.c **** /*******************************************************************************
 217:Generated_Source\PSoC4/I2C_scl.c **** * Function Name: I2C_scl_ClearInterrupt
 218:Generated_Source\PSoC4/I2C_scl.c **** ****************************************************************************//**
 219:Generated_Source\PSoC4/I2C_scl.c **** *
 220:Generated_Source\PSoC4/I2C_scl.c **** * \brief Clears any active interrupts attached with the component and returns 
 221:Generated_Source\PSoC4/I2C_scl.c **** *  the value of the interrupt status register allowing determination of which
 222:Generated_Source\PSoC4/I2C_scl.c **** *  pins generated an interrupt event.
 223:Generated_Source\PSoC4/I2C_scl.c **** *
 224:Generated_Source\PSoC4/I2C_scl.c **** * \return 
 225:Generated_Source\PSoC4/I2C_scl.c **** *  The right-shifted current value of the interrupt status register. Each pin 
 226:Generated_Source\PSoC4/I2C_scl.c **** *  has one bit set if it generated an interrupt event. For example, bit 0 is 
 227:Generated_Source\PSoC4/I2C_scl.c **** *  for pin 0 and bit 1 is for pin 1 of the Pins component.
 228:Generated_Source\PSoC4/I2C_scl.c **** *  
 229:Generated_Source\PSoC4/I2C_scl.c **** * \sideeffect
 230:Generated_Source\PSoC4/I2C_scl.c **** *  Clears all bits of the physical port's interrupt status register, not just
 231:Generated_Source\PSoC4/I2C_scl.c **** *  those associated with the Pins component.
 232:Generated_Source\PSoC4/I2C_scl.c **** *
 233:Generated_Source\PSoC4/I2C_scl.c **** * \funcusage
 234:Generated_Source\PSoC4/I2C_scl.c **** *  \snippet I2C_scl_SUT.c usage_I2C_scl_ClearInterrupt
 235:Generated_Source\PSoC4/I2C_scl.c **** *******************************************************************************/
 236:Generated_Source\PSoC4/I2C_scl.c **** uint8 I2C_scl_ClearInterrupt(void)
 237:Generated_Source\PSoC4/I2C_scl.c **** {
 487              		.loc 1 237 0
 488              		.cfi_startproc
 489              		@ args = 0, pretend = 0, frame = 0
 490              		@ frame_needed = 0, uses_anonymous_args = 0
 491              		@ link register save eliminated.
 238:Generated_Source\PSoC4/I2C_scl.c **** 	uint8 maskedStatus = (uint8)(I2C_scl_INTSTAT & I2C_scl_MASK);
 492              		.loc 1 238 0
 493 0000 0123     		movs	r3, #1
 494 0002 024A     		ldr	r2, .L17
 239:Generated_Source\PSoC4/I2C_scl.c **** 	I2C_scl_INTSTAT = maskedStatus;
 240:Generated_Source\PSoC4/I2C_scl.c ****     return maskedStatus >> I2C_scl_SHIFT;
 241:Generated_Source\PSoC4/I2C_scl.c **** }
 495              		.loc 1 241 0
 496              		@ sp needed
 238:Generated_Source\PSoC4/I2C_scl.c **** 	uint8 maskedStatus = (uint8)(I2C_scl_INTSTAT & I2C_scl_MASK);
 497              		.loc 1 238 0
 498 0004 1068     		ldr	r0, [r2]
 499 0006 1840     		ands	r0, r3
 500              	.LVL8:
 239:Generated_Source\PSoC4/I2C_scl.c **** 	I2C_scl_INTSTAT = maskedStatus;
 501              		.loc 1 239 0
 502 0008 1060     		str	r0, [r2]
 503              		.loc 1 241 0
 504 000a 7047     		bx	lr
ARM GAS  C:\Users\gjl\AppData\Local\Temp\ccSCsI4f.s 			page 29


 505              	.L18:
 506              		.align	2
 507              	.L17:
 508 000c 10040440 		.word	1074005008
 509              		.cfi_endproc
 510              	.LFE5:
 511              		.size	I2C_scl_ClearInterrupt, .-I2C_scl_ClearInterrupt
 512              		.text
 513              	.Letext0:
 514              		.file 2 "Generated_Source\\PSoC4\\cytypes.h"