ARM GAS  C:\Users\gjl\AppData\Local\Temp\ccgllgtg.s 			page 1


   1              		.syntax unified
   2              		.cpu cortex-m0
   3              		.fpu softvfp
   4              		.eabi_attribute 20, 1
   5              		.eabi_attribute 21, 1
   6              		.eabi_attribute 23, 3
   7              		.eabi_attribute 24, 1
   8              		.eabi_attribute 25, 1
   9              		.eabi_attribute 26, 1
  10              		.eabi_attribute 30, 4
  11              		.eabi_attribute 34, 0
  12              		.eabi_attribute 18, 4
  13              		.thumb
  14              		.syntax unified
  15              		.file	"I2C_SCBCLK.c"
  16              		.text
  17              	.Ltext0:
  18              		.section	.gnu.lto_.profile.1a3e65b,"",%progbits
  19 0000 789C6361 		.ascii	"x\234ca`d`a`\000\222r\222\000\000\277\000B"
  19      60646061 
  19      60009272 
  19      920000BF 
  19      0042
  20              		.text
  21              		.section	.gnu.lto_.icf.1a3e65b,"",%progbits
  22 0000 789C6361 		.ascii	"x\234ca`d\000\001\005\006\004`e\370\276\243\361\001"
  22      60640001 
  22      05060460 
  22      65F8BEA3 
  22      F101
  23 0012 27E3815F 		.ascii	"'\343\201_\217'\3623-\331yt2\027\363\376\247;\216s\261"
  23      8F27F233 
  23      2DD97974 
  23      3217F3FE 
  23      A73B8E73 
  24 0027 CC6E9A37 		.ascii	"\314n\2327\205\207\001\000\002l\016\322"
  24      85870100 
  24      026C0ED2 
  25              		.text
  26              		.section	.gnu.lto_.jmpfuncs.1a3e65b,"",%progbits
  27 0000 789C6361 		.ascii	"x\234ca`d\000\001q\006\004`e`dd\254\007\21231122\327"
  27      60640001 
  27      71060460 
  27      65606464 
  27      AC078A33 
  28 0019 D7333330 		.ascii	"\327330\260\000\205\001\026\322\001\263"
  28      B0008501 
  28      16D201B3 
  29              		.text
  30              		.section	.gnu.lto_.inline.1a3e65b,"",%progbits
  31 0000 789C458B 		.ascii	"x\234E\213\261\015\2000\014\004\337\316\007B(`\003("
  31      B10D8030 
  31      0C04DFCE 
  31      07422860 
  31      0328
  32 0012 10E33013 		.ascii	"\020\3430\023#PRf\016\246`$l!\310\027\226\375\347#\004"
  32      23505266 
ARM GAS  C:\Users\gjl\AppData\Local\Temp\ccgllgtg.s 			page 2


  32      0EA66024 
  32      6C21C817 
  32      96FDE723 
  33 0027 9E1D3511 		.ascii	"\236\0355\021\350V\021\314\206B\272N\242)\223\202e\242"
  33      E85611CC 
  33      8642BA4E 
  33      A2299382 
  33      65A2
  34 0039 6341BB08 		.ascii	"cA\273\010\264\002\213\242\317\242\030\315\220d\203"
  34      B4028BA2 
  34      CFA218CD 
  34      906483
  35 0048 F9D85EA8 		.ascii	"\371\330^\250\367@W\223\277\005D\232j\347o\022A\255"
  35      F7405793 
  35      BF05449A 
  35      6AE76F12 
  35      41AD
  36 005a B2ED6BF0 		.ascii	"\262\355k\360\000t\\\014$"
  36      00745C0C 
  36      24
  37              		.text
  38              		.section	.gnu.lto_.pureconst.1a3e65b,"",%progbits
  39 0000 789C6361 		.ascii	"x\234ca`d\340f```e\220b\224b\222b\226ba\000\000\003"
  39      6064E066 
  39      60606065 
  39      90629462 
  39      92629662 
  40 0018 E40088   		.ascii	"\344\000\210"
  41              		.text
  42              		.section	.gnu.lto_I2C_SCBCLK_StartEx.1a3e65b,"",%progbits
  43 0000 789C5551 		.ascii	"x\234UQ\317k\023Q\020\236\357\275}\233\325\246\375\013"
  43      CF6B1351 
  43      109EEFBD 
  43      7D9BD5A6 
  43      FD0B
  44 0012 7AE84108 		.ascii	"z\350A\010\275x(\036\274\352\212\"z\020s-\224R\027\251"
  44      BD78281E 
  44      BCEA8A22 
  44      7A10732D 
  44      945217A9 
  45 0026 96168A7A 		.ascii	"\226\026\212z\365%\273\333`\361`\021+\024%X(\375eMS"
  45      F525BBDB 
  45      60F16011 
  45      2B142558 
  45      28FD654D 
  46 003b 4FE2258D 		.ascii	"O\342%\215\250 \030\351\305^\375\201{\020\017\211F\021"
  46      A82018E9 
  46      C55EFD81 
  46      7B100F89 
  46      4611
  47 004d 45E34CB6 		.ascii	"E\343L\266\007;\2603o\206of\276o\326!\220X\237\"\032"
  47      073BB033 
  47      6F866F66 
  47      BE6FD621 
  47      90589F22 
  48 0062 E278923F 		.ascii	"\342x\222?\270\004u\253AT\360\024t\372\320\312\334|"
  48      B80475AB 
ARM GAS  C:\Users\gjl\AppData\Local\Temp\ccgllgtg.s 			page 3


  48      4154F014 
  48      74FAD0CA 
  48      DC7C
  49 0074 49640F3A 		.ascii	"Id\017:Q\206l\326\244\365c\016 \321z\240\353J\033\007"
  49      51866CD6 
  49      A4F5630E 
  49      20D17AA0 
  49      EB4A1B07 
  50 0088 EC29B5EF 		.ascii	"\354)\265\357\352\217B\275\224<Q\203\313\226\355\335"
  50      EA8F42BD 
  50      943C5183 
  50      CB96EDDD 
  51 0098 A7DBDAAE 		.ascii	"\247\333\332\256\324\0203\240\243R\014\2261\310\250"
  51      D41033A0 
  51      A3520C96 
  51      31C8A8
  52 00a7 9D68F39E 		.ascii	"\235h\363\236n\253X\003\016\247\255\327\013\037\373"
  52      6EAB5803 
  52      0EA7ADD7 
  52      0B1FFB
  53 00b6 245518E0 		.ascii	"$U\030\340\364\306\263\037\333\216\316\201\370]\375"
  53      F4C6B31F 
  53      DB8ECE81 
  53      F85DFD
  54 00c5 564E7A73 		.ascii	"VNzsK\326\026\255\235\013\354\201Xk\254A\363<\254\242"
  54      4BD616AD 
  54      9D0BEC81 
  54      586BAC41 
  54      F33CACA2 
  55 00d9 1F2BE827 		.ascii	"\037+\350'.\021\326\221\023\370\207\352\337;\275n$\353"
  55      2E11D691 
  55      13F887EA 
  55      DF3BBD6E 
  55      24EB
  56 00eb 07D2A578 		.ascii	"\007\322\245x\010W\024W\316\327l\247\023\332Z\325lh"
  56      08571457 
  56      CED76CA7 
  56      13DA5AD5 
  56      6C68
  57 00fd 4F7197A3 		.ascii	"Oq\227\243\331\261\002\3515\222\273\342\210\232\334"
  57      D9B102E9 
  57      3592BBE2 
  57      889ADC
  58 010c C69A9B4A 		.ascii	"\306\232\233Jq\320-\326\307\212u\202\372\257\331\267"
  58      71D02DD6 
  58      C78A7582 
  58      FAAFD9B7 
  59 011c CFB5CC0B 		.ascii	"\317\265\314\013\265H\235\217\353o2\302\332\3552]|\360"
  59      B5489D8F 
  59      EB6F32C2 
  59      DAED325D 
  59      7CF0
  60 012e 7BD7A4A9 		.ascii	"{\327\244\251\265\221\025]\245xg5[\306\375B\304G\310"
  60      B591155D 
  60      A5786735 
  60      5BC6FD42 
  60      C447C8
ARM GAS  C:\Users\gjl\AppData\Local\Temp\ccgllgtg.s 			page 4


  61 0141 E01113DE 		.ascii	"\340\021\023\336`\302\204\012\312\240\004\305\257\245"
  61      60C2840A 
  61      CAA004C5 
  61      AFA5
  62 014f 2F9974A0 		.ascii	"/\231t\240\346\231\364\036Q#\274\264W\370\177\203\001"
  62      E699F41E 
  62      5123BCB4 
  62      57F87F83 
  62      01
  63 0160 61533A49 		.ascii	"aS:I\350\031\342?\203\226r\204_\202\2609\323HL\332e"
  63      E819E23F 
  63      83967284 
  63      5F82B039 
  63      D3484CDA 
  64 0175 422D8B17 		.ascii	"B-\213\027\236\266_u\271x\360P\345FF\375\234i\273)H"
  64      9EB65F75 
  64      B978F050 
  64      E54646FD 
  64      9C69BB29 
  65 018a 700C9A7B 		.ascii	"p\014\232{qw++ \007\333|/\017[]`}\276U9*\300}\002\012"
  65      71772B2B 
  65      2007DB7C 
  65      2F0F5B5D 
  65      607DBE55 
  66 01a4 D6F6ECD7 		.ascii	"\326\366\354\327\360\2305\360,\372\214bm\267\273~\217"
  66      F09835F0 
  66      2CFA8C62 
  66      6DB7BB7E 
  66      8F
  67 01b5 1E98169F 		.ascii	"\036\230\026\237\360\320\251`2\230\036\275\022\\\030"
  67      F0D0A960 
  67      32981EBD 
  67      125C18
  68 01c4 C94F5D9D 		.ascii	"\311O]\235\036\013\206\317\345\247\374#\303\247\207"
  68      1E0B86CF 
  68      E5A7FC23 
  68      C3A787
  69 01d3 FC91BC7F 		.ascii	"\374\221\274\177\334?{\346\360\030\365\214N\214_\234"
  69      DC3F7BE6 
  69      F018F58C 
  69      4E8C5F9C 
  70 01e3 F4272E9F 		.ascii	"\364'.\237\030\277\366\017\267\340\300\370"
  70      18BFF60F 
  70      B7E0C0F8 
  71              		.text
  72              		.section	.gnu.lto_I2C_SCBCLK_Stop.1a3e65b,"",%progbits
  73 0000 789C5550 		.ascii	"x\234UP=K\003A\020\235\267{\227\013\032\377A\012\013"
  73      3D4B0341 
  73      109DB77B 
  73      970B1AFF 
  73      410A0B
  74 0013 116C44C4 		.ascii	"\021lD\304\302V\003\006\321BL+\210\3505\202\006\202"
  74      C2560306 
  74      D1424C2B 
  74      88E83582 
  74      0682
  75 0025 D6EE2577 		.ascii	"\326\356%w\004\304B\005\255\224\240\010\361[,\005\213"
ARM GAS  C:\Users\gjl\AppData\Local\Temp\ccgllgtg.s 			page 5


  75      04C44205 
  75      AD94A008 
  75      F15B2C05 
  75      8B
  76 0036 98C64ED1 		.ascii	"\230\306N\321\302\264*x\205\004L$6\212\306Y/\205\031"
  76      C2B42A78 
  76      85044C24 
  76      368AC659 
  76      2F8519
  77 0049 989DDD99 		.ascii	"\230\235\335\231\267\357=\306 \220\2169.\235\\\2078"
  77      B7EF3DC6 
  77      20908E39 
  77      2E9D5C87 
  77      38
  78 005a 112288D5 		.ascii	"\021\"\210\325\033\"', \203\213\024\346\3125\221j1\\"
  78      1B22272C 
  78      20838B14 
  78      E6CA3591 
  78      6A315C
  79 006d 8B54C40C 		.ascii	"\213T\304\014\372\003\006\240\253\012\203\226\2044\015"
  79      FA0306A0 
  79      AB0A8396 
  79      84340D
  80 007c F049417C 		.ascii	"\360IA|\210o\201b\326\277\020]y\305\361\370\362\326"
  80      886F8162 
  80      D6BF105D 
  80      79C5F1F8 
  80      F2D6
  81 008e A3F60BF0 		.ascii	"\243\366\013\360\030P\027\001\006yt\021\303\236\317"
  81      18501701 
  81      06797411 
  81      C39ECF
  82 009d 7F36DA42 		.ascii	"\1776\332B\256\206\265\007C\354#\244\235\235\215\027"
  82      AE86B507 
  82      43EC23A4 
  82      9D9D8D17 
  83 00ad 54BD9E51 		.ascii	"T\275\236Q\2055\353\352\3012\005y\022\222\017\306T8"
  83      8535EBEA 
  83      C1320579 
  83      12920FC6 
  83      5438
  84 00bf D94C4508 		.ascii	"\331LE\010.\262\312\302lE\372(~.\373[\375\232 #\265"
  84      2EB2CAC2 
  84      6C45FA28 
  84      7E2EFB5B 
  84      FD9A2023 
  85 00d4 874DAF78 		.ascii	"\207M\257xk\325\204'%\264\326\356\316W\311\014\236J"
  85      6BD58427 
  85      25B4D6EE 
  85      CE57C90C 
  85      9E4A
  86 00e6 B9CAE056 		.ascii	"\271\312\340V\326\273;\210\344\260\355\270\354\316\300"
  86      D6BB3B88 
  86      E4B0EDB8 
  86      ECCEC0
  87 00f5 21A23840 		.ascii	"!\2428@\224M\034!\007\362\221~\317\226\255\200P2'=\301"
  87      944D1C21 
ARM GAS  C:\Users\gjl\AppData\Local\Temp\ccgllgtg.s 			page 6


  87      07F2917E 
  87      CF96AD80 
  87      5032273D 
  88 010a BDC9CC36 		.ascii	"\275\311\3146\032\377\025\004\010\307\372'i{&\361\312"
  88      1AFF1504 
  88      08C7FA27 
  88      697B26F1 
  88      CA
  89 011b 501586F6 		.ascii	"P\025\206\366\307\276j\225\262\363G\323$\351(\325\332"
  89      C7BE6A95 
  89      B2F347D3 
  89      24E928D5 
  89      DA
  90 012c AC7AC2AA 		.ascii	"\254z\302\252\014\271\277\\\337\013kV\340\212\027c\340"
  90      0CB9BF5C 
  90      DF0B6B56 
  90      E08A1763 
  90      E0
  91 013d 94A7AF48 		.ascii	"\224\247\257H\027JqM\322\020\001\223\363\":\342\366"
  91      174A714D 
  91      D2100193 
  91      F3223AE2 
  91      F6
  92 014e BC9D9A5A 		.ascii	"\274\235\232Z\260g&\023\311\305\324\264=1\226H\306\372"
  92      B0672613 
  92      C9C5D4B4 
  92      3D319648 
  92      C6FA
  93 0160 26867B63 		.ascii	"&\206{c\223\211\330`lt\244{\232~\001\264\246\214\344"
  93      9389D860 
  93      6C74A47B 
  93      9A7E01B4 
  93      A68CE4
  94              		.text
  95              		.section	.gnu.lto_I2C_SCBCLK_SetFractionalDividerRegister.1a3e65b,"",%progbits
  96 0000 789C6D52 		.ascii	"x\234mR]H\223a\024~\317\373n\337>\2679\275\014\362\302"
  96      5D489361 
  96      147ECFFB 
  96      6EDF3EB7 
  96      39BD0CF2 
  97 0015 8B647813 		.ascii	"\213dx\023f]t\025\321\"\351\207\210\004\257\004\031"
  97      665D7415 
  97      D122E987 
  97      8804AF04 
  97      19
  98 0026 7384680A 		.ascii	"s\204h\012K\273\365\335\3177c\020J\224\224$\2730\363"
  98      4BBBF5DD 
  98      CF376310 
  98      4A949424 
  98      BB30F3
  99 0039 37B7657F 		.ascii	"7\267e\177\246\320\032\331\205\224Q\364s\021H\230\030"
  99      A6D01AD9 
  99      859451F4 
  99      73114898 
  99      18
 100 004a 45D414CB 		.ascii	"E\324\024\313\220\331:\347{g!\364\302\336\237\263\347"
 100      90D93AE7 
ARM GAS  C:\Users\gjl\AppData\Local\Temp\ccgllgtg.s 			page 7


 100      7B6721F4 
 100      C2DE9FB3 
 100      E7
 101 005b 79CE39CF 		.ascii	"y\3169\317\371,\014\030\255\016\301\330I<w\342\017\004"
 101      F92C0C18 
 101      AD0EC1D8 
 101      493C77E2 
 101      0F04
 102 006d 03DE33CF 		.ascii	"\003\3363\317XP\347\000t\221:\260N\016\235\360\203o"
 102      5850E700 
 102      74913AB0 
 102      4E0E9DF0 
 102      836F
 103 007f 72C8742D 		.ascii	"r\310t-O\361\312!\211\353\303\354\300\0369\234\006\003"
 103      4FF1CA21 
 103      89EBC3EC 
 103      C01E399C 
 103      0603
 104 0091 E9796E2A 		.ascii	"\351yn*1\030\202JD\315\346\327\323%k\334\020\000Dz\225"
 104      3118824A 
 104      44CDE6D7 
 104      D3256BDC 
 104      1000447A 
 105 00a6 7DD6EFA0 		.ascii	"}\326\357\240'\207R|FW\337-9\205\033\030\336\307\222"
 105      2787527C 
 105      4657DF2D 
 105      39851B18 
 105      DEC792
 106 00b9 8F6225EE 		.ascii	"\217b%\356A)CR\276\367J\253!\004\214\202@=\030\2012"
 106      41294352 
 106      BEF74AAB 
 106      21048C82 
 106      403D1881 
 107 00ce 18863286 		.ascii	"\030\2062\206!\006c\340FtW\352\346%\227\2506\231\203"
 107      210663E0 
 107      467457EA 
 107      E62597A8 
 107      369983
 108 00e1 1736C6A1 		.ascii	"\0276\306\241\300\214?u\310*CX`\\Q\367\226A\025\021"
 108      C08C3F75 
 108      C82A4358 
 108      605C51F7 
 108      96411511 
 109 00f5 2D0C6E81 		.ascii	"-\014n\201\233\320/#\311\353BUd\301\347\312\363\276"
 109      9BD02F23 
 109      C9EB4255 
 109      64C1E7CA 
 109      F3BE
 110 0107 8F2E5551 		.ascii	"\217.UQ9>\277}Z\350.\026\007M\335\357Wei\305\000\311"
 110      393EBF7D 
 110      5AE82E16 
 110      074DDDEF 
 110      576569C5 
 111 011d A62763AE 		.ascii	"\246'c\256k2\035)7\204\025\222J9\201EM`Q\264\020\234"
 111      6B321D29 
 111      37841592 
 111      4A398145 
ARM GAS  C:\Users\gjl\AppData\Local\Temp\ccgllgtg.s 			page 8


 111      4D6051B4 
 112 0133 9849BEE1 		.ascii	"\230I\276\341\242\306$N\\LMh\005fr\316){\202:\021o\377"
 112      A2C6244E 
 112      5C4C4D68 
 112      056672CE 
 112      297B823A 
 113 014a 97B898FA 		.ascii	"\227\270\230\372}\245X\213\220\217\3450\011\025\220"
 113      7DA5588B 
 113      908FE530 
 113      091590
 114 0159 820AE522 		.ascii	"\202\012\345\"\334\001\015\347\302\267\242\211\323i"
 114      DC010DE7 
 114      C2B7A289 
 114      D369
 115 0167 99CF8765 		.ascii	"\231\317\207e:n\177\234\263\2738\266\245\241!\370\257"
 115      3A6E7F9C 
 115      B3BB38B6 
 115      A5A121F8 
 115      AF
 116 0178 05C8162B 		.ascii	"\005\310\026+\0054\332l\264\351@-\027\321\325N\233\203"
 116      0534DA6C 
 116      B4E9402D 
 116      17D1D54E 
 116      9B83
 117 018a 362733F5 		.ascii	"6'3\365Y\026\023\320LW8\247S,Cf#\366s\344\000\345\014"
 117      591613D0 
 117      4C5738A7 
 117      532C4366 
 117      23F673E4 
 118 01a1 0B1A55AF 		.ascii	"\013\032U\257\221ya#clfO7\236t'\\\352\031\211F$Y\327"
 118      91796123 
 118      636C664F 
 118      379E7427 
 118      5CEA1989 
 119 01b9 FFF9B261 		.ascii	"\377\371\262a\217C\1770\202\223\327\341\036\366u\227"
 119      8F437F30 
 119      8293D7E1 
 119      1EF67597 
 120 01c9 FA82FB10 		.ascii	"\372\202\373\020\007\266\014\341\\\364+(A\2414\327b"
 120      07B60CE1 
 120      5CF42B28 
 120      41A134D7 
 120      62
 121 01da C6BAE9BD 		.ascii	"\306\272\351\275\0066x\200\330E\340f\227\330\003\202"
 121      06367880 
 121      D845E066 
 121      97D80382 
 122 01ea 90135AED 		.ascii	"\220\023Z\355z;Z\247H\3260\216\015e\262\321\245\035"
 122      7A3B5AA7 
 122      48D6308E 
 122      0D65B2D1 
 122      A51D
 123 01fc 2A424194 		.ascii	"*BA\224\351\233^\233\263\222L\021\3500\2052\010\372"
 123      E99B5E9B 
 123      B3924C11 
 123      E8308532 
 123      08FA
ARM GAS  C:\Users\gjl\AppData\Local\Temp\ccgllgtg.s 			page 9


 124 020e 159D1FAD 		.ascii	"\025\235\037\255W(\233\231OSj\013[jEa\241+\265\327\205"
 124      57289B99 
 124      4F536A0B 
 124      5B6A4561 
 124      A12BB5D7 
 125 0223 A2EC18A4 		.ascii	"\242\354\030\244\017y59\344Tj\002\036*\265\\4WH\351"
 125      0F793539 
 125      E4546A02 
 125      1E2AB55C 
 125      345748E9 
 126 0237 401C8DD7 		.ascii	"@\034\215\327X\032\321U\345y\200\351\1779\367+\230\323"
 126      581AD155 
 126      E57980E9 
 126      7F39F72B 
 126      98D3
 127 0249 4CEBF8DB 		.ascii	"L\353\370\333P\212\032r\"(\323\273\262\020\262Ql\233"
 127      508A1A72 
 127      2228D3BB 
 127      B210B251 
 127      6C9B
 128 025b 6341291D 		.ascii	"cA)\035\333M\233A\323\210\362\005B\351\315cD0\277\220"
 128      DB4D9B41 
 128      D388F205 
 128      42E9CD63 
 128      4430BF90 
 129 026f 2C071A10 		.ascii	",\007\032\020\216kW\215\277\325\037\360\266\373\033"
 129      8E6B578D 
 129      BFD51FF0 
 129      B6FB1B
 130 027e 1B6ADB3A 		.ascii	"\033j\333:\002>\177\375\251\3326\317\276\372\243\325"
 130      023E7FFD 
 130      A9DA36CF 
 130      BEFAA3D5 
 131 028e 9E865ACF 		.ascii	"\236\206Z\317!\317\211\343\273}\314\356ki>\334t\276"
 131      21CF89E3 
 131      BB7DCCEE 
 131      6B693EDC 
 131      74BE
 132 02a0 A9D11F28 		.ascii	"\251\321\037(\306\353\221\200\327\327\336\324\326\352"
 132      C6EB9180 
 132      D7D7DED4 
 132      D6EA
 133 02ae 6DD102FE 		.ascii	"m\321\002\3763u\336\026\333Y\357\271f<\377\000dg5\243"
 133      3375DE16 
 133      DB59EFB9 
 133      663CFF00 
 133      646735A3 
 134              		.text
 135              		.section	.gnu.lto_I2C_SCBCLK_GetDividerRegister.1a3e65b,"",%progbits
 136 0000 789C2D90 		.ascii	"x\234-\220\275K\003A\020\305\347\355^\342a\360\2437"
 136      BD4B0341 
 136      10C5E7ED 
 136      5EE261F0 
 136      A337
 137 0012 85858869 		.ascii	"\205\205\210i,D\377\000=PD\0131m H\274\326@\320:\233"
 137      2C44FF00 
 137      3D50440B 
ARM GAS  C:\Users\gjl\AppData\Local\Temp\ccgllgtg.s 			page 10


 137      316D2048 
 137      BCD640D0 
 138 0028 DCAD828D 		.ascii	"\334\255\202\215\026j!\2044\201h\324\004[mb\320FDAA"
 138      166A2184 
 138      348168D4 
 138      045B6D62 
 138      D0464441 
 139 003d 2C4524A0 		.ascii	",E$\240U\014\021A\320\270C\\\230\235}\273of~\254E ^"
 139      550C1141 
 139      D0B8435C 
 139      989D7DBB 
 139      6F667EAC 
 140 0054 13260D9B 		.ascii	"\023&\015\233<`\002\222 \266o\2112\266\000\370\240l"
 140      3C600292 
 140      20B66F89 
 140      32B600F8 
 140      A06C
 141 0066 505A208D 		.ascii	"PZ \215O\361#p\325\376\252\366\265\204f\233\221\367"
 141      4FF12370 
 141      D5FEAAF6 
 141      B584669B 
 141      91F7
 142 0078 8D9B5C88 		.ascii	"\215\233\\\210%\320od\251Pi\332\221\242RY\365\254\317"
 142      25D06F64 
 142      A95069DA 
 142      91A25259 
 142      F5ACCF
 143 008b 26339E1E 		.ascii	"&3\236\036\321RP[\020\016\020F\021a\036q\210\010\031"
 143      D152505B 
 143      100E1046 
 143      11611E71 
 143      880819
 144 009e F3CBE9EF 		.ascii	"\363\313\351\357nO\320Wf\015\262\305\274\224\020d\244"
 144      6E4FD057 
 144      660DB2C5 
 144      BC941064 
 144      A4
 145 00af CA6255B5 		.ascii	"\312bU\265\333\236\252>\204.\236B\001\220\226R\362f"
 145      DB9EAA3E 
 145      842E9E42 
 145      01909652 
 145      F266
 146 00c1 11B7A386 		.ascii	"\021\267\243\206\011F\373\020\202\263\254\243\366\275"
 146      0946FB10 
 146      82B3ACA3 
 146      F6BD
 147 00cf F9588E71 		.ascii	"\371X\216q\275'\245\351\275\247kw]\314e\201G\025.\267"
 147      BD27A5E9 
 147      BDA76B77 
 147      5DCC6581 
 147      47152EB7 
 148 00e3 2ABD1DE9 		.ascii	"*\275\035\351\257\373\3122W\271\267\035\335\235G.\343"
 148      AFFBCA32 
 148      57B9B71D 
 148      DD9D472E 
 148      E3
 149 00f4 43CB008E 		.ascii	"C\313\000\216\015\336\021\343\341\004yP\035^s\232<\211"
ARM GAS  C:\Users\gjl\AppData\Local\Temp\ccgllgtg.s 			page 11


 149      0DDE11E3 
 149      E1047950 
 149      1D5E739A 
 149      3C89
 150 0106 4EBBFDF3 		.ascii	"N\273\375\363\326u\200\353\203\260Q6\266:\262\315\215"
 150      D67580EB 
 150      83B05136 
 150      B63AB2CD 
 150      8D
 151 0117 5774065A 		.ascii	"Wt\006Z\306G\357\020\377\212\277\264!\300d\206sh\306"
 151      C647EF10 
 151      FF8ABFB4 
 151      21C06486 
 151      7368C6
 152 012a 5D71534B 		.ascii	"]qSK\253\356r<\232\\K%\334\330B4\351\214\307f\307\234"
 152      ABEE723C 
 152      9A5C4B25 
 152      DCD84234 
 152      E98CC766 
 153 0140 78D49972 		.ascii	"x\324\231r\346\347F\023\364\007\343\211t\273"
 153      E6E74613 
 153      F407E389 
 153      74BB
 154              		.text
 155              		.section	.gnu.lto_I2C_SCBCLK_GetFractionalDividerRegister.1a3e65b,"",%progbits
 156 0000 789C6361 		.ascii	"x\234ca`d\000\201i@\254\006\304\322@\314\310\314\300"
 156      60640081 
 156      6940AC06 
 156      C4D240CC 
 156      C8CCC0
 157 0013 C834E11C 		.ascii	"\3104\341\034\003C#\007\023##\210\321\300\301\310P\317"
 157      03432307 
 157      13232388 
 157      D1C0C1C8 
 157      50CF
 158 0025 C458CFF8 		.ascii	"\304X\317\370\225\351/\023\343\351\357'z\2704\22774"
 158      95E92F13 
 158      E3E9EF27 
 158      7AB83497 
 158      3734
 159 0037 34353C38 		.ascii	"45<8\372\330r\372\212\003\214\255\314\014\014\377\231"
 159      FAD872FA 
 159      8A038CAD 
 159      CC0C0CFF 
 159      99
 160 0048 18188D65 		.ascii	"\030\030\215e\030\015d@F,g\324d\000*}\264\361\337T^"
 160      180D6440 
 160      462C67D4 
 160      64002A7D 
 160      B4F1DF54 
 161 005d B6960620 		.ascii	"\266\226\006 P\000)\000\312\254`d\003Y\271>\350@\303"
 161      50002900 
 161      CAAC6064 
 161      0359B93E 
 161      E840C3
 162 0070 FFFFCD0D 		.ascii	"\377\377\315\015\007\346\363\035\334\307\007\224\371"
 162      07E6F31D 
ARM GAS  C:\Users\gjl\AppData\Local\Temp\ccgllgtg.s 			page 12


 162      DCC70794 
 162      F9
 163 007d 00C420BB 		.ascii	"\000\304 \273>21\201h\346W\214M\007v\367\361\201\324"
 163      3E323181 
 163      68E6578C 
 163      4D0776F7 
 163      F181D4
 164 0090 030D9AD6 		.ascii	"\003\015\232\326z\350<\373\027&\240=\214\014\214+\031"
 164      7AE83CFB 
 164      1726A03D 
 164      8C0C8C2B 
 164      19
 165 00a1 41760075 		.ascii	"Av\000u0\202T\002\365\251\270\247\346\245\026%\226\244"
 165      30825402 
 165      F5A9B8A7 
 165      E6A51625 
 165      96A4
 166 00b3 A6C407E7 		.ascii	"\246\304\007\347\227\026%\247\306\004\004\347;\233\304"
 166      971625A7 
 166      C60404E7 
 166      3B9BC4
 167 00c2 781A39C7 		.ascii	"x\0329\307\007;;9\373x\353%3\000\000\332\337Cq"
 167      073B3B39 
 167      FB78EB25 
 167      330000DA 
 167      DF4371
 168              		.text
 169              		.section	.gnu.lto_.symbol_nodes.1a3e65b,"",%progbits
 170 0000 789C6361 		.ascii	"x\234ca`d\010g\000\002&\206z\006\206\011\347\030@\324"
 170      60640867 
 170      00022686 
 170      7A068609 
 170      E71840D4 
 171 0014 AE0645A0 		.ascii	"\256\006E\240\000c=#\252\000S=\023\252\000s=3\252\000"
 171      00633D23 
 171      AA00533D 
 171      13AA0073 
 171      3D33AA00 
 172 0028 4B3D0B8A 		.ascii	"K=\013\212\000\003\000U/\023\016"
 172      00030055 
 172      2F130E
 173              		.text
 174              		.section	.gnu.lto_.refs.1a3e65b,"",%progbits
 175 0000 789C6361 		.ascii	"x\234ca`\004B \000\000\0009\000\007"
 175      60044220 
 175      00000039 
 175      0007
 176              		.text
 177              		.section	.gnu.lto_.decls.1a3e65b,"",%progbits
 178 0000 789C8D54 		.ascii	"x\234\215ToLSW\024\277\347\275\266\300\243RC\314B\226"
 178      6F4C5357 
 178      14BFE7BD 
 178      B6C0A352 
 178      43CC4296 
 179 0014 CE30B350 		.ascii	"\3160\263P\276\014\007,\313\276,YV'Y\266\314ed|2!\210"
 179      BE0C072C 
 179      CBBE2C59 
ARM GAS  C:\Users\gjl\AppData\Local\Temp\ccgllgtg.s 			page 13


 179      562759B6 
 179      CC65647C 
 180 002b 2FAE0901 		.ascii	"/\256\011\001S\3532\223%\273\033\350p~\201M\335\020"
 180      53EB3293 
 180      25BB1BE8 
 180      707E814D 
 180      DD10
 181 003d 48119D2B 		.ascii	"H\021\235+\005\345\217\003Z\246\245\352,\025-\024\231"
 181      05E58F03 
 181      5AA6A5EA 
 181      2C152D14 
 181      99
 182 004e CB163325 		.ascii	"\313\0263%\"1\013.c\316h\330\324\356\334\373\336\353"
 182      22310B2E 
 182      63CE68D8 
 182      D4EEDCFB 
 182      DEEB
 183 0060 7BEDDA64 		.ascii	"{\355\332d7=\367\276{\3369\347\367;\177\372L\004\010"
 183      373DF7BE 
 183      7BDE39E7 
 183      F73B7FFA 
 183      4C0408
 184 0073 5B8D1642 		.ascii	"[\215\026B\036\341\331\200\327\004.\274\222\032\242"
 184      1EE1D980 
 184      D7042EBC 
 184      921AA2
 185 0082 2F33CA28 		.ascii	"/3\312(J\000e\012e\032%F\376\273\230M\236\352[\210\262"
 185      4A00650A 
 185      651A2546 
 185      FEBB984D 
 185      9EEA5B88 
 186 0097 0E6510C5 		.ascii	"\016e\020\305\2012\203r\015e\036e\213j\017\252O\372"
 186      81328372 
 186      0D651E65 
 186      8B6A0FAA 
 186      4FFA
 187 00a9 0AA89835 		.ascii	"\012\250\2305\031|5\277@\006?\306MJ\303\277\200\022"
 187      197C35BF 
 187      40063FC6 
 187      4D4AC3BF 
 187      8012
 188 00bb 32F0C8C4 		.ascii	"2\360\310\304a*C,\226cNZ\234l\376\323\031\374c\352\273"
 188      612A432C 
 188      96634E5A 
 188      9C6CFED3 
 188      19FC63EA 
 189 00d0 90C12E53 		.ascii	"\220\301.S\315\036\013\020o\211\214\347^\207_@\000\265"
 189      CD1E0B10 
 189      6F898CE7 
 189      5E875F40 
 189      00B5
 190 00e2 210440D9 		.ascii	"!\004@\331\201\013Q\204_\361A\340;I\252\222\007a;Q\354"
 190      810B5184 
 190      5FF141E0 
 190      3B49AA92 
 190      07613B51 
 191 00f7 B94E0FC6 		.ascii	"\271N\017\306\177\332\231\320\026\017\242G\007\325\011"
ARM GAS  C:\Users\gjl\AppData\Local\Temp\ccgllgtg.s 			page 14


 191      7FDA99D0 
 191      160FA247 
 191      07D509
 192 0106 920C142F 		.ascii	"\222\014\024/\345\275\240EU\016Aw0\304S\350\0328AjN"
 192      E5BDA045 
 192      550E4177 
 192      30C453E8 
 192      1A38416A 
 193 011b A025DD32 		.ascii	"\240%\33529q\317\"b\306\370|s\325\267\271l\200\342j"
 193      3971CF22 
 193      62C6F87C 
 193      73D5B7B9 
 193      6C80E26A 
 194 012f A354785E 		.ascii	"\243Tx^\257\314\257\321\276~\361\276\000\016\011Xx\033"
 194      AFCCAFD1 
 194      BE7EF1BE 
 194      000E0958 
 194      781B
 195 0141 AA06EF06 		.ascii	"\252\006\357\006W\327(*f1}s\351^\236\270\236?\317\265"
 195      57D7282A 
 195      66317D73 
 195      E95E9EB8 
 195      9E3FCFB5 
 196 0155 0C7531EB 		.ascii	"\014u1\353B\011Lx\3753vd\261\000\257\353$(~,\010c\307"
 196      42094C78 
 196      FD337664 
 196      B100AFEB 
 196      24287E2C 
 197 016c BC7F9941 		.ascii	"\274\177\231A*m\245\364S\332\326L\013\243\005\004N\201"
 197      2A6DA5F4 
 197      53DAD64C 
 197      0BA30504 
 197      4E81
 198 017e 1D4E829D 		.ascii	"\035N\202\235\300\020\224\262\220}PF\240\037\225~T\236"
 198      C01094B2 
 198      907D5046 
 198      A01F957E 
 198      549E
 199 0190 608C163A 		.ascii	"`\214\026:\207_\011R\272\026\006A\202\001\020\271\011"
 199      875F0952 
 199      BA160641 
 199      820110B9 
 199      09
 200 01a1 E6E19014 		.ascii	"\346\341\220\024\212\277\377\341\215\345\230\004\324"
 200      8ABFFFE1 
 200      8DE59804 
 200      D4
 201 01ae 30836D26 		.ascii	"0\203m&\246\273\230x\030\266)D\004\274^]\271\322\235"
 201      A6BB9878 
 201      18B62944 
 201      04BC5E5D 
 201      B9D29D
 202 01c1 AF10598B 		.ascii	"\257\020Y\213\327\317\216\037\354\225\212\016\263\340"
 202      D7CF8E1F 
 202      EC958A0E 
 202      B3E0
 203 01cf B499160B 		.ascii	"\264\231\026\013P\363\024\234F\310\021\204$\360\035"
ARM GAS  C:\Users\gjl\AppData\Local\Temp\ccgllgtg.s 			page 15


 203      50F3149C 
 203      46C81184 
 203      24F01D
 204 01de 14E13E0C 		.ascii	"\024\341>\014&%\374\360Q\377m\323\206\036\3323D\027"
 204      2625FCF0 
 204      51FF6DD3 
 204      861EDA33 
 204      4417
 205 01f0 BC11C7E1 		.ascii	"\274\021\307\341f\352C\267bf\006>\235\015>\262\343["
 205      66EA43B7 
 205      6266063E 
 205      9D0D3EB2 
 205      E35B
 206 0202 B88EE51E 		.ascii	"\270\216\345\036\205\015\350\271\377\300\2356\233\330"
 206      850DE8B9 
 206      FFC09D36 
 206      9BD8
 207 0210 C02BB31C 		.ascii	"\300+\263\034\352H\254\311\0129\316!\267\251\210\247"
 207      EA48ACC9 
 207      0A39CE21 
 207      B7A988A7 
 208 0220 62F1509E 		.ascii	"b\361P\236\202\030~\022\261\3228\372\274\312l`L\307"
 208      82187E12 
 208      B1D238FA 
 208      BCCA6C60 
 208      4CC7
 209 0232 1B33E205 		.ascii	"\0333\342\0058\336\231\007\313^A\374\210\343\015\356"
 209      38DE9907 
 209      CB5E41FC 
 209      88E30DEE 
 210 0242 BDDD978B 		.ascii	"\275\335\227\213\031\333\261o`h\232]iZG\373\342\223"
 210      19DBB16F 
 210      60689A5D 
 210      695A47FB 
 210      E293
 211 0254 7CF138B0 		.ascii	"|\3618\260\2130\277\330\377\233\011J%\265\332}J\265"
 211      8B30BFD8 
 211      FF9B094A 
 211      25B5DA7D 
 211      4AB5
 212 0266 4358CC33 		.ascii	"CX\3143:\236\235U\233wn\245\227Z\212\010T\332\341\005"
 212      3A9E9D55 
 212      9B776EA5 
 212      975A8A08 
 212      54DAE105 
 213 027a 6CDB596C 		.ascii	"l\333Yl\233]m\333\367\230\320\004&\204\000K_y\227-\274"
 213      9B5D6DDB 
 213      F798D004 
 213      2684004B 
 213      5F79972D 
 214 028f 29A16453 		.ascii	")\241dS\276\371\373\237\0256\035%l\226D\003\251\022"
 214      BEF9FB9F 
 214      15361D25 
 214      6C964403 
 214      A912
 215 02a1 8594EF68 		.ascii	"\205\224\357h\344\264$\372\025R]\007\317\235\264h\303"
 215      E4B424FA 
ARM GAS  C:\Users\gjl\AppData\Local\Temp\ccgllgtg.s 			page 16


 215      15525D07 
 215      CF9DB468 
 215      C3
 216 02b2 8225937C 		.ascii	"\202%\223|8,Z\305\340\007D-QQ\317\2412\254\015K\370"
 216      382C5AC5 
 216      E007442D 
 216      5151CFA1 
 216      32AC0D4B 
 217 02c7 A7F55480 		.ascii	"\247\365T\200\013\210y^\347^\242N\312\241;\207\026\362"
 217      0B88795E 
 217      E75EA24E 
 217      CAA13B87 
 217      16F2
 218 02d9 38296630 		.ascii	"8)f0\011\234U\367\354\317K\331\207!\302;sQ\033\206\336"
 218      099C55F7 
 218      ECCF4BD9 
 218      8721C23B 
 218      73511B86 
 219 02ee BB235FE6 		.ascii	"\273#_\346j\303\260\257\352\326\010\245{\321\317\304"
 219      6AC3B0AF 
 219      EAD608A5 
 219      7BD1CFC4 
 220 02fe EC20A823 		.ascii	"\354 \250#\006\215\335\231\342\335\211\305;\367\211"
 220      068DDD99 
 220      E2DD89C5 
 220      3BF789
 221 030d E230CF0E 		.ascii	"\3420\317\016n\235\215z\255FPFHG\275\2242\017\376G'"
 221      6E9D8D7A 
 221      AD465046 
 221      4847BD94 
 221      320FFE47 
 222 0322 02923A0F 		.ascii	"\002\222:\017s\007\254\0354\214\025\301,\321\012\242"
 222      7307AC1D 
 222      348C15C1 
 222      2CD10AA2 
 223 0332 3A66D488 		.ascii	":f\324\2109\3151;\277\370\344\222M\234U0\273\333\216"
 223      39CD313B 
 223      BFF8E492 
 223      4D9C5530 
 223      BBDB8E
 224 0345 F9F38D98 		.ascii	"\371\363\215\230\241\024\314+)\230=\017\356\3370#\346"
 224      A114CC2B 
 224      29983D0F 
 224      EEDF3023 
 224      E6
 225 0356 106276CF 		.ascii	"\020bv\317\210IL\264\202\313:\346e#f\214a\212]\223\363"
 225      88494CB4 
 225      82CB3AE6 
 225      6523668C 
 225      618A5D93 
 226 036b E3224876 		.ascii	"\343\"Hv\300\310\320\312?)i\177u\0023\200\035\2018\336"
 226      C0C8D0CA 
 226      3F29697F 
 226      75023380 
 226      1D8138DE 
 227 037f 67F17E84 		.ascii	"g\361~\204\242\331J\"\361q\"\221\303_q\005m\357\335"
 227      A2D94A22 
ARM GAS  C:\Users\gjl\AppData\Local\Temp\ccgllgtg.s 			page 17


 227      F1712291 
 227      C35F7105 
 227      6DEFDD
 228 0392 D4DAFE34 		.ascii	"\324\332\3764W\260\015IM\014\014~-J\255\214\376\377"
 228      57B00D49 
 228      4D0C0C7E 
 228      2D4AAD8C 
 228      FEFF
 229 03a4 FA7C3097 		.ascii	"\372|0\227\033\264\313,>Tf*\030X\036(Pf*C\204\037\263"
 229      1BB4CB2C 
 229      3E54662A 
 229      18581E28 
 229      50662A43 
 230 03bb 7F8056B7 		.ascii	"\177\200V\267\264\357g\331\317c\305\256\352\331\317"
 230      B4EF67D9 
 230      CF63C5AE 
 230      EAD9CF
 231 03ca 813A5863 		.ascii	"\201:Xc\321\271\321\034\353\347\372w\215[\352\371^\003"
 231      D1B9D11C 
 231      EBE7FA77 
 231      8D5BEAF9 
 231      5E03
 232 03dc 2BFFFEB2 		.ascii	"+\377\376\262\263\360\215\012gm\265\3635\347[o\326V"
 232      B3F08D0A 
 232      676DB5F3 
 232      35E75B6F 
 232      D656
 233 03ee 7BEADC9E 		.ascii	"{\352\334\236\327?\314\255z\373\275bgy9\261\354v5z*"
 233      D73FCCAD 
 233      7AFBBD62 
 233      677939B1 
 233      EC76357A 
 234 0403 2B9EAD92 		.ascii	"+\236\255\222\033ew\235G\336^[\335\264\333]/o}\247\272"
 234      1B65779D 
 234      47DE5E5B 
 234      DDB4DB5D 
 234      2F6F7DA7 
 235 0418 C9F9E2C6 		.ascii	"\311\371\342\306\372=\236=;\345]e\357\223\3472[l\325"
 235      FA3D9E3D 
 235      3BE55D65 
 235      EF93E732 
 235      5B6CD5
 236 042b 6397D513 		.ascii	"c\227\325\023[\012R\323N\207\361.{6\273\353\352=\256"
 236      5B0A52D3 
 236      4E87F12E 
 236      7B36BBEB 
 236      EA3DAE
 237 043e A6C6BA86 		.ascii	"\246\306\272\206M\256\017\\\333e\367\273\362\016\327"
 237      4DAE0F5C 
 237      DB65F7BB 
 237      F20ED7
 238 044d 2E8FEC36 		.ascii	".\217\35463\026/s.\345/=cp\252\222=i\246\216\324\267"
 238      33162F73 
 238      2EE52F3D 
 238      6370AA92 
 238      3D69A68E 
 239 0463 D943BAE5 		.ascii	"\331C\272\345\035\225\025\377\002\364\307;\220"
ARM GAS  C:\Users\gjl\AppData\Local\Temp\ccgllgtg.s 			page 18


 239      1D9515FF 
 239      02F4C73B 
 239      90
 240              		.text
 241              		.section	.gnu.lto_.symtab.1a3e65b,"",%progbits
 242 0000 4932435F 		.ascii	"I2C_SCBCLK_StartEx\000"
 242      53434243 
 242      4C4B5F53 
 242      74617274 
 242      457800
 243 0013 00       		.ascii	"\000"
 244 0014 00       		.ascii	"\000"
 245 0015 00       		.ascii	"\000"
 246 0016 00000000 		.ascii	"\000\000\000\000\000\000\000\000"
 246      00000000 
 247 001e B5000000 		.ascii	"\265\000\000\000"
 248 0022 4932435F 		.ascii	"I2C_SCBCLK_Stop\000"
 248      53434243 
 248      4C4B5F53 
 248      746F7000 
 249 0032 00       		.ascii	"\000"
 250 0033 00       		.ascii	"\000"
 251 0034 00       		.ascii	"\000"
 252 0035 00000000 		.ascii	"\000\000\000\000\000\000\000\000"
 252      00000000 
 253 003d B8000000 		.ascii	"\270\000\000\000"
 254 0041 4932435F 		.ascii	"I2C_SCBCLK_SetFractionalDividerRegister\000"
 254      53434243 
 254      4C4B5F53 
 254      65744672 
 254      61637469 
 255 0069 00       		.ascii	"\000"
 256 006a 00       		.ascii	"\000"
 257 006b 00       		.ascii	"\000"
 258 006c 00000000 		.ascii	"\000\000\000\000\000\000\000\000"
 258      00000000 
 259 0074 C7000000 		.ascii	"\307\000\000\000"
 260 0078 4932435F 		.ascii	"I2C_SCBCLK_GetDividerRegister\000"
 260      53434243 
 260      4C4B5F47 
 260      65744469 
 260      76696465 
 261 0096 00       		.ascii	"\000"
 262 0097 00       		.ascii	"\000"
 263 0098 00       		.ascii	"\000"
 264 0099 00000000 		.ascii	"\000\000\000\000\000\000\000\000"
 264      00000000 
 265 00a1 CA000000 		.ascii	"\312\000\000\000"
 266 00a5 4932435F 		.ascii	"I2C_SCBCLK_GetFractionalDividerRegister\000"
 266      53434243 
 266      4C4B5F47 
 266      65744672 
 266      61637469 
 267 00cd 00       		.ascii	"\000"
 268 00ce 00       		.ascii	"\000"
 269 00cf 00       		.ascii	"\000"
 270 00d0 00000000 		.ascii	"\000\000\000\000\000\000\000\000"
ARM GAS  C:\Users\gjl\AppData\Local\Temp\ccgllgtg.s 			page 19


 270      00000000 
 271 00d8 CD000000 		.ascii	"\315\000\000\000"
 272              		.text
 273              		.section	.gnu.lto_.opts,"",%progbits
 274 0000 272D666D 		.ascii	"'-fmath-errno' '-fsigned-zeros' '-ftrapping-math' '"
 274      6174682D 
 274      6572726E 
 274      6F272027 
 274      2D667369 
 275 0033 2D666E6F 		.ascii	"-fno-trapv' '-fno-openmp' '-fno-openacc' '-mcpu=cor"
 275      2D747261 
 275      70762720 
 275      272D666E 
 275      6F2D6F70 
 276 0066 7465782D 		.ascii	"tex-m0' '-mthumb' '-g' '-Os' '-ffunction-sections' "
 276      6D302720 
 276      272D6D74 
 276      68756D62 
 276      2720272D 
 277 0099 272D6666 		.ascii	"'-ffat-lto-objects' '-flto'\000"
 277      61742D6C 
 277      746F2D6F 
 277      626A6563 
 277      74732720 
 278              		.text
 279              		.cfi_sections	.debug_frame
 280              		.section	.text.I2C_SCBCLK_StartEx,"ax",%progbits
 281              		.align	1
 282              		.global	I2C_SCBCLK_StartEx
 283              		.code	16
 284              		.thumb_func
 285              		.type	I2C_SCBCLK_StartEx, %function
 286              	I2C_SCBCLK_StartEx:
 287              	.LFB0:
 288              		.file 1 "Generated_Source\\PSoC4\\I2C_SCBCLK.c"
   1:Generated_Source\PSoC4/I2C_SCBCLK.c **** /*******************************************************************************
   2:Generated_Source\PSoC4/I2C_SCBCLK.c **** * File Name: I2C_SCBCLK.c
   3:Generated_Source\PSoC4/I2C_SCBCLK.c **** * Version 2.20
   4:Generated_Source\PSoC4/I2C_SCBCLK.c **** *
   5:Generated_Source\PSoC4/I2C_SCBCLK.c **** *  Description:
   6:Generated_Source\PSoC4/I2C_SCBCLK.c **** *   Provides system API for the clocking, interrupts and watchdog timer.
   7:Generated_Source\PSoC4/I2C_SCBCLK.c **** *
   8:Generated_Source\PSoC4/I2C_SCBCLK.c **** *  Note:
   9:Generated_Source\PSoC4/I2C_SCBCLK.c **** *   Documentation of the API's in this file is located in the
  10:Generated_Source\PSoC4/I2C_SCBCLK.c **** *   System Reference Guide provided with PSoC Creator.
  11:Generated_Source\PSoC4/I2C_SCBCLK.c **** *
  12:Generated_Source\PSoC4/I2C_SCBCLK.c **** ********************************************************************************
  13:Generated_Source\PSoC4/I2C_SCBCLK.c **** * Copyright 2008-2012, Cypress Semiconductor Corporation.  All rights reserved.
  14:Generated_Source\PSoC4/I2C_SCBCLK.c **** * You may use this file only in accordance with the license, terms, conditions,
  15:Generated_Source\PSoC4/I2C_SCBCLK.c **** * disclaimers, and limitations in the end user license agreement accompanying
  16:Generated_Source\PSoC4/I2C_SCBCLK.c **** * the software package with which this file was provided.
  17:Generated_Source\PSoC4/I2C_SCBCLK.c **** *******************************************************************************/
  18:Generated_Source\PSoC4/I2C_SCBCLK.c **** 
  19:Generated_Source\PSoC4/I2C_SCBCLK.c **** #include <cydevice_trm.h>
  20:Generated_Source\PSoC4/I2C_SCBCLK.c **** #include "I2C_SCBCLK.h"
  21:Generated_Source\PSoC4/I2C_SCBCLK.c **** 
  22:Generated_Source\PSoC4/I2C_SCBCLK.c **** #if defined CYREG_PERI_DIV_CMD
ARM GAS  C:\Users\gjl\AppData\Local\Temp\ccgllgtg.s 			page 20


  23:Generated_Source\PSoC4/I2C_SCBCLK.c **** 
  24:Generated_Source\PSoC4/I2C_SCBCLK.c **** /*******************************************************************************
  25:Generated_Source\PSoC4/I2C_SCBCLK.c **** * Function Name: I2C_SCBCLK_StartEx
  26:Generated_Source\PSoC4/I2C_SCBCLK.c **** ********************************************************************************
  27:Generated_Source\PSoC4/I2C_SCBCLK.c **** *
  28:Generated_Source\PSoC4/I2C_SCBCLK.c **** * Summary:
  29:Generated_Source\PSoC4/I2C_SCBCLK.c **** *  Starts the clock, aligned to the specified running clock.
  30:Generated_Source\PSoC4/I2C_SCBCLK.c **** *
  31:Generated_Source\PSoC4/I2C_SCBCLK.c **** * Parameters:
  32:Generated_Source\PSoC4/I2C_SCBCLK.c **** *  alignClkDiv:  The divider to which phase alignment is performed when the
  33:Generated_Source\PSoC4/I2C_SCBCLK.c **** *    clock is started.
  34:Generated_Source\PSoC4/I2C_SCBCLK.c **** *
  35:Generated_Source\PSoC4/I2C_SCBCLK.c **** * Returns:
  36:Generated_Source\PSoC4/I2C_SCBCLK.c **** *  None
  37:Generated_Source\PSoC4/I2C_SCBCLK.c **** *
  38:Generated_Source\PSoC4/I2C_SCBCLK.c **** *******************************************************************************/
  39:Generated_Source\PSoC4/I2C_SCBCLK.c **** void I2C_SCBCLK_StartEx(uint32 alignClkDiv)
  40:Generated_Source\PSoC4/I2C_SCBCLK.c **** {
 289              		.loc 1 40 0
 290              		.cfi_startproc
 291              		@ args = 0, pretend = 0, frame = 0
 292              		@ frame_needed = 0, uses_anonymous_args = 0
 293              		@ link register save eliminated.
 294              	.LVL0:
  41:Generated_Source\PSoC4/I2C_SCBCLK.c ****     /* Make sure any previous start command has finished. */
  42:Generated_Source\PSoC4/I2C_SCBCLK.c ****     while((I2C_SCBCLK_CMD_REG & I2C_SCBCLK_CMD_ENABLE_MASK) != 0u)
 295              		.loc 1 42 0
 296 0000 044A     		ldr	r2, .L5
 297              	.L2:
 298              		.loc 1 42 0 is_stmt 0 discriminator 1
 299 0002 1368     		ldr	r3, [r2]
 300 0004 002B     		cmp	r3, #0
 301 0006 FCDB     		blt	.L2
  43:Generated_Source\PSoC4/I2C_SCBCLK.c ****     {
  44:Generated_Source\PSoC4/I2C_SCBCLK.c ****     }
  45:Generated_Source\PSoC4/I2C_SCBCLK.c ****     
  46:Generated_Source\PSoC4/I2C_SCBCLK.c ****     /* Specify the target divider and it's alignment divider, and enable. */
  47:Generated_Source\PSoC4/I2C_SCBCLK.c ****     I2C_SCBCLK_CMD_REG =
  48:Generated_Source\PSoC4/I2C_SCBCLK.c ****         ((uint32)I2C_SCBCLK__DIV_ID << I2C_SCBCLK_CMD_DIV_SHIFT)|
  49:Generated_Source\PSoC4/I2C_SCBCLK.c ****         (alignClkDiv << I2C_SCBCLK_CMD_PA_DIV_SHIFT) |
 302              		.loc 1 49 0 is_stmt 1
 303 0008 034B     		ldr	r3, .L5+4
 304 000a 0002     		lsls	r0, r0, #8
 305              	.LVL1:
 306 000c 1843     		orrs	r0, r3
  47:Generated_Source\PSoC4/I2C_SCBCLK.c ****         ((uint32)I2C_SCBCLK__DIV_ID << I2C_SCBCLK_CMD_DIV_SHIFT)|
 307              		.loc 1 47 0
 308 000e 014B     		ldr	r3, .L5
  50:Generated_Source\PSoC4/I2C_SCBCLK.c ****         (uint32)I2C_SCBCLK_CMD_ENABLE_MASK;
  51:Generated_Source\PSoC4/I2C_SCBCLK.c **** }
 309              		.loc 1 51 0
 310              		@ sp needed
  47:Generated_Source\PSoC4/I2C_SCBCLK.c ****         ((uint32)I2C_SCBCLK__DIV_ID << I2C_SCBCLK_CMD_DIV_SHIFT)|
 311              		.loc 1 47 0
 312 0010 1860     		str	r0, [r3]
 313              		.loc 1 51 0
 314 0012 7047     		bx	lr
ARM GAS  C:\Users\gjl\AppData\Local\Temp\ccgllgtg.s 			page 21


 315              	.L6:
 316              		.align	2
 317              	.L5:
 318 0014 00000140 		.word	1073807360
 319 0018 41000080 		.word	-2147483583
 320              		.cfi_endproc
 321              	.LFE0:
 322              		.size	I2C_SCBCLK_StartEx, .-I2C_SCBCLK_StartEx
 323              		.section	.text.I2C_SCBCLK_Stop,"ax",%progbits
 324              		.align	1
 325              		.global	I2C_SCBCLK_Stop
 326              		.code	16
 327              		.thumb_func
 328              		.type	I2C_SCBCLK_Stop, %function
 329              	I2C_SCBCLK_Stop:
 330              	.LFB1:
  52:Generated_Source\PSoC4/I2C_SCBCLK.c **** 
  53:Generated_Source\PSoC4/I2C_SCBCLK.c **** #else
  54:Generated_Source\PSoC4/I2C_SCBCLK.c **** 
  55:Generated_Source\PSoC4/I2C_SCBCLK.c **** /*******************************************************************************
  56:Generated_Source\PSoC4/I2C_SCBCLK.c **** * Function Name: I2C_SCBCLK_Start
  57:Generated_Source\PSoC4/I2C_SCBCLK.c **** ********************************************************************************
  58:Generated_Source\PSoC4/I2C_SCBCLK.c **** *
  59:Generated_Source\PSoC4/I2C_SCBCLK.c **** * Summary:
  60:Generated_Source\PSoC4/I2C_SCBCLK.c **** *  Starts the clock.
  61:Generated_Source\PSoC4/I2C_SCBCLK.c **** *
  62:Generated_Source\PSoC4/I2C_SCBCLK.c **** * Parameters:
  63:Generated_Source\PSoC4/I2C_SCBCLK.c **** *  None
  64:Generated_Source\PSoC4/I2C_SCBCLK.c **** *
  65:Generated_Source\PSoC4/I2C_SCBCLK.c **** * Returns:
  66:Generated_Source\PSoC4/I2C_SCBCLK.c **** *  None
  67:Generated_Source\PSoC4/I2C_SCBCLK.c **** *
  68:Generated_Source\PSoC4/I2C_SCBCLK.c **** *******************************************************************************/
  69:Generated_Source\PSoC4/I2C_SCBCLK.c **** 
  70:Generated_Source\PSoC4/I2C_SCBCLK.c **** void I2C_SCBCLK_Start(void)
  71:Generated_Source\PSoC4/I2C_SCBCLK.c **** {
  72:Generated_Source\PSoC4/I2C_SCBCLK.c ****     /* Set the bit to enable the clock. */
  73:Generated_Source\PSoC4/I2C_SCBCLK.c ****     I2C_SCBCLK_ENABLE_REG |= I2C_SCBCLK__ENABLE_MASK;
  74:Generated_Source\PSoC4/I2C_SCBCLK.c **** }
  75:Generated_Source\PSoC4/I2C_SCBCLK.c **** 
  76:Generated_Source\PSoC4/I2C_SCBCLK.c **** #endif /* CYREG_PERI_DIV_CMD */
  77:Generated_Source\PSoC4/I2C_SCBCLK.c **** 
  78:Generated_Source\PSoC4/I2C_SCBCLK.c **** 
  79:Generated_Source\PSoC4/I2C_SCBCLK.c **** /*******************************************************************************
  80:Generated_Source\PSoC4/I2C_SCBCLK.c **** * Function Name: I2C_SCBCLK_Stop
  81:Generated_Source\PSoC4/I2C_SCBCLK.c **** ********************************************************************************
  82:Generated_Source\PSoC4/I2C_SCBCLK.c **** *
  83:Generated_Source\PSoC4/I2C_SCBCLK.c **** * Summary:
  84:Generated_Source\PSoC4/I2C_SCBCLK.c **** *  Stops the clock and returns immediately. This API does not require the
  85:Generated_Source\PSoC4/I2C_SCBCLK.c **** *  source clock to be running but may return before the hardware is actually
  86:Generated_Source\PSoC4/I2C_SCBCLK.c **** *  disabled.
  87:Generated_Source\PSoC4/I2C_SCBCLK.c **** *
  88:Generated_Source\PSoC4/I2C_SCBCLK.c **** * Parameters:
  89:Generated_Source\PSoC4/I2C_SCBCLK.c **** *  None
  90:Generated_Source\PSoC4/I2C_SCBCLK.c **** *
  91:Generated_Source\PSoC4/I2C_SCBCLK.c **** * Returns:
  92:Generated_Source\PSoC4/I2C_SCBCLK.c **** *  None
ARM GAS  C:\Users\gjl\AppData\Local\Temp\ccgllgtg.s 			page 22


  93:Generated_Source\PSoC4/I2C_SCBCLK.c **** *
  94:Generated_Source\PSoC4/I2C_SCBCLK.c **** *******************************************************************************/
  95:Generated_Source\PSoC4/I2C_SCBCLK.c **** void I2C_SCBCLK_Stop(void)
  96:Generated_Source\PSoC4/I2C_SCBCLK.c **** {
 331              		.loc 1 96 0
 332              		.cfi_startproc
 333              		@ args = 0, pretend = 0, frame = 0
 334              		@ frame_needed = 0, uses_anonymous_args = 0
 335              		@ link register save eliminated.
  97:Generated_Source\PSoC4/I2C_SCBCLK.c **** #if defined CYREG_PERI_DIV_CMD
  98:Generated_Source\PSoC4/I2C_SCBCLK.c **** 
  99:Generated_Source\PSoC4/I2C_SCBCLK.c ****     /* Make sure any previous start command has finished. */
 100:Generated_Source\PSoC4/I2C_SCBCLK.c ****     while((I2C_SCBCLK_CMD_REG & I2C_SCBCLK_CMD_ENABLE_MASK) != 0u)
 336              		.loc 1 100 0
 337 0000 034A     		ldr	r2, .L10
 338              	.L8:
 339              		.loc 1 100 0 is_stmt 0 discriminator 1
 340 0002 1368     		ldr	r3, [r2]
 341 0004 002B     		cmp	r3, #0
 342 0006 FCDB     		blt	.L8
 101:Generated_Source\PSoC4/I2C_SCBCLK.c ****     {
 102:Generated_Source\PSoC4/I2C_SCBCLK.c ****     }
 103:Generated_Source\PSoC4/I2C_SCBCLK.c ****     
 104:Generated_Source\PSoC4/I2C_SCBCLK.c ****     /* Specify the target divider and it's alignment divider, and disable. */
 105:Generated_Source\PSoC4/I2C_SCBCLK.c ****     I2C_SCBCLK_CMD_REG =
 343              		.loc 1 105 0 is_stmt 1
 344 0008 024A     		ldr	r2, .L10+4
 345 000a 014B     		ldr	r3, .L10
 106:Generated_Source\PSoC4/I2C_SCBCLK.c ****         ((uint32)I2C_SCBCLK__DIV_ID << I2C_SCBCLK_CMD_DIV_SHIFT)|
 107:Generated_Source\PSoC4/I2C_SCBCLK.c ****         ((uint32)I2C_SCBCLK_CMD_DISABLE_MASK);
 108:Generated_Source\PSoC4/I2C_SCBCLK.c **** 
 109:Generated_Source\PSoC4/I2C_SCBCLK.c **** #else
 110:Generated_Source\PSoC4/I2C_SCBCLK.c **** 
 111:Generated_Source\PSoC4/I2C_SCBCLK.c ****     /* Clear the bit to disable the clock. */
 112:Generated_Source\PSoC4/I2C_SCBCLK.c ****     I2C_SCBCLK_ENABLE_REG &= (uint32)(~I2C_SCBCLK__ENABLE_MASK);
 113:Generated_Source\PSoC4/I2C_SCBCLK.c ****     
 114:Generated_Source\PSoC4/I2C_SCBCLK.c **** #endif /* CYREG_PERI_DIV_CMD */
 115:Generated_Source\PSoC4/I2C_SCBCLK.c **** }
 346              		.loc 1 115 0
 347              		@ sp needed
 105:Generated_Source\PSoC4/I2C_SCBCLK.c ****         ((uint32)I2C_SCBCLK__DIV_ID << I2C_SCBCLK_CMD_DIV_SHIFT)|
 348              		.loc 1 105 0
 349 000c 1A60     		str	r2, [r3]
 350              		.loc 1 115 0
 351 000e 7047     		bx	lr
 352              	.L11:
 353              		.align	2
 354              	.L10:
 355 0010 00000140 		.word	1073807360
 356 0014 41000040 		.word	1073741889
 357              		.cfi_endproc
 358              	.LFE1:
 359              		.size	I2C_SCBCLK_Stop, .-I2C_SCBCLK_Stop
 360              		.section	.text.I2C_SCBCLK_SetFractionalDividerRegister,"ax",%progbits
 361              		.align	1
 362              		.global	I2C_SCBCLK_SetFractionalDividerRegister
 363              		.code	16
ARM GAS  C:\Users\gjl\AppData\Local\Temp\ccgllgtg.s 			page 23


 364              		.thumb_func
 365              		.type	I2C_SCBCLK_SetFractionalDividerRegister, %function
 366              	I2C_SCBCLK_SetFractionalDividerRegister:
 367              	.LFB2:
 116:Generated_Source\PSoC4/I2C_SCBCLK.c **** 
 117:Generated_Source\PSoC4/I2C_SCBCLK.c **** 
 118:Generated_Source\PSoC4/I2C_SCBCLK.c **** /*******************************************************************************
 119:Generated_Source\PSoC4/I2C_SCBCLK.c **** * Function Name: I2C_SCBCLK_SetFractionalDividerRegister
 120:Generated_Source\PSoC4/I2C_SCBCLK.c **** ********************************************************************************
 121:Generated_Source\PSoC4/I2C_SCBCLK.c **** *
 122:Generated_Source\PSoC4/I2C_SCBCLK.c **** * Summary:
 123:Generated_Source\PSoC4/I2C_SCBCLK.c **** *  Modifies the clock divider and the fractional divider.
 124:Generated_Source\PSoC4/I2C_SCBCLK.c **** *
 125:Generated_Source\PSoC4/I2C_SCBCLK.c **** * Parameters:
 126:Generated_Source\PSoC4/I2C_SCBCLK.c **** *  clkDivider:  Divider register value (0-65535). This value is NOT the
 127:Generated_Source\PSoC4/I2C_SCBCLK.c **** *    divider; the clock hardware divides by clkDivider plus one. For example,
 128:Generated_Source\PSoC4/I2C_SCBCLK.c **** *    to divide the clock by 2, this parameter should be set to 1.
 129:Generated_Source\PSoC4/I2C_SCBCLK.c **** *  fracDivider:  Fractional Divider register value (0-31).
 130:Generated_Source\PSoC4/I2C_SCBCLK.c **** * Returns:
 131:Generated_Source\PSoC4/I2C_SCBCLK.c **** *  None
 132:Generated_Source\PSoC4/I2C_SCBCLK.c **** *
 133:Generated_Source\PSoC4/I2C_SCBCLK.c **** *******************************************************************************/
 134:Generated_Source\PSoC4/I2C_SCBCLK.c **** void I2C_SCBCLK_SetFractionalDividerRegister(uint16 clkDivider, uint8 clkFractional)
 135:Generated_Source\PSoC4/I2C_SCBCLK.c **** {
 368              		.loc 1 135 0
 369              		.cfi_startproc
 370              		@ args = 0, pretend = 0, frame = 0
 371              		@ frame_needed = 0, uses_anonymous_args = 0
 372              	.LVL2:
 136:Generated_Source\PSoC4/I2C_SCBCLK.c ****     uint32 maskVal;
 137:Generated_Source\PSoC4/I2C_SCBCLK.c ****     uint32 regVal;
 138:Generated_Source\PSoC4/I2C_SCBCLK.c ****     
 139:Generated_Source\PSoC4/I2C_SCBCLK.c **** #if defined (I2C_SCBCLK__FRAC_MASK) || defined (CYREG_PERI_DIV_CMD)
 140:Generated_Source\PSoC4/I2C_SCBCLK.c ****     
 141:Generated_Source\PSoC4/I2C_SCBCLK.c **** 	/* get all but divider bits */
 142:Generated_Source\PSoC4/I2C_SCBCLK.c ****     maskVal = I2C_SCBCLK_DIV_REG & 
 143:Generated_Source\PSoC4/I2C_SCBCLK.c ****                     (uint32)(~(uint32)(I2C_SCBCLK_DIV_INT_MASK | I2C_SCBCLK_DIV_FRAC_MASK)); 
 144:Generated_Source\PSoC4/I2C_SCBCLK.c **** 	/* combine mask and new divider vals into 32-bit value */
 145:Generated_Source\PSoC4/I2C_SCBCLK.c ****     regVal = maskVal |
 373              		.loc 1 145 0
 374 0000 FF22     		movs	r2, #255
 375 0002 C900     		lsls	r1, r1, #3
 376              	.LVL3:
 377 0004 1140     		ands	r1, r2
 378 0006 0202     		lsls	r2, r0, #8
 379 0008 1143     		orrs	r1, r2
 380 000a 0723     		movs	r3, #7
 381 000c 0800     		movs	r0, r1
 382              	.LVL4:
 135:Generated_Source\PSoC4/I2C_SCBCLK.c ****     uint32 maskVal;
 383              		.loc 1 135 0
 384 000e 30B5     		push	{r4, r5, lr}
 385              		.cfi_def_cfa_offset 12
 386              		.cfi_offset 4, -12
 387              		.cfi_offset 5, -8
 388              		.cfi_offset 14, -4
 142:Generated_Source\PSoC4/I2C_SCBCLK.c ****                     (uint32)(~(uint32)(I2C_SCBCLK_DIV_INT_MASK | I2C_SCBCLK_DIV_FRAC_MASK)); 
ARM GAS  C:\Users\gjl\AppData\Local\Temp\ccgllgtg.s 			page 24


 389              		.loc 1 142 0
 390 0010 024C     		ldr	r4, .L13
 146:Generated_Source\PSoC4/I2C_SCBCLK.c ****         ((uint32)((uint32)clkDivider <<  I2C_SCBCLK_DIV_INT_SHIFT) & I2C_SCBCLK_DIV_INT_MASK) |
 147:Generated_Source\PSoC4/I2C_SCBCLK.c ****         ((uint32)((uint32)clkFractional << I2C_SCBCLK_DIV_FRAC_SHIFT) & I2C_SCBCLK_DIV_FRAC_MASK);
 148:Generated_Source\PSoC4/I2C_SCBCLK.c ****     
 149:Generated_Source\PSoC4/I2C_SCBCLK.c **** #else
 150:Generated_Source\PSoC4/I2C_SCBCLK.c ****     /* get all but integer divider bits */
 151:Generated_Source\PSoC4/I2C_SCBCLK.c ****     maskVal = I2C_SCBCLK_DIV_REG & (uint32)(~(uint32)I2C_SCBCLK__DIVIDER_MASK);
 152:Generated_Source\PSoC4/I2C_SCBCLK.c ****     /* combine mask and new divider val into 32-bit value */
 153:Generated_Source\PSoC4/I2C_SCBCLK.c ****     regVal = clkDivider | maskVal;
 154:Generated_Source\PSoC4/I2C_SCBCLK.c ****     
 155:Generated_Source\PSoC4/I2C_SCBCLK.c **** #endif /* I2C_SCBCLK__FRAC_MASK || CYREG_PERI_DIV_CMD */
 156:Generated_Source\PSoC4/I2C_SCBCLK.c **** 
 157:Generated_Source\PSoC4/I2C_SCBCLK.c ****     I2C_SCBCLK_DIV_REG = regVal;
 158:Generated_Source\PSoC4/I2C_SCBCLK.c **** }
 391              		.loc 1 158 0
 392              		@ sp needed
 142:Generated_Source\PSoC4/I2C_SCBCLK.c ****                     (uint32)(~(uint32)(I2C_SCBCLK_DIV_INT_MASK | I2C_SCBCLK_DIV_FRAC_MASK)); 
 393              		.loc 1 142 0
 394 0012 2568     		ldr	r5, [r4]
 395              	.LVL5:
 145:Generated_Source\PSoC4/I2C_SCBCLK.c ****         ((uint32)((uint32)clkDivider <<  I2C_SCBCLK_DIV_INT_SHIFT) & I2C_SCBCLK_DIV_INT_MASK) |
 396              		.loc 1 145 0
 397 0014 2B40     		ands	r3, r5
 398              	.LVL6:
 399 0016 1843     		orrs	r0, r3
 400              	.LVL7:
 157:Generated_Source\PSoC4/I2C_SCBCLK.c **** }
 401              		.loc 1 157 0
 402 0018 2060     		str	r0, [r4]
 403              		.loc 1 158 0
 404 001a 30BD     		pop	{r4, r5, pc}
 405              	.L14:
 406              		.align	2
 407              	.L13:
 408 001c 04030140 		.word	1073808132
 409              		.cfi_endproc
 410              	.LFE2:
 411              		.size	I2C_SCBCLK_SetFractionalDividerRegister, .-I2C_SCBCLK_SetFractionalDividerRegister
 412              		.section	.text.I2C_SCBCLK_GetDividerRegister,"ax",%progbits
 413              		.align	1
 414              		.global	I2C_SCBCLK_GetDividerRegister
 415              		.code	16
 416              		.thumb_func
 417              		.type	I2C_SCBCLK_GetDividerRegister, %function
 418              	I2C_SCBCLK_GetDividerRegister:
 419              	.LFB3:
 159:Generated_Source\PSoC4/I2C_SCBCLK.c **** 
 160:Generated_Source\PSoC4/I2C_SCBCLK.c **** 
 161:Generated_Source\PSoC4/I2C_SCBCLK.c **** /*******************************************************************************
 162:Generated_Source\PSoC4/I2C_SCBCLK.c **** * Function Name: I2C_SCBCLK_GetDividerRegister
 163:Generated_Source\PSoC4/I2C_SCBCLK.c **** ********************************************************************************
 164:Generated_Source\PSoC4/I2C_SCBCLK.c **** *
 165:Generated_Source\PSoC4/I2C_SCBCLK.c **** * Summary:
 166:Generated_Source\PSoC4/I2C_SCBCLK.c **** *  Gets the clock divider register value.
 167:Generated_Source\PSoC4/I2C_SCBCLK.c **** *
 168:Generated_Source\PSoC4/I2C_SCBCLK.c **** * Parameters:
ARM GAS  C:\Users\gjl\AppData\Local\Temp\ccgllgtg.s 			page 25


 169:Generated_Source\PSoC4/I2C_SCBCLK.c **** *  None
 170:Generated_Source\PSoC4/I2C_SCBCLK.c **** *
 171:Generated_Source\PSoC4/I2C_SCBCLK.c **** * Returns:
 172:Generated_Source\PSoC4/I2C_SCBCLK.c **** *  Divide value of the clock minus 1. For example, if the clock is set to
 173:Generated_Source\PSoC4/I2C_SCBCLK.c **** *  divide by 2, the return value will be 1.
 174:Generated_Source\PSoC4/I2C_SCBCLK.c **** *
 175:Generated_Source\PSoC4/I2C_SCBCLK.c **** *******************************************************************************/
 176:Generated_Source\PSoC4/I2C_SCBCLK.c **** uint16 I2C_SCBCLK_GetDividerRegister(void)
 177:Generated_Source\PSoC4/I2C_SCBCLK.c **** {
 420              		.loc 1 177 0
 421              		.cfi_startproc
 422              		@ args = 0, pretend = 0, frame = 0
 423              		@ frame_needed = 0, uses_anonymous_args = 0
 424              		@ link register save eliminated.
 178:Generated_Source\PSoC4/I2C_SCBCLK.c ****     return (uint16)((I2C_SCBCLK_DIV_REG & I2C_SCBCLK_DIV_INT_MASK)
 425              		.loc 1 178 0
 426 0000 024B     		ldr	r3, .L16
 179:Generated_Source\PSoC4/I2C_SCBCLK.c ****         >> I2C_SCBCLK_DIV_INT_SHIFT);
 180:Generated_Source\PSoC4/I2C_SCBCLK.c **** }
 427              		.loc 1 180 0
 428              		@ sp needed
 178:Generated_Source\PSoC4/I2C_SCBCLK.c ****     return (uint16)((I2C_SCBCLK_DIV_REG & I2C_SCBCLK_DIV_INT_MASK)
 429              		.loc 1 178 0
 430 0002 1868     		ldr	r0, [r3]
 431 0004 000A     		lsrs	r0, r0, #8
 432 0006 80B2     		uxth	r0, r0
 433              		.loc 1 180 0
 434 0008 7047     		bx	lr
 435              	.L17:
 436 000a C046     		.align	2
 437              	.L16:
 438 000c 04030140 		.word	1073808132
 439              		.cfi_endproc
 440              	.LFE3:
 441              		.size	I2C_SCBCLK_GetDividerRegister, .-I2C_SCBCLK_GetDividerRegister
 442              		.section	.text.I2C_SCBCLK_GetFractionalDividerRegister,"ax",%progbits
 443              		.align	1
 444              		.global	I2C_SCBCLK_GetFractionalDividerRegister
 445              		.code	16
 446              		.thumb_func
 447              		.type	I2C_SCBCLK_GetFractionalDividerRegister, %function
 448              	I2C_SCBCLK_GetFractionalDividerRegister:
 449              	.LFB4:
 181:Generated_Source\PSoC4/I2C_SCBCLK.c **** 
 182:Generated_Source\PSoC4/I2C_SCBCLK.c **** 
 183:Generated_Source\PSoC4/I2C_SCBCLK.c **** /*******************************************************************************
 184:Generated_Source\PSoC4/I2C_SCBCLK.c **** * Function Name: I2C_SCBCLK_GetFractionalDividerRegister
 185:Generated_Source\PSoC4/I2C_SCBCLK.c **** ********************************************************************************
 186:Generated_Source\PSoC4/I2C_SCBCLK.c **** *
 187:Generated_Source\PSoC4/I2C_SCBCLK.c **** * Summary:
 188:Generated_Source\PSoC4/I2C_SCBCLK.c **** *  Gets the clock fractional divider register value.
 189:Generated_Source\PSoC4/I2C_SCBCLK.c **** *
 190:Generated_Source\PSoC4/I2C_SCBCLK.c **** * Parameters:
 191:Generated_Source\PSoC4/I2C_SCBCLK.c **** *  None
 192:Generated_Source\PSoC4/I2C_SCBCLK.c **** *
 193:Generated_Source\PSoC4/I2C_SCBCLK.c **** * Returns:
 194:Generated_Source\PSoC4/I2C_SCBCLK.c **** *  Fractional Divide value of the clock
ARM GAS  C:\Users\gjl\AppData\Local\Temp\ccgllgtg.s 			page 26


 195:Generated_Source\PSoC4/I2C_SCBCLK.c **** *  0 if the fractional divider is not in use.
 196:Generated_Source\PSoC4/I2C_SCBCLK.c **** *
 197:Generated_Source\PSoC4/I2C_SCBCLK.c **** *******************************************************************************/
 198:Generated_Source\PSoC4/I2C_SCBCLK.c **** uint8 I2C_SCBCLK_GetFractionalDividerRegister(void)
 199:Generated_Source\PSoC4/I2C_SCBCLK.c **** {
 450              		.loc 1 199 0
 451              		.cfi_startproc
 452              		@ args = 0, pretend = 0, frame = 0
 453              		@ frame_needed = 0, uses_anonymous_args = 0
 454              		@ link register save eliminated.
 200:Generated_Source\PSoC4/I2C_SCBCLK.c **** #if defined (I2C_SCBCLK__FRAC_MASK)
 201:Generated_Source\PSoC4/I2C_SCBCLK.c ****     /* return fractional divider bits */
 202:Generated_Source\PSoC4/I2C_SCBCLK.c ****     return (uint8)((I2C_SCBCLK_DIV_REG & I2C_SCBCLK_DIV_FRAC_MASK)
 203:Generated_Source\PSoC4/I2C_SCBCLK.c ****         >> I2C_SCBCLK_DIV_FRAC_SHIFT);
 204:Generated_Source\PSoC4/I2C_SCBCLK.c **** #else
 205:Generated_Source\PSoC4/I2C_SCBCLK.c ****     return 0u;
 206:Generated_Source\PSoC4/I2C_SCBCLK.c **** #endif /* I2C_SCBCLK__FRAC_MASK */
 207:Generated_Source\PSoC4/I2C_SCBCLK.c **** }
 455              		.loc 1 207 0
 456 0000 0020     		movs	r0, #0
 457              		@ sp needed
 458 0002 7047     		bx	lr
 459              		.cfi_endproc
 460              	.LFE4:
 461              		.size	I2C_SCBCLK_GetFractionalDividerRegister, .-I2C_SCBCLK_GetFractionalDividerRegister
 462              		.text
 463              	.Letext0:
 464              		.file 2 "Generated_Source\\PSoC4/cytypes.h"