ARM GAS  C:\Users\gjl\AppData\Local\Temp\ccAsK949.s 			page 1


   1              		.syntax unified
   2              		.cpu cortex-m0
   3              		.fpu softvfp
   4              		.eabi_attribute 20, 1
   5              		.eabi_attribute 21, 1
   6              		.eabi_attribute 23, 3
   7              		.eabi_attribute 24, 1
   8              		.eabi_attribute 25, 1
   9              		.eabi_attribute 26, 1
  10              		.eabi_attribute 30, 4
  11              		.eabi_attribute 34, 0
  12              		.eabi_attribute 18, 4
  13              		.thumb
  14              		.syntax unified
  15              		.file	"Red.c"
  16              		.text
  17              	.Ltext0:
  18              		.section	.gnu.lto_.profile.50a29e1b,"",%progbits
  19 0000 789C6361 		.ascii	"x\234ca`d`a`\000\222\352\212\000\000\331\000S"
  19      60646061 
  19      600092EA 
  19      8A0000D9 
  19      0053
  20              		.text
  21              		.section	.gnu.lto_.icf.50a29e1b,"",%progbits
  22 0000 789C6361 		.ascii	"x\234ca`d\000\001U\006\004`c\330\370\373\314\">\306"
  22      60640001 
  22      55060460 
  22      63D8F8FB 
  22      CC223EC6 
  23 0014 6B5FFABB 		.ascii	"k_\372\273X\231Z\326\357\272\311\307|\356\312}y\226"
  23      58995AD6 
  23      EFBAC9C7 
  23      7CEECA7D 
  23      7996
  24 0026 5D877E5F 		.ascii	"]\207~_\342c}\263a\312<n\006\000Z9\021\364"
  24      E2637DB3 
  24      61CA3C6E 
  24      06005A39 
  24      11F4
  25              		.text
  26              		.section	.gnu.lto_.jmpfuncs.50a29e1b,"",%progbits
  27 0000 789C45C9 		.ascii	"x\234E\311\261\001\000 \010\300\260\026\320+\374\225"
  27      B1010020 
  27      08C0B016 
  27      D02BFC95 
  28 0010 D795C90C 		.ascii	"\327\225\311\014]Z\3108|\033\265\235\004$Thv\257\367"
  28      5D5AC838 
  28      7C1BB59D 
  28      04245468 
  28      76AFF7
  29 0023 2E215502 		.ascii	".!U\002@"
  29      40
  30              		.text
  31              		.section	.gnu.lto_.inline.50a29e1b,"",%progbits
  32 0000 789C658D 		.ascii	"x\234e\215\311\015\2000\014\004\327\216\343\030\011"
  32      C90D8030 
ARM GAS  C:\Users\gjl\AppData\Local\Temp\ccAsK949.s 			page 2


  32      0C04D78E 
  32      E31809
  33 000f 093A4807 		.ascii	"\011:H\007\224@\245<R\012%P\012%`\203\004B\231\307>"
  33      9440A53C 
  33      520A2550 
  33      0A256083 
  33      044299C7 
  34 0024 767C0808 		.ascii	"v|\010\010\301\206\017\005\254\020\301\\%\333Wh\253"
  34      C1860F05 
  34      AC10C15C 
  34      25DB5768 
  34      AB
  35 0035 0C3E2609 		.ascii	"\014>&\011K\030\254\223\322\352-\031\232\011\254\347"
  35      4B18AC93 
  35      D2EA2D19 
  35      9A09ACE7 
  36 0045 F2F44EEA 		.ascii	"\362\364N\352+\211\023\214\331OP\204\374\237x\2141\226"
  36      2B89138C 
  36      D94F5084 
  36      FC9F788C 
  36      3196
  37 0057 51D4375F 		.ascii	"Q\3247_\031\\\353\300\017\342"
  37      195CEBC0 
  37      0FE2
  38              		.text
  39              		.section	.gnu.lto_.pureconst.50a29e1b,"",%progbits
  40 0000 789C6361 		.ascii	"x\234ca`d\340e```c\220b\224b\222b\226b\221b\225\002"
  40      6064E065 
  40      60606063 
  40      90629462 
  40      92629662 
  41 0018 00059500 		.ascii	"\000\005\225\000\304"
  41      C4
  42              		.text
  43              		.section	.gnu.lto_Red_SetDriveMode.50a29e1b,"",%progbits
  44 0000 789C7D51 		.ascii	"x\234}Q\317+DQ\030\375\316\275o\336\220PV\312(\013%"
  44      CF2B4451 
  44      18FDCEBD 
  44      6FDE9050 
  44      56CA280B 
  45 0015 1B29FE03 		.ascii	"\033)\376\003\013[\231-I\346-\231\022kw\346y\221\015"
  45      0B5B992D 
  45      49E62D99 
  45      126B77E6 
  45      79910D
  46 0028 E5472C64 		.ascii	"\345G,d%\277\177\245H\250i\304FQ\026\354\220\305+J\215"
  46      25BF7FA5 
  46      48A869C4 
  46      465116EC 
  46      90C52B4A 
  47 003d 5F25E1F9 		.ascii	"_%\341\371\2767\263v\353~\337wO\347\234\316\275\327"
  47      BE37B376 
  47      EB7EDF77 
  47      4FE79CCE 
  47      BDD7
  48 004f 2290AC13 		.ascii	"\"\220\254\023n\265\334\253xC\023\324\304\005Q\252H"
  48      6EB5DCAB 
ARM GAS  C:\Users\gjl\AppData\Local\Temp\ccAsK949.s 			page 3


  48      784313D4 
  48      C40551AA 
  48      48
  49 0060 01329822 		.ascii	"\0012\230\"\320\220\302\020>\324\217Bv\304?P\365K\206"
  49      D090C210 
  49      3ED48F42 
  49      76C43F50 
  49      F54B86
  50 0073 D7BDE7B7 		.ascii	"\327\275\347\267\245\214W\351i\242@\205N\204%\3243\353"
  50      A58C57E9 
  50      69A24085 
  50      4E8425D4 
  50      33EB
  51 0085 6D7771B2 		.ascii	"mwq\262D\327\200x~\271\310\335\226\325-\032\2236f\262"
  51      44D78078 
  51      7EB9C8DD 
  51      96D52D1A 
  51      933666B2 
  52 0099 D3684F03 		.ascii	"\323hO\003\313\320\254@S\014\2151b\200\260\202:!?\354"
  52      CBD0AC40 
  52      530C8D31 
  52      6280B082 
  52      3A213FEC 
  53 00ad FC4E97DA 		.ascii	"\374N\227\332\303b_\2237\305*l\211\271\325\2361A\340"
  53      C3625F93 
  53      37C52A6C 
  53      89B9D59E 
  53      3141E0
  54 00c0 9ACCAE7D 		.ascii	"\232\314\256}\272g\027+\226)-\305\202\210#2\332R\242"
  54      BA67172B 
  54      96292DC5 
  54      82882332 
  54      DA52A2
  55 00d3 528872BC 		.ascii	"R\210r\274%\376\213R\322\265\217\354\327\330\365\234"
  55      25FE8B52 
  55      D2B58FEC 
  55      D7D8F59C 
  56 00e3 2D7EAE96 		.ascii	"-~\256\226\253\314x\331\313\350\273\362\264\016s\256"
  56      ABCC78D9 
  56      CBE8BBF2 
  56      B40E73AE 
  57 00f3 3CDE1C97 		.ascii	"<\336\034\227\346\217\243f\302X\014]\335\036\336\351"
  57      E68FA366 
  57      C2580C5D 
  57      DD1EDEE9 
  58 0103 05CCA786 		.ascii	"\005\314\247\206\341i\013\353\210a\0151\316\264\201"
  58      E1690BEB 
  58      88610D31 
  58      CEB481
  59 0112 05900FF7 		.ascii	"\005\220\017\367\273`\247\363\216\317\347S\263\345b"
  59      BB60A7F3 
  59      8ECFE753 
  59      B3E562
  60 0121 A11004E3 		.ascii	"\241\020\004\343A96\231\355#\375\032\315\323\"\256\266"
  60      41393699 
  60      ED23FD1A 
  60      CDD322AE 
ARM GAS  C:\Users\gjl\AppData\Local\Temp\ccAsK949.s 			page 4


  60      B6
  61 0132 44962BC8 		.ascii	"D\226+\310\004b\331\316\375\367\221%\262\010*\260\025"
  61      0462D9CE 
  61      FDF79125 
  61      B2082AB0 
  61      15
  62 0143 4ADCCF02 		.ascii	"J\334\317\002%\032\232\333\014eg \320\177\261\2669\026"
  62      251A9ADB 
  62      0C656720 
  62      D07FB1B6 
  62      3916
  63 0155 4BE809E9 		.ascii	"K\350\011\351\314\376\231\022z\370+9\005y\003~\221\352"
  63      CCFE9912 
  63      7AF82B39 
  63      0579037E 
  63      91EA
  64 0167 56A7CFE9 		.ascii	"V\247\317\351\357\036p\022]\361\344`\177\217\323\321"
  64      EF1E7012 
  64      5DF1E460 
  64      7F8FD3D1 
  65 0177 164FB634 		.ascii	"\026O\2664w\264;\211\206\036\262z\223\011\347\017\370"
  65      77B43B89 
  65      861EB27A 
  65      9309E70F 
  65      F8
  66 0188 459DC8   		.ascii	"E\235\310"
  67              		.text
  68              		.section	.gnu.lto_Red_Write.50a29e1b,"",%progbits
  69 0000 789C5551 		.ascii	"x\234UQMk\023Q\024\275\347\275\231\314\224\320\376\001"
  69      4D6B1351 
  69      14BDE7BD 
  69      99CC94D0 
  69      FE01
  70 0012 53C8A696 		.ascii	"S\310\246\226\"HA\227\356\\t+-\270\012Jhf#\301B\260"
  70      22484197 
  70      EE5C742B 
  70      2DB80A4A 
  70      686623C1 
  71 0028 5DDA97A4 		.ascii	"]\332\227\244I@\021\252`\355\242\246\250H\352G\215U"
  71      494011AA 
  71      60EDA2A6 
  71      A848EA47 
  71      8D55
  72 003a 1014C171 		.ascii	"\020\024\301q6\335HE\024Q\254\"E#\272\212b\265Xk\274"
  72      36DD4845 
  72      1451AC22 
  72      4523BA8A 
  72      62B5586B 
  73 004f 77DEA679 		.ascii	"w\336\246y\314\373\2303\347\234w\356\035\207@2N(\242"
  73      CCFB9833 
  73      E79C77EE 
  73      1D874032 
  73      4E28A2
  74 0062 7DBCEFE1 		.ascii	"}\274\357\341\011MP\263kDE_\001r0>hZa\032\233jG!\252"
  74      094D50B3 
  74      6B44455F 
  74      0172303E 
ARM GAS  C:\Users\gjl\AppData\Local\Temp\ccAsK949.s 			page 5


  74      685A611A 
  75 007b B51EAAA1 		.ascii	"\265\036\252\241\206\341\361\361\363\357a\263\024\242"
  75      86E1F1F1 
  75      F3EF61B3 
  75      14A2
  76 0089 A2893A2A 		.ascii	"\242\211:*v\"40\304\254/\217k\257\240\323 >W\243\315"
  76      76223430 
  76      C4AC2F8F 
  76      6BAFA0D3 
  76      203E57A3 
  77 009e 7672F0BA 		.ascii	"vr\360\2721%c\336g\214\256h`\011\232\0258\220\302p\212"
  77      312563DE 
  77      678CAE68 
  77      60099A15 
  77      3890C270 
  78 00b3 1820DCC0 		.ascii	"\030 \334\300\240\220\277Fg\363zo\254[}p\276\203\201"
  78      A090BF46 
  78      67F37A6F 
  78      AC5B7D70 
  78      BE8381
  79 00c6 6BA20B5F 		.ascii	"k\242\013_\256\366^2a1-\332\233\273\2652\230\273\261"
  79      AEF65E32 
  79      61312DDA 
  79      9BBBB532 
  79      98BBB1
  80 00d9 F2EF626F 		.ascii	"\362\357bobFR\245q\013\0036\017n#\301\025B\220\346h"
  80      624652A5 
  80      710B0336 
  80      0F6E23C1 
  80      154290E6 
  81 00ee 683A9DB2 		.ascii	"h:\235\262\011_xO\337xI\305\267*\315\213vH>\273\220"
  81      095F784F 
  81      DF7849C5 
  81      B72ACD8B 
  81      76483EBB 
  82 0103 0409013C 		.ascii	"\004\011\001<Y\374\030\355\021\026Q\233\247t\342\273"
  82      59FC18ED 
  82      1116519B 
  82      A774E2BB 
  83 0113 52B2EB16 		.ascii	"R\262\353\026\242?g\326\352S\342_\326\322\225\271J\364"
  83      A23F67D6 
  83      EA53E25F 
  83      D6D295B9 
  83      4AF4
  84 0125 DCFBA92A 		.ascii	"\334\373\251*\332\211\243\277\333j\356$\355\2531\263"
  84      DA89A3BF 
  84      DB6AEE24 
  84      EDAB31B3 
  85 0135 C661A831 		.ascii	"\306a\2501\377\354\364\".\027g\270].\356 \205ep|4\261"
  85      FFECF422 
  85      2E1767B8 
  85      5D2EEE20 
  85      8565707C 
  86 014b 086AA1F4 		.ascii	"\010j\241\364\243\266\256\254\237fKF\312\177\253\353"
  86      A3B6AEAC 
  86      9F664B46 
  86      CA7FABEB 
ARM GAS  C:\Users\gjl\AppData\Local\Temp\ccAsK949.s 			page 6


  87 015b B088C320 		.ascii	"\260\210\303 [,l_\230\367\305U\343\011p\227\345\033"
  87      5B2C6C5F 
  87      98F7C555 
  87      E3097097 
  87      E51B
  88 016d 88351295 		.ascii	"\2105\022\225Y\"jW_\327\217Y\025?.\253>m/?\352\023U"
  88      59226A57 
  88      5FD78F59 
  88      153F2EAB 
  88      3E6D2F3F 
  89 0184 82892B2C 		.ascii	"\202\211+,\352\262\366\230\307\244\253\277\312\347\342"
  89      EAB2F698 
  89      C7A4ABBF 
  89      CAE7E2
  90 0193 C04048B8 		.ascii	"\300@H\270gY[\011\313\361\343\004^\367m\276\015\375"
  90      67595B09 
  90      CBF1E304 
  90      5EF76DBE 
  90      0DFD
  91 01a5 A17EC892 		.ascii	"\241~\310\222z,\024\315]\351\023`w\305Ec\222\335E\337"
  91      7A2C14CD 
  91      5DE91360 
  91      77C54563 
  91      92DD45DF 
  92 01b9 E7A25942 		.ascii	"\347\242YB\337P\012\337\216\010?\376\221m\005\351/w"
  92      DF500ADF 
  92      8E083FFE 
  92      916D05E9 
  92      2F77
  93 01cb BB7F2438 		.ascii	"\273\177$8\031\024\262\247\202\334\361\261\211\311\302"
  93      1914B2A7 
  93      82DCF1B1 
  93      89C9C2
  94 01da 78903932 		.ascii	"x\220926q\370`f4\310\355\037'w*\233\237\014\334\\\341"
  94      3671F860 
  94      6634C8ED 
  94      1F27772A 
  94      9B9F0CDC 
  95 01f0 6836FF1F 		.ascii	"h6\377\037n\274\322i"
  95      6EBCD269 
  96              		.text
  97              		.section	.gnu.lto_Red_Read.50a29e1b,"",%progbits
  98 0000 789C2D8F 		.ascii	"x\234-\217\277K\202a\020\307\357\373<\257&B\375\003"
  98      BF4B8261 
  98      10C7EFFB 
  98      3CAF2642 
  98      FD03
  99 0012 19B5BA44 		.ascii	"\031\265\272DPKSCPk\350\026B\204\276k\202\324\354\243"
  99      504B5343 
  99      506BE816 
  99      4284BE6B 
  99      82D4ECA3 
 100 0026 AFAF4134 		.ascii	"\257\257A4\270TS\010\015\251\225D\024\015\265\230\010"
 100      B8545308 
 100      0DA99544 
 100      140DB598 
 100      08
ARM GAS  C:\Users\gjl\AppData\Local\Temp\ccAsK949.s 			page 7


 101 0037 05513605 		.ascii	"\005Q6\005ME\210CSI\021\364\313\356\324\203\347\271"
 101      4D458843 
 101      534911F4 
 101      CBEED483 
 101      E7B9
 102 0049 E79EFBDC 		.ascii	"\347\236\373\334}\357,\002\211M\261\033f?\310\007\232"
 102      7DEF2C02 
 102      894DB11B 
 102      663FC807 
 102      9A
 103 005a A072B744 		.ascii	"\240r\267D)\237\002\344a|\240\244B\022\037\352W\341"
 103      299F02E4 
 103      617CA0A4 
 103      42121FEA 
 103      57E1
 104 006c FAF36ADD 		.ascii	"\372\363j\335\037,\030\2236O\356\356\344V\261\002W\023"
 104      1F2C1893 
 104      364FEEEE 
 104      E456B102 
 104      5713
 105 007e B515613C 		.ascii	"\265\025a<\200\261\200\264( H\214>\037\375m\364{3\206"
 105      80B180B4 
 105      2820488C 
 105      3E1FFD6D 
 105      F47B3386 
 106 0092 6D4400CE 		.ascii	"mD\000\316\024\341\025\311\303P\305\264\333\216\251"
 106      14E115C9 
 106      C350C5B4 
 106      DB8EA9
 107 00a1 1CFB2F4E 		.ascii	"\034\373/N\375\374\345j\326\345\313\222\313C\322\221"
 107      FDFCE56A 
 107      D6E5CB92 
 107      CB43D291 
 108 00b1 5EB942F4 		.ascii	"^\271B\364\337\224\022\257\233\250~\255\335\227\346"
 108      DF9412AF 
 108      9BA87EAD 
 108      DD97E6
 109 00c0 A589A335 		.ascii	"\245\211\2435\013l\272\325z\337\273r\265\202\350=\326"
 109      0B6CBAD5 
 109      7ADFBB72 
 109      B582E83D 
 109      D6
 110 00d1 CF73BD30 		.ascii	"\317s\2750cr\306\342\257\235\207\273\033\235\307v*\303"
 110      6372C6E2 
 110      AF9D87BB 
 110      1B9DC776 
 110      2AC3
 111 00e3 536AEC21 		.ascii	"Sj\354!\200\022xF\354#\017j\302i\315\220\243\321m\327"
 111      80127846 
 111      EC230F6A 
 111      C269CD90 
 111      A3D16DD7 
 112 00f7 F82E9F0D 		.ascii	"\370.\237\015H\275\305S\0360\306\371\237l\315\323\025"
 112      48BDC553 
 112      1E30C6F9 
 112      9F6CCDD3 
 112      15
ARM GAS  C:\Users\gjl\AppData\Local\Temp\ccAsK949.s 			page 8


 113 0108 B49863E8 		.ascii	"\264\230c\350\244v\231\365\011\004\266r\007J\267V\033"
 113      A47699F5 
 113      0904B672 
 113      074AB756 
 113      1B
 114 0119 E8421EE6 		.ascii	"\350B\036\346\350\005\252\027Qg\015\310\370\274\314"
 114      E805AA17 
 114      51670DC8 
 114      F8BCCC
 115 0128 D0ACBD64 		.ascii	"\320\254\275d'\026\227\355\330B8\276\222\210\332\221"
 115      271697ED 
 115      D84238BE 
 115      9288DA91 
 116 0138 B9707C7A 		.ascii	"\271p|z\"\022\262c\243Q\372\007\346\035sT"
 116      2212B263 
 116      A351FA07 
 116      E61D7354 
 117              		.text
 118              		.section	.gnu.lto_Red_ReadDataReg.50a29e1b,"",%progbits
 119 0000 789C2D8F 		.ascii	"x\234-\217MKBQ\020\206\347=\347j\222\324\037\310\250"
 119      4D4B4251 
 119      1086E73D 
 119      E76A92D4 
 119      1FC8A8
 120 0013 AD9B086A 		.ascii	"\255\233\010j\323\246MP\333\320]\010\021z\267\011R\333"
 120      D3A64D50 
 120      DBD05D08 
 120      117AB709 
 120      52DB
 121 0025 3C7ABD06 		.ascii	"<z\275\006\321\302M\037\020\345R+E\242V\255L\204\202"
 121      D1C24D1F 
 121      10E5522B 
 121      45A256AD 
 121      4C8482
 122 0038 A27E409B 		.ascii	"\242~@\233\010q\321\252\244/*\263\031m\340\2349s\346"
 122      0871D1AA 
 122      A42F2AB3 
 122      196DE09C 
 122      3973E6
 123 004b 9979672C 		.ascii	"\231yg,\002\211M\263\033a?\304\007\232\240r\267D)\237"
 123      02894DB3 
 123      1B613FC4 
 123      079AA072 
 123      B744299F 
 124 005f 02E4617C 		.ascii	"\002\344a|\240\244B\022o\252\255p\375q\265\331\037,"
 124      A0A44212 
 124      6FAAAD70 
 124      FD71B5D9 
 124      1F2C
 125 0071 1893360F 		.ascii	"\030\2236\017\356\351\324N\261\012W\023u\024a\"\200"
 125      EEE9D44E 
 125      B10A5713 
 125      75146122 
 125      80
 126 0082 F180B428 		.ascii	"\361\200\264( H\214>\236\374n\015x3\206mT\000\316\024"
 126      20488C3E 
 126      9EFC6E0D 
ARM GAS  C:\Users\gjl\AppData\Local\Temp\ccAsK949.s 			page 9


 126      7833866D 
 126      5400CE14 
 127 0096 E115C94A 		.ascii	"\341\025\311J\250j:\035\307T\367\374\027\007~\376r5"
 127      A86A3A1D 
 127      C754F7FC 
 127      17077EFE 
 127      7235
 128 00a8 EBF265C9 		.ascii	"\353\362e\311\345!\351H\317\\!\372/J\211\327M\324\276"
 128      E521E948 
 128      CF5C21FA 
 128      2F4A89D7 
 128      4DD4BE
 129 00bb 36DE4B0B 		.ascii	"6\336K\013\322\304\321\232\005\266\335\332]\337\253"
 129      D2C4D19A 
 129      05B6DDDA 
 129      5DDFAB
 130 00ca 72B582E8 		.ascii	"r\265\202\350\335\177V\332\376^hL\316X\374U\330\275"
 130      DD7F56DA 
 130      FE5E684C 
 130      CE58FC55 
 130      D8BD
 131 00dc 59CB633F 		.ascii	"Y\313c?\225\341!5\216\020\300!xD\034#\017j\302i\315"
 131      95E12135 
 131      8E10C021 
 131      78441C23 
 131      0F6AC269 
 132 00f1 92A3D1EB 		.ascii	"\222\243\321\353\326\370.\237\017J\271\305C\226\030"
 132      D6F82E9F 
 132      0F4AB9C5 
 132      439618
 133 0100 E3FC4FB6 		.ascii	"\343\374O\266\356\351\351Y\3141tV\277\314\372\004\002"
 133      EEE9E959 
 133      CC317456 
 133      BFCCFA04 
 133      02
 134 0111 5BB90BA5 		.ascii	"[\271\013\245[\353\015\364 \017s\364\004\365\037Qw\013"
 134      5BEB0DF4 
 134      200F73F4 
 134      04F51F51 
 134      770B
 135 0123 C8F4BCCB 		.ascii	"\310\364\274\313\360\234\275l'\226V\354\330b8\276\232"
 135      F09CBD6C 
 135      279656EC 
 135      D86238BE 
 135      9A
 136 0134 88DA91F9 		.ascii	"\210\332\221\371p|f2\022\262ccQ\372\003\2425sI"
 136      707C6632 
 136      12B26363 
 136      51FA03A2 
 136      357349
 137              		.text
 138              		.section	.gnu.lto_Red_SetInterruptMode.50a29e1b,"",%progbits
 139 0000 789C6D51 		.ascii	"x\234mQMk\023Q\024\275\367\275If\222\264S\027\356\254"
 139      4D6B1351 
 139      14BDF7BD 
 139      496692B4 
 139      5317EEAC 
ARM GAS  C:\Users\gjl\AppData\Local\Temp\ccAsK949.s 			page 10


 140 0014 904D09D9 		.ascii	"\220M\011\331\024\004\375\005]\270\223\322n\013R\232"
 140      1404FD05 
 140      5DB893D2 
 140      6E0B529A 
 141 0024 51229848 		.ascii	"Q\"\230H\214\353\276d\362\001E\244\2646`\261\024+C\252"
 141      8CEBBE64 
 141      F20145A4 
 141      B43660B1 
 141      142B43AA 
 142 0038 55FBA960 		.ascii	"U\373\251`q1\006\334\371U\253\224*\210TL\241t\221VE"
 142      713106DC 
 142      F955AB94 
 142      2A88544C 
 142      A1749156 
 143 004d 91DA78EF 		.ascii	"\221\332x\357L6\005\037\314\274w\017\347\234w\356}\032"
 143      4C36051F 
 143      CCBC770F 
 143      E79C77EE 
 143      7D1A
 144 005f 20F0AA0A 		.ascii	" \360\252\012\2003\264\237\240\017%\240\030}\015\220"
 144      8033B49F 
 144      A00F25A0 
 144      187D0D90 
 145 006f 3304221F 		.ascii	"3\004\"\037\224\2010,p\030\177\212\277\002k\345\372"
 145      9481302C 
 145      70187F8A 
 145      BF026BE5 
 145      FA
 146 0080 5311AF2A 		.ascii	"S\021\257*Z_\276m\237R\263.\026%@SxN\200U\214\023\353"
 146      5A5FBE6D 
 146      9F52B32E 
 146      16254053 
 146      784E8055 
 147 0097 45F397DB 		.ascii	"E\363\227\333\361C\024%\"\213\3365^NE\270\024x\214\312"
 147      F1431425 
 147      228BDE35 
 147      5E4E45B8 
 147      14788CCA 
 148 00ab C91DA762 		.ascii	"\311\035\247b\312(\002\235\267Wf6\3021G\251\274R\023"
 148      CA28029D 
 148      B7576636 
 148      C23147A9 
 148      BC5213
 149 00be 832A5094 		.ascii	"\203*P\224\022\357\243$?\274\207\2358\213\235@\020\340"
 149      12EFA324 
 149      3FBC879D 
 149      388B9D40 
 149      10E0
 150 00d0 1CC688FD 		.ascii	"\034\306\210\375}\331\031\217\310\270\247\334\267\035"
 150      7DD9198F 
 150      C8B8A7DC 
 150      B71D
 151 00de BBADA5DC 		.ascii	"\273\255\245\334h)\037\374G\371\020cL_+,\334\226~$\215"
 151      68291FFC 
 151      47F91063 
 151      4C5F2B2C 
 151      DC967E24 
ARM GAS  C:\Users\gjl\AppData\Local\Temp\ccAsK949.s 			page 11


 152 00f3 CABD5793 		.ascii	"\312\275W\223_M?R\224\3129\347\203#d\267g<\2629\266"
 152      5F4D3F52 
 152      94CA39E7 
 152      832364B7 
 152      673CB239 
 153 0108 D4DE7597 		.ascii	"\324\336u\227\215\335\365\033\346-\345\026\242E\251"
 153      8DDDF51B 
 153      E62DE516 
 153      A245A9
 154 0117 E1826F3E 		.ascii	"\341\202o>O\346\217\310\234\027\261\267\026\017'\332"
 154      4FE68FC8 
 154      9C17B1B7 
 154      160F27DA 
 155 0127 83051E48 		.ascii	"\203\005\036H\024\027\261\313\037\005.a\220\206\213"
 155      1417B1CB 
 155      1F052E61 
 155      90868B
 156 0136 8CCCF7B9 		.ascii	"\214\314\367\271\252\331\264\225\273f>\377h\266\011"
 156      AAD9B495 
 156      BB663EFF 
 156      68B609
 157 0145 8A15A014 		.ascii	"\212\025\240\024\324\221\306\307\000\377\202\300L\035"
 157      D491C6C7 
 157      00FF82C0 
 157      4C1D
 158 0153 39AD4140 		.ascii	"9\255A@0\304h\230\177\000\015r\344\227\330\023\202w"
 158      30C46898 
 158      7F000D72 
 158      E497D813 
 158      8277
 159 0165 59C7DA9F 		.ascii	"Y\307\332\237\221\317\253\275|\211-y\300\225b\355\215"
 159      91CFABBD 
 159      7C892D79 
 159      C09562ED 
 159      8D
 160 0176 CEDDE85E 		.ascii	"\316\335\350^\007\345\231\365K~u]\215*nW\335\334|\333"
 160      07E599F5 
 160      4B7E755D 
 160      8D2A6E57 
 160      DDDC7CDB 
 161 018a 318D53B9 		.ascii	"1\215S\271\002=\227\201+\324\3032\367\200\217q\032\241"
 161      023D9781 
 161      2BD4C332 
 161      F7808F71 
 161      1AA1
 162 019c 8EF9FDF2 		.ascii	"\216\371\375\362\201\346\373i6M\215\220\303\322\256"
 162      81E6FB69 
 162      364D8D90 
 162      C3D2AE
 163 01ab F4910081 		.ascii	"\364\221\000\201\204\330\007\245]\364\021\276\226p\330"
 163      84D807A5 
 163      5DF411BE 
 163      9670D8
 164 01ba 42E1754A 		.ascii	"B\341uJ\331\011\3649\365\325g-\226AN\266\324={\335\207"
 164      D909F439 
 164      F5D5672D 
 164      96414EB6 
ARM GAS  C:\Users\gjl\AppData\Local\Temp\ccAsK949.s 			page 12


 164      D43D7BDD 
 165 01cf 428432ED 		.ascii	"B\2042\355w\351}\313<\354\271\205\010\254U\356\034g"
 165      77E97DCB 
 165      3CECB985 
 165      08AC55EE 
 165      1C67
 166 01e1 EC48DC9C 		.ascii	"\354H\334\234R\221\243\211\237Pb\222\301\016\346\335"
 166      5291A389 
 166      9F506292 
 166      C10EE6DD 
 167 01f1 4FE758E0 		.ascii	"O\347X\340=EC \017\207Fu\362\254\225\2622\203Y+q\276"
 167      3D454320 
 167      0F874675 
 167      F2AC95B2 
 167      3283592B 
 168 0207 3F7D2D33 		.ascii	"?}-3d\015\364\366\247{N\017\364Y\211\356!0\256\244\257"
 168      640DF4F6 
 168      A77B4E0F 
 168      F45989EE 
 168      2130AEA4 
 169 021c 26B3C974 		.ascii	"&\263\311tJ\273\234NXz2\225\315\364\\\270\370\017\237"
 169      4ABB9C4E 
 169      587A3295 
 169      CDF45CB8 
 169      F80F9F
 170 022f B6EB08   		.ascii	"\266\353\010"
 171              		.text
 172              		.section	.gnu.lto_Red_ClearInterrupt.50a29e1b,"",%progbits
 173 0000 789C5590 		.ascii	"x\234U\220\313K[Q\020\306\347;\347\346\201\230\372\007"
 173      CB4B5B51 
 173      10C6E73B 
 173      E7E68198 
 173      FA07
 174 0012 3442362E 		.ascii	"4B6.\004\221B\273h\301\235\013\267\305l\005\011\311"
 174      049142BB 
 174      68C19D0B 
 174      B7C56C05 
 174      09C9
 175 0024 5D490D68 		.ascii	"]I\015h\334\232s\215W\213\010fS]\211\213B\343\2431m"
 175      DC9A738D 
 175      578B0866 
 175      535D898B 
 175      42E3A331 
 176 0039 418494C8 		.ascii	"A\204\224\3105\210\210E\205\376\001\245\244EJAi}B}\244"
 176      35888845 
 176      85FE01A5 
 176      A4454A41 
 176      697D427D 
 177 004e 33B92EF4 		.ascii	"3\271.\364\300e\316\231;\337o\276\031\213@r\276q\350"
 177      C065CE99 
 177      3BDF6FBE 
 177      198B4072 
 177      BE71E8
 178 0061 E0F8983F 		.ascii	"\340\370\230?h\202\312\357\0239a\005\310\305\204AY\205"
 178      6882CAEF 
 178      13396105 
 178      C8C58441 
ARM GAS  C:\Users\gjl\AppData\Local\Temp\ccAsK949.s 			page 13


 178      5985
 179 0073 2CCED58D 		.ascii	",\316\325\215\302\227\313\235\351\246\366\2021c\346"
 179      C297CB9D 
 179      E9A6F682 
 179      3163E6
 180 0082 BB7BF962 		.ascii	"\273{\371bn\321\203\253\211\352\212\3604\212'QA\024"
 180      6ED183AB 
 180      89EA8AF0 
 180      348A2751 
 180      4114
 181 0094 D04E5CFA 		.ascii	"\320N\\\372c\365\252\020\3211\310}\357\335\321\032\332"
 181      63F5AA10 
 181      D131C87D 
 181      EFDDD11A 
 181      DA
 182 00a5 DE8ACCAB 		.ascii	"\336\212\314\253\3144\317\031\317\211\261\016\213\320"
 182      CC34CF19 
 182      CF89B10E 
 182      8BD0
 183 00b3 F7A524B5 		.ascii	"\367\245$\265\265\217\267o\"\301q\303'\206%\264\011"
 183      B58FB76F 
 183      22C171C3 
 183      278625B4 
 183      09
 184 00c4 9CA9CB08 		.ascii	"\234\251\313\010\262OH\246\324\353\231z=g\274\317-\233"
 184      B24F48A6 
 184      D4EB997A 
 184      3D67BCCF 
 184      2D9B
 185 00d6 5F5BC28A 		.ascii	"_[\302\212\\\315\276]\255,\222\337\001y\207H|\321\037"
 185      5CCDBE5D 
 185      AD2C92DF 
 185      01798748 
 185      7CD11F
 186 00e9 D6CA147F 		.ascii	"\326\312\024\177\225\222\250\017Q\3757uQ\031\025\\N"
 186      9592A80F 
 186      51FD3775 
 186      5119155C 
 186      4E
 187 00fa CB44B36E 		.ascii	"\313D\263n\365 t\246\\\255\033N\313\257K\237\302\376"
 187      F52074A6 
 187      5CAD1B4E 
 187      CBAF4B9F 
 187      C2FE
 188 010c 336FF2C6 		.ascii	"3o\362\306\342\324\257Sg7\270\200yg\234g\265\360\036"
 188      E2D4AF53 
 188      6737B880 
 188      79679C67 
 188      B5F01E
 189 011f 51AC80ED 		.ascii	"Q\254\200\355\242\210\005\320!\306N&\257\225\017\324"
 189      A28805D0 
 189      21C64E26 
 189      AF950FD4 
 190 012f CCE44CEE 		.ascii	"\314\344L\356zb\013~\306\342$3\326\217W\326#\202U\360"
 190      7A620B7E 
 190      C6E22433 
 190      D68F57D6 
ARM GAS  C:\Users\gjl\AppData\Local\Temp\ccAsK949.s 			page 14


 190      238255F0 
 191 0143 08AB2CAF 		.ascii	"\010\253,\257\241\241\021\303\\\345cn+]\276*\340\247"
 191      A1A111C3 
 191      5CE5636E 
 191      2B5DBE2A 
 191      E0A7
 192 0155 AAB30DCA 		.ascii	"\252\263\015\312\003\017\2161\201\2076Jl\203%\322\367"
 192      030F8E31 
 192      8187364A 
 192      6C8325D2 
 192      F7
 193 0166 64627BE3 		.ascii	"db{\343\271\217\0101\202\205?\257\212\345G\3228\300"
 193      B98F0831 
 193      82853FAF 
 193      8AE547D2 
 193      38C0
 194 0178 BD3E70FD 		.ascii	"\275>p\375o\334y\015Qc?\220\275\360\226Z{\354A{(\221"
 194      6FDC790D 
 194      51633F90 
 194      BDF0965A 
 194      7BEC417B 
 195 018e B153FDF1 		.ascii	"\261S\375\361\364\310P\322\356{\031Ow?\353\353\265S"
 195      F4C850D2 
 195      EE7B194F 
 195      773FEBEB 
 195      B553
 196 01a0 9D496A7E 		.ascii	"\235Ij~\225\030\036\260S\361L\"32\374\037\023\177\253"
 196      95181EB0 
 196      53F14C22 
 196      3332FC1F 
 196      137FAB
 197 01b3 22       		.ascii	"\""
 198              		.text
 199              		.section	.gnu.lto_.symbol_nodes.50a29e1b,"",%progbits
 200 0000 789C6361 		.ascii	"x\234ca`d\310`\000\002&\206z\006\206\011\347\030@\324"
 200      6064C860 
 200      00022686 
 200      7A068609 
 200      E71840D4 
 201 0014 AE0645A0 		.ascii	"\256\006E\240\000c=#\252\000S=\023\252\000s=3\252\000"
 201      00633D23 
 201      AA00533D 
 201      13AA0073 
 201      3D33AA00 
 202 0028 4B3D0BAA 		.ascii	"K=\013\252\000k=+\212\000\003\000\305\333\026\342"
 202      006B3D2B 
 202      8A000300 
 202      C5DB16E2 
 203              		.text
 204              		.section	.gnu.lto_.refs.50a29e1b,"",%progbits
 205 0000 789C6361 		.ascii	"x\234ca`\004B \000\000\0009\000\007"
 205      60044220 
 205      00000039 
 205      0007
 206              		.text
 207              		.section	.gnu.lto_.decls.50a29e1b,"",%progbits
 208 0000 789C8D54 		.ascii	"x\234\215ToH[W\024\277\347\275$\306\027\253\"2\374\360"
ARM GAS  C:\Users\gjl\AppData\Local\Temp\ccAsK949.s 			page 15


 208      6F485B57 
 208      14BFE7BD 
 208      24C617AB 
 208      2232FCF0 
 209 0014 06AE1F12 		.ascii	"\006\256\037\022a \263\216\261/\203\201e\335`[\207e"
 209      6120B38E 
 209      B12F8381 
 209      65DD605B 
 209      8765
 210 0026 DD97C288 		.ascii	"\335\227\302\210\372\350\204\242%\215\203~\273\324\350"
 210      FAE884A2 
 210      258D837E 
 210      BBD4E8
 211 0035 A46360C1 		.ascii	"\244c`\301v\265\213\264V\266%\032\033\255\177\023\327"
 211      76B58BB4 
 211      56B6251A 
 211      1BAD7F13 
 211      D7
 212 0046 25DD34B5 		.ascii	"%\3354\265\326\266\232~\030\305\265\026\262\262u\335"
 212      D6B69A7E 
 212      18C5B516 
 212      B2B275DD 
 213 0056 1F573B86 		.ascii	"\037W;\206\035]v\356\275\357\345\275v\221y\311\271\177"
 213      1D5D76EE 
 213      BDEFE5BD 
 213      769179C9 
 213      B97F
 214 0068 CFF99DDF 		.ascii	"\317\371\235\337\371\275Cl\004\010\033\262\203\220$"
 214      F9BD436C 
 214      04081BB2 
 214      839024
 215 0077 AE113C66 		.ascii	"\256\021<fq\024\340~/1\007>\2231\264\011\264i\2648\332"
 215      7114E07E 
 215      2F31073E 
 215      9331B409 
 215      B469B438 
 216 008c 2C5A8AFC 		.ascii	",Z\212\374w\214\351\376,\376\034\232\007-\215\266\204"
 216      778CE9FE 
 216      2CFE1C9A 
 216      072D8DB6 
 216      84
 217 009d B65BF701 		.ascii	"\266[\367\001\335\357\351\301\360\013\236\212U7\211"
 217      DDEFE9C1 
 217      F00B9E8A 
 217      553789
 218 00ac 9FC813CF 		.ascii	"\237\310\023\317\270\331\377'\357t\236\270\370\026\342"
 218      B8D9FF27 
 218      EF749EB8 
 218      F816E2
 219 00bb E279E298 		.ascii	"\342y\342\230\006\205:\3372\264r\264\004\332\242\216"
 219      06853ADF 
 219      32B472B4 
 219      04DAA28E 
 220 00cb E3B66019 		.ascii	"\343\266`\0318\263yp\230\216\216-\324\234O\357\307\022"
 220      38B37970 
 220      988E8E2D 
 220      D49C4FEF 
ARM GAS  C:\Users\gjl\AppData\Local\Temp\ccAsK949.s 			page 16


 220      C712
 221 00dd 2C055253 		.ascii	",\005RS\316\025\270\011\022\350\037\224\000\210\031"
 221      CE15B809 
 221      12E81F94 
 221      008819
 222 00ec B81161FC 		.ascii	"\270\021a\374\210\033\211\317$w\225[\010\233\211\360"
 222      881B89CF 
 222      2477955B 
 222      089B89F0 
 223 00fc E7772618 		.ascii	"\347w&\030\377\031k\326\030\034\304D\007=\010r\014D"
 223      FF196BD6 
 223      181CC444 
 223      073D0872 
 223      0C44
 224 010e 9478970C 		.ascii	"\224x\227\014T\261Hf\200\005O\320\265p\202'k\002\243"
 224      54B14866 
 224      80054FD0 
 224      B5708227 
 224      6B02A3
 225 0121 E86022FA 		.ascii	"\350`\"\372\023\310X1\356W7B\257UG(\216nJ\245\347Me"
 225      13C85831 
 225      EE573742 
 225      AF554728 
 225      8E6E4AA5 
 226 0138 A21D3F84 		.ascii	"\242\035?\204\235\017%P\025\310\002;\377\022\333\330"
 226      9D0F2550 
 226      15C8023B 
 226      FF12DBD8 
 227 0148 26CEECB9 		.ascii	"&\316\354\271\367X\346\037\227\254\262\275t#3t\317\006"
 227      F758E61F 
 227      97ACB2BD 
 227      74233374 
 227      CF06
 228 015a 55CA170C 		.ascii	"U\312\027\014\346\316\361\360+1JK\341\034(\020\001\031"
 228      E6CEF1F0 
 228      2B314A4B 
 228      E11C2810 
 228      0119
 229 016c C250CD92 		.ascii	"\302P\315\222\253\012\316]\224\036\241kg\251\243\202"
 229      AB0ACE5D 
 229      941EA16B 
 229      67A9A382 
 230 017c 40AD0A2F 		.ascii	"@\255\012/\250\004\206\241\212a2/\030\002\025\006Ae"
 230      A80486A1 
 230      8A61322F 
 230      18021506 
 230      4165
 231 018e F8773F3D 		.ascii	"\370w?=}\337a\2230\220\3414\330\330\335\\\366\257d\011"
 231      7DDF6193 
 231      3090E134 
 231      D8D8DD5C 
 231      F6AF6409 
 232 01a2 52285340 		.ascii	"R(S@\302czm\261\317\205\307r\005J\361x\255\347f\032"
 232      C2637A6D 
 232      B1CF85C7 
 232      72054AF1 
 232      78ADE766 
ARM GAS  C:\Users\gjl\AppData\Local\Temp\ccAsK949.s 			page 17


 233 01b7 2A4E300E 		.ascii	"*N0\016\264\235VJ\260\367\031\030E\300\021\004$p\036"
 233      B49D564A 
 233      B0F71918 
 233      45C01104 
 233      24701E
 234 01ca 2A708E82 		.ascii	"*p\216\202MT7\3255\334]\260\375\014=3B\357\364v\276"
 234      4D5437D5 
 234      35DC5DB0 
 234      FD0C3D33 
 234      42EFF476 
 235 01df D93FD049 		.ascii	"\331?\320I\2270\356U\356\010!\2236n\331\362%\254\240"
 235      9730EE55 
 235      EE082193 
 235      366ED9F2 
 235      25ACA0
 236 01f2 9863B01D 		.ascii	"\230c\260\035c\377\314|\374\250Hn\3402\374:\036\370"
 236      63FFCC7C 
 236      FCA8486E 
 236      E032FC3A 
 236      1EF8
 237 0204 04044E32 		.ascii	"\004\004N2\361\221\334K\223G\020F\342(\343&\312\270"
 237      F191DC4B 
 237      93471046 
 237      E228E326 
 237      CAB8
 238 0216 156582A3 		.ascii	"\025e\202\243\\\012\255\336s\311\0078J_\367\300\240"
 238      5C0AADDE 
 238      73C90738 
 238      4A5FF7C0 
 238      A0
 239 0227 CB4A9DD5 		.ascii	"\313J\235\325lr\237\342\334\033t\352\201[+s\305z\312"
 239      6C729FE2 
 239      DC1B74EA 
 239      815B2B73 
 239      C57ACA
 240 023a D1053325 		.ascii	"\321\0053%z\301\244\231r\322\232r\232\247\\?\032\355"
 240      7AC1A499 
 240      72D29A72 
 240      9AA75C3F 
 240      1AED
 241 024c 52E4369E 		.ascii	"R\3446\2362\335\023\374N\321QN^)\022\325s\214\230\211"
 241      32DD13FC 
 241      4ED1514E 
 241      5E2912D5 
 241      738C9889 
 242 0260 11B362C4 		.ascii	"\021\263b\3049F\373\355\343\252\334\001\034\343\363"
 242      3946FBED 
 242      E3AADC01 
 242      1CE3F3
 243 026f 477FAFC9 		.ascii	"G\177\257\311\370\001\334\330\"Y\331\322#n\321#\241"
 243      F801DCD8 
 243      2259D9D2 
 243      236ED123 
 243      A1
 244 0280 FED49822 		.ascii	"\376\324\230\"\237\342\316R\260\347\342\260\003\224"
 244      9FE2CE52 
 244      B0E7E2B0 
ARM GAS  C:\Users\gjl\AppData\Local\Temp\ccAsK949.s 			page 18


 244      0394
 245 028e 2ADE0258 		.ascii	"*\336\002X\245\022*&\271\032!\211]\340\326\273\340\002"
 245      A5122A26 
 245      B91A2189 
 245      5DE0D6BB 
 245      E002
 246 02a0 5E7E8597 		.ascii	"^~\205\227z;\015\213vJ\240$_\233\324\334\212P\343\304"
 246      7A3B0D8B 
 246      764AA024 
 246      5F9BD4DC 
 246      8A50E3C4 
 247 02b4 8D871BC0 		.ascii	"\215\207\033\300\373$\221\353\223\263\277\257\037s\346"
 247      FB2491EB 
 247      93B3BFAF 
 247      1F73E6
 248 02c3 EE2E02BF 		.ascii	"\356.\002\277\034\374y#\341\330\264=\276\345\022\177"
 248      1CFC7923 
 248      E1D8B43D 
 248      BEE5127F 
 249 02d3 63B4C783 		.ascii	"c\264\307\203\357W\263.\243=R\2733\347)\355\3008\033"
 249      EF57B32E 
 249      A33D52BB 
 249      33E729ED 
 249      C0381B
 250 02e6 F3831993 		.ascii	"\363\203\031\223\305\214U\240Y.Px\364\263\316mr\277"
 250      C58C55A0 
 250      592E5078 
 250      F4B3CE6D 
 250      72BF
 251 02f8 50E8B7BE 		.ascii	"P\350\267\276\013\353v]\345\330\365'\277\325\234\011"
 251      0BEB765D 
 251      E5D8F527 
 251      BFD59C09 
 252 0308 33678549 		.ascii	"3g\205Iq\230\345\300HP\026\275n\303\343\037WOe\212E"
 252      7198E5C0 
 252      485016BD 
 252      6EC3E31F 
 252      574F658A 
 253 031d AF57E2F1 		.ascii	"\257W\342\361\326|x\210\275z\230\362\331l\211E{\217"
 253      D67C7888 
 253      BD7A98F2 
 253      D96C8945 
 253      7B8F
 254 032f D07E61F5 		.ascii	"\320~a\365\356\203By\\h?9pz\335nh\337\335N\313\346Q"
 254      EE834279 
 254      5C683F39 
 254      707ADD6E 
 254      68DFDD4E 
 255 0346 FB792CFE 		.ascii	"\373y,\376\022\323\376*j\357\321\265_\300\313\313\246"
 255      12D3FE2A 
 255      6AEFD1B5 
 255      5FC0CBCB 
 255      A6
 256 0357 F6A342FB 		.ascii	"\366\243B\373E\224\361\212I\327\243k\037\217DO\312J"
 256      4594F18A 
 256      49D7A36B 
 256      1F8F444F 
ARM GAS  C:\Users\gjl\AppData\Local\Temp\ccAsK949.s 			page 19


 256      CA4A
 257 0369 17D3734B 		.ascii	"\027\323sK\240,\3446\015\332\345\031A+6}?R,h\345AX\336"
 257      A02CE436 
 257      0DDAE519 
 257      412B367D 
 257      3F522C68 
 258 0381 8C56F2F1 		.ascii	"\214V\362\361\217\257\007(\005XBZ\327MZ\327@\34759\277"
 258      8FAF0728 
 258      0558425A 
 258      D74D5AD7 
 258      40E73539 
 259 0396 3C515074 		.ascii	"<QPt\324,\226{\032\300\004\322P\304\377\024\331ZZ\257"
 259      D42C967B 
 259      1AC004D2 
 259      50C4FF14 
 259      D95A5AAF 
 260 03aa 35BDBF47 		.ascii	"5\275\277G\363\357\3645\177\250\275\325\332\2449w\275"
 260      F3EFF435 
 260      7FA8BDD5 
 260      DAA43977 
 260      BD
 261 03bb FD6E655D 		.ascii	"\375ne]M\015\261\2675\267\370_~n\227\326\242\371\274"
 261      4D0DB1B7 
 261      35B7F85F 
 261      7E6E97D6 
 261      A2F9BC
 262 03ce 7EE6D5DA 		.ascii	"~\346\325\332\346k\324\366\275\263\247\265\356\305}"
 262      E66BD4F6 
 262      BDB3A7B5 
 262      EEC57D
 263 03dd 8D87FD87 		.ascii	"\215\207\375\207\017j\207\252? \317n\342\201\300\325"
 263      0F6A87AA 
 263      3F20CF6E 
 263      E281C0D5 
 264 03ed 8DA490E1 		.ascii	"\215\244\220\341\277\347k\366kN\266\253\327\274M%\306"
 264      BFE76BF6 
 264      6B4EB6AB 
 264      D7BC4D25 
 264      C6
 265 03fe 66A7D7EF 		.ascii	"f\247\327\357\255\327\366\227\353\024\336h\361k>_\333"
 265      ADD7F697 
 265      EB14DE68 
 265      F16B3E5F 
 265      DB
 266 040f 413FA3E1 		.ascii	"A?\243\341`\331k^*cou\0074\257/\367\312_jw\330}\332"
 266      60D96B5E 
 266      2A636F75 
 266      0734AF2F 
 266      F7CA5F6A 
 267 0427 FEDA1DFF 		.ascii	"\376\332\035\377\002\032I\021\314"
 267      021A4911 
 267      CC
 268              		.text
 269              		.section	.gnu.lto_.symtab.50a29e1b,"",%progbits
 270 0000 5265645F 		.ascii	"Red_SetDriveMode\000"
 270      53657444 
 270      72697665 
ARM GAS  C:\Users\gjl\AppData\Local\Temp\ccAsK949.s 			page 20


 270      4D6F6465 
 270      00
 271 0011 00       		.ascii	"\000"
 272 0012 00       		.ascii	"\000"
 273 0013 00       		.ascii	"\000"
 274 0014 00000000 		.ascii	"\000\000\000\000\000\000\000\000"
 274      00000000 
 275 001c B3000000 		.ascii	"\263\000\000\000"
 276 0020 5265645F 		.ascii	"Red_Write\000"
 276      57726974 
 276      6500
 277 002a 00       		.ascii	"\000"
 278 002b 00       		.ascii	"\000"
 279 002c 00       		.ascii	"\000"
 280 002d 00000000 		.ascii	"\000\000\000\000\000\000\000\000"
 280      00000000 
 281 0035 B5000000 		.ascii	"\265\000\000\000"
 282 0039 5265645F 		.ascii	"Red_Read\000"
 282      52656164 
 282      00
 283 0042 00       		.ascii	"\000"
 284 0043 00       		.ascii	"\000"
 285 0044 00       		.ascii	"\000"
 286 0045 00000000 		.ascii	"\000\000\000\000\000\000\000\000"
 286      00000000 
 287 004d B8000000 		.ascii	"\270\000\000\000"
 288 0051 5265645F 		.ascii	"Red_ReadDataReg\000"
 288      52656164 
 288      44617461 
 288      52656700 
 289 0061 00       		.ascii	"\000"
 290 0062 00       		.ascii	"\000"
 291 0063 00       		.ascii	"\000"
 292 0064 00000000 		.ascii	"\000\000\000\000\000\000\000\000"
 292      00000000 
 293 006c BA000000 		.ascii	"\272\000\000\000"
 294 0070 5265645F 		.ascii	"Red_SetInterruptMode\000"
 294      53657449 
 294      6E746572 
 294      72757074 
 294      4D6F6465 
 295 0085 00       		.ascii	"\000"
 296 0086 00       		.ascii	"\000"
 297 0087 00       		.ascii	"\000"
 298 0088 00000000 		.ascii	"\000\000\000\000\000\000\000\000"
 298      00000000 
 299 0090 C4000000 		.ascii	"\304\000\000\000"
 300 0094 5265645F 		.ascii	"Red_ClearInterrupt\000"
 300      436C6561 
 300      72496E74 
 300      65727275 
 300      707400
 301 00a7 00       		.ascii	"\000"
 302 00a8 00       		.ascii	"\000"
 303 00a9 00       		.ascii	"\000"
 304 00aa 00000000 		.ascii	"\000\000\000\000\000\000\000\000"
 304      00000000 
ARM GAS  C:\Users\gjl\AppData\Local\Temp\ccAsK949.s 			page 21


 305 00b2 C6000000 		.ascii	"\306\000\000\000"
 306              		.text
 307              		.section	.gnu.lto_.opts,"",%progbits
 308 0000 272D666D 		.ascii	"'-fmath-errno' '-fsigned-zeros' '-ftrapping-math' '"
 308      6174682D 
 308      6572726E 
 308      6F272027 
 308      2D667369 
 309 0033 2D666E6F 		.ascii	"-fno-trapv' '-fno-openmp' '-fno-openacc' '-mcpu=cor"
 309      2D747261 
 309      70762720 
 309      272D666E 
 309      6F2D6F70 
 310 0066 7465782D 		.ascii	"tex-m0' '-mthumb' '-g' '-Os' '-ffunction-sections' "
 310      6D302720 
 310      272D6D74 
 310      68756D62 
 310      2720272D 
 311 0099 272D6666 		.ascii	"'-ffat-lto-objects' '-flto'\000"
 311      61742D6C 
 311      746F2D6F 
 311      626A6563 
 311      74732720 
 312              		.text
 313              		.cfi_sections	.debug_frame
 314              		.section	.text.Red_SetDriveMode,"ax",%progbits
 315              		.align	1
 316              		.global	Red_SetDriveMode
 317              		.code	16
 318              		.thumb_func
 319              		.type	Red_SetDriveMode, %function
 320              	Red_SetDriveMode:
 321              	.LFB0:
 322              		.file 1 "Generated_Source\\PSoC4\\Red.c"
   1:Generated_Source\PSoC4/Red.c **** /*******************************************************************************
   2:Generated_Source\PSoC4/Red.c **** * File Name: Red.c  
   3:Generated_Source\PSoC4/Red.c **** * Version 2.20
   4:Generated_Source\PSoC4/Red.c **** *
   5:Generated_Source\PSoC4/Red.c **** * Description:
   6:Generated_Source\PSoC4/Red.c **** *  This file contains API to enable firmware control of a Pins component.
   7:Generated_Source\PSoC4/Red.c **** *
   8:Generated_Source\PSoC4/Red.c **** ********************************************************************************
   9:Generated_Source\PSoC4/Red.c **** * Copyright 2008-2015, Cypress Semiconductor Corporation.  All rights reserved.
  10:Generated_Source\PSoC4/Red.c **** * You may use this file only in accordance with the license, terms, conditions, 
  11:Generated_Source\PSoC4/Red.c **** * disclaimers, and limitations in the end user license agreement accompanying 
  12:Generated_Source\PSoC4/Red.c **** * the software package with which this file was provided.
  13:Generated_Source\PSoC4/Red.c **** *******************************************************************************/
  14:Generated_Source\PSoC4/Red.c **** 
  15:Generated_Source\PSoC4/Red.c **** #include "cytypes.h"
  16:Generated_Source\PSoC4/Red.c **** #include "Red.h"
  17:Generated_Source\PSoC4/Red.c **** 
  18:Generated_Source\PSoC4/Red.c **** 
  19:Generated_Source\PSoC4/Red.c **** #if defined(Red__PC)
  20:Generated_Source\PSoC4/Red.c ****     #define Red_SetP4PinDriveMode(shift, mode)  \
  21:Generated_Source\PSoC4/Red.c ****     do { \
  22:Generated_Source\PSoC4/Red.c ****         Red_PC =   (Red_PC & \
  23:Generated_Source\PSoC4/Red.c ****                                 (uint32)(~(uint32)(Red_DRIVE_MODE_IND_MASK << \
ARM GAS  C:\Users\gjl\AppData\Local\Temp\ccAsK949.s 			page 22


  24:Generated_Source\PSoC4/Red.c ****                                 (Red_DRIVE_MODE_BITS * (shift))))) | \
  25:Generated_Source\PSoC4/Red.c ****                                 (uint32)((uint32)(mode) << \
  26:Generated_Source\PSoC4/Red.c ****                                 (Red_DRIVE_MODE_BITS * (shift))); \
  27:Generated_Source\PSoC4/Red.c ****     } while (0)
  28:Generated_Source\PSoC4/Red.c **** #else
  29:Generated_Source\PSoC4/Red.c ****     #if (CY_PSOC4_4200L)
  30:Generated_Source\PSoC4/Red.c ****         #define Red_SetP4PinDriveMode(shift, mode)  \
  31:Generated_Source\PSoC4/Red.c ****         do { \
  32:Generated_Source\PSoC4/Red.c ****             Red_USBIO_CTRL_REG = (Red_USBIO_CTRL_REG & \
  33:Generated_Source\PSoC4/Red.c ****                                     (uint32)(~(uint32)(Red_DRIVE_MODE_IND_MASK << \
  34:Generated_Source\PSoC4/Red.c ****                                     (Red_DRIVE_MODE_BITS * (shift))))) | \
  35:Generated_Source\PSoC4/Red.c ****                                     (uint32)((uint32)(mode) << \
  36:Generated_Source\PSoC4/Red.c ****                                     (Red_DRIVE_MODE_BITS * (shift))); \
  37:Generated_Source\PSoC4/Red.c ****         } while (0)
  38:Generated_Source\PSoC4/Red.c ****     #endif
  39:Generated_Source\PSoC4/Red.c **** #endif
  40:Generated_Source\PSoC4/Red.c ****   
  41:Generated_Source\PSoC4/Red.c **** 
  42:Generated_Source\PSoC4/Red.c **** #if defined(Red__PC) || (CY_PSOC4_4200L) 
  43:Generated_Source\PSoC4/Red.c ****     /*******************************************************************************
  44:Generated_Source\PSoC4/Red.c ****     * Function Name: Red_SetDriveMode
  45:Generated_Source\PSoC4/Red.c ****     ****************************************************************************//**
  46:Generated_Source\PSoC4/Red.c ****     *
  47:Generated_Source\PSoC4/Red.c ****     * \brief Sets the drive mode for each of the Pins component's pins.
  48:Generated_Source\PSoC4/Red.c ****     * 
  49:Generated_Source\PSoC4/Red.c ****     * <b>Note</b> This affects all pins in the Pins component instance. Use the
  50:Generated_Source\PSoC4/Red.c ****     * Per-Pin APIs if you wish to control individual pin's drive modes.
  51:Generated_Source\PSoC4/Red.c ****     *
  52:Generated_Source\PSoC4/Red.c ****     * <b>Note</b> USBIOs have limited drive functionality. Refer to the Drive Mode
  53:Generated_Source\PSoC4/Red.c ****     * parameter for more information.
  54:Generated_Source\PSoC4/Red.c ****     *
  55:Generated_Source\PSoC4/Red.c ****     * \param mode
  56:Generated_Source\PSoC4/Red.c ****     *  Mode for the selected signals. Valid options are documented in 
  57:Generated_Source\PSoC4/Red.c ****     *  \ref driveMode.
  58:Generated_Source\PSoC4/Red.c ****     *
  59:Generated_Source\PSoC4/Red.c ****     * \return
  60:Generated_Source\PSoC4/Red.c ****     *  None
  61:Generated_Source\PSoC4/Red.c ****     *
  62:Generated_Source\PSoC4/Red.c ****     * \sideeffect
  63:Generated_Source\PSoC4/Red.c ****     *  If you use read-modify-write operations that are not atomic, the ISR can
  64:Generated_Source\PSoC4/Red.c ****     *  cause corruption of this function. An ISR that interrupts this function 
  65:Generated_Source\PSoC4/Red.c ****     *  and performs writes to the Pins component Drive Mode registers can cause 
  66:Generated_Source\PSoC4/Red.c ****     *  corrupted port data. To avoid this issue, you should either use the Per-Pin
  67:Generated_Source\PSoC4/Red.c ****     *  APIs (primary method) or disable interrupts around this function.
  68:Generated_Source\PSoC4/Red.c ****     *
  69:Generated_Source\PSoC4/Red.c ****     * \funcusage
  70:Generated_Source\PSoC4/Red.c ****     *  \snippet Red_SUT.c usage_Red_SetDriveMode
  71:Generated_Source\PSoC4/Red.c ****     *******************************************************************************/
  72:Generated_Source\PSoC4/Red.c ****     void Red_SetDriveMode(uint8 mode)
  73:Generated_Source\PSoC4/Red.c ****     {
 323              		.loc 1 73 0
 324              		.cfi_startproc
 325              		@ args = 0, pretend = 0, frame = 0
 326              		@ frame_needed = 0, uses_anonymous_args = 0
 327              		@ link register save eliminated.
 328              	.LVL0:
  74:Generated_Source\PSoC4/Red.c **** 		Red_SetP4PinDriveMode(Red__0__SHIFT, mode);
ARM GAS  C:\Users\gjl\AppData\Local\Temp\ccAsK949.s 			page 23


 329              		.loc 1 74 0
 330 0000 034A     		ldr	r2, .L2
 331 0002 044B     		ldr	r3, .L2+4
 332 0004 1168     		ldr	r1, [r2]
 333 0006 8004     		lsls	r0, r0, #18
 334              	.LVL1:
 335 0008 0B40     		ands	r3, r1
 336 000a 1843     		orrs	r0, r3
 337 000c 1060     		str	r0, [r2]
  75:Generated_Source\PSoC4/Red.c ****     }
 338              		.loc 1 75 0
 339              		@ sp needed
 340 000e 7047     		bx	lr
 341              	.L3:
 342              		.align	2
 343              	.L2:
 344 0010 08000440 		.word	1074003976
 345 0014 FFFFE3FF 		.word	-1835009
 346              		.cfi_endproc
 347              	.LFE0:
 348              		.size	Red_SetDriveMode, .-Red_SetDriveMode
 349              		.section	.text.Red_Write,"ax",%progbits
 350              		.align	1
 351              		.global	Red_Write
 352              		.code	16
 353              		.thumb_func
 354              		.type	Red_Write, %function
 355              	Red_Write:
 356              	.LFB1:
  76:Generated_Source\PSoC4/Red.c **** #endif
  77:Generated_Source\PSoC4/Red.c **** 
  78:Generated_Source\PSoC4/Red.c **** 
  79:Generated_Source\PSoC4/Red.c **** /*******************************************************************************
  80:Generated_Source\PSoC4/Red.c **** * Function Name: Red_Write
  81:Generated_Source\PSoC4/Red.c **** ****************************************************************************//**
  82:Generated_Source\PSoC4/Red.c **** *
  83:Generated_Source\PSoC4/Red.c **** * \brief Writes the value to the physical port (data output register), masking
  84:Generated_Source\PSoC4/Red.c **** *  and shifting the bits appropriately. 
  85:Generated_Source\PSoC4/Red.c **** *
  86:Generated_Source\PSoC4/Red.c **** * The data output register controls the signal applied to the physical pin in 
  87:Generated_Source\PSoC4/Red.c **** * conjunction with the drive mode parameter. This function avoids changing 
  88:Generated_Source\PSoC4/Red.c **** * other bits in the port by using the appropriate method (read-modify-write or
  89:Generated_Source\PSoC4/Red.c **** * bit banding).
  90:Generated_Source\PSoC4/Red.c **** *
  91:Generated_Source\PSoC4/Red.c **** * <b>Note</b> This function should not be used on a hardware digital output pin 
  92:Generated_Source\PSoC4/Red.c **** * as it is driven by the hardware signal attached to it.
  93:Generated_Source\PSoC4/Red.c **** *
  94:Generated_Source\PSoC4/Red.c **** * \param value
  95:Generated_Source\PSoC4/Red.c **** *  Value to write to the component instance.
  96:Generated_Source\PSoC4/Red.c **** *
  97:Generated_Source\PSoC4/Red.c **** * \return 
  98:Generated_Source\PSoC4/Red.c **** *  None 
  99:Generated_Source\PSoC4/Red.c **** *
 100:Generated_Source\PSoC4/Red.c **** * \sideeffect
 101:Generated_Source\PSoC4/Red.c **** *  If you use read-modify-write operations that are not atomic; the Interrupt 
 102:Generated_Source\PSoC4/Red.c **** *  Service Routines (ISR) can cause corruption of this function. An ISR that 
 103:Generated_Source\PSoC4/Red.c **** *  interrupts this function and performs writes to the Pins component data 
ARM GAS  C:\Users\gjl\AppData\Local\Temp\ccAsK949.s 			page 24


 104:Generated_Source\PSoC4/Red.c **** *  register can cause corrupted port data. To avoid this issue, you should 
 105:Generated_Source\PSoC4/Red.c **** *  either use the Per-Pin APIs (primary method) or disable interrupts around 
 106:Generated_Source\PSoC4/Red.c **** *  this function.
 107:Generated_Source\PSoC4/Red.c **** *
 108:Generated_Source\PSoC4/Red.c **** * \funcusage
 109:Generated_Source\PSoC4/Red.c **** *  \snippet Red_SUT.c usage_Red_Write
 110:Generated_Source\PSoC4/Red.c **** *******************************************************************************/
 111:Generated_Source\PSoC4/Red.c **** void Red_Write(uint8 value)
 112:Generated_Source\PSoC4/Red.c **** {
 357              		.loc 1 112 0
 358              		.cfi_startproc
 359              		@ args = 0, pretend = 0, frame = 0
 360              		@ frame_needed = 0, uses_anonymous_args = 0
 361              		@ link register save eliminated.
 362              	.LVL2:
 113:Generated_Source\PSoC4/Red.c ****     uint8 drVal = (uint8)(Red_DR & (uint8)(~Red_MASK));
 363              		.loc 1 113 0
 364 0000 4023     		movs	r3, #64
 365 0002 0449     		ldr	r1, .L5
 114:Generated_Source\PSoC4/Red.c ****     drVal = (drVal | ((uint8)(value << Red_SHIFT) & Red_MASK));
 115:Generated_Source\PSoC4/Red.c ****     Red_DR = (uint32)drVal;
 366              		.loc 1 115 0
 367 0004 8001     		lsls	r0, r0, #6
 368              	.LVL3:
 113:Generated_Source\PSoC4/Red.c ****     uint8 drVal = (uint8)(Red_DR & (uint8)(~Red_MASK));
 369              		.loc 1 113 0
 370 0006 0A68     		ldr	r2, [r1]
 116:Generated_Source\PSoC4/Red.c **** }
 371              		.loc 1 116 0
 372              		@ sp needed
 113:Generated_Source\PSoC4/Red.c ****     uint8 drVal = (uint8)(Red_DR & (uint8)(~Red_MASK));
 373              		.loc 1 113 0
 374 0008 9A43     		bics	r2, r3
 375 000a D2B2     		uxtb	r2, r2
 115:Generated_Source\PSoC4/Red.c **** }
 376              		.loc 1 115 0
 377 000c 0340     		ands	r3, r0
 378 000e 1343     		orrs	r3, r2
 379 0010 0B60     		str	r3, [r1]
 380              		.loc 1 116 0
 381 0012 7047     		bx	lr
 382              	.L6:
 383              		.align	2
 384              	.L5:
 385 0014 00000440 		.word	1074003968
 386              		.cfi_endproc
 387              	.LFE1:
 388              		.size	Red_Write, .-Red_Write
 389              		.section	.text.Red_Read,"ax",%progbits
 390              		.align	1
 391              		.global	Red_Read
 392              		.code	16
 393              		.thumb_func
 394              		.type	Red_Read, %function
 395              	Red_Read:
 396              	.LFB2:
 117:Generated_Source\PSoC4/Red.c **** 
ARM GAS  C:\Users\gjl\AppData\Local\Temp\ccAsK949.s 			page 25


 118:Generated_Source\PSoC4/Red.c **** 
 119:Generated_Source\PSoC4/Red.c **** /*******************************************************************************
 120:Generated_Source\PSoC4/Red.c **** * Function Name: Red_Read
 121:Generated_Source\PSoC4/Red.c **** ****************************************************************************//**
 122:Generated_Source\PSoC4/Red.c **** *
 123:Generated_Source\PSoC4/Red.c **** * \brief Reads the associated physical port (pin status register) and masks 
 124:Generated_Source\PSoC4/Red.c **** *  the required bits according to the width and bit position of the component
 125:Generated_Source\PSoC4/Red.c **** *  instance. 
 126:Generated_Source\PSoC4/Red.c **** *
 127:Generated_Source\PSoC4/Red.c **** * The pin's status register returns the current logic level present on the 
 128:Generated_Source\PSoC4/Red.c **** * physical pin.
 129:Generated_Source\PSoC4/Red.c **** *
 130:Generated_Source\PSoC4/Red.c **** * \return 
 131:Generated_Source\PSoC4/Red.c **** *  The current value for the pins in the component as a right justified number.
 132:Generated_Source\PSoC4/Red.c **** *
 133:Generated_Source\PSoC4/Red.c **** * \funcusage
 134:Generated_Source\PSoC4/Red.c **** *  \snippet Red_SUT.c usage_Red_Read  
 135:Generated_Source\PSoC4/Red.c **** *******************************************************************************/
 136:Generated_Source\PSoC4/Red.c **** uint8 Red_Read(void)
 137:Generated_Source\PSoC4/Red.c **** {
 397              		.loc 1 137 0
 398              		.cfi_startproc
 399              		@ args = 0, pretend = 0, frame = 0
 400              		@ frame_needed = 0, uses_anonymous_args = 0
 401              		@ link register save eliminated.
 138:Generated_Source\PSoC4/Red.c ****     return (uint8)((Red_PS & Red_MASK) >> Red_SHIFT);
 402              		.loc 1 138 0
 403 0000 024B     		ldr	r3, .L8
 139:Generated_Source\PSoC4/Red.c **** }
 404              		.loc 1 139 0
 405              		@ sp needed
 138:Generated_Source\PSoC4/Red.c ****     return (uint8)((Red_PS & Red_MASK) >> Red_SHIFT);
 406              		.loc 1 138 0
 407 0002 1868     		ldr	r0, [r3]
 408 0004 4006     		lsls	r0, r0, #25
 409 0006 C00F     		lsrs	r0, r0, #31
 410              		.loc 1 139 0
 411 0008 7047     		bx	lr
 412              	.L9:
 413 000a C046     		.align	2
 414              	.L8:
 415 000c 04000440 		.word	1074003972
 416              		.cfi_endproc
 417              	.LFE2:
 418              		.size	Red_Read, .-Red_Read
 419              		.section	.text.Red_ReadDataReg,"ax",%progbits
 420              		.align	1
 421              		.global	Red_ReadDataReg
 422              		.code	16
 423              		.thumb_func
 424              		.type	Red_ReadDataReg, %function
 425              	Red_ReadDataReg:
 426              	.LFB3:
 140:Generated_Source\PSoC4/Red.c **** 
 141:Generated_Source\PSoC4/Red.c **** 
 142:Generated_Source\PSoC4/Red.c **** /*******************************************************************************
 143:Generated_Source\PSoC4/Red.c **** * Function Name: Red_ReadDataReg
ARM GAS  C:\Users\gjl\AppData\Local\Temp\ccAsK949.s 			page 26


 144:Generated_Source\PSoC4/Red.c **** ****************************************************************************//**
 145:Generated_Source\PSoC4/Red.c **** *
 146:Generated_Source\PSoC4/Red.c **** * \brief Reads the associated physical port's data output register and masks 
 147:Generated_Source\PSoC4/Red.c **** *  the correct bits according to the width and bit position of the component 
 148:Generated_Source\PSoC4/Red.c **** *  instance. 
 149:Generated_Source\PSoC4/Red.c **** *
 150:Generated_Source\PSoC4/Red.c **** * The data output register controls the signal applied to the physical pin in 
 151:Generated_Source\PSoC4/Red.c **** * conjunction with the drive mode parameter. This is not the same as the 
 152:Generated_Source\PSoC4/Red.c **** * preferred Red_Read() API because the 
 153:Generated_Source\PSoC4/Red.c **** * Red_ReadDataReg() reads the data register instead of the status 
 154:Generated_Source\PSoC4/Red.c **** * register. For output pins this is a useful function to determine the value 
 155:Generated_Source\PSoC4/Red.c **** * just written to the pin.
 156:Generated_Source\PSoC4/Red.c **** *
 157:Generated_Source\PSoC4/Red.c **** * \return 
 158:Generated_Source\PSoC4/Red.c **** *  The current value of the data register masked and shifted into a right 
 159:Generated_Source\PSoC4/Red.c **** *  justified number for the component instance.
 160:Generated_Source\PSoC4/Red.c **** *
 161:Generated_Source\PSoC4/Red.c **** * \funcusage
 162:Generated_Source\PSoC4/Red.c **** *  \snippet Red_SUT.c usage_Red_ReadDataReg 
 163:Generated_Source\PSoC4/Red.c **** *******************************************************************************/
 164:Generated_Source\PSoC4/Red.c **** uint8 Red_ReadDataReg(void)
 165:Generated_Source\PSoC4/Red.c **** {
 427              		.loc 1 165 0
 428              		.cfi_startproc
 429              		@ args = 0, pretend = 0, frame = 0
 430              		@ frame_needed = 0, uses_anonymous_args = 0
 431              		@ link register save eliminated.
 166:Generated_Source\PSoC4/Red.c ****     return (uint8)((Red_DR & Red_MASK) >> Red_SHIFT);
 432              		.loc 1 166 0
 433 0000 024B     		ldr	r3, .L11
 167:Generated_Source\PSoC4/Red.c **** }
 434              		.loc 1 167 0
 435              		@ sp needed
 166:Generated_Source\PSoC4/Red.c ****     return (uint8)((Red_DR & Red_MASK) >> Red_SHIFT);
 436              		.loc 1 166 0
 437 0002 1868     		ldr	r0, [r3]
 438 0004 4006     		lsls	r0, r0, #25
 439 0006 C00F     		lsrs	r0, r0, #31
 440              		.loc 1 167 0
 441 0008 7047     		bx	lr
 442              	.L12:
 443 000a C046     		.align	2
 444              	.L11:
 445 000c 00000440 		.word	1074003968
 446              		.cfi_endproc
 447              	.LFE3:
 448              		.size	Red_ReadDataReg, .-Red_ReadDataReg
 449              		.section	.text.Red_SetInterruptMode,"ax",%progbits
 450              		.align	1
 451              		.global	Red_SetInterruptMode
 452              		.code	16
 453              		.thumb_func
 454              		.type	Red_SetInterruptMode, %function
 455              	Red_SetInterruptMode:
 456              	.LFB4:
 168:Generated_Source\PSoC4/Red.c **** 
 169:Generated_Source\PSoC4/Red.c **** 
ARM GAS  C:\Users\gjl\AppData\Local\Temp\ccAsK949.s 			page 27


 170:Generated_Source\PSoC4/Red.c **** /*******************************************************************************
 171:Generated_Source\PSoC4/Red.c **** * Function Name: Red_SetInterruptMode
 172:Generated_Source\PSoC4/Red.c **** ****************************************************************************//**
 173:Generated_Source\PSoC4/Red.c **** *
 174:Generated_Source\PSoC4/Red.c **** * \brief Configures the interrupt mode for each of the Pins component's
 175:Generated_Source\PSoC4/Red.c **** *  pins. Alternatively you may set the interrupt mode for all the pins
 176:Generated_Source\PSoC4/Red.c **** *  specified in the Pins component.
 177:Generated_Source\PSoC4/Red.c **** *
 178:Generated_Source\PSoC4/Red.c **** *  <b>Note</b> The interrupt is port-wide and therefore any enabled pin
 179:Generated_Source\PSoC4/Red.c **** *  interrupt may trigger it.
 180:Generated_Source\PSoC4/Red.c **** *
 181:Generated_Source\PSoC4/Red.c **** * \param position
 182:Generated_Source\PSoC4/Red.c **** *  The pin position as listed in the Pins component. You may OR these to be 
 183:Generated_Source\PSoC4/Red.c **** *  able to configure the interrupt mode of multiple pins within a Pins 
 184:Generated_Source\PSoC4/Red.c **** *  component. Or you may use Red_INTR_ALL to configure the
 185:Generated_Source\PSoC4/Red.c **** *  interrupt mode of all the pins in the Pins component.       
 186:Generated_Source\PSoC4/Red.c **** *  - Red_0_INTR       (First pin in the list)
 187:Generated_Source\PSoC4/Red.c **** *  - Red_1_INTR       (Second pin in the list)
 188:Generated_Source\PSoC4/Red.c **** *  - ...
 189:Generated_Source\PSoC4/Red.c **** *  - Red_INTR_ALL     (All pins in Pins component)
 190:Generated_Source\PSoC4/Red.c **** *
 191:Generated_Source\PSoC4/Red.c **** * \param mode
 192:Generated_Source\PSoC4/Red.c **** *  Interrupt mode for the selected pins. Valid options are documented in
 193:Generated_Source\PSoC4/Red.c **** *  \ref intrMode.
 194:Generated_Source\PSoC4/Red.c **** *
 195:Generated_Source\PSoC4/Red.c **** * \return 
 196:Generated_Source\PSoC4/Red.c **** *  None
 197:Generated_Source\PSoC4/Red.c **** *  
 198:Generated_Source\PSoC4/Red.c **** * \sideeffect
 199:Generated_Source\PSoC4/Red.c **** *  It is recommended that the interrupt be disabled before calling this 
 200:Generated_Source\PSoC4/Red.c **** *  function to avoid unintended interrupt requests. Note that the interrupt
 201:Generated_Source\PSoC4/Red.c **** *  type is port wide, and therefore will trigger for any enabled pin on the 
 202:Generated_Source\PSoC4/Red.c **** *  port.
 203:Generated_Source\PSoC4/Red.c **** *
 204:Generated_Source\PSoC4/Red.c **** * \funcusage
 205:Generated_Source\PSoC4/Red.c **** *  \snippet Red_SUT.c usage_Red_SetInterruptMode
 206:Generated_Source\PSoC4/Red.c **** *******************************************************************************/
 207:Generated_Source\PSoC4/Red.c **** void Red_SetInterruptMode(uint16 position, uint16 mode)
 208:Generated_Source\PSoC4/Red.c **** {
 457              		.loc 1 208 0
 458              		.cfi_startproc
 459              		@ args = 0, pretend = 0, frame = 0
 460              		@ frame_needed = 0, uses_anonymous_args = 0
 461              		@ link register save eliminated.
 462              	.LVL4:
 209:Generated_Source\PSoC4/Red.c ****     uint32 intrCfg;
 210:Generated_Source\PSoC4/Red.c ****     
 211:Generated_Source\PSoC4/Red.c ****     intrCfg =  Red_INTCFG & (uint32)(~(uint32)position);
 463              		.loc 1 211 0
 464 0000 034A     		ldr	r2, .L14
 212:Generated_Source\PSoC4/Red.c ****     Red_INTCFG = intrCfg | ((uint32)position & (uint32)mode);
 213:Generated_Source\PSoC4/Red.c **** }
 465              		.loc 1 213 0
 466              		@ sp needed
 211:Generated_Source\PSoC4/Red.c ****     Red_INTCFG = intrCfg | ((uint32)position & (uint32)mode);
 467              		.loc 1 211 0
 468 0002 1368     		ldr	r3, [r2]
ARM GAS  C:\Users\gjl\AppData\Local\Temp\ccAsK949.s 			page 28


 469              	.LVL5:
 212:Generated_Source\PSoC4/Red.c ****     Red_INTCFG = intrCfg | ((uint32)position & (uint32)mode);
 470              		.loc 1 212 0
 471 0004 8343     		bics	r3, r0
 472              	.LVL6:
 473 0006 0840     		ands	r0, r1
 474              	.LVL7:
 475 0008 1843     		orrs	r0, r3
 476 000a 1060     		str	r0, [r2]
 477              		.loc 1 213 0
 478 000c 7047     		bx	lr
 479              	.L15:
 480 000e C046     		.align	2
 481              	.L14:
 482 0010 0C000440 		.word	1074003980
 483              		.cfi_endproc
 484              	.LFE4:
 485              		.size	Red_SetInterruptMode, .-Red_SetInterruptMode
 486              		.section	.text.Red_ClearInterrupt,"ax",%progbits
 487              		.align	1
 488              		.global	Red_ClearInterrupt
 489              		.code	16
 490              		.thumb_func
 491              		.type	Red_ClearInterrupt, %function
 492              	Red_ClearInterrupt:
 493              	.LFB5:
 214:Generated_Source\PSoC4/Red.c **** 
 215:Generated_Source\PSoC4/Red.c **** 
 216:Generated_Source\PSoC4/Red.c **** /*******************************************************************************
 217:Generated_Source\PSoC4/Red.c **** * Function Name: Red_ClearInterrupt
 218:Generated_Source\PSoC4/Red.c **** ****************************************************************************//**
 219:Generated_Source\PSoC4/Red.c **** *
 220:Generated_Source\PSoC4/Red.c **** * \brief Clears any active interrupts attached with the component and returns 
 221:Generated_Source\PSoC4/Red.c **** *  the value of the interrupt status register allowing determination of which
 222:Generated_Source\PSoC4/Red.c **** *  pins generated an interrupt event.
 223:Generated_Source\PSoC4/Red.c **** *
 224:Generated_Source\PSoC4/Red.c **** * \return 
 225:Generated_Source\PSoC4/Red.c **** *  The right-shifted current value of the interrupt status register. Each pin 
 226:Generated_Source\PSoC4/Red.c **** *  has one bit set if it generated an interrupt event. For example, bit 0 is 
 227:Generated_Source\PSoC4/Red.c **** *  for pin 0 and bit 1 is for pin 1 of the Pins component.
 228:Generated_Source\PSoC4/Red.c **** *  
 229:Generated_Source\PSoC4/Red.c **** * \sideeffect
 230:Generated_Source\PSoC4/Red.c **** *  Clears all bits of the physical port's interrupt status register, not just
 231:Generated_Source\PSoC4/Red.c **** *  those associated with the Pins component.
 232:Generated_Source\PSoC4/Red.c **** *
 233:Generated_Source\PSoC4/Red.c **** * \funcusage
 234:Generated_Source\PSoC4/Red.c **** *  \snippet Red_SUT.c usage_Red_ClearInterrupt
 235:Generated_Source\PSoC4/Red.c **** *******************************************************************************/
 236:Generated_Source\PSoC4/Red.c **** uint8 Red_ClearInterrupt(void)
 237:Generated_Source\PSoC4/Red.c **** {
 494              		.loc 1 237 0
 495              		.cfi_startproc
 496              		@ args = 0, pretend = 0, frame = 0
 497              		@ frame_needed = 0, uses_anonymous_args = 0
 498              		@ link register save eliminated.
 238:Generated_Source\PSoC4/Red.c **** 	uint8 maskedStatus = (uint8)(Red_INTSTAT & Red_MASK);
 499              		.loc 1 238 0
ARM GAS  C:\Users\gjl\AppData\Local\Temp\ccAsK949.s 			page 29


 500 0000 4023     		movs	r3, #64
 501 0002 034A     		ldr	r2, .L17
 239:Generated_Source\PSoC4/Red.c **** 	Red_INTSTAT = maskedStatus;
 240:Generated_Source\PSoC4/Red.c ****     return maskedStatus >> Red_SHIFT;
 241:Generated_Source\PSoC4/Red.c **** }
 502              		.loc 1 241 0
 503              		@ sp needed
 238:Generated_Source\PSoC4/Red.c **** 	uint8 maskedStatus = (uint8)(Red_INTSTAT & Red_MASK);
 504              		.loc 1 238 0
 505 0004 1068     		ldr	r0, [r2]
 506 0006 1840     		ands	r0, r3
 507              	.LVL8:
 239:Generated_Source\PSoC4/Red.c **** 	Red_INTSTAT = maskedStatus;
 508              		.loc 1 239 0
 509 0008 1060     		str	r0, [r2]
 240:Generated_Source\PSoC4/Red.c **** }
 510              		.loc 1 240 0
 511 000a 8009     		lsrs	r0, r0, #6
 512              	.LVL9:
 513 000c C0B2     		uxtb	r0, r0
 514              		.loc 1 241 0
 515 000e 7047     		bx	lr
 516              	.L18:
 517              		.align	2
 518              	.L17:
 519 0010 10000440 		.word	1074003984
 520              		.cfi_endproc
 521              	.LFE5:
 522              		.size	Red_ClearInterrupt, .-Red_ClearInterrupt
 523              		.text
 524              	.Letext0:
 525              		.file 2 "Generated_Source\\PSoC4\\cytypes.h"