ARM GAS  C:\Users\gjl\AppData\Local\Temp\ccXxVt7e.s 			page 1


   1              		.syntax unified
   2              		.cpu cortex-m0
   3              		.fpu softvfp
   4              		.eabi_attribute 20, 1
   5              		.eabi_attribute 21, 1
   6              		.eabi_attribute 23, 3
   7              		.eabi_attribute 24, 1
   8              		.eabi_attribute 25, 1
   9              		.eabi_attribute 26, 1
  10              		.eabi_attribute 30, 4
  11              		.eabi_attribute 34, 0
  12              		.eabi_attribute 18, 4
  13              		.thumb
  14              		.syntax unified
  15              		.file	"SW1.c"
  16              		.text
  17              	.Ltext0:
  18              		.section	.gnu.lto_.profile.1a3c981,"",%progbits
  19 0000 789C6361 		.ascii	"x\234ca`d`a`\000\222j\012\000\000\326\000Q"
  19      60646061 
  19      6000926A 
  19      0A0000D6 
  19      0051
  20              		.text
  21              		.section	.gnu.lto_.icf.1a3c981,"",%progbits
  22 0000 789C6361 		.ascii	"x\234ca`d\000\001U\006\004`c\370\364\265a5\017\343\366"
  22      60640001 
  22      55060460 
  22      63F8F4B5 
  22      61350FE3 
  23 0015 961E27A6 		.ascii	"\226\036'\246\035\377\316}ba\236un\326+n\226]\207~_"
  23      1DFFCE7D 
  23      62619E75 
  23      6ED62B6E 
  23      965D877E 
  24 002a E2633DBC 		.ascii	"\342c=\274\367\336:\016\006\000Z\262\022C"
  24      F7DE3A0E 
  24      06005AB2 
  24      1243
  25              		.text
  26              		.section	.gnu.lto_.jmpfuncs.1a3c981,"",%progbits
  27 0000 789C45C9 		.ascii	"x\234E\311\261\001\000 \010\300\260\026\320+\374\225"
  27      B1010020 
  27      08C0B016 
  27      D02BFC95 
  28 0010 D795C90C 		.ascii	"\327\225\311\014]Z\3108|\033\265\235\004$Thv\257\367"
  28      5D5AC838 
  28      7C1BB59D 
  28      04245468 
  28      76AFF7
  29 0023 2E215502 		.ascii	".!U\002@"
  29      40
  30              		.text
  31              		.section	.gnu.lto_.inline.1a3c981,"",%progbits
  32 0000 789C7D8C 		.ascii	"x\234}\214\301\011\200P\014C\223\376\332_A\320\015\334"
  32      C1098050 
  32      0C4393FE 
ARM GAS  C:\Users\gjl\AppData\Local\Temp\ccXxVt7e.s 			page 2


  32      DA5F41D0 
  32      0DDC
  33 0012 C0119CD4 		.ascii	"\300\021\234\324\203\2438\202\2438\202-\202\"\202\357"
  33      83A33882 
  33      A338822D 
  33      822282EF 
  34 0022 90435E1B 		.ascii	"\220C^\033\005\221,x0\300+\011\017U|\233a\353(\220\275"
  34      05912C78 
  34      30C02B09 
  34      0F557C9B 
  34      61EB2890 
  35 0037 D7B4FC93 		.ascii	"\327\264\374\223\002k\010\261c\272\372\240|+E\353\024"
  35      026B08B1 
  35      63BAFAA0 
  35      7C2B45EB 
  35      14
  36 0048 0C31C10C 		.ascii	"\0141\301\014}\357Dty\326\240Z|\33629\001\367\007\017"
  36      7DEF4474 
  36      79D6A05A 
  36      7CDE3239 
  36      01F7070F 
  37 005c FE       		.ascii	"\376"
  38              		.text
  39              		.section	.gnu.lto_.pureconst.1a3c981,"",%progbits
  40 0000 789C6361 		.ascii	"x\234ca`d\340e```c\220b\224b\222b\226b\221b\225\002"
  40      6064E065 
  40      60606063 
  40      90629462 
  40      92629662 
  41 0018 00059500 		.ascii	"\000\005\225\000\304"
  41      C4
  42              		.text
  43              		.section	.gnu.lto_SW1_SetDriveMode.1a3c981,"",%progbits
  44 0000 789C7D51 		.ascii	"x\234}Q\317k\023A\030\375\336\314f\023\261\321\223P"
  44      CF6B1341 
  44      18FDDECC 
  44      6613B1D1 
  44      9350
  45 0012 30420F42 		.ascii	"0B\017B\310\245T\352\177\320\203\327`\016\275TD\222"
  45      C8A554EA 
  45      7FD083D7 
  45      600EBD54 
  45      4492
  46 0024 3D6A20E8 		.ascii	"=j \3509\223l\026KO\205\320\226\036jN!\306_m\011(\""
  46      39936C16 
  46      4B4F85D0 
  46      961E6A4E 
  46      21C65F6D 
  47 003b 4258D163 		.ascii	"BX\321c\005\017z\213\242\260\322\236\222\266B\020\315"
  47      050F7A8B 
  47      A2B0D29E 
  47      92B64210 
  47      CD
  48 004c F6FB7673 		.ascii	"\366\373vs\356\300|\3377\217\367\036of,\002\311\372"
  48      EEC07CDF 
  48      378FF71E 
  48      6F662C02 
ARM GAS  C:\Users\gjl\AppData\Local\Temp\ccXxVt7e.s 			page 3


  48      C9FA
  49 005e C0ED3AF7 		.ascii	"\300\355:\367\253\274\241\011j\375\200\250\226R\200"
  49      ABBCA109 
  49      6AFD80A8 
  49      965280
  50 006d 0C2605AA 		.ascii	"\014&\005\252*T\361G\375W\360\037\007oU\256cx\375\360"
  50      2A54F147 
  50      FD57F01F 
  50      076F55AE 
  50      6378FDF0 
  51 0081 827CCD78 		.ascii	"\202|\315x\263\236&\012U\344D\350 \307\254\223^\273"
  51      B39E260A 
  51      55E444E8 
  51      20C7AC93 
  51      5EBB
  52 0093 7951CF81 		.ascii	"yQ\317\201x\036\035\014\007\227\262mc\352\3064\357\030"
  52      781E1D0C 
  52      0797B26D 
  52      63EAC634 
  52      EF18
  53 00a5 ED69E029 		.ascii	"\355i\340)4+\260\230\301B\206\030 t\221\025\362\317"
  53      342BB098 
  53      C1428618 
  53      20749115 
  53      F2CF
  54 00b7 FDC946DA 		.ascii	"\375\311F\332n\210\375\\l\212g\260%\346\356\355\276"
  54      6E88FD5C 
  54      6C8A67B0 
  54      25E6EEED 
  54      BE
  55 00c8 0943D7F4 		.ascii	"\011C\327\364{\366\307\327\366\005\3052\245\245X\020"
  55      7BF6C7D7 
  55      F605C532 
  55      A5A55810 
  56 00d8 7142465B 		.ascii	"qBF[JR\012\321\220\267\304\037)%]\007\360\377\256}\335"
  56      4A520AD1 
  56      90B7C41F 
  56      29255D07 
  56      F0FFAE7D 
  57 00ed B6C5CFD5 		.ascii	"\266\305\317\325r\225M\317\377\234<U\236\326Q\316\356"
  57      72954DCF 
  57      FF9C3C55 
  57      9ED651CE 
  57      EE
  58 00fe E1B7F7E9 		.ascii	"\341\267\367\351\370\270j\326\215\305\320\227\301\273"
  58      F8B86AD6 
  58      8DC5D097 
  58      C1BB
  59 010c EFBA859D 		.ascii	"\357\272\205\235Z\003\236\266\360\002\031<G\2063\275"
  59      5A039EB6 
  59      F002193C 
  59      478633BD 
  60 011c 440B14C0 		.ascii	"D\013\024\300\3757\265\323\261c\275\371\344\367\214"
  60      FD37B5D3 
  60      B163BDF9 
  60      E4F78C
  61 012b 58288461 		.ascii	"X(\204a8\276\214W\314\016P?N\306\264\204\253-\221\015"
ARM GAS  C:\Users\gjl\AppData\Local\Temp\ccXxVt7e.s 			page 4


  61      38BE8C57 
  61      CC0E503F 
  61      4EC6B484 
  61      AB2D910D 
  62 013f A7328158 		.ascii	"\2472\201X\366\2533\331\262E\226\300\025\354F\022w<"
  62      F6AB33D9 
  62      B24596C0 
  62      15EC4612 
  62      773C
  63 0151 A5242373 		.ascii	"\245$#s\233!\177\023\002\235\027k\217c\261\204\216P"
  63      9B217F13 
  63      029D176B 
  63      8F63B184 
  63      8E50
  64 0163 EFBFF9A4 		.ascii	"\357\277\371\244\204\036\375\312PA\336\200_\344\332"
  64      841EFDCA 
  64      5041DE80 
  64      5FE4DA
  65 0172 2DE78153 		.ascii	"-\347\201S\271\367\320)\335-\224\037U\212\316J\276P"
  65      B9F7D029 
  65      DD2D941F 
  65      558ACE4A 
  65      BE50
  66 0184 5EBAB952 		.ascii	"^\272\271RX\2761_$\353~\271\344\234\001\361o\235\177"
  66      58BE315F 
  66      24EB7EB9 
  66      E49C01F1 
  66      6F9D7F
  67              		.text
  68              		.section	.gnu.lto_SW1_Write.1a3c981,"",%progbits
  69 0000 789C5551 		.ascii	"x\234UQ\317K\024a\030~\237\357\233\037[\213\375\003"
  69      CF4B1461 
  69      187E9FEF 
  69      9B1F5B8B 
  69      FD03
  70 0012 6DB01713 		.ascii	"m\260\027\023\011\302\260c\227\350\340UZ\250\313\222"
  70      09C2B063 
  70      97E8E055 
  70      5AA8CB92 
  71 0022 2C3AB745 		.ascii	",:\267EaI\217\371\355\256\263\013v\261\203\326\245\225"
  71      61498FF9 
  71      EDAEB30B 
  71      76B183D6 
  71      A595
  72 0034 9058336B 		.ascii	"\220X3k\263C\020t\230\346\342E\024)\242\310B\0047\352"
  72      B3431074 
  72      98E6E245 
  72      1429A2C8 
  72      420437EA 
  73 0048 B485A244 		.ascii	"\264\205\242D6\275\357\014\204\276\3147\3377\317<\317"
  73      36BDEF0C 
  73      84BECC37 
  73      DF37CF3C 
  73      CF
  74 0059 33CFFB8E 		.ascii	"3\317\373\216E \251\253\212\350\002\357gyA\023\324\314"
  74      4520A9AB 
  74      8AE802EF 
ARM GAS  C:\Users\gjl\AppData\Local\Temp\ccXxVt7e.s 			page 5


  74      67794113 
  74      D4CC
  75 006b 3A5139A5 		.ascii	":Q9\245\0009\230\024hRa\022\373\352H!\254\267_\253\336"
  75      00399814 
  75      68526112 
  75      FBEA4821 
  75      ACB75FAB 
  76 0080 A6E1DADE 		.ascii	"\246\341\332\336=\3503\213\001|M\024\251\330\211\320"
  76      3DE8338B 
  76      017C4D14 
  76      A9D889D0 
  77 0090 442FB3BE 		.ascii	"D/\263\276\275\251\277\207\316\202\370\\\013\367;\351"
  77      BDA9BF87 
  77      CE82F85C 
  77      0BF73BE9 
  78 00a0 9EC7C654 		.ascii	"\236\307\306T\214\371\2227\332\327\300\"4+\320\237A"
  78      8CF99237 
  78      DAD7C022 
  78      342BD09F 
  78      41
  79 00b1 5F861820 		.ascii	"_\206\030 <A\217\220\277\207w\213\372|\254[}u/B\367"
  79      3C418F90 
  79      BF87778B 
  79      FA7CAC5B 
  79      7D752F42 
  80 00c6 82E88277 		.ascii	"\202\350\202w\253]\367MP\316\212v\351\270V\212\271;"
  80      AB5DF74D 
  80      50CE8A76 
  80      E9B8568A 
  80      B93B
  81 00d8 2B7F67BB 		.ascii	"+\177g\273\234)I\225\305St'y\260\014\207;\204 \255\353"
  81      9C294995 
  81      C5537427 
  81      79B00C87 
  81      3B8420AD 
  82 00ed 8189A2AA 		.ascii	"\201\211\242\252\0116\335\267\037\335\323\212\277\252"
  82      0936DDB7 
  82      1FDDD38A 
  82      BFAA
  83 00fb 34DFB445 		.ascii	"4\337\264E\362\332\206$p\004pc %\004\242\016/\031\302"
  83      F2DA8624 
  83      70047063 
  83      202504A2 
  83      0E2F19C2 
  84 010f 4FA564D7 		.ascii	"O\245d\327m\204\277\247\327\033\023b]\3252\2209?\334"
  84      6D84BFA7 
  84      D71B1362 
  84      5DD53290 
  84      393FDC
  85 0122 70F794AF 		.ascii	"p\367\224\257\2558\365\347\303\326Q:y4f\306X\0145\037"
  85      AD38F5E7 
  85      C3D6513A 
  85      793466C6 
  85      580C351F 
  86 0136 ACDD99C7 		.ascii	"\254\335\231\307\303\362\024O\312\306sd\360\014\234"
  86      C3F2144F 
  86      CAC67364 
ARM GAS  C:\Users\gjl\AppData\Local\Temp\ccXxVt7e.s 			page 6


  86      F00C9C
  87 0145 1C2DCC83 		.ascii	"\034-\314\203\332\250\374\252o\251\304O\263%#\325?\265"
  87      DAA8FCAA 
  87      6FA9C44F 
  87      B32523D5 
  87      3FB5
  88 0157 2D2488C5 		.ascii	"-$\210\305 [,-l7N\211\253FDx\301\362\035\304\032\211"
  88      205B2C2D 
  88      6C374E89 
  88      AB464478 
  88      C1F21DC4 
  89 016d CA2C1175 		.ascii	"\312,\021uj\037\032\267\022\025_6\253\366\246\375\003"
  89      6A1F1AB7 
  89      12155F36 
  89      ABF6A6FD 
  89      03
  90 017e 2D2A072E 		.ascii	"-*\007.VX\304\254\303\377\326n\354\356\234tr\223@_\033"
  90      5658C4AC 
  90      C3FFD66E 
  90      ECEE9C74 
  90      7293405F 
  91 0193 5712522A 		.ascii	"W\022R*\201\302\271Gg\0048\336M\331\230\364\311\206"
  91      81C2B947 
  91      670438DE 
  91      4DD998F4 
  91      C986
  92 01a5 5E72432C 		.ascii	"^rC,\241\037\250\004\237\006\204\037\377\237\216\202"
  92      A11FA804 
  92      9F06841F 
  92      FF9F8E82 
  93 01b5 CC8E2779 		.ascii	"\314\216'yn\300\033\365J\205\333\336\310Pnl\2744\354"
  93      6EC01BF5 
  93      4A85DBDE 
  93      C8506E6C 
  93      BC34EC
  94 01c8 E5077363 		.ascii	"\345\007sc\327.\347s7/]\034&{\242P\034\367\354\221\322"
  94      D72EE773 
  94      372F5D1C 
  94      267BA250 
  94      1CF7EC91 
  95 01dd 8D42F11F 		.ascii	"\215B\361\037z\257\306\\"
  95      7AAFC65C 
  96              		.text
  97              		.section	.gnu.lto_SW1_Read.1a3c981,"",%progbits
  98 0000 789C2D8F 		.ascii	"x\234-\217\275K\202Q\024\306\317s\357\353\007B\177A"
  98      BD4B8251 
  98      14C6CF73 
  98      EFEB0742 
  98      7F41
  99 0012 46AD2E51 		.ascii	"F\255.Q\324\322\324\020\324\0329\004\"D\330\273&H\315"
  99      D4D2D410 
  99      D41A3904 
  99      2244D8BB 
  99      2648CD
 100 0025 5E7D7D0D 		.ascii	"^}}\015\244\301\245\232BhH\355\203\210\242\245\305D"
 100      A4C1A59A 
 100      426848ED 
ARM GAS  C:\Users\gjl\AppData\Local\Temp\ccXxVt7e.s 			page 7


 100      8388A2A5 
 100      C544
 101 0037 2888B229 		.ascii	"(\210\262)h*\"\034\232J\014!*;G=p\317\271\367\334\337"
 101      682A221C 
 101      9A4A0C21 
 101      2A3B473D 
 101      70CFB9F7 
 102 004d 7D9E732D 		.ascii	"}\236s-\002ILs\031\346:\310\013\232\240\362\367D)\277"
 102      02494C73 
 102      19E63AC8 
 102      0B9AA0F2 
 102      F74429BF 
 103 0061 026463FC 		.ascii	"\002dc\374\240\244B\022_\352W\341\266}\263\031\010\025"
 103      A0A44212 
 103      5FEA57E1 
 103      B67DB319 
 103      0815
 104 0073 8D499B17 		.ascii	"\215I\233\027w\177j\247T\201\253\211:\2120\021\304X"
 104      777F6AA7 
 104      5481AB89 
 104      3A8A3011 
 104      C458
 105 0085 50248A08 		.ascii	"P$\212\010\021\243\257\247\177[\003\336\214\341\030"
 105      11A3AFA7 
 105      7F5B03DE 
 105      8CE118
 106 0094 11806F4A 		.ascii	"\021\200oJ\360\212\345\311B\305t:\216\251\234\005\256"
 106      F08AE5C9 
 106      42C5743A 
 106      8EA99C05 
 106      AE
 107 00a5 2E02DC72 		.ascii	".\002\334r5\373r\262$yH\024\351\203_\210\377\247RRu"
 107      35FB72B2 
 107      24794814 
 107      E9835F88 
 107      FFA75252 
 108 00ba 03D5EFDC 		.ascii	"\003\325\357\334c9\"\"\216\326l\260\355V\353\276\226"
 108      63392222 
 108      8ED66CB0 
 108      ED56EBBE 
 108      96
 109 00cb 72B582F8 		.ascii	"r\265\202\370=\327/\363\375c\306\344\215\305\255\275"
 109      3DD72FF3 
 109      FD63C6E4 
 109      8DC5ADBD 
 110 00db A7873B5D 		.ascii	"\247\207;]\300n*\303Sj\034 \2102xF\034\242\000j\300"
 110      C06E2AC3 
 110      536A1C20 
 110      88327846 
 110      1CA2006A 
 111 00f0 69CE92A3 		.ascii	"i\316\222\243\321\223k\345\334\266\226\367\026|8b\214"
 111      D1936BE5 
 111      DCB696F7 
 111      167C3862 
 111      8C
 112 0101 EF7FB235 		.ascii	"\357\177\2625O\317\320b\216\241\363\332u\326/\0208\216"
 112      4FCFD062 
ARM GAS  C:\Users\gjl\AppData\Local\Temp\ccXxVt7e.s 			page 8


 112      8EA1F3DA 
 112      75D62F10 
 112      388E
 113 0113 BB50BAB9 		.ascii	"\273P\272\271\361\206\036\344a\216\336\241\372'\352"
 113      F1861EE4 
 113      618EDEA1 
 113      FA27EA
 114 0122 7E03323E 		.ascii	"~\0032>\177fh\316^\265\023\313k\366\312R8\276\236\210"
 114      7F6668CE 
 114      5EB513CB 
 114      6BF6CA52 
 114      38BE9E88 
 115 0136 D9D1F970 		.ascii	"\331\321\371p|f2\032^\034\037\215\321?\272\350r\276"
 115      7C66321A 
 115      5E1C1F8D 
 115      D13FBAE8 
 115      72BE
 116              		.text
 117              		.section	.gnu.lto_SW1_ReadDataReg.1a3c981,"",%progbits
 118 0000 789C2D8F 		.ascii	"x\234-\217\317JBA\024\306\3177sMIz\202\214\332\272\211"
 118      CF4A4241 
 118      14C6CF37 
 118      734D497A 
 118      828CDABA 
 119 0015 A2366DDA 		.ascii	"\2426m\332\004\265\215\\\004!D\330\335&Hms\364z\015"
 119      04B58D5C 
 119      042144D8 
 119      DD26486D 
 119      73F47A0D 
 120 0029 A4859BFE 		.ascii	"\244\205\233\376@\224K\255\014\211z\000\023\241\240"
 120      40944BAD 
 120      0C897A00 
 120      13A1A0
 121 0038 A8076813 		.ascii	"\250\007h\023\021.Z\225XFdv\216\267\003s\316\314\231"
 121      112E5A95 
 121      58466476 
 121      8EB70373 
 121      CECC99
 122 004b DF7CDF19 		.ascii	"\337|\337\031\213@\022\323\\\206\271\016\362\202&\250"
 122      8B4012D3 
 122      5C86B90E 
 122      F28226A8 
 123 005b FC3D512A 		.ascii	"\374=Q*\240\000\331\230\000(\251\220\304\207\352(\334"
 123      A000D998 
 123      0028A990 
 123      C487EA28 
 123      DC
 124 006c B66FB6FB 		.ascii	"\266o\266\373\303Ec\322\346\311\275\230\332+U\341j\242"
 124      C34563D2 
 124      E6C9BD98 
 124      DA2B55E1 
 124      6AA2
 125 007e AE224C84 		.ascii	"\256\"L\2040\026\022\211\"\302\304\350\363\371\357\316"
 125      30161289 
 125      22C2C4E8 
 125      F3F9EFCE 
 126 008e 405FC670 		.ascii	"@_\306p\214\010\3007%\364\211ee\241j\272]\307T\017\202"
ARM GAS  C:\Users\gjl\AppData\Local\Temp\ccXxVt7e.s 			page 9


 126      8C08C037 
 126      25F48965 
 126      65A16ABA 
 126      5DC7540F 
 127 00a3 5747416E 		.ascii	"WGAn\271\232}9Y\222|$\212\364\306/\304\377])\251\272"
 127      B99A7D39 
 127      59927C24 
 127      8AF4C62F 
 127      C4FF5D29 
 128 00b9 81DA77EE 		.ascii	"\201\332w\356\263\274$\"\216\326l\260\353\326\036\374"
 128      B3BC2422 
 128      8ED66CB0 
 128      EBD61EFC 
 129 00c9 2DE56A05 		.ascii	"-\345j\005\361{\374\252t\202\336\321\230\274\261\270"
 129      F17BFCAA 
 129      7482DED1 
 129      98BCB1B8 
 130 00d9 55DCBFDB 		.ascii	"U\334\277\333,\3400\225\341!5N\020\3021xD\234\242\000"
 130      2CE03095 
 130      E121354E 
 130      10C23178 
 130      449CA200 
 131 00ed 6AC069CE 		.ascii	"j\300i\316\222\243\341\251\265rn[\313s\013~\224\031"
 131      92A3E1A9 
 131      B5726E5B 
 131      CB730B7E 
 131      9419
 132 00ff E3FB9F6C 		.ascii	"\343\373\237l\335\347\371Y\3141tY\277\316\006\004\002"
 132      DDE7F959 
 132      CC317459 
 132      BFCE0604 
 132      02
 133 0110 C7590F4A 		.ascii	"\307Y\017J7\267^\340A>\346\350\025\352\377D\275_@\246"
 133      37B75EE0 
 133      413EE6E8 
 133      15EAFF44 
 133      BD5F40A6 
 134 0124 E7BF0CCD 		.ascii	"\347\277\014\315\331kvbe\335^]\216\3047\0221;:\037\211"
 134      D96B7662 
 134      65DD5E5D 
 134      8EC43712 
 134      313B3A1F 
 135 0139 CF4C4623 		.ascii	"\317LF#\213\343\2431\372\003w\000r\263"
 135      8BE3A331 
 135      FA037700 
 135      72B3
 136              		.text
 137              		.section	.gnu.lto_SW1_SetInterruptMode.1a3c981,"",%progbits
 138 0000 789C6D51 		.ascii	"x\234mQMk\023Q\024\275\367\275If\222\264\251\013wV\310"
 138      4D6B1351 
 138      14BDF7BD 
 138      496692B4 
 138      A90B7756 
 139 0015 A6846C0A 		.ascii	"\246\204l\012\005\375\005]\270\223b\026n\012R\332Q\""
 139      05FD055D 
 139      B8936216 
 139      6E0A52DA 
ARM GAS  C:\Users\gjl\AppData\Local\Temp\ccXxVt7e.s 			page 10


 139      5122
 140 0027 98488CEB 		.ascii	"\230H\214\353\276d2\011\224\"Em\300b)V\206T\253\366"
 140      BE643209 
 140      9422456D 
 140      C0622956 
 140      8654ABF6 
 141 003b 53C1E262 		.ascii	"S\301\342b\014\270\363\253V)U\020\251\230B\351\"\255"
 141      0CB8F3AB 
 141      56295510 
 141      A99842E9 
 141      22AD
 142 004d 8A22B5F1 		.ascii	"\212\"\265\361\336\231l\012>\230y\357\036\3169\357\334"
 142      DE996C0A 
 142      3E9879EF 
 142      1ECE39EF 
 142      DC
 143 005e FB3440E0 		.ascii	"\3734@\340U\025\000'i?F\037J@1\366\032 o\010D>(\003"
 143      55150027 
 143      693F461F 
 143      4A4031F6 
 143      1A206F08 
 144 0076 6158E030 		.ascii	"aX\3400\376\024\177\005\326\312\365\247\"QU\264\276"
 144      FE147F05 
 144      D6CAF5A7 
 144      225155B4 
 144      BE
 145 0087 7CDBEA51 		.ascii	"|\333\352Q3.\332\022\240)<'\300*&\210\365\242\371\313"
 145      332EDA12 
 145      A0293C27 
 145      C02A2688 
 145      F5A2F9CB 
 146 009b EDF8216C 		.ascii	"\355\370!l\211\310\242w\215\227\223\021.\005\036\241"
 146      89C8A277 
 146      8D979311 
 146      2E051EA1 
 147 00ab 7262DBA9 		.ascii	"rb\333\251De\014\201\316[\313\323\353\341\270\243TA"
 147      44650C81 
 147      CE5BCBD3 
 147      EBE1B8A3 
 147      5441
 148 00bd A9F10115 		.ascii	"\251\361\001\025\260\245\304\373(\311\017\357a'\316"
 148      B0A5C4FB 
 148      28C90FEF 
 148      6127CE
 149 00cc 60271004 		.ascii	"`'\020\0048\213qb\177_rnDd\302S\356Y\216\325\326R\256"
 149      388B7162 
 149      7F5F726E 
 149      4464C253 
 149      EE598ED5 
 150 00e3 B7940FFE 		.ascii	"\267\224\017\376\243|\210q\246\257\026\347oK?\222F\345"
 150      A37C8871 
 150      A6AF16E7 
 150      6F4B3F92 
 150      46E5
 151 00f5 EEAB89AF 		.ascii	"\356\253\211\257Q?R\214\312Y\347\203#d\267g<\262q}\261"
 151      513F528C 
 151      CA59E783 
ARM GAS  C:\Users\gjl\AppData\Local\Temp\ccXxVt7e.s 			page 11


 151      2364B767 
 151      3CB2717D 
 152 010a BDEB2E1B 		.ascii	"\275\353.\033\273k\327\242\267\224[\214\331R\303y\337"
 152      BB6BD7A2 
 152      B7945B8C 
 152      D952C379 
 152      DF
 153 011b 7C8ECC1F 		.ascii	"|\216\314\037\2219/bo.\034\214\267\007\213<\220\030"
 153      91392F62 
 153      6F2E1C8C 
 153      B7078B3C 
 153      9018
 154 012d 2E60973F 		.ascii	".`\227?\012\\\304 \015\027\031\231;\343\252f\323R\356"
 154      0A5CC420 
 154      0D171999 
 154      3BE3AA66 
 154      D352EE
 155 0140 6AF4F9C7 		.ascii	"j\364\371\307h\233\240X\001JA\035i|\014\360/\010\314"
 155      689BA058 
 155      014A411D 
 155      697C0CF0 
 155      2F08CC
 156 0153 D491D31A 		.ascii	"\324\221\323\032\004\004C\214\206\371\007\320 G~\211"
 156      0404438C 
 156      86F907D0 
 156      20477E89 
 157 0163 5D217897 		.ascii	"]!x\227u\254\375\031\371\274\322\307\227X\222\007\\"
 157      75ACFD19 
 157      F9BCD2C7 
 157      97589207 
 157      5C
 158 0174 B16B6F74 		.ascii	"\261kot\356F\367:(O\257]\364\253Q5\246\270]us\343m\307"
 158      EE46F73A 
 158      284FAF5D 
 158      F4AB5135 
 158      A6B85D75 
 159 018c 144EE68B 		.ascii	"\024N\346\213\364\\\006.S\017K\334\003>\306)\204:\026"
 159      F45C062E 
 159      530F4BDC 
 159      033EC629 
 159      843A16
 160 019f F6CAFB9A 		.ascii	"\366\312\373\232\357\247Y45B\016J;\322G\002\004\022"
 160      EFA75934 
 160      35420E4A 
 160      3BD24702 
 160      0412
 161 01b1 62ED9776 		.ascii	"b\355\227v\320G\370Z\302a\023\205\327)e'\320\347\324"
 161      D047F85A 
 161      C2611385 
 161      D7296527 
 161      D0E7D4
 162 01c4 579EB558 		.ascii	"W\236\265X\0069YR\367\354u\037\012\021\312\264\337\245"
 162      06395952 
 162      F7EC751F 
 162      0A11CAB4 
 162      DFA5
 163 01d6 F72DF3B0 		.ascii	"\367-\363\260\347\026\"\260V\271s\224\261Cq\363JE\016"
ARM GAS  C:\Users\gjl\AppData\Local\Temp\ccXxVt7e.s 			page 12


 163      E71622B0 
 163      56B97394 
 163      B14371F3 
 163      4A450E
 164 01e9 277E4289 		.ascii	"'~B\211I\006\333Xp?\235f\201\367\024\015\201<\034\032"
 164      4906DB58 
 164      703F9D66 
 164      81F7140D 
 164      813C1C1A 
 165 01fd D5F15366 		.ascii	"\325\361Sf\332\314\016\344\314\241s\311\314\325\354"
 165      DACC0EE4 
 165      CCA173C9 
 165      CCD5EC
 166 020c A0D9DF97 		.ascii	"\240\331\337\227\314\364\236\350O\236\355\351\036\004"
 166      CCF49EE8 
 166      4F9EEDE9 
 166      1E04
 167 021a E372E64A 		.ascii	"\343r\346J*\227\312\244\265K\231!SO\245s\331\336\363"
 167      2A97CAA4 
 167      B54B9921 
 167      534FA573 
 167      D9DEF3
 168 022d 17FE0199 		.ascii	"\027\376\001\231*\352\310"
 168      2AEAC8
 169              		.text
 170              		.section	.gnu.lto_SW1_ClearInterrupt.1a3c981,"",%progbits
 171 0000 789C5590 		.ascii	"x\234U\220\315K\033Q\024\305\357yo\222\011\242\370\007"
 171      CD4B1B51 
 171      14C5EF79 
 171      6F9209A2 
 171      F807
 172 0012 9842362E 		.ascii	"\230B6.\004\221J\273\260\340\256\213n\245Yt#H\320Y\211"
 172      04914ABB 
 172      B0E0AE8B 
 172      6EA55974 
 172      2348D059 
 173 0027 0AF9D836 		.ascii	"\012\371\3306o\214\243E\012f\243Y\025\027\205\306\252"
 173      6F8CA345 
 173      0A66A359 
 173      151785C6 
 173      AA
 174 0038 356D4117 		.ascii	"5mA\027Jd\032\212\324\026\025\374\003J\261\020D\020"
 174      4A641A8A 
 174      D41615FC 
 174      034AB110 
 174      4410
 175 004a D4AA01BF 		.ascii	"\324\252\001\277\322{3]\324\007\303{\357\314=\277w\356"
 175      D27B335D 
 175      D407C37B 
 175      EFCC3DBF 
 175      77EE
 176 005c B50824EB 		.ascii	"\265\010$\353'o\235\274\267\361\007MP\371]\"7\242\000"
 176      276F9DBC 
 176      B7F1074D 
 176      50F95D22 
 176      37A200
 177 006f 39980828 		.ascii	"9\230\010(\253\220\305\205\272U\370Q\373\366\272\251"
ARM GAS  C:\Users\gjl\AppData\Local\Temp\ccXxVt7e.s 			page 13


 177      AB90C585 
 177      BA55F851 
 177      FBF6BAA9 
 178 007f A368CCB8 		.ascii	"\243h\314\270\371\345\325\236\024\026|x\232\250\256"
 178      F9E5D59E 
 178      14167C78 
 178      9AA8AE
 179 008e 088FA278 		.ascii	"\010\217\242x\030\025D\021\035\304\245\277W\256\213"
 179      18154411 
 179      1DC4A5BF 
 179      57AE8B
 180 009d 2D3A0639 		.ascii	"-:\0069\357\274;^E\373[\261\371\345\231\346\202\361"
 180      EFBC3B5E 
 180      45FB5BB1 
 180      F9E599E6 
 180      82F1
 181 00af DD18FBB0 		.ascii	"\335\030\373\260\000\375\277\225\244\366\340\323\335"
 181      00FDBF95 
 181      A4F6E0D3 
 181      DD
 182 00bc 6C4B78C2 		.ascii	"lKx\302\360\212\341=\332\005\316\324E\2049'D)=\367M"
 182      F08AE13D 
 182      DA05CED4 
 182      45843927 
 182      44293DF7 
 183 00d1 BD9E33FE 		.ascii	"\275\2363\376F\353\227\375\326\210\"OsnO+\213\344wH"
 183      46EB97FD 
 183      D688224F 
 183      736E4F2B 
 183      8BE47748 
 184 00e5 EE36492E 		.ascii	"\3566I.:a\257tq\252\224\354\272\212\312\325\364e\371"
 184      3A61AF74 
 184      71AA94EC 
 184      BA8ACAD5 
 184      F465F9
 185 00f8 A5E0725A 		.ascii	"\245\340rZ:\232\363*{\366\271\362\264n$]\177U\372\034"
 185      3A9AF32A 
 185      7BF6B9F2 
 185      B46E245D 
 185      7F55FA1C 
 186 010c 09AE7993 		.ascii	"\011\256y\2237\026K\207\177\334\357\341y\274q'\270W"
 186      37164B87 
 186      7FDCEFE1 
 186      79BC7127 
 186      B857
 187 011e 0BCB8862 		.ascii	"\013\313\210b\011\034\027\0370\017\252b\374l\352F\005"
 187      091C171F 
 187      300FAA62 
 187      FC6CEA46 
 187      05
 188 012f 40CD4C56 		.ascii	"@\315LVr7\223_\021(\026\213\314X\253no5\011V\301\000"
 188      7237935F 
 188      1128168B 
 188      CC58AB6E 
 188      6F350956 
 189 0145 2B6C3F40 		.ascii	"+l?@\303#\201\271*\300\334\225{\003W(\220*s\015\312"
 189      C32381B9 
ARM GAS  C:\Users\gjl\AppData\Local\Temp\ccXxVt7e.s 			page 14


 189      2AC0DC95 
 189      7B035728 
 189      902A730D 
 190 015a BD0CAE31 		.ascii	"\275\014\2561\241\3731J\034\203-\362\356\331\344\326"
 190      A1FB314A 
 190      1C832DF2 
 190      EED9E4D6 
 191 016a 664F80B0 		.ascii	"fO\200\260\031\301\306\363i\257\246\345\341\020l|\344"
 191      19C1C6F3 
 191      69AFA6E5 
 191      E1106C7C 
 191      E4
 192 017b FA23FCCB 		.ascii	"\372#\374\313jSc>\220\271\360\224\036<sF\235d\"\355"
 192      6A53633E 
 192      90B9F094 
 192      1E3C7346 
 192      9D6422ED 
 193 018f 0C0DC4C7 		.ascii	"\014\015\304\3072\311A\247\277/>\366\364q\177\374Ew"
 193      32C941A7 
 193      BF2F3EF6 
 193      F4717FFC 
 193      4577
 194 01a1 D720358F 		.ascii	"\327 5\217$R\303\316P<\235HgR\177\001\335p\252n"
 194      2452C3CE 
 194      503C9D48 
 194      67527F01 
 194      DD70AA6E 
 195              		.text
 196              		.section	.gnu.lto_.symbol_nodes.1a3c981,"",%progbits
 197 0000 789C6361 		.ascii	"x\234ca`d\310`\000\002&\206z\006\206\011\347\030@\324"
 197      6064C860 
 197      00022686 
 197      7A068609 
 197      E71840D4 
 198 0014 AE0645A0 		.ascii	"\256\006E\240\000c=#\252\000S=\023\252\000s=3\252\000"
 198      00633D23 
 198      AA00533D 
 198      13AA0073 
 198      3D33AA00 
 199 0028 4B3D0BAA 		.ascii	"K=\013\252\000k=+\212\000\003\000\305\333\026\342"
 199      006B3D2B 
 199      8A000300 
 199      C5DB16E2 
 200              		.text
 201              		.section	.gnu.lto_.refs.1a3c981,"",%progbits
 202 0000 789C6361 		.ascii	"x\234ca`\004B \000\000\0009\000\007"
 202      60044220 
 202      00000039 
 202      0007
 203              		.text
 204              		.section	.gnu.lto_.decls.1a3c981,"",%progbits
 205 0000 789C8D54 		.ascii	"x\234\215T]L\024W\024\276gfwX\206\337\020\322\360\260"
 205      5D4C1457 
 205      14BE6766 
 205      775886DF 
 205      10D2F0B0 
 206 0014 4DA80FBB 		.ascii	"M\250\017\273$M\210H\323\364\305\244)F\333\244\255\215"
ARM GAS  C:\Users\gjl\AppData\Local\Temp\ccXxVt7e.s 			page 15


 206      244D8848 
 206      D3F4C5A4 
 206      2946DBA4 
 206      AD8D
 207 0026 A4FA6262 		.ascii	"\244\372bb\026\230X\022\003f]\232\370v\203`m\373PH\250"
 207      16985812 
 207      03665D9A 
 207      F8768360 
 207      6DFB5048 
 208 003b 158A919F 		.ascii	"\025\212\221\237\324.\260+ ?\262K\353\256\025V\004\224"
 208      D42EB02B 
 208      203FB24B 
 208      EBAE1556 
 208      0494
 209 004d 1FD307AB 		.ascii	"\037\323\007\253V\233\2556\255\032h\265\241\320\320"
 209      569BAD36 
 209      AD1A68B5 
 209      A1D0D0
 210 005c EDB9F7CE 		.ascii	"\355\271\367\316\354\214vI\271\331s\177\317\371\316"
 210      EC8C7649 
 210      B9D9737F 
 210      CFF9CE
 211 006b 77BE3959 		.ascii	"w\2769Y\033\001\302\206\244\020\022\3055\200\307\004"
 211      1B01C286 
 211      A41012C5 
 211      3580C704 
 212 007b 8E34DCEF 		.ascii	"\2164\334\357%\346\300g2\2046\2026\206\026F\233@\213"
 212      25E6C067 
 212      32843682 
 212      36861646 
 212      9B408B
 213 008e 91FF8E21 		.ascii	"\221\377\216!\335\237\305\237Cs\243-\242\315\243\355"
 213      DD9FC59F 
 213      4373A32D 
 213      A2CDA3ED 
 214 009e D67D40F7 		.ascii	"\326}@\367{~0\374\264\347b\235\033\304\217\244\210g"
 214      7B7E30FC 
 214      B4E7629D 
 214      1BC48FA4 
 214      8867
 215 00b0 DCECFF93 		.ascii	"\334\354\377\223w,E\\x\023q\341\024qL\203t\235o\036"
 215      772C455C 
 215      781371E1 
 215      14714C83 
 215      749D6F1E 
 216 00c4 5A3E5A04 		.ascii	"Z>Z\004mV\307qY\260\014\234\211\0248LGe\0235\247\322"
 216      6D56C771 
 216      59B00C9C 
 216      8914384C 
 216      47651335 
 217 00da 7B5D82F9 		.ascii	"{]\202\371\206\330\005\307-\270\011\022\350\037\224"
 217      86D805C7 
 217      2DB80912 
 217      E81F94
 218 00e9 008819B8 		.ascii	"\000\210\031\270\021a\374\210\033\211\317$y\225\\\010"
 218      1161FC88 
 218      1B89CF24 
ARM GAS  C:\Users\gjl\AppData\Local\Temp\ccXxVt7e.s 			page 16


 218      79955C08 
 219 00f9 9B89F0E7 		.ascii	"\233\211\360\347w&\030\377\031k\302\030\034\304D\007"
 219      772618FF 
 219      196BC218 
 219      1CC44407 
 220 0109 3D08920C 		.ascii	"=\010\222\014D\224x\227\014T\261Hf\200\005O\320\265"
 220      44947897 
 220      0C54B148 
 220      6680054F 
 220      D0B5
 221 011b 7082676B 		.ascii	"p\202gk\002\243\350\340\344\017-\222\214\025\343\376"
 221      02A3E8E0 
 221      E40F2D92 
 221      8C15E3FE 
 222 012b EEAA7F67 		.ascii	"\356\252\177gq\200\342h\242Tz\331T\246\277\361\347\036"
 222      7180E268 
 222      A2547AD9 
 222      54A6BFF1 
 222      E71E
 223 013d C753099C 		.ascii	"\307S\011\234*$\200\235\037\205V\263\304\231=\2676\307"
 223      2A24809D 
 223      1F8556B3 
 223      C4993DB7 
 223      36C7
 224 014f FFC9909D 		.ascii	"\377\311\220\235l/\335\210\367\375j\203\"\365,\203\271"
 224      6C2FDD88 
 224      F7FD6A83 
 224      22F52C83 
 224      B9
 225 0160 F779CFF6 		.ascii	"\367y\317\366\020\245\271p\016T\010\200\014=P\314\222"
 225      10A5B970 
 225      0E540880 
 225      0C3D50CC 
 225      92
 226 0171 3B559C4F 		.ascii	";U\234OPZO\227\273\250R@\240\324\011[\235\004\202P\304"
 226      505A4F97 
 226      BBA85240 
 226      A0D4095B 
 226      9D048250 
 227 0186 309917F4 		.ascii	"0\231\027\364\201\023z\301\311\360\357\177q\346\241"
 227      81137AC1 
 227      C9F0EF7F 
 227      71E6A1
 228 0195 62933090 		.ascii	"b\2230\220\341T\330\330\335db%\232\203\024\362T\220"
 228      E154D8D8 
 228      DD646225 
 228      9A8314F2 
 228      5490
 229 01a7 F0B8B83C 		.ascii	"\360\270\270<{:\003\217\371*\344\342\361z\313\315E("
 229      7B3A038F 
 229      F92AE4E2 
 229      F17ACBCD 
 229      4528
 230 01b9 38C938D0 		.ascii	"8\3118\320c\264P\202\275/\300 \002\016  \201\363P\200"
 230      63B45082 
 230      BD2FC020 
 230      020E2020 
ARM GAS  C:\Users\gjl\AppData\Local\Temp\ccXxVt7e.s 			page 17


 230      81F35080 
 231 01cd 733FD844 		.ascii	"s?\330Du\237}\377\370\216mK\007\355\030\240\367Z\217"
 231      759F7DFF 
 231      F88E6D4B 
 231      07ED18A0 
 231      F75A8F
 232 01e0 BFDDD97D 		.ascii	"\277\335\331}\234\316c\334\353\334\021\374&m\334\262"
 232      9CCE63DC 
 232      EBDC11FC 
 232      266DDCB2 
 233 01f0 E56BB885 		.ascii	"\345k\270\205b\016\301\026\214\375\330?\027T\344\012"
 233      620EC116 
 233      8CFDD83F 
 233      1754E40A 
 234 0200 2EC34F2D 		.ascii	".\303O-\217g\034\002'\032\371Hn\245\321z\204\2218\312"
 234      8F671C02 
 234      271AF948 
 234      6EA5D17A 
 234      849138CA 
 235 0214 B089326C 		.ascii	"\260\2112lE\031\341(K\353mW\263\344C\034\345tSwo\206"
 235      4519E128 
 235      4BEB6D57 
 235      B3E4431C 
 235      E5745377 
 236 022a 953AABD9 		.ascii	"\225:\253\331\344~\201s\257\320\251O\377\365\347J\266"
 236      E47E8173 
 236      AFD0A94F 
 236      FFF5E74A 
 236      B6
 237 023b 9E7270DA 		.ascii	"\236rp\332L\211^0j\246\034\265\246\034\343)\007\037"
 237      4C895E30 
 237      6AA61CB5 
 237      A61CE329 
 237      071F
 238 024d 34EF94EB 		.ascii	"4\357\224\353x\306\320\247k\267\263t\220S3\231\242x"
 238      78C6D0A7 
 238      6BB7B374 
 238      90533399 
 238      A278
 239 025f 0E113221 		.ascii	"\016\0212!BV\2100\207\010,}\271\346\220\033\201\203"
 239      42568830 
 239      87082C7D 
 239      B9E6901B 
 239      8183
 240 0271 7CB5F6F7 		.ascii	"|\265\366\367\262\214\037\300\205-\222\220-=\342\022"
 240      B28C1FC0 
 240      852D9290 
 240      2D3DE212 
 241 0281 3DE2EF8C 		.ascii	"=\342\357\214\015\251r\033w\226\332[.\005\025P\213x"
 241      0DA9721B 
 241      7796DA5B 
 241      2E051550 
 241      8B78
 242 0293 0B6095AA 		.ascii	"\013`\225\252?\233$k\204(v\201K\357\202o\361\362\033"
 242      3F9B246B 
 242      84287681 
 242      4BEF826F 
ARM GAS  C:\Users\gjl\AppData\Local\Temp\ccXxVt7e.s 			page 18


 242      F1F21B
 243 02a6 BCD4DB29 		.ascii	"\274\324\333)(\332)\202\222\\4\271\271T\241\306\311"
 243      28DA2982 
 243      925C34B9 
 243      B954A1C6 
 243      C9
 244 02b7 1B4F5781 		.ascii	"\033OW\201\367I$\331']KO\232\035\311\273K\300/{\177"
 244      F74924D9 
 244      275D4B4F 
 244      9A1DC9BB 
 244      4BC02F7B 
 245 02cc 5B8D281B 		.ascii	"[\215(\033\266\307e.\361wF{\254,\327_v\030\355\021\333"
 245      B6C7652E 
 245      F177467B 
 245      AC2CD75F 
 245      7618ED11 
 246 02e1 1D3F4F69 		.ascii	"\035?Oi#\306\331\230\037\214\233,\306\255\012Mp\205"
 246      23C6D998 
 246      1F8C9B2C 
 246      C6AD0A4D 
 246      7085
 247 02f3 BACEC61F 		.ascii	"\272\316\306\037)r\247P\350AG\350\015]\345\320\334\263"
 247      2972A750 
 247      E84147E8 
 247      0D5DE5D0 
 247      DCB3
 248 0305 9F6AD244 		.ascii	"\237j\322D\231\264\242\3048\312B\303@\273,Z\335\206"
 248      99B4A2C4 
 248      38CA42C3 
 248      40BB2C5A 
 248      DD86
 249 0317 C7DFAFB5 		.ascii	"\307\337\257\265\305\263E\253\027\342\361\316TO\037"
 249      C5B345AB 
 249      17E2F1CE 
 249      544F1F
 250 0326 7B7533E1 		.ascii	"{u3\341\023\211\034\213\364n!\375\364\335\373\177\244"
 250      13891C8B 
 250      F46E21FD 
 250      F4DDFB7F 
 250      A4
 251 0337 CBC342FA 		.ascii	"\313\303B\372\321\3563O\354\206\364M\307h\336\024J?"
 251      D1EE334F 
 251      EC86F44D 
 251      C768DE14 
 251      4A3F
 252 0349 85B55F61 		.ascii	"\205\265_a\322_C\351\335\272\364\323xy\325\224~PH?\213"
 252      D25F43E9 
 252      DDBAF4D3 
 252      7879D594 
 252      7E50483F 
 253 035e 2ACE9874 		.ascii	"*\316\230t\335\272\364\341@\377)Y=\301\344\334\024("
 253      DDBAF4E1 
 253      40FF2959 
 253      3DC1E4DC 
 253      1428
 254 0370 0BF991B6 		.ascii	"\013\371\221\266\333\345qA+4\3660\220-h\245@X\330\210"
 254      DBE57141 
ARM GAS  C:\Users\gjl\AppData\Local\Temp\ccXxVt7e.s 			page 19


 254      2B34F630 
 254      902D68A5 
 254      4058D888 
 255 0384 5674FD97 		.ascii	"Vt\375\2277\033(\005\230GZs&\255\353\240\363\032\235"
 255      371B2805 
 255      98475A73 
 255      26ADEBA0 
 255      F31A9D
 256 0397 5A1849CB 		.ascii	"Z\030I\313\374\304,\226{\032\300\004\026!\223\377'\262"
 256      FCC42C96 
 256      7B1AC004 
 256      162193FF 
 256      27B2
 257 03a9 35B77C5F 		.ascii	"5\267|_\311\201r\315\267\303[\375\241\366Nm\225\346"
 257      C98172CD 
 257      B7C35BFD 
 257      A1F64E6D 
 257      95E6
 258 03bb D8F5EEFB 		.ascii	"\330\365\356\373\205e%%\304^W]\343{\355\245]Z\215\346"
 258      85652525 
 258      C45E575D 
 258      E37BEDA5 
 258      5D5A8DE6 
 259 03cf F5F8B4AA 		.ascii	"\365\370\264\252\003\345\265u\336Jm\377{\345\265e\257"
 259      03E5B575 
 259      DE4A6DFF 
 259      7BE5B565 
 259      AF
 260 03e0 ECAF3CEA 		.ascii	"\354\257<\352;zX;R\374\001yq\003\017\004.\256$\351\014"
 260      3B7A583B 
 260      52FC0179 
 260      71030F04 
 260      2EAE24E9 
 261 03f5 7F9FB7DA 		.ascii	"\177\237\267\332\2479\330n\217\346\251\31216;<>\317"
 261      A739D86E 
 261      8FE6A9CA 
 261      31363B3C 
 261      3ECF
 262 0407 1EED60BE 		.ascii	"\036\355`\276N\341\255\032\237\346\365\326\035\3661"
 262      4EE1AD1A 
 262      9FE6F5D6 
 262      1DF631
 263 0416 1A0ACB5E 		.ascii	"\032\012\313^\362j\036{+;\244y\274\311W\376R\272\315"
 263      F26A1E7B 
 263      2B3BA479 
 263      BCC957FE 
 263      52BACD
 264 0429 EED50E96 		.ascii	"\356\325\016\226n\373\027\200N\021\251"
 264      6EFB1780 
 264      4E11A9
 265              		.text
 266              		.section	.gnu.lto_.symtab.1a3c981,"",%progbits
 267 0000 5357315F 		.ascii	"SW1_SetDriveMode\000"
 267      53657444 
 267      72697665 
 267      4D6F6465 
 267      00
ARM GAS  C:\Users\gjl\AppData\Local\Temp\ccXxVt7e.s 			page 20


 268 0011 00       		.ascii	"\000"
 269 0012 00       		.ascii	"\000"
 270 0013 00       		.ascii	"\000"
 271 0014 00000000 		.ascii	"\000\000\000\000\000\000\000\000"
 271      00000000 
 272 001c B3000000 		.ascii	"\263\000\000\000"
 273 0020 5357315F 		.ascii	"SW1_Write\000"
 273      57726974 
 273      6500
 274 002a 00       		.ascii	"\000"
 275 002b 00       		.ascii	"\000"
 276 002c 00       		.ascii	"\000"
 277 002d 00000000 		.ascii	"\000\000\000\000\000\000\000\000"
 277      00000000 
 278 0035 B5000000 		.ascii	"\265\000\000\000"
 279 0039 5357315F 		.ascii	"SW1_Read\000"
 279      52656164 
 279      00
 280 0042 00       		.ascii	"\000"
 281 0043 00       		.ascii	"\000"
 282 0044 00       		.ascii	"\000"
 283 0045 00000000 		.ascii	"\000\000\000\000\000\000\000\000"
 283      00000000 
 284 004d B8000000 		.ascii	"\270\000\000\000"
 285 0051 5357315F 		.ascii	"SW1_ReadDataReg\000"
 285      52656164 
 285      44617461 
 285      52656700 
 286 0061 00       		.ascii	"\000"
 287 0062 00       		.ascii	"\000"
 288 0063 00       		.ascii	"\000"
 289 0064 00000000 		.ascii	"\000\000\000\000\000\000\000\000"
 289      00000000 
 290 006c BA000000 		.ascii	"\272\000\000\000"
 291 0070 5357315F 		.ascii	"SW1_SetInterruptMode\000"
 291      53657449 
 291      6E746572 
 291      72757074 
 291      4D6F6465 
 292 0085 00       		.ascii	"\000"
 293 0086 00       		.ascii	"\000"
 294 0087 00       		.ascii	"\000"
 295 0088 00000000 		.ascii	"\000\000\000\000\000\000\000\000"
 295      00000000 
 296 0090 C4000000 		.ascii	"\304\000\000\000"
 297 0094 5357315F 		.ascii	"SW1_ClearInterrupt\000"
 297      436C6561 
 297      72496E74 
 297      65727275 
 297      707400
 298 00a7 00       		.ascii	"\000"
 299 00a8 00       		.ascii	"\000"
 300 00a9 00       		.ascii	"\000"
 301 00aa 00000000 		.ascii	"\000\000\000\000\000\000\000\000"
 301      00000000 
 302 00b2 C6000000 		.ascii	"\306\000\000\000"
 303              		.text
ARM GAS  C:\Users\gjl\AppData\Local\Temp\ccXxVt7e.s 			page 21


 304              		.section	.gnu.lto_.opts,"",%progbits
 305 0000 272D666D 		.ascii	"'-fmath-errno' '-fsigned-zeros' '-ftrapping-math' '"
 305      6174682D 
 305      6572726E 
 305      6F272027 
 305      2D667369 
 306 0033 2D666E6F 		.ascii	"-fno-trapv' '-fno-openmp' '-fno-openacc' '-mcpu=cor"
 306      2D747261 
 306      70762720 
 306      272D666E 
 306      6F2D6F70 
 307 0066 7465782D 		.ascii	"tex-m0' '-mthumb' '-g' '-Os' '-ffunction-sections' "
 307      6D302720 
 307      272D6D74 
 307      68756D62 
 307      2720272D 
 308 0099 272D6666 		.ascii	"'-ffat-lto-objects' '-flto'\000"
 308      61742D6C 
 308      746F2D6F 
 308      626A6563 
 308      74732720 
 309              		.text
 310              		.cfi_sections	.debug_frame
 311              		.section	.text.SW1_SetDriveMode,"ax",%progbits
 312              		.align	1
 313              		.global	SW1_SetDriveMode
 314              		.code	16
 315              		.thumb_func
 316              		.type	SW1_SetDriveMode, %function
 317              	SW1_SetDriveMode:
 318              	.LFB0:
 319              		.file 1 "Generated_Source\\PSoC4\\SW1.c"
   1:Generated_Source\PSoC4/SW1.c **** /*******************************************************************************
   2:Generated_Source\PSoC4/SW1.c **** * File Name: SW1.c  
   3:Generated_Source\PSoC4/SW1.c **** * Version 2.20
   4:Generated_Source\PSoC4/SW1.c **** *
   5:Generated_Source\PSoC4/SW1.c **** * Description:
   6:Generated_Source\PSoC4/SW1.c **** *  This file contains API to enable firmware control of a Pins component.
   7:Generated_Source\PSoC4/SW1.c **** *
   8:Generated_Source\PSoC4/SW1.c **** ********************************************************************************
   9:Generated_Source\PSoC4/SW1.c **** * Copyright 2008-2015, Cypress Semiconductor Corporation.  All rights reserved.
  10:Generated_Source\PSoC4/SW1.c **** * You may use this file only in accordance with the license, terms, conditions, 
  11:Generated_Source\PSoC4/SW1.c **** * disclaimers, and limitations in the end user license agreement accompanying 
  12:Generated_Source\PSoC4/SW1.c **** * the software package with which this file was provided.
  13:Generated_Source\PSoC4/SW1.c **** *******************************************************************************/
  14:Generated_Source\PSoC4/SW1.c **** 
  15:Generated_Source\PSoC4/SW1.c **** #include "cytypes.h"
  16:Generated_Source\PSoC4/SW1.c **** #include "SW1.h"
  17:Generated_Source\PSoC4/SW1.c **** 
  18:Generated_Source\PSoC4/SW1.c **** 
  19:Generated_Source\PSoC4/SW1.c **** #if defined(SW1__PC)
  20:Generated_Source\PSoC4/SW1.c ****     #define SW1_SetP4PinDriveMode(shift, mode)  \
  21:Generated_Source\PSoC4/SW1.c ****     do { \
  22:Generated_Source\PSoC4/SW1.c ****         SW1_PC =   (SW1_PC & \
  23:Generated_Source\PSoC4/SW1.c ****                                 (uint32)(~(uint32)(SW1_DRIVE_MODE_IND_MASK << \
  24:Generated_Source\PSoC4/SW1.c ****                                 (SW1_DRIVE_MODE_BITS * (shift))))) | \
  25:Generated_Source\PSoC4/SW1.c ****                                 (uint32)((uint32)(mode) << \
ARM GAS  C:\Users\gjl\AppData\Local\Temp\ccXxVt7e.s 			page 22


  26:Generated_Source\PSoC4/SW1.c ****                                 (SW1_DRIVE_MODE_BITS * (shift))); \
  27:Generated_Source\PSoC4/SW1.c ****     } while (0)
  28:Generated_Source\PSoC4/SW1.c **** #else
  29:Generated_Source\PSoC4/SW1.c ****     #if (CY_PSOC4_4200L)
  30:Generated_Source\PSoC4/SW1.c ****         #define SW1_SetP4PinDriveMode(shift, mode)  \
  31:Generated_Source\PSoC4/SW1.c ****         do { \
  32:Generated_Source\PSoC4/SW1.c ****             SW1_USBIO_CTRL_REG = (SW1_USBIO_CTRL_REG & \
  33:Generated_Source\PSoC4/SW1.c ****                                     (uint32)(~(uint32)(SW1_DRIVE_MODE_IND_MASK << \
  34:Generated_Source\PSoC4/SW1.c ****                                     (SW1_DRIVE_MODE_BITS * (shift))))) | \
  35:Generated_Source\PSoC4/SW1.c ****                                     (uint32)((uint32)(mode) << \
  36:Generated_Source\PSoC4/SW1.c ****                                     (SW1_DRIVE_MODE_BITS * (shift))); \
  37:Generated_Source\PSoC4/SW1.c ****         } while (0)
  38:Generated_Source\PSoC4/SW1.c ****     #endif
  39:Generated_Source\PSoC4/SW1.c **** #endif
  40:Generated_Source\PSoC4/SW1.c ****   
  41:Generated_Source\PSoC4/SW1.c **** 
  42:Generated_Source\PSoC4/SW1.c **** #if defined(SW1__PC) || (CY_PSOC4_4200L) 
  43:Generated_Source\PSoC4/SW1.c ****     /*******************************************************************************
  44:Generated_Source\PSoC4/SW1.c ****     * Function Name: SW1_SetDriveMode
  45:Generated_Source\PSoC4/SW1.c ****     ****************************************************************************//**
  46:Generated_Source\PSoC4/SW1.c ****     *
  47:Generated_Source\PSoC4/SW1.c ****     * \brief Sets the drive mode for each of the Pins component's pins.
  48:Generated_Source\PSoC4/SW1.c ****     * 
  49:Generated_Source\PSoC4/SW1.c ****     * <b>Note</b> This affects all pins in the Pins component instance. Use the
  50:Generated_Source\PSoC4/SW1.c ****     * Per-Pin APIs if you wish to control individual pin's drive modes.
  51:Generated_Source\PSoC4/SW1.c ****     *
  52:Generated_Source\PSoC4/SW1.c ****     * <b>Note</b> USBIOs have limited drive functionality. Refer to the Drive Mode
  53:Generated_Source\PSoC4/SW1.c ****     * parameter for more information.
  54:Generated_Source\PSoC4/SW1.c ****     *
  55:Generated_Source\PSoC4/SW1.c ****     * \param mode
  56:Generated_Source\PSoC4/SW1.c ****     *  Mode for the selected signals. Valid options are documented in 
  57:Generated_Source\PSoC4/SW1.c ****     *  \ref driveMode.
  58:Generated_Source\PSoC4/SW1.c ****     *
  59:Generated_Source\PSoC4/SW1.c ****     * \return
  60:Generated_Source\PSoC4/SW1.c ****     *  None
  61:Generated_Source\PSoC4/SW1.c ****     *
  62:Generated_Source\PSoC4/SW1.c ****     * \sideeffect
  63:Generated_Source\PSoC4/SW1.c ****     *  If you use read-modify-write operations that are not atomic, the ISR can
  64:Generated_Source\PSoC4/SW1.c ****     *  cause corruption of this function. An ISR that interrupts this function 
  65:Generated_Source\PSoC4/SW1.c ****     *  and performs writes to the Pins component Drive Mode registers can cause 
  66:Generated_Source\PSoC4/SW1.c ****     *  corrupted port data. To avoid this issue, you should either use the Per-Pin
  67:Generated_Source\PSoC4/SW1.c ****     *  APIs (primary method) or disable interrupts around this function.
  68:Generated_Source\PSoC4/SW1.c ****     *
  69:Generated_Source\PSoC4/SW1.c ****     * \funcusage
  70:Generated_Source\PSoC4/SW1.c ****     *  \snippet SW1_SUT.c usage_SW1_SetDriveMode
  71:Generated_Source\PSoC4/SW1.c ****     *******************************************************************************/
  72:Generated_Source\PSoC4/SW1.c ****     void SW1_SetDriveMode(uint8 mode)
  73:Generated_Source\PSoC4/SW1.c ****     {
 320              		.loc 1 73 0
 321              		.cfi_startproc
 322              		@ args = 0, pretend = 0, frame = 0
 323              		@ frame_needed = 0, uses_anonymous_args = 0
 324              		@ link register save eliminated.
 325              	.LVL0:
  74:Generated_Source\PSoC4/SW1.c **** 		SW1_SetP4PinDriveMode(SW1__0__SHIFT, mode);
 326              		.loc 1 74 0
 327 0000 034A     		ldr	r2, .L2
ARM GAS  C:\Users\gjl\AppData\Local\Temp\ccXxVt7e.s 			page 23


 328 0002 044B     		ldr	r3, .L2+4
 329 0004 1168     		ldr	r1, [r2]
 330 0006 4005     		lsls	r0, r0, #21
 331              	.LVL1:
 332 0008 0B40     		ands	r3, r1
 333 000a 1843     		orrs	r0, r3
 334 000c 1060     		str	r0, [r2]
  75:Generated_Source\PSoC4/SW1.c ****     }
 335              		.loc 1 75 0
 336              		@ sp needed
 337 000e 7047     		bx	lr
 338              	.L3:
 339              		.align	2
 340              	.L2:
 341 0010 08000440 		.word	1074003976
 342 0014 FFFF1FFF 		.word	-14680065
 343              		.cfi_endproc
 344              	.LFE0:
 345              		.size	SW1_SetDriveMode, .-SW1_SetDriveMode
 346              		.section	.text.SW1_Write,"ax",%progbits
 347              		.align	1
 348              		.global	SW1_Write
 349              		.code	16
 350              		.thumb_func
 351              		.type	SW1_Write, %function
 352              	SW1_Write:
 353              	.LFB1:
  76:Generated_Source\PSoC4/SW1.c **** #endif
  77:Generated_Source\PSoC4/SW1.c **** 
  78:Generated_Source\PSoC4/SW1.c **** 
  79:Generated_Source\PSoC4/SW1.c **** /*******************************************************************************
  80:Generated_Source\PSoC4/SW1.c **** * Function Name: SW1_Write
  81:Generated_Source\PSoC4/SW1.c **** ****************************************************************************//**
  82:Generated_Source\PSoC4/SW1.c **** *
  83:Generated_Source\PSoC4/SW1.c **** * \brief Writes the value to the physical port (data output register), masking
  84:Generated_Source\PSoC4/SW1.c **** *  and shifting the bits appropriately. 
  85:Generated_Source\PSoC4/SW1.c **** *
  86:Generated_Source\PSoC4/SW1.c **** * The data output register controls the signal applied to the physical pin in 
  87:Generated_Source\PSoC4/SW1.c **** * conjunction with the drive mode parameter. This function avoids changing 
  88:Generated_Source\PSoC4/SW1.c **** * other bits in the port by using the appropriate method (read-modify-write or
  89:Generated_Source\PSoC4/SW1.c **** * bit banding).
  90:Generated_Source\PSoC4/SW1.c **** *
  91:Generated_Source\PSoC4/SW1.c **** * <b>Note</b> This function should not be used on a hardware digital output pin 
  92:Generated_Source\PSoC4/SW1.c **** * as it is driven by the hardware signal attached to it.
  93:Generated_Source\PSoC4/SW1.c **** *
  94:Generated_Source\PSoC4/SW1.c **** * \param value
  95:Generated_Source\PSoC4/SW1.c **** *  Value to write to the component instance.
  96:Generated_Source\PSoC4/SW1.c **** *
  97:Generated_Source\PSoC4/SW1.c **** * \return 
  98:Generated_Source\PSoC4/SW1.c **** *  None 
  99:Generated_Source\PSoC4/SW1.c **** *
 100:Generated_Source\PSoC4/SW1.c **** * \sideeffect
 101:Generated_Source\PSoC4/SW1.c **** *  If you use read-modify-write operations that are not atomic; the Interrupt 
 102:Generated_Source\PSoC4/SW1.c **** *  Service Routines (ISR) can cause corruption of this function. An ISR that 
 103:Generated_Source\PSoC4/SW1.c **** *  interrupts this function and performs writes to the Pins component data 
 104:Generated_Source\PSoC4/SW1.c **** *  register can cause corrupted port data. To avoid this issue, you should 
 105:Generated_Source\PSoC4/SW1.c **** *  either use the Per-Pin APIs (primary method) or disable interrupts around 
ARM GAS  C:\Users\gjl\AppData\Local\Temp\ccXxVt7e.s 			page 24


 106:Generated_Source\PSoC4/SW1.c **** *  this function.
 107:Generated_Source\PSoC4/SW1.c **** *
 108:Generated_Source\PSoC4/SW1.c **** * \funcusage
 109:Generated_Source\PSoC4/SW1.c **** *  \snippet SW1_SUT.c usage_SW1_Write
 110:Generated_Source\PSoC4/SW1.c **** *******************************************************************************/
 111:Generated_Source\PSoC4/SW1.c **** void SW1_Write(uint8 value)
 112:Generated_Source\PSoC4/SW1.c **** {
 354              		.loc 1 112 0
 355              		.cfi_startproc
 356              		@ args = 0, pretend = 0, frame = 0
 357              		@ frame_needed = 0, uses_anonymous_args = 0
 358              		@ link register save eliminated.
 359              	.LVL2:
 113:Generated_Source\PSoC4/SW1.c ****     uint8 drVal = (uint8)(SW1_DR & (uint8)(~SW1_MASK));
 360              		.loc 1 113 0
 361 0000 7F23     		movs	r3, #127
 362 0002 044A     		ldr	r2, .L5
 114:Generated_Source\PSoC4/SW1.c ****     drVal = (drVal | ((uint8)(value << SW1_SHIFT) & SW1_MASK));
 115:Generated_Source\PSoC4/SW1.c ****     SW1_DR = (uint32)drVal;
 363              		.loc 1 115 0
 364 0004 C001     		lsls	r0, r0, #7
 365              	.LVL3:
 113:Generated_Source\PSoC4/SW1.c ****     uint8 drVal = (uint8)(SW1_DR & (uint8)(~SW1_MASK));
 366              		.loc 1 113 0
 367 0006 1168     		ldr	r1, [r2]
 116:Generated_Source\PSoC4/SW1.c **** }
 368              		.loc 1 116 0
 369              		@ sp needed
 113:Generated_Source\PSoC4/SW1.c ****     uint8 drVal = (uint8)(SW1_DR & (uint8)(~SW1_MASK));
 370              		.loc 1 113 0
 371 0008 0B40     		ands	r3, r1
 115:Generated_Source\PSoC4/SW1.c **** }
 372              		.loc 1 115 0
 373 000a 1843     		orrs	r0, r3
 374 000c C0B2     		uxtb	r0, r0
 375 000e 1060     		str	r0, [r2]
 376              		.loc 1 116 0
 377 0010 7047     		bx	lr
 378              	.L6:
 379 0012 C046     		.align	2
 380              	.L5:
 381 0014 00000440 		.word	1074003968
 382              		.cfi_endproc
 383              	.LFE1:
 384              		.size	SW1_Write, .-SW1_Write
 385              		.section	.text.SW1_Read,"ax",%progbits
 386              		.align	1
 387              		.global	SW1_Read
 388              		.code	16
 389              		.thumb_func
 390              		.type	SW1_Read, %function
 391              	SW1_Read:
 392              	.LFB2:
 117:Generated_Source\PSoC4/SW1.c **** 
 118:Generated_Source\PSoC4/SW1.c **** 
 119:Generated_Source\PSoC4/SW1.c **** /*******************************************************************************
 120:Generated_Source\PSoC4/SW1.c **** * Function Name: SW1_Read
ARM GAS  C:\Users\gjl\AppData\Local\Temp\ccXxVt7e.s 			page 25


 121:Generated_Source\PSoC4/SW1.c **** ****************************************************************************//**
 122:Generated_Source\PSoC4/SW1.c **** *
 123:Generated_Source\PSoC4/SW1.c **** * \brief Reads the associated physical port (pin status register) and masks 
 124:Generated_Source\PSoC4/SW1.c **** *  the required bits according to the width and bit position of the component
 125:Generated_Source\PSoC4/SW1.c **** *  instance. 
 126:Generated_Source\PSoC4/SW1.c **** *
 127:Generated_Source\PSoC4/SW1.c **** * The pin's status register returns the current logic level present on the 
 128:Generated_Source\PSoC4/SW1.c **** * physical pin.
 129:Generated_Source\PSoC4/SW1.c **** *
 130:Generated_Source\PSoC4/SW1.c **** * \return 
 131:Generated_Source\PSoC4/SW1.c **** *  The current value for the pins in the component as a right justified number.
 132:Generated_Source\PSoC4/SW1.c **** *
 133:Generated_Source\PSoC4/SW1.c **** * \funcusage
 134:Generated_Source\PSoC4/SW1.c **** *  \snippet SW1_SUT.c usage_SW1_Read  
 135:Generated_Source\PSoC4/SW1.c **** *******************************************************************************/
 136:Generated_Source\PSoC4/SW1.c **** uint8 SW1_Read(void)
 137:Generated_Source\PSoC4/SW1.c **** {
 393              		.loc 1 137 0
 394              		.cfi_startproc
 395              		@ args = 0, pretend = 0, frame = 0
 396              		@ frame_needed = 0, uses_anonymous_args = 0
 397              		@ link register save eliminated.
 138:Generated_Source\PSoC4/SW1.c ****     return (uint8)((SW1_PS & SW1_MASK) >> SW1_SHIFT);
 398              		.loc 1 138 0
 399 0000 024B     		ldr	r3, .L8
 139:Generated_Source\PSoC4/SW1.c **** }
 400              		.loc 1 139 0
 401              		@ sp needed
 138:Generated_Source\PSoC4/SW1.c ****     return (uint8)((SW1_PS & SW1_MASK) >> SW1_SHIFT);
 402              		.loc 1 138 0
 403 0002 1868     		ldr	r0, [r3]
 404 0004 0006     		lsls	r0, r0, #24
 405 0006 C00F     		lsrs	r0, r0, #31
 406              		.loc 1 139 0
 407 0008 7047     		bx	lr
 408              	.L9:
 409 000a C046     		.align	2
 410              	.L8:
 411 000c 04000440 		.word	1074003972
 412              		.cfi_endproc
 413              	.LFE2:
 414              		.size	SW1_Read, .-SW1_Read
 415              		.section	.text.SW1_ReadDataReg,"ax",%progbits
 416              		.align	1
 417              		.global	SW1_ReadDataReg
 418              		.code	16
 419              		.thumb_func
 420              		.type	SW1_ReadDataReg, %function
 421              	SW1_ReadDataReg:
 422              	.LFB3:
 140:Generated_Source\PSoC4/SW1.c **** 
 141:Generated_Source\PSoC4/SW1.c **** 
 142:Generated_Source\PSoC4/SW1.c **** /*******************************************************************************
 143:Generated_Source\PSoC4/SW1.c **** * Function Name: SW1_ReadDataReg
 144:Generated_Source\PSoC4/SW1.c **** ****************************************************************************//**
 145:Generated_Source\PSoC4/SW1.c **** *
 146:Generated_Source\PSoC4/SW1.c **** * \brief Reads the associated physical port's data output register and masks 
ARM GAS  C:\Users\gjl\AppData\Local\Temp\ccXxVt7e.s 			page 26


 147:Generated_Source\PSoC4/SW1.c **** *  the correct bits according to the width and bit position of the component 
 148:Generated_Source\PSoC4/SW1.c **** *  instance. 
 149:Generated_Source\PSoC4/SW1.c **** *
 150:Generated_Source\PSoC4/SW1.c **** * The data output register controls the signal applied to the physical pin in 
 151:Generated_Source\PSoC4/SW1.c **** * conjunction with the drive mode parameter. This is not the same as the 
 152:Generated_Source\PSoC4/SW1.c **** * preferred SW1_Read() API because the 
 153:Generated_Source\PSoC4/SW1.c **** * SW1_ReadDataReg() reads the data register instead of the status 
 154:Generated_Source\PSoC4/SW1.c **** * register. For output pins this is a useful function to determine the value 
 155:Generated_Source\PSoC4/SW1.c **** * just written to the pin.
 156:Generated_Source\PSoC4/SW1.c **** *
 157:Generated_Source\PSoC4/SW1.c **** * \return 
 158:Generated_Source\PSoC4/SW1.c **** *  The current value of the data register masked and shifted into a right 
 159:Generated_Source\PSoC4/SW1.c **** *  justified number for the component instance.
 160:Generated_Source\PSoC4/SW1.c **** *
 161:Generated_Source\PSoC4/SW1.c **** * \funcusage
 162:Generated_Source\PSoC4/SW1.c **** *  \snippet SW1_SUT.c usage_SW1_ReadDataReg 
 163:Generated_Source\PSoC4/SW1.c **** *******************************************************************************/
 164:Generated_Source\PSoC4/SW1.c **** uint8 SW1_ReadDataReg(void)
 165:Generated_Source\PSoC4/SW1.c **** {
 423              		.loc 1 165 0
 424              		.cfi_startproc
 425              		@ args = 0, pretend = 0, frame = 0
 426              		@ frame_needed = 0, uses_anonymous_args = 0
 427              		@ link register save eliminated.
 166:Generated_Source\PSoC4/SW1.c ****     return (uint8)((SW1_DR & SW1_MASK) >> SW1_SHIFT);
 428              		.loc 1 166 0
 429 0000 024B     		ldr	r3, .L11
 167:Generated_Source\PSoC4/SW1.c **** }
 430              		.loc 1 167 0
 431              		@ sp needed
 166:Generated_Source\PSoC4/SW1.c ****     return (uint8)((SW1_DR & SW1_MASK) >> SW1_SHIFT);
 432              		.loc 1 166 0
 433 0002 1868     		ldr	r0, [r3]
 434 0004 0006     		lsls	r0, r0, #24
 435 0006 C00F     		lsrs	r0, r0, #31
 436              		.loc 1 167 0
 437 0008 7047     		bx	lr
 438              	.L12:
 439 000a C046     		.align	2
 440              	.L11:
 441 000c 00000440 		.word	1074003968
 442              		.cfi_endproc
 443              	.LFE3:
 444              		.size	SW1_ReadDataReg, .-SW1_ReadDataReg
 445              		.section	.text.SW1_SetInterruptMode,"ax",%progbits
 446              		.align	1
 447              		.global	SW1_SetInterruptMode
 448              		.code	16
 449              		.thumb_func
 450              		.type	SW1_SetInterruptMode, %function
 451              	SW1_SetInterruptMode:
 452              	.LFB4:
 168:Generated_Source\PSoC4/SW1.c **** 
 169:Generated_Source\PSoC4/SW1.c **** 
 170:Generated_Source\PSoC4/SW1.c **** /*******************************************************************************
 171:Generated_Source\PSoC4/SW1.c **** * Function Name: SW1_SetInterruptMode
 172:Generated_Source\PSoC4/SW1.c **** ****************************************************************************//**
ARM GAS  C:\Users\gjl\AppData\Local\Temp\ccXxVt7e.s 			page 27


 173:Generated_Source\PSoC4/SW1.c **** *
 174:Generated_Source\PSoC4/SW1.c **** * \brief Configures the interrupt mode for each of the Pins component's
 175:Generated_Source\PSoC4/SW1.c **** *  pins. Alternatively you may set the interrupt mode for all the pins
 176:Generated_Source\PSoC4/SW1.c **** *  specified in the Pins component.
 177:Generated_Source\PSoC4/SW1.c **** *
 178:Generated_Source\PSoC4/SW1.c **** *  <b>Note</b> The interrupt is port-wide and therefore any enabled pin
 179:Generated_Source\PSoC4/SW1.c **** *  interrupt may trigger it.
 180:Generated_Source\PSoC4/SW1.c **** *
 181:Generated_Source\PSoC4/SW1.c **** * \param position
 182:Generated_Source\PSoC4/SW1.c **** *  The pin position as listed in the Pins component. You may OR these to be 
 183:Generated_Source\PSoC4/SW1.c **** *  able to configure the interrupt mode of multiple pins within a Pins 
 184:Generated_Source\PSoC4/SW1.c **** *  component. Or you may use SW1_INTR_ALL to configure the
 185:Generated_Source\PSoC4/SW1.c **** *  interrupt mode of all the pins in the Pins component.       
 186:Generated_Source\PSoC4/SW1.c **** *  - SW1_0_INTR       (First pin in the list)
 187:Generated_Source\PSoC4/SW1.c **** *  - SW1_1_INTR       (Second pin in the list)
 188:Generated_Source\PSoC4/SW1.c **** *  - ...
 189:Generated_Source\PSoC4/SW1.c **** *  - SW1_INTR_ALL     (All pins in Pins component)
 190:Generated_Source\PSoC4/SW1.c **** *
 191:Generated_Source\PSoC4/SW1.c **** * \param mode
 192:Generated_Source\PSoC4/SW1.c **** *  Interrupt mode for the selected pins. Valid options are documented in
 193:Generated_Source\PSoC4/SW1.c **** *  \ref intrMode.
 194:Generated_Source\PSoC4/SW1.c **** *
 195:Generated_Source\PSoC4/SW1.c **** * \return 
 196:Generated_Source\PSoC4/SW1.c **** *  None
 197:Generated_Source\PSoC4/SW1.c **** *  
 198:Generated_Source\PSoC4/SW1.c **** * \sideeffect
 199:Generated_Source\PSoC4/SW1.c **** *  It is recommended that the interrupt be disabled before calling this 
 200:Generated_Source\PSoC4/SW1.c **** *  function to avoid unintended interrupt requests. Note that the interrupt
 201:Generated_Source\PSoC4/SW1.c **** *  type is port wide, and therefore will trigger for any enabled pin on the 
 202:Generated_Source\PSoC4/SW1.c **** *  port.
 203:Generated_Source\PSoC4/SW1.c **** *
 204:Generated_Source\PSoC4/SW1.c **** * \funcusage
 205:Generated_Source\PSoC4/SW1.c **** *  \snippet SW1_SUT.c usage_SW1_SetInterruptMode
 206:Generated_Source\PSoC4/SW1.c **** *******************************************************************************/
 207:Generated_Source\PSoC4/SW1.c **** void SW1_SetInterruptMode(uint16 position, uint16 mode)
 208:Generated_Source\PSoC4/SW1.c **** {
 453              		.loc 1 208 0
 454              		.cfi_startproc
 455              		@ args = 0, pretend = 0, frame = 0
 456              		@ frame_needed = 0, uses_anonymous_args = 0
 457              		@ link register save eliminated.
 458              	.LVL4:
 209:Generated_Source\PSoC4/SW1.c ****     uint32 intrCfg;
 210:Generated_Source\PSoC4/SW1.c ****     
 211:Generated_Source\PSoC4/SW1.c ****     intrCfg =  SW1_INTCFG & (uint32)(~(uint32)position);
 459              		.loc 1 211 0
 460 0000 034A     		ldr	r2, .L14
 212:Generated_Source\PSoC4/SW1.c ****     SW1_INTCFG = intrCfg | ((uint32)position & (uint32)mode);
 213:Generated_Source\PSoC4/SW1.c **** }
 461              		.loc 1 213 0
 462              		@ sp needed
 211:Generated_Source\PSoC4/SW1.c ****     SW1_INTCFG = intrCfg | ((uint32)position & (uint32)mode);
 463              		.loc 1 211 0
 464 0002 1368     		ldr	r3, [r2]
 465              	.LVL5:
 212:Generated_Source\PSoC4/SW1.c ****     SW1_INTCFG = intrCfg | ((uint32)position & (uint32)mode);
 466              		.loc 1 212 0
ARM GAS  C:\Users\gjl\AppData\Local\Temp\ccXxVt7e.s 			page 28


 467 0004 8343     		bics	r3, r0
 468              	.LVL6:
 469 0006 0840     		ands	r0, r1
 470              	.LVL7:
 471 0008 1843     		orrs	r0, r3
 472 000a 1060     		str	r0, [r2]
 473              		.loc 1 213 0
 474 000c 7047     		bx	lr
 475              	.L15:
 476 000e C046     		.align	2
 477              	.L14:
 478 0010 0C000440 		.word	1074003980
 479              		.cfi_endproc
 480              	.LFE4:
 481              		.size	SW1_SetInterruptMode, .-SW1_SetInterruptMode
 482              		.section	.text.SW1_ClearInterrupt,"ax",%progbits
 483              		.align	1
 484              		.global	SW1_ClearInterrupt
 485              		.code	16
 486              		.thumb_func
 487              		.type	SW1_ClearInterrupt, %function
 488              	SW1_ClearInterrupt:
 489              	.LFB5:
 214:Generated_Source\PSoC4/SW1.c **** 
 215:Generated_Source\PSoC4/SW1.c **** 
 216:Generated_Source\PSoC4/SW1.c **** /*******************************************************************************
 217:Generated_Source\PSoC4/SW1.c **** * Function Name: SW1_ClearInterrupt
 218:Generated_Source\PSoC4/SW1.c **** ****************************************************************************//**
 219:Generated_Source\PSoC4/SW1.c **** *
 220:Generated_Source\PSoC4/SW1.c **** * \brief Clears any active interrupts attached with the component and returns 
 221:Generated_Source\PSoC4/SW1.c **** *  the value of the interrupt status register allowing determination of which
 222:Generated_Source\PSoC4/SW1.c **** *  pins generated an interrupt event.
 223:Generated_Source\PSoC4/SW1.c **** *
 224:Generated_Source\PSoC4/SW1.c **** * \return 
 225:Generated_Source\PSoC4/SW1.c **** *  The right-shifted current value of the interrupt status register. Each pin 
 226:Generated_Source\PSoC4/SW1.c **** *  has one bit set if it generated an interrupt event. For example, bit 0 is 
 227:Generated_Source\PSoC4/SW1.c **** *  for pin 0 and bit 1 is for pin 1 of the Pins component.
 228:Generated_Source\PSoC4/SW1.c **** *  
 229:Generated_Source\PSoC4/SW1.c **** * \sideeffect
 230:Generated_Source\PSoC4/SW1.c **** *  Clears all bits of the physical port's interrupt status register, not just
 231:Generated_Source\PSoC4/SW1.c **** *  those associated with the Pins component.
 232:Generated_Source\PSoC4/SW1.c **** *
 233:Generated_Source\PSoC4/SW1.c **** * \funcusage
 234:Generated_Source\PSoC4/SW1.c **** *  \snippet SW1_SUT.c usage_SW1_ClearInterrupt
 235:Generated_Source\PSoC4/SW1.c **** *******************************************************************************/
 236:Generated_Source\PSoC4/SW1.c **** uint8 SW1_ClearInterrupt(void)
 237:Generated_Source\PSoC4/SW1.c **** {
 490              		.loc 1 237 0
 491              		.cfi_startproc
 492              		@ args = 0, pretend = 0, frame = 0
 493              		@ frame_needed = 0, uses_anonymous_args = 0
 494              		@ link register save eliminated.
 238:Generated_Source\PSoC4/SW1.c **** 	uint8 maskedStatus = (uint8)(SW1_INTSTAT & SW1_MASK);
 495              		.loc 1 238 0
 496 0000 7F22     		movs	r2, #127
 497 0002 034B     		ldr	r3, .L17
 239:Generated_Source\PSoC4/SW1.c **** 	SW1_INTSTAT = maskedStatus;
ARM GAS  C:\Users\gjl\AppData\Local\Temp\ccXxVt7e.s 			page 29


 240:Generated_Source\PSoC4/SW1.c ****     return maskedStatus >> SW1_SHIFT;
 241:Generated_Source\PSoC4/SW1.c **** }
 498              		.loc 1 241 0
 499              		@ sp needed
 238:Generated_Source\PSoC4/SW1.c **** 	uint8 maskedStatus = (uint8)(SW1_INTSTAT & SW1_MASK);
 500              		.loc 1 238 0
 501 0004 1868     		ldr	r0, [r3]
 502 0006 9043     		bics	r0, r2
 503 0008 C0B2     		uxtb	r0, r0
 504              	.LVL8:
 239:Generated_Source\PSoC4/SW1.c **** 	SW1_INTSTAT = maskedStatus;
 505              		.loc 1 239 0
 506 000a 1860     		str	r0, [r3]
 240:Generated_Source\PSoC4/SW1.c **** }
 507              		.loc 1 240 0
 508 000c C009     		lsrs	r0, r0, #7
 509              	.LVL9:
 510              		.loc 1 241 0
 511 000e 7047     		bx	lr
 512              	.L18:
 513              		.align	2
 514              	.L17:
 515 0010 10000440 		.word	1074003984
 516              		.cfi_endproc
 517              	.LFE5:
 518              		.size	SW1_ClearInterrupt, .-SW1_ClearInterrupt
 519              		.text
 520              	.Letext0:
 521              		.file 2 "Generated_Source\\PSoC4\\cytypes.h"