ARM GAS  C:\Users\gjl\AppData\Local\Temp\cc4LiCt9.s 			page 1


   1              		.syntax unified
   2              		.cpu cortex-m0
   3              		.fpu softvfp
   4              		.eabi_attribute 20, 1
   5              		.eabi_attribute 21, 1
   6              		.eabi_attribute 23, 3
   7              		.eabi_attribute 24, 1
   8              		.eabi_attribute 25, 1
   9              		.eabi_attribute 26, 1
  10              		.eabi_attribute 30, 4
  11              		.eabi_attribute 34, 0
  12              		.eabi_attribute 18, 4
  13              		.thumb
  14              		.syntax unified
  15              		.file	"Timer_PM.c"
  16              		.text
  17              	.Ltext0:
  18              		.section	.gnu.lto_.profile.50a2f28d,"",%progbits
  19 0000 789C6361 		.ascii	"x\234ca`d`a`\000\222\252\374\000\000\303\000?"
  19      60646061 
  19      600092AA 
  19      FC0000C3 
  19      003F
  20              		.text
  21              		.section	.gnu.lto_.icf.50a2f28d,"",%progbits
  22 0000 789C6361 		.ascii	"x\234ca`d\000\001\005\006\004`eX?\363A\013\023\343\233"
  22      60640001 
  22      05060460 
  22      65583FF3 
  22      410B13E3 
  23 0015 8E759799 		.ascii	"\216u\227\231\231&m_|\227\231\031,\302\322q\371\337"
  23      99266D5F 
  23      7C979919 
  23      2CC2D271 
  23      F9DF
  24 0027 1B360600 		.ascii	"\0336\006\000\3570\016\240"
  24      EF300EA0 
  25              		.text
  26              		.section	.gnu.lto_.jmpfuncs.50a2f28d,"",%progbits
  27 0000 789C6361 		.ascii	"x\234ca`d\000\001\001\006\004`\001b\220(3\204\311\000"
  27      60640001 
  27      01060460 
  27      01629028 
  27      3384C900 
  28 0014 00030E00 		.ascii	"\000\003\016\000\""
  28      22
  29              		.text
  30              		.section	.gnu.lto_.inline.50a2f28d,"",%progbits
  31 0000 789C6361 		.ascii	"x\234ca`d\000\2010\006\004`a``fbd`\0022\331\026\310"
  31      60640081 
  31      30060460 
  31      61606066 
  31      62646002 
  32 0018 8328A022 		.ascii	"\203(\240\".A\240\010\317\004?\204\020\027\220`\306"
  32      2E41A008 
  32      CF043F84 
  32      10179060 
ARM GAS  C:\Users\gjl\AppData\Local\Temp\cc4LiCt9.s 			page 2


  32      C6
  33 0029 50C9C2C0 		.ascii	"P\311\302\300\316\011\024a\373\240\207\252\222\001\000"
  33      CE091461 
  33      FBA087AA 
  33      920100
  34 0038 04D605E9 		.ascii	"\004\326\005\351"
  35              		.text
  36              		.section	.gnu.lto_.pureconst.50a2f28d,"",%progbits
  37 0000 789C6361 		.ascii	"x\234ca`d\340d```a``\224bf`\221\000\000\001\261\000"
  37      6064E064 
  37      60606061 
  37      60609462 
  37      66609100 
  38 0018 4D       		.ascii	"M"
  39              		.text
  40              		.section	.gnu.lto_Timer_SaveConfig.50a2f28d,"",%progbits
  41 0000 789C6361 		.ascii	"x\234ca`d\000\201j V\001bi fdf`d\232p\216\201\241\221"
  41      60640081 
  41      6A205601 
  41      62692066 
  41      64666064 
  42 001a 83899111 		.ascii	"\203\211\221\021\304h\340`d\250gb\254g\374\312\364\227"
  42      C468E060 
  42      64A86762 
  42      AC67FCCA 
  42      F497
  43 002c 89F150FB 		.ascii	"\211\361P\373\263\235L\232\313\033\200\340\301\321\311"
  43      B39D4C9A 
  43      CB1B80E0 
  43      C1D1C9
  44 003b CC0D2B0E 		.ascii	"\314\015+\0160\266230\374g\002\233\304\300\270\234Q"
  44      30B63233 
  44      30FC6702 
  44      9BC4C0B8 
  44      9C51
  45 004d 9301A8EC 		.ascii	"\223\001\250\354\321\306\177Sy\331Z@\312\024 \222\214"
  45      D1C67F53 
  45      79D95A40 
  45      CA142092 
  45      8C
  46 005e 2B18D940 		.ascii	"+\030\331@\326\255\017:\320\360\377\177s\303\201\371"
  46      D6AD0F3A 
  46      D0F0FF7F 
  46      73C381F9 
  47 006e AC4F9980 		.ascii	"\254O\231\200\022\037\200\030d\315G \007H3\277bd\002"
  47      121F8018 
  47      64CD4720 
  47      074833BF 
  47      626402
  48 0081 29059BF6 		.ascii	")\005\233\366\201\211\021$\006T\241\344\236\232\227"
  48      81891124 
  48      0654A1E4 
  48      9E9A97
  49 0090 5A945892 		.ascii	"Z\224X\222\232\022\037\234_Z\224\234\032\023\020\234"
  49      9A121F9C 
  49      5F5A949C 
  49      1A13109C 
ARM GAS  C:\Users\gjl\AppData\Local\Temp\cc4LiCt9.s 			page 3


  50 00a0 EF6C1213 		.ascii	"\357l\022\023\222\231\233Z\024\037\340\253\227\314\000"
  50      92999B5A 
  50      141FE0AB 
  50      97CC00
  51 00af 00CFDB38 		.ascii	"\000\317\3338\317"
  51      CF
  52              		.text
  53              		.section	.gnu.lto_Timer_Sleep.50a2f28d,"",%progbits
  54 0000 789C8D91 		.ascii	"x\234\215\221\317k\023Q\020\307\347\373\336\333\315"
  54      CF6B1351 
  54      10C7E7FB 
  54      DEDBCD
  55 000f 1A5AF00F 		.ascii	"\032Z\360\017(A\304K/\346\342\331\213PA\020\212\365"
  55      2841C44B 
  55      2FE6E2D9 
  55      8B504110 
  55      8AF5
  56 0021 66A148BB 		.ascii	"f\241H\273\007\017Z\010z\316K7\333Z\017\342A\275\210"
  56      070F5A08 
  56      7ACE4B37 
  56      DB5A0FE2 
  56      41BD88
  57 0034 064FADAD 		.ascii	"\006O\255\2555\2116\326@\305%\264\012\022\364ROE\320"
  57      358936D6 
  57      40C525B4 
  57      0A12F452 
  57      4F45D0
  58 0047 1E82D41E 		.ascii	"\036\202\324\036Zh)J\3338\263\033\177\200 \016\354\276"
  58      5A68294A 
  58      DB38B31B 
  58      7F80200E 
  58      ECBE
  59 0059 B7F3BE3B 		.ascii	"\267\363\276;\237\357\2331\004\222\030QD\307x=\311\017"
  59      9FEF9B31 
  59      04921851 
  59      44C7783D 
  59      C90F
  60 006b 5C82BAF5 		.ascii	"\\\202\272\365\216\250\340)\245\0273d\323f%K\266K\303"
  60      8EA8E029 
  60      A5173364 
  60      D366254B 
  60      B64BC3
  61 007e 49D2E6E7 		.ascii	"I\322\346\347\306\001dc=P^i\343 \217\035\265\257\320"
  61      C6016463 
  61      3D505E69 
  61      E3208F1D 
  61      B5AFD0
  62 0091 9868D555 		.ascii	"\230h\325U\357\224\345\370\264\374@\333\351\010\241"
  62      EF94E5F8 
  62      B4FC40DB 
  62      E908A1
  63 00a0 266AAB18 		.ascii	"&j\253\030F\230B/\261l\255zp\247\333-\212\354Hr\210"
  63      4698422F 
  63      B16CAD7A 
  63      70A7DB2D 
  63      8AEC4872 
  64 00b5 69B8E2A8 		.ascii	"i\270\342\250|.\262\355v`\243]\347e\227\247)\3240\362"
ARM GAS  C:\Users\gjl\AppData\Local\Temp\cc4LiCt9.s 			page 4


  64      7C2EB2ED 
  64      7660A35D 
  64      E76597A7 
  64      29D430F2 
  65 00c9 22DA6499 		.ascii	"\"\332d\2310\267\224\222U\267\320\370~\243\265\253\345"
  65      30B79492 
  65      55B7D0F8 
  65      7EA3B5AB 
  65      E5
  66 00da CF406BAE 		.ascii	"\317@k\256z7l\274Om\253P+\010d\347\353\333\217N\362"
  66      7A376CBC 
  66      4F6DAB50 
  66      2B0864E7 
  66      EBDB8F4E 
  67 00ef C99C82E1 		.ascii	"\311\234\202\341\324\355Zs!]\302\375B\221mi\314\240"
  67      D4ED5A73 
  67      215DC2FD 
  67      42916D69 
  67      CCA0
  68 0101 078FD0C3 		.ascii	"\007\217\320\303\364Y\224@-\004{\343{&)h\222\232\363"
  68      F4599440 
  68      2D047BE3 
  68      7B262968 
  68      929AF3
  69 0114 4B6FC63D 		.ascii	"Ko\306=)\002\216\307\254\375\214\342j\220\351hXP\336"
  69      29028EC7 
  69      ACFD8CE2 
  69      6A90E968 
  69      5850DE
  70 0127 A87FEB4E 		.ascii	"\250\177\353N\004\2049)F\342Q\323b\206-\216mW^\235\021"
  70      04843929 
  70      46E251D3 
  70      62862D8E 
  70      6D575E9D 
  71 013c F19FF64C 		.ascii	"\361\237\366Ll\257^\337XM\345\367\355uk\017sn\222\333"
  71      6CAF5EDF 
  71      584DE5F7 
  71      ED756B0F 
  71      736E92DB 
  72 0150 24E9F5E6 		.ascii	"$\351\365\346\207\245\330\242\215\363\016\312\334\333"
  72      87A5D8A2 
  72      8DF30ECA 
  72      DCDB
  73 015e 2752970F 		.ascii	"'R\227\017o\276\250Lz\3319\351\233\275\020j\027\025"
  73      6FBEA84C 
  73      7AD939E9 
  73      9BBD106A 
  73      1715
  74 0170 F67D1037 		.ascii	"\366}\0207\027UdYQ\233hV\323\002q\331\357\323\330\316"
  74      17556459 
  74      519B6856 
  74      D30271D9 
  74      EFD3D8CE 
  75 0184 9632B492 		.ascii	"\2262\264\222M\314,?<\324q\363\277\370g\377\302\317"
  75      4DCC2C3F 
  75      3CD471F3 
  75      BFF867FF 
ARM GAS  C:\Users\gjl\AppData\Local\Temp\cc4LiCt9.s 			page 5


  75      C2CF
  76 0196 FFC6D762 		.ascii	"\377\306\327b\374\257;\3620\361\274\203w\342y}A\020"
  76      FCAF3BF2 
  76      30F1BC83 
  76      77E2797D 
  76      4110
  77 01a8 DD7BAD04 		.ascii	"\335{\255\004\377\367\365Sm\236\031a\001y\036\266G\353"
  77      FFF7F553 
  77      6D9E1961 
  77      01791EB6 
  77      47EB
  78 01ba 188B4A7D 		.ascii	"\030\213J}\261Tb\223\017\271\004\203\216\236\366\257"
  78      B1546293 
  78      0FB90483 
  78      8E9EF6AF 
  79 01ca F8B98B57 		.ascii	"\370\271\213W\375\221\241\201\321k\271a\177\260\177"
  79      FD91A181 
  79      D16BB961 
  79      7FB07F
  80 01d9 60F4D489 		.ascii	"`\364\324\211\301\363\227.\373\271\241\376\263\307\207"
  80      C1F3972E 
  80      FBB9A1FE 
  80      B3C787
  81 01e8 E90749B4 		.ascii	"\351\007I\264\344\021"
  81      E411
  82              		.text
  83              		.section	.gnu.lto_Timer_RestoreConfig.50a2f28d,"",%progbits
  84 0000 789C6361 		.ascii	"x\234ca`d\000\201\032 V\001bi fdf`d\232p\216\201\241"
  84      60640081 
  84      1A205601 
  84      62692066 
  84      64666064 
  85 0019 91838991 		.ascii	"\221\203\211\221\021\304h\340`d\250gb\254g\374\312\364"
  85      11C468E0 
  85      6064A867 
  85      62AC67FC 
  85      CAF4
  86 002b 9789F150 		.ascii	"\227\211\361P\373\263\235L\232\313\033\200\340A\353"
  86      FBB39D4C 
  86      9ACB1B80 
  86      E041EB
  87 003a 3B838615 		.ascii	";\203\206\025\007\030[\231\031\030\3763\201Mb`\\\316"
  87      07185B99 
  87      1918FE33 
  87      814D6260 
  87      5CCE
  88 004c A8C90054 		.ascii	"\250\311\000T\366h\343\277\251\274l- e\012\020I\306"
  88      F668E3BF 
  88      A9BC6C2D 
  88      20650A10 
  88      49C6
  89 005e 158C6C20 		.ascii	"\025\214l \353\326\007\035h\370\377\277\271\341\300"
  89      EBD6071D 
  89      68F8FFBF 
  89      B9E1C0
  90 006d 67B683DF 		.ascii	"g\266\203\337\330\2002\037\200\030d\317G&&\020\315\374"
  90      D880321F 
ARM GAS  C:\Users\gjl\AppData\Local\Temp\cc4LiCt9.s 			page 6


  90      801864CF 
  90      47262610 
  90      CDFC
  91 007f 8A9109A4 		.ascii	"\212\221\011\244\026l\334\007&F\220\030P\205\222{j^"
  91      166CDC07 
  91      26469018 
  91      5085927B 
  91      6A5E
  92 0091 6A516249 		.ascii	"jQbIjJ|p~iQrjL@p\276\263ILHfnjQ|\200\257^2\003\000x"
  92      6A4A7C70 
  92      7E695172 
  92      6A4C4070 
  92      BEB3494C 
  93 00b2 093A43   		.ascii	"\011:C"
  94              		.text
  95              		.section	.gnu.lto_Timer_Wakeup.50a2f28d,"",%progbits
  96 0000 789C658F 		.ascii	"x\234e\217\275K\202Q\024\306\317s\357\253\257\210B\177"
  96      BD4B8251 
  96      14C6CF73 
  96      EFABAF88 
  96      427F
  97 0012 4048448B 		.ascii	"@HD\213C\331\340\177\320\340\024H\037\233 Q\357\320"
  97      43D9E07F 
  97      D0E01448 
  97      1F9B2051 
  97      EFD0
  98 0024 5082D4EC 		.ascii	"P\202\324\354\365\343\245\\\242\245\266\210\246\354"
  98      F5E3A55C 
  98      A2A5B688 
  98      A6EC
  99 0032 3BB7B4E5 		.ascii	";\267\264\345M\202\226\250\311(\\\252A\"\034\012\214"
  99      4D8296A8 
  99      C9285CAA 
  99      41221C0A 
  99      8C
 100 0043 68503BF7 		.ascii	"hP;\367uh\350\300\345\\\236\373\234\373\374\216A ]\263"
 100      7568E8C0 
 100      E55C9EFB 
 100      9CFBFC8E 
 100      41205DB3 
 101 0057 DC46B847 		.ascii	"\334F\270G\371\300C\020\233wDY\237\020\262\032\"\345"
 101      F9C04310 
 101      9B774459 
 101      9F10B21A 
 101      22E5
 102 0069 371E22A4 		.ascii	"7\036\"\244\002\022F_6\000}Q>PFH\003\031|\211\216@m"
 102      0212465F 
 102      36007D51 
 102      3E504648 
 102      03197C89 
 103 0080 AD5911E1 		.ascii	"\255Y\021\341}\305\365l\177\217\253\222\003[\022\365"
 103      7DC5F56C 
 103      7F8FAB92 
 103      035B12F5 
 104 0090 841B41D8 		.ascii	"\204\033A\330G\230\330\366Z\356n\005\275\005m\033\352"
 104      4798D8F6 
 104      5AEE6E05 
ARM GAS  C:\Users\gjl\AppData\Local\Temp\cc4LiCt9.s 			page 7


 104      BD056D1B 
 104      EA
 105 00a1 3FA204AF 		.ascii	"?\242\004\257\3468\233rT\257\227W\316\245y\365hz$\331"
 105      E6389B72 
 105      54AF9757 
 105      CEA579F5 
 105      687A24D9 
 106 00b5 92E50FB6 		.ascii	"\222\345\017\266\350\270O!t\227M\344\252\345\366\236"
 106      E8B84F21 
 106      74974DE4 
 106      AAE5F69E 
 107 00c5 A9A7F252 		.ascii	"\251\247\362R\362\217\333v\355\336l\013[\012\350\200"
 107      F28FDB76 
 107      EDDE6C0B 
 107      5B0AE880 
 108 00d5 4AA5D530 		.ascii	"J\245\32503\035\265\256\324\000kEf\320\362\373m\375"
 108      331DB5AE 
 108      D4006B45 
 108      66D0F2FB 
 108      6DFD
 109 00e7 DABF8B9D 		.ascii	"\332\277\213\235\254ru\211C\006?\300\240\373\270qq^"
 109      AC727589 
 109      43063FC0 
 109      A0FBB871 
 109      715E
 110 00f9 F445466D 		.ascii	"\364EFm\336\346\010\273\350\272\3148F\204^Ph\344C\177"
 110      DEE608BB 
 110      E8BACC38 
 110      46845E50 
 110      68E4437F 
 111 010d 6167ADCA 		.ascii	"ag\255\312OP\207\001\204\023=N\232MR5$\337\220w\352"
 111      4F508701 
 111      84133D4E 
 111      9A4D5235 
 111      24DF9077 
 112 0122 37016DFE 		.ascii	"7\001m\376\017\342\3511\036\341\024\031\336\313\353"
 112      0FE2E931 
 112      1EE11419 
 112      DECBEB
 113 0131 0E19EE42 		.ascii	"\016\031\356B\357\3109O1wH\327\007\333Xf\202\341\230"
 113      EFC8394F 
 113      317748D7 
 113      07DB5866 
 113      82E198
 114 0144 B56CA5E7 		.ascii	"\265l\245\347V\254\205\344tj5=o%\342\323\251\211hbf"
 114      56AC85E4 
 114      746A353D 
 114      6F25E2D3 
 114      A9896862 
 115 0159 71C94A27 		.ascii	"q\311J'\343\223c\363\364\013\253\277\205\343"
 115      E39363F3 
 115      F40BABBF 
 115      85E3
 116              		.text
 117              		.section	.gnu.lto_.symbol_nodes.50a2f28d,"",%progbits
 118 0000 789C55CA 		.ascii	"x\234U\312\271\015\200@\020C\321?\307BN\005\320\003"
 118      B90D8040 
ARM GAS  C:\Users\gjl\AppData\Local\Temp\cc4LiCt9.s 			page 8


 118      1043D13F 
 118      C7424E05 
 118      D003
 119 0012 EDA1D912 		.ascii	"\355\241\331\022(\206\210\230\230\036\220\250\0031\""
 119      28868898 
 119      981E90A8 
 119      033122
 120 0021 629D587E 		.ascii	"b\235X~\262#,dT\003\326\023\262\366:%XH\003E\250\003"
 120      B2232C64 
 120      5403D613 
 120      B2F63A25 
 120      58480345 
 121 0037 987A68FB 		.ascii	"\230zh\373,a\015H\027\376\001\324:\346\356\243\374\267"
 121      2C610D48 
 121      17FE01D4 
 121      3AE6EEA3 
 121      FCB7
 122 0049 49E1B81E 		.ascii	"I\341\270\0361\357\270\267\231\027o\016\032\256"
 122      31EFB8B7 
 122      99176F0E 
 122      1AAE
 123              		.text
 124              		.section	.gnu.lto_.refs.50a2f28d,"",%progbits
 125 0000 789C6361 		.ascii	"x\234ca`d\340c```bddbadbed\0012\031\000\002O\000."
 125      6064E063 
 125      60606062 
 125      64646261 
 125      64626564 
 126              		.text
 127              		.section	.gnu.lto_.decls.50a2f28d,"",%progbits
 128 0000 789C8D94 		.ascii	"x\234\215\224oL[U\024\300\357y\257-\254\024X\2061|h"
 128      6F4C5B55 
 128      14C0EF79 
 128      AF2DAC14 
 128      5886317C 
 129 0015 2292119A 		.ascii	"\"\222\021\232,\301\001~\360\233\177\210\316d\3214+"
 129      2CC1017E 
 129      F09B7F88 
 129      CE64D134 
 129      2B
 130 0026 E0972558 		.ascii	"\340\227%X\3609\311\220\326\256\230\354\333\2251]Xb"
 130      F039C990 
 130      D6AE98EC 
 130      DB95315D 
 130      5862
 131 0038 4634208A 		.ascii	"F4 \212\031\031\314\201\024(\343?\023\250l\374\031\202"
 131      1919CC81 
 131      1428E33F 
 131      13A86CFC 
 131      1982
 132 004a 83763171 		.ascii	"\203v1q\240@\330\037\267\365CuD\323,X\317\275\367=^"
 132      A040D81F 
 132      B7F54375 
 132      44D32C58 
 132      CFBDF73D 
 133 005f 31B0ECA6 		.ascii	"1\260\354\246\347\276\373\347\234\337=\347\236sk @X"
 133      E7BEFBE7 
ARM GAS  C:\Users\gjl\AppData\Local\Temp\cc4LiCt9.s 			page 9


 133      9CDF3DE7 
 133      9E736B20 
 133      4058
 134 0071 7BD74488 		.ascii	"{\327D\210\021\207\007Qb\330\214\270VL\364\206\333\244"
 134      11870751 
 134      62D88CB8 
 134      564CF486 
 134      DBA4
 135 0083 13A51BA5 		.ascii	"\023\245\033\245\007\245\027\245\037e\020\205\021&\311"
 135      07A517A5 
 135      1F651085 
 135      1126C9
 136 0092 F6D6A9AE 		.ascii	"\366\326\251\256k\014P\327\376\337\030o\217\252\227"
 136      6B0C50D7 
 136      FEDF186F 
 136      8FAA97
 137 00a1 8DB28872 		.ascii	"\215\262\210r\003%\210r\025e\014%\204\342S\031\343("
 137      03258872 
 137      15650C25 
 137      84E25319 
 137      E328
 138 00b3 926AD7BF 		.ascii	"\222j\327\277\313\331=;\234\335\263\303\331,\206\004"
 138      CBD93D3B 
 138      9CDDB3C3 
 138      D92C8604 
 139 00c3 55CFFA14 		.ascii	"U\317\372\024g\366>!\336M\011\026j\246\006\023\227\340"
 139      67F63E21 
 139      DE4D0916 
 139      6AA60613 
 139      97E0
 140 00d5 579040BD 		.ascii	"W\220@\275T\002 z\340B\204\360)\016$\336\223\255\245"
 140      5402207A 
 140      E04284F0 
 140      290E24DE 
 140      93ADA5
 141 00e8 AD0F613D 		.ascii	"\255\017a=\021\372|M\207\361\237\366\215i\215Ct:\250"
 141      11FA7C4D 
 141      87F19FF6 
 141      8D698D43 
 141      743AA8
 142 00fb 46B0E581 		.ascii	"F\260\345\201\260\022\373\222F\025\037I7\210\343\011"
 142      B012FB92 
 142      46151F49 
 142      3788E309 
 143 010b 77E37C82 		.ascii	"w\343|\202\3551\201\026\364|8r/U\306\210q\274\022m{"
 143      ED318116 
 143      F47C3872 
 143      2F55C688 
 143      71BC126D 
 144 0120 23C747B1 		.ascii	"#\307G\261\235\243T:\240\337\314d\354\237@\352\206\004"
 144      9DA3543A 
 144      A0DFCC64 
 144      EC9F40EA 
 144      8604
 145 0132 FBCC20E1 		.ascii	"\373\314 \3414\030\231\3736\011\247\317\230a/N\037\216"
 145      341899FB 
 145      3609A7CF 
ARM GAS  C:\Users\gjl\AppData\Local\Temp\cc4LiCt9.s 			page 10


 145      98612F4E 
 145      1F8E
 146 0144 35C692D3 		.ascii	"5\306\222\323\353\231\035=E3$(~\026:\300\012\337\003"
 146      EB991D3D 
 146      45332428 
 146      7E163AC0 
 146      0ADF03
 147 0157 26057C90 		.ascii	"&\005|\220\216}\251A\220\276\234\235\254M\315l\246\021"
 147      8E7DA941 
 147      90BE9C9D 
 147      AC4DCD6C 
 147      A611
 148 0169 3F5D8D0E 		.ascii	"?]\215\016\3455\322@5\245\237HL\013\332@\206v\310a\336"
 148      E535D240 
 148      35A59F48 
 148      4C0BDA40 
 148      8676C861 
 149 017e E1907D2E 		.ascii	"\341\220}.\301\022\272\335\011\231hy}\274~\"A~\231;"
 149      C112BADD 
 149      09996879 
 149      7DBC7E22 
 149      417E993B 
 150 0192 7A37BCF0 		.ascii	"z7\274\360\207\011)\315~\032\330P\350i<\330\300\021"
 150      870929CD 
 150      7E1AD850 
 150      E8693CD8 
 150      C011
 151 01a4 5D3AA22B 		.ascii	"]:\242+\036\321\315\021g\253\373\227R\344\303\0341\262"
 151      1ED1CD11 
 151      67ABFB97 
 151      52E4C31C 
 151      31B2
 152 01b6 1CBD0FC2 		.ascii	"\034\275\017\302\221@d\312B\027(m~\2053\374:\303\037"
 152      914064CA 
 152      4217286D 
 152      7E8533FC 
 152      3AC31F
 153 01c9 CFE8E18C 		.ascii	"\317\350\341\214\371\330\371GF\271\2043\352~\271\335"
 153      F9D8F947 
 153      46B98433 
 153      EA7EB9DD 
 154 01d9 6A54DD18 		.ascii	"jT\335\030\232\346\014*\030\227u\306\345xF/g\324.\257"
 154      9AE60C2A 
 154      189775C6 
 154      E578462F 
 154      67D42EAF 
 155 01ed 9D95E40A 		.ascii	"\235\225\344\012\316h\375&8j@\306*\245\253+\323U5-\237"
 155      CE68FD26 
 155      386A40C6 
 155      2AA5AB2B 
 155      D355352D 
 156 0202 06ECFCD2 		.ascii	"\006\354\374\322\240Og\364q\006\016\372\271}\373\322"
 156      A04F67F4 
 156      71060EFA 
 156      B97DFBD2 
 157 0212 ADB0516E 		.ascii	"\255\260Qn\000\016\010\317\256=N\024\200@0d\011\330"
 157      000E08CF 
ARM GAS  C:\Users\gjl\AppData\Local\Temp\cc4LiCt9.s 			page 11


 157      AE3D4E14 
 157      80403064 
 157      09D8
 158 0224 B9F1806E 		.ascii	"\271\361\200n<\240\031\017rc\177\344V\324 \267\012\343"
 158      3CA0190F 
 158      72637FE4 
 158      56D420B7 
 158      0AE3
 159 0236 89FAE59B 		.ascii	"\211\372\345\233\026\271GL\272O\337nO\304\264Z\315\020"
 159      16B9474C 
 159      BA4FDF6E 
 159      4FC4B45A 
 159      CD10
 160 0248 03360F0F 		.ascii	"\0036\017\017G\223\305\234m7\326\255\377\233$\217r]"
 160      4793C59C 
 160      6D37D6AD 
 160      FF9B248F 
 160      725D
 161 025a 29B4DE71 		.ascii	")\264\336q\337\0006\363w,\351\253\015\237\0275|\206"
 161      DF0036F3 
 161      772CE9AB 
 161      0D9F1735 
 161      7C86
 162 026c 25036360 		.ascii	"%\003c`\206\037\364\243\255f\354\317PZM#\027\250)\235"
 162      861FF4A3 
 162      AD66ECCF 
 162      505A4D23 
 162      17A8299D 
 163 0280 40BE150E 		.ascii	"@\276\025\016Z\011\214\202\215Q\231\026\\\301J\031\301"
 163      5A098C82 
 163      8D519916 
 163      5CC14A19 
 163      C1
 164 0291 4AD994E4 		.ascii	"J\331\224\344\233S\203\027\223`\177\232\355\0023\301"
 164      9B538317 
 164      93607F9A 
 164      ED0233C1 
 165 02a1 EBC86AEA 		.ascii	"\353\310j\352\302\2222q\3540b\003\220\246!^`\265\225"
 165      C2923271 
 165      EC306203 
 165      90A6215E 
 165      60B595
 166 02b4 CB5E7D1D 		.ascii	"\313^}\035s!\202e\004\037i\007\020\256\211x\370\021"
 166      73218265 
 166      041F6907 
 166      10AE8978 
 166      F811
 167 02c6 4F1A87FD 		.ascii	"O\032\207\375\374\002\270\257\201/\024J\023\331>Q\275"
 167      FC02B8AF 
 167      812F144A 
 167      13D93E51 
 167      BD
 168 02d7 546BFCF1 		.ascii	"Tk\374\361\346\203K\222|G\204w\355\301\305\011\003\244"
 168      E6834B92 
 168      7C478477 
 168      EDC1C509 
 168      03A4
ARM GAS  C:\Users\gjl\AppData\Local\Temp\cc4LiCt9.s 			page 12


 169 02e9 D97660C3 		.ascii	"\331v`\3035D\356\216oL\306k\270\212\333\023\3725\260"
 169      3544EE8E 
 169      6F4CC66B 
 169      B88ADB13 
 169      FA35B0
 170 02fc C3F8191B 		.ascii	"\303\370\031\033\241\265\277-Y-XjX\375}\316G\3254\235"
 170      A1B5BF2D 
 170      592D586A 
 170      58FD7DCE 
 170      47D5349D 
 171 0310 EB0E09DD 		.ascii	"\353\016\011\335-\357\207X\312`\022\262\320f\261\306"
 171      2DEF8758 
 171      CA6012B2 
 171      D066B1C6 
 172 0320 DF248BB7 		.ascii	"\337$\213\267g\300\351\237\363_\257\247\210\267\227"
 172      67C0E99F 
 172      F35FAFA7 
 172      88B797
 173 032f 81D3DF66 		.ascii	"\201\323\337f\332;\330n6\346\014[j\\\332\262E\332fW"
 173      DA3BD86E 
 173      36E60C5B 
 173      6A5CDAB2 
 173      45DA6657 
 174 0343 EEFCB547 		.ascii	"\356\374\265G\216\212\270\006Z\260z\301l\34399w\212"
 174      8E8AB806 
 174      5AB07AC1 
 174      6CE33939 
 174      778A
 175 0355 EE9B4921 		.ascii	"\356\233I!0\215\031\230\302\014\300\034F\223\255\246"
 175      308D1998 
 175      C20CC01C 
 175      4693ADA6 
 176 0365 E53A2ECE 		.ascii	"\345:.\316\340\242\226\340b\221\340\2370\023\263zd\331"
 176      E0A296E0 
 176      6291E09F 
 176      3013B37A 
 176      64D9
 177 0377 6611D888 		.ascii	"f\021\330\210\257\373+\331|\206\275\377\247\2422\223"
 177      AFFB2BD9 
 177      7C86BDFF 
 177      A7A23293 
 178 0387 DF699351 		.ascii	"\337i\223Q\246\374\237G\032\036z\350K\021~\355@X\330"
 178      A6FC9F47 
 178      1A1E7AE8 
 178      4B117EED 
 178      4058D8
 179 039a CDAFC0E6 		.ascii	"\315\257\300\346\2757k09p\003\335\372Ywk\036T\277\006"
 179      BD376B30 
 179      397003DD 
 179      FA59776B 
 179      1E54BF06 
 180 03ae 6616FB13 		.ascii	"f\026\373\023,\265z\264\\S\003\023X\004\013\177\032"
 180      2CB57AB4 
 180      5C530313 
 180      58040B7F 
 180      1A
 181 03bf F845EDF3 		.ascii	"\370E\355\363\243sW\014\333\264Yrt\355\240\252\035\344"
ARM GAS  C:\Users\gjl\AppData\Local\Temp\cc4LiCt9.s 			page 13


 181      A373570C 
 181      DBB45972 
 181      74EDA0AA 
 181      1DE4
 182 03d1 DA77DB7A 		.ascii	"\332w\333z\233S\266i\263\207\247k\207\300\242\371\203"
 182      9B53B669 
 182      B387A76B 
 182      87C0A2F9 
 182      83
 183 03e2 43B2B7B0 		.ascii	"C\262\267\260\374C\305S\342p~\254\024\270*\337/?\226"
 183      FC43C553 
 183      E2707EAC 
 183      14B82ADF 
 183      2F3F96
 184 03f5 78E8EDA2 		.ascii	"x\350\355\242\214\202\334\\\222yH\251T<N\257\362^\211"
 184      8C82DC5C 
 184      927948A9 
 184      543C4EAF 
 184      F25E89
 185 0408 C355E529 		.ascii	"\303U\345)S\216\332\035\256\202\027\217\012\003\373"
 185      538EDA1D 
 185      AE82178F 
 185      0A03FB
 186 0417 5B396524 		.ascii	"[9e$I5\256P\024w\232\030\037QNx]\036\225e\021k\3578"
 186      4935AE50 
 186      14779A18 
 186      1F514E78 
 186      5D1E9565 
 187 042f 8F2B556E 		.ascii	"\217+Un\263\252\354u\271\237{\022:\347\003\242\332\275"
 187      B3AAEC75 
 187      B99F7B12 
 187      3AE703A2 
 187      DABD
 188 0441 5EE92CAD 		.ascii	"^\351,\255P\324I\251\263\354x\225;I\341k\016/\032\033"
 188      50D449A9 
 188      B3EC7895 
 188      3B49E16B 
 188      0E2F1A1B 
 189 0455 ABCA2BBD 		.ascii	"\253\312+\275/=\277\013\253\354\244\367\244[9\2014\325"
 189      2F3DBF0B 
 189      ABECA4F7 
 189      A45B3981 
 189      34D5
 190 0467 B3D75E2D 		.ascii	"\263\327^-8\\d/q\024\036)*(41\333\374<\243G9\226\237"
 190      385C642F 
 190      71141E29 
 190      2A283431 
 190      DBFC3CA3 
 191 047f F71F430E 		.ascii	"\367\037C\016@\303"
 191      40C3
 192              		.text
 193              		.section	.gnu.lto_.symtab.50a2f28d,"",%progbits
 194 0000 54696D65 		.ascii	"Timer_SaveConfig\000"
 194      725F5361 
 194      7665436F 
 194      6E666967 
 194      00
ARM GAS  C:\Users\gjl\AppData\Local\Temp\cc4LiCt9.s 			page 14


 195 0011 00       		.ascii	"\000"
 196 0012 00       		.ascii	"\000"
 197 0013 00       		.ascii	"\000"
 198 0014 00000000 		.ascii	"\000\000\000\000\000\000\000\000"
 198      00000000 
 199 001c AD000000 		.ascii	"\255\000\000\000"
 200 0020 54696D65 		.ascii	"Timer_Sleep\000"
 200      725F536C 
 200      65657000 
 201 002c 00       		.ascii	"\000"
 202 002d 00       		.ascii	"\000"
 203 002e 00       		.ascii	"\000"
 204 002f 00000000 		.ascii	"\000\000\000\000\000\000\000\000"
 204      00000000 
 205 0037 AF000000 		.ascii	"\257\000\000\000"
 206 003b 54696D65 		.ascii	"Timer_RestoreConfig\000"
 206      725F5265 
 206      73746F72 
 206      65436F6E 
 206      66696700 
 207 004f 00       		.ascii	"\000"
 208 0050 00       		.ascii	"\000"
 209 0051 00       		.ascii	"\000"
 210 0052 00000000 		.ascii	"\000\000\000\000\000\000\000\000"
 210      00000000 
 211 005a B1000000 		.ascii	"\261\000\000\000"
 212 005e 54696D65 		.ascii	"Timer_Wakeup\000"
 212      725F5761 
 212      6B657570 
 212      00
 213 006b 00       		.ascii	"\000"
 214 006c 00       		.ascii	"\000"
 215 006d 00       		.ascii	"\000"
 216 006e 00000000 		.ascii	"\000\000\000\000\000\000\000\000"
 216      00000000 
 217 0076 B3000000 		.ascii	"\263\000\000\000"
 218 007a 54696D65 		.ascii	"Timer_Stop\000"
 218      725F5374 
 218      6F7000
 219 0085 00       		.ascii	"\000"
 220 0086 02       		.ascii	"\002"
 221 0087 00       		.ascii	"\000"
 222 0088 00000000 		.ascii	"\000\000\000\000\000\000\000\000"
 222      00000000 
 223 0090 B5000000 		.ascii	"\265\000\000\000"
 224 0094 54696D65 		.ascii	"Timer_Enable\000"
 224      725F456E 
 224      61626C65 
 224      00
 225 00a1 00       		.ascii	"\000"
 226 00a2 02       		.ascii	"\002"
 227 00a3 00       		.ascii	"\000"
 228 00a4 00000000 		.ascii	"\000\000\000\000\000\000\000\000"
 228      00000000 
 229 00ac B7000000 		.ascii	"\267\000\000\000"
 230              		.text
 231              		.section	.gnu.lto_.opts,"",%progbits
ARM GAS  C:\Users\gjl\AppData\Local\Temp\cc4LiCt9.s 			page 15


 232 0000 272D666D 		.ascii	"'-fmath-errno' '-fsigned-zeros' '-ftrapping-math' '"
 232      6174682D 
 232      6572726E 
 232      6F272027 
 232      2D667369 
 233 0033 2D666E6F 		.ascii	"-fno-trapv' '-fno-openmp' '-fno-openacc' '-mcpu=cor"
 233      2D747261 
 233      70762720 
 233      272D666E 
 233      6F2D6F70 
 234 0066 7465782D 		.ascii	"tex-m0' '-mthumb' '-g' '-Os' '-ffunction-sections' "
 234      6D302720 
 234      272D6D74 
 234      68756D62 
 234      2720272D 
 235 0099 272D6666 		.ascii	"'-ffat-lto-objects' '-flto'\000"
 235      61742D6C 
 235      746F2D6F 
 235      626A6563 
 235      74732720 
 236              		.text
 237              		.cfi_sections	.debug_frame
 238              		.section	.text.Timer_SaveConfig,"ax",%progbits
 239              		.align	1
 240              		.global	Timer_SaveConfig
 241              		.code	16
 242              		.thumb_func
 243              		.type	Timer_SaveConfig, %function
 244              	Timer_SaveConfig:
 245              	.LFB6:
 246              		.cfi_startproc
 247              		@ args = 0, pretend = 0, frame = 0
 248              		@ frame_needed = 0, uses_anonymous_args = 0
 249              		@ link register save eliminated.
 250              		@ sp needed
 251 0000 7047     		bx	lr
 252              		.cfi_endproc
 253              	.LFE6:
 254              		.size	Timer_SaveConfig, .-Timer_SaveConfig
 255              		.section	.text.Timer_Sleep,"ax",%progbits
 256              		.align	1
 257              		.global	Timer_Sleep
 258              		.code	16
 259              		.thumb_func
 260              		.type	Timer_Sleep, %function
 261              	Timer_Sleep:
 262              	.LFB2:
 263              		.file 1 "Generated_Source\\PSoC4\\Timer_PM.c"
   1:Generated_Source\PSoC4/Timer_PM.c **** /*******************************************************************************
   2:Generated_Source\PSoC4/Timer_PM.c **** * File Name: Timer_PM.c
   3:Generated_Source\PSoC4/Timer_PM.c **** * Version 2.10
   4:Generated_Source\PSoC4/Timer_PM.c **** *
   5:Generated_Source\PSoC4/Timer_PM.c **** * Description:
   6:Generated_Source\PSoC4/Timer_PM.c **** *  This file contains the setup, control, and status commands to support
   7:Generated_Source\PSoC4/Timer_PM.c **** *  the component operations in the low power mode.
   8:Generated_Source\PSoC4/Timer_PM.c **** *
   9:Generated_Source\PSoC4/Timer_PM.c **** * Note:
ARM GAS  C:\Users\gjl\AppData\Local\Temp\cc4LiCt9.s 			page 16


  10:Generated_Source\PSoC4/Timer_PM.c **** *  None
  11:Generated_Source\PSoC4/Timer_PM.c **** *
  12:Generated_Source\PSoC4/Timer_PM.c **** ********************************************************************************
  13:Generated_Source\PSoC4/Timer_PM.c **** * Copyright 2013-2015, Cypress Semiconductor Corporation.  All rights reserved.
  14:Generated_Source\PSoC4/Timer_PM.c **** * You may use this file only in accordance with the license, terms, conditions,
  15:Generated_Source\PSoC4/Timer_PM.c **** * disclaimers, and limitations in the end user license agreement accompanying
  16:Generated_Source\PSoC4/Timer_PM.c **** * the software package with which this file was provided.
  17:Generated_Source\PSoC4/Timer_PM.c **** *******************************************************************************/
  18:Generated_Source\PSoC4/Timer_PM.c **** 
  19:Generated_Source\PSoC4/Timer_PM.c **** #include "Timer.h"
  20:Generated_Source\PSoC4/Timer_PM.c **** 
  21:Generated_Source\PSoC4/Timer_PM.c **** static Timer_BACKUP_STRUCT Timer_backup;
  22:Generated_Source\PSoC4/Timer_PM.c **** 
  23:Generated_Source\PSoC4/Timer_PM.c **** 
  24:Generated_Source\PSoC4/Timer_PM.c **** /*******************************************************************************
  25:Generated_Source\PSoC4/Timer_PM.c **** * Function Name: Timer_SaveConfig
  26:Generated_Source\PSoC4/Timer_PM.c **** ********************************************************************************
  27:Generated_Source\PSoC4/Timer_PM.c **** *
  28:Generated_Source\PSoC4/Timer_PM.c **** * Summary:
  29:Generated_Source\PSoC4/Timer_PM.c **** *  All configuration registers are retention. Nothing to save here.
  30:Generated_Source\PSoC4/Timer_PM.c **** *
  31:Generated_Source\PSoC4/Timer_PM.c **** * Parameters:
  32:Generated_Source\PSoC4/Timer_PM.c **** *  None
  33:Generated_Source\PSoC4/Timer_PM.c **** *
  34:Generated_Source\PSoC4/Timer_PM.c **** * Return:
  35:Generated_Source\PSoC4/Timer_PM.c **** *  None
  36:Generated_Source\PSoC4/Timer_PM.c **** *
  37:Generated_Source\PSoC4/Timer_PM.c **** *******************************************************************************/
  38:Generated_Source\PSoC4/Timer_PM.c **** void Timer_SaveConfig(void)
  39:Generated_Source\PSoC4/Timer_PM.c **** {
  40:Generated_Source\PSoC4/Timer_PM.c **** 
  41:Generated_Source\PSoC4/Timer_PM.c **** }
  42:Generated_Source\PSoC4/Timer_PM.c **** 
  43:Generated_Source\PSoC4/Timer_PM.c **** 
  44:Generated_Source\PSoC4/Timer_PM.c **** /*******************************************************************************
  45:Generated_Source\PSoC4/Timer_PM.c **** * Function Name: Timer_Sleep
  46:Generated_Source\PSoC4/Timer_PM.c **** ********************************************************************************
  47:Generated_Source\PSoC4/Timer_PM.c **** *
  48:Generated_Source\PSoC4/Timer_PM.c **** * Summary:
  49:Generated_Source\PSoC4/Timer_PM.c **** *  Stops the component operation and saves the user configuration.
  50:Generated_Source\PSoC4/Timer_PM.c **** *
  51:Generated_Source\PSoC4/Timer_PM.c **** * Parameters:
  52:Generated_Source\PSoC4/Timer_PM.c **** *  None
  53:Generated_Source\PSoC4/Timer_PM.c **** *
  54:Generated_Source\PSoC4/Timer_PM.c **** * Return:
  55:Generated_Source\PSoC4/Timer_PM.c **** *  None
  56:Generated_Source\PSoC4/Timer_PM.c **** *
  57:Generated_Source\PSoC4/Timer_PM.c **** *******************************************************************************/
  58:Generated_Source\PSoC4/Timer_PM.c **** void Timer_Sleep(void)
  59:Generated_Source\PSoC4/Timer_PM.c **** {
 264              		.loc 1 59 0
 265              		.cfi_startproc
 266              		@ args = 0, pretend = 0, frame = 0
 267              		@ frame_needed = 0, uses_anonymous_args = 0
  60:Generated_Source\PSoC4/Timer_PM.c ****     if(0u != (Timer_BLOCK_CONTROL_REG & Timer_MASK))
 268              		.loc 1 60 0
 269 0000 0121     		movs	r1, #1
ARM GAS  C:\Users\gjl\AppData\Local\Temp\cc4LiCt9.s 			page 17


 270 0002 064B     		ldr	r3, .L6
  59:Generated_Source\PSoC4/Timer_PM.c ****     if(0u != (Timer_BLOCK_CONTROL_REG & Timer_MASK))
 271              		.loc 1 59 0
 272 0004 10B5     		push	{r4, lr}
 273              		.cfi_def_cfa_offset 8
 274              		.cfi_offset 4, -8
 275              		.cfi_offset 14, -4
 276              		.loc 1 60 0
 277 0006 1B68     		ldr	r3, [r3]
 278 0008 054A     		ldr	r2, .L6+4
 279 000a 0B40     		ands	r3, r1
 280 000c 01D0     		beq	.L3
  61:Generated_Source\PSoC4/Timer_PM.c ****     {
  62:Generated_Source\PSoC4/Timer_PM.c ****         Timer_backup.enableState = 1u;
 281              		.loc 1 62 0
 282 000e 1170     		strb	r1, [r2]
 283 0010 00E0     		b	.L4
 284              	.L3:
  63:Generated_Source\PSoC4/Timer_PM.c ****     }
  64:Generated_Source\PSoC4/Timer_PM.c ****     else
  65:Generated_Source\PSoC4/Timer_PM.c ****     {
  66:Generated_Source\PSoC4/Timer_PM.c ****         Timer_backup.enableState = 0u;
 285              		.loc 1 66 0
 286 0012 1370     		strb	r3, [r2]
 287              	.L4:
  67:Generated_Source\PSoC4/Timer_PM.c ****     }
  68:Generated_Source\PSoC4/Timer_PM.c **** 
  69:Generated_Source\PSoC4/Timer_PM.c ****     Timer_Stop();
 288              		.loc 1 69 0
 289 0014 FFF7FEFF 		bl	Timer_Stop
 290              	.LVL0:
  70:Generated_Source\PSoC4/Timer_PM.c ****     Timer_SaveConfig();
  71:Generated_Source\PSoC4/Timer_PM.c **** }
 291              		.loc 1 71 0
 292              		@ sp needed
 293 0018 10BD     		pop	{r4, pc}
 294              	.L7:
 295 001a C046     		.align	2
 296              	.L6:
 297 001c 00002040 		.word	1075838976
 298 0020 00000000 		.word	.LANCHOR0
 299              		.cfi_endproc
 300              	.LFE2:
 301              		.size	Timer_Sleep, .-Timer_Sleep
 302              		.section	.text.Timer_RestoreConfig,"ax",%progbits
 303              		.align	1
 304              		.global	Timer_RestoreConfig
 305              		.code	16
 306              		.thumb_func
 307              		.type	Timer_RestoreConfig, %function
 308              	Timer_RestoreConfig:
 309              	.LFB3:
  72:Generated_Source\PSoC4/Timer_PM.c **** 
  73:Generated_Source\PSoC4/Timer_PM.c **** 
  74:Generated_Source\PSoC4/Timer_PM.c **** /*******************************************************************************
  75:Generated_Source\PSoC4/Timer_PM.c **** * Function Name: Timer_RestoreConfig
  76:Generated_Source\PSoC4/Timer_PM.c **** ********************************************************************************
ARM GAS  C:\Users\gjl\AppData\Local\Temp\cc4LiCt9.s 			page 18


  77:Generated_Source\PSoC4/Timer_PM.c **** *
  78:Generated_Source\PSoC4/Timer_PM.c **** * Summary:
  79:Generated_Source\PSoC4/Timer_PM.c **** *  All configuration registers are retention. Nothing to restore here.
  80:Generated_Source\PSoC4/Timer_PM.c **** *
  81:Generated_Source\PSoC4/Timer_PM.c **** * Parameters:
  82:Generated_Source\PSoC4/Timer_PM.c **** *  None
  83:Generated_Source\PSoC4/Timer_PM.c **** *
  84:Generated_Source\PSoC4/Timer_PM.c **** * Return:
  85:Generated_Source\PSoC4/Timer_PM.c **** *  None
  86:Generated_Source\PSoC4/Timer_PM.c **** *
  87:Generated_Source\PSoC4/Timer_PM.c **** *******************************************************************************/
  88:Generated_Source\PSoC4/Timer_PM.c **** void Timer_RestoreConfig(void)
  89:Generated_Source\PSoC4/Timer_PM.c **** {
 310              		.loc 1 89 0
 311              		.cfi_startproc
 312              		@ args = 0, pretend = 0, frame = 0
 313              		@ frame_needed = 0, uses_anonymous_args = 0
 314              		@ link register save eliminated.
  90:Generated_Source\PSoC4/Timer_PM.c **** 
  91:Generated_Source\PSoC4/Timer_PM.c **** }
 315              		.loc 1 91 0
 316              		@ sp needed
 317 0000 7047     		bx	lr
 318              		.cfi_endproc
 319              	.LFE3:
 320              		.size	Timer_RestoreConfig, .-Timer_RestoreConfig
 321              		.section	.text.Timer_Wakeup,"ax",%progbits
 322              		.align	1
 323              		.global	Timer_Wakeup
 324              		.code	16
 325              		.thumb_func
 326              		.type	Timer_Wakeup, %function
 327              	Timer_Wakeup:
 328              	.LFB4:
  92:Generated_Source\PSoC4/Timer_PM.c **** 
  93:Generated_Source\PSoC4/Timer_PM.c **** 
  94:Generated_Source\PSoC4/Timer_PM.c **** /*******************************************************************************
  95:Generated_Source\PSoC4/Timer_PM.c **** * Function Name: Timer_Wakeup
  96:Generated_Source\PSoC4/Timer_PM.c **** ********************************************************************************
  97:Generated_Source\PSoC4/Timer_PM.c **** *
  98:Generated_Source\PSoC4/Timer_PM.c **** * Summary:
  99:Generated_Source\PSoC4/Timer_PM.c **** *  Restores the user configuration and restores the enable state.
 100:Generated_Source\PSoC4/Timer_PM.c **** *
 101:Generated_Source\PSoC4/Timer_PM.c **** * Parameters:
 102:Generated_Source\PSoC4/Timer_PM.c **** *  None
 103:Generated_Source\PSoC4/Timer_PM.c **** *
 104:Generated_Source\PSoC4/Timer_PM.c **** * Return:
 105:Generated_Source\PSoC4/Timer_PM.c **** *  None
 106:Generated_Source\PSoC4/Timer_PM.c **** *
 107:Generated_Source\PSoC4/Timer_PM.c **** *******************************************************************************/
 108:Generated_Source\PSoC4/Timer_PM.c **** void Timer_Wakeup(void)
 109:Generated_Source\PSoC4/Timer_PM.c **** {
 329              		.loc 1 109 0
 330              		.cfi_startproc
 331              		@ args = 0, pretend = 0, frame = 0
 332              		@ frame_needed = 0, uses_anonymous_args = 0
 333 0000 10B5     		push	{r4, lr}
ARM GAS  C:\Users\gjl\AppData\Local\Temp\cc4LiCt9.s 			page 19


 334              		.cfi_def_cfa_offset 8
 335              		.cfi_offset 4, -8
 336              		.cfi_offset 14, -4
 110:Generated_Source\PSoC4/Timer_PM.c ****     Timer_RestoreConfig();
 111:Generated_Source\PSoC4/Timer_PM.c **** 
 112:Generated_Source\PSoC4/Timer_PM.c ****     if(0u != Timer_backup.enableState)
 337              		.loc 1 112 0
 338 0002 034B     		ldr	r3, .L14
 339 0004 1B78     		ldrb	r3, [r3]
 340 0006 002B     		cmp	r3, #0
 341 0008 01D0     		beq	.L9
 113:Generated_Source\PSoC4/Timer_PM.c ****     {
 114:Generated_Source\PSoC4/Timer_PM.c ****         Timer_Enable();
 342              		.loc 1 114 0
 343 000a FFF7FEFF 		bl	Timer_Enable
 344              	.LVL1:
 345              	.L9:
 115:Generated_Source\PSoC4/Timer_PM.c ****     }
 116:Generated_Source\PSoC4/Timer_PM.c **** }
 346              		.loc 1 116 0
 347              		@ sp needed
 348 000e 10BD     		pop	{r4, pc}
 349              	.L15:
 350              		.align	2
 351              	.L14:
 352 0010 00000000 		.word	.LANCHOR0
 353              		.cfi_endproc
 354              	.LFE4:
 355              		.size	Timer_Wakeup, .-Timer_Wakeup
 356              		.bss
 357              		.set	.LANCHOR0,. + 0
 358              		.type	Timer_backup, %object
 359              		.size	Timer_backup, 1
 360              	Timer_backup:
 361 0000 00       		.space	1
 362              		.text
 363              	.Letext0:
 364              		.file 2 "Generated_Source\\PSoC4\\cytypes.h"
 365              		.file 3 "Generated_Source\\PSoC4\\Timer.h"