ARM GAS  C:\Users\gjl\AppData\Local\Temp\ccedk5LJ.s 			page 1


   1              		.syntax unified
   2              		.cpu cortex-m0
   3              		.fpu softvfp
   4              		.eabi_attribute 20, 1
   5              		.eabi_attribute 21, 1
   6              		.eabi_attribute 23, 3
   7              		.eabi_attribute 24, 1
   8              		.eabi_attribute 25, 1
   9              		.eabi_attribute 26, 1
  10              		.eabi_attribute 30, 4
  11              		.eabi_attribute 34, 0
  12              		.eabi_attribute 18, 4
  13              		.thumb
  14              		.syntax unified
  15              		.file	"u8g2_line.c"
  16              		.text
  17              	.Ltext0:
  18              		.section	.gnu.lto_.profile.50a26907,"",%progbits
  19 0000 789C6361 		.ascii	"x\234ca`d`a`\000\222\026\252\000\000\377\000h"
  19      60646061 
  19      60009216 
  19      AA0000FF 
  19      0068
  20              		.text
  21              		.section	.gnu.lto_.icf.50a26907,"",%progbits
  22 0000 789C6361 		.ascii	"x\234ca`d\000\001\016\006\004`d\370\260\371\374{n\006"
  22      60640001 
  22      0E060460 
  22      64F8B0F9 
  22      FC7B6E06 
  23 0014 00108C03 		.ascii	"\000\020\214\003{"
  23      7B
  24              		.text
  25              		.section	.gnu.lto_.jmpfuncs.50a26907,"",%progbits
  26 0000 789C6361 		.ascii	"x\234ca`d\000\001M\006\004`d`e\004\001y\246z `c\252"
  26      60640001 
  26      4D060460 
  26      64606504 
  26      0179A67A 
  27 0018 4448A170 		.ascii	"DH\241p\030\000]\023\003Y"
  27      18005D13 
  27      0359
  28              		.text
  29              		.section	.gnu.lto_.inline.50a26907,"",%progbits
  30 0000 789C6361 		.ascii	"x\234ca`d\000\001o\006\004\000\212\250\277edda\344\000"
  30      60640001 
  30      6F060400 
  30      8AA8BF65 
  30      646461E4 
  31 0015 B2984104 		.ascii	"\262\230A\004\023\210`\001\023\032;\276r3\260-\220g"
  31      13886001 
  31      131A3BBE 
  31      7233B02D 
  31      9067
  32 0027 62E0F8A0 		.ascii	"b\340\370\240\307\003\"\014@zXx\031\031\230w\361O\360"
  32      C703220C 
  32      407A5878 
ARM GAS  C:\Users\gjl\AppData\Local\Temp\ccedk5LJ.s 			page 2


  32      19199877 
  32      F14FF0
  33 003a 9BE087C4 		.ascii	"\233\340\207\304d\000\000o\024\014\001"
  33      6400006F 
  33      140C01
  34              		.text
  35              		.section	.gnu.lto_.pureconst.50a26907,"",%progbits
  36 0000 789C6361 		.ascii	"x\234ca`d`f`\000\222\026\000\000\220\000B"
  36      60646066 
  36      60009216 
  36      00009000 
  36      42
  37              		.text
  38              		.section	.gnu.lto_u8g2_DrawLine.50a26907,"",%progbits
  39 0000 789C7D56 		.ascii	"x\234}VklTE\024\2363s\367\336\273\357mw\273\273\300"
  39      6B6C5445 
  39      149E3373 
  39      F7DEBBEF 
  39      6D77BBBB 
  40 0015 826D104B 		.ascii	"\202m\020K\013%\012\306\240?\214&\306\230\030\377\230"
  40      0B250AC6 
  40      A03F8C26 
  40      C69818FF 
  40      98
  41 0026 F80F620C 		.ascii	"\370\017b\014\020c\"\006\001c\033\177\364\322\333m\211"
  41      10632206 
  41      01631B7F 
  41      F4D2DB6D 
  41      89
  42 0037 56454429 		.ascii	"VED)\025\021%F@\260\024,P\240\262 \226\207\245\304\250"
  42      15112546 
  42      40B0142C 
  42      50A0B220 
  42      9687A5C4 
  43 004c F12D8ACF 		.ascii	"\361-\212\317 VX|\004\021\3539g\356v/\320x\223;\235"
  43      2056587C 
  43      0411EB39 
  43      67EE762F 
  43      D078933B 
  44 0061 F9E67C73 		.ascii	"\371\346|s\276\371\346\334\351\032\002\004=\367D\204"
  44      BEF9E6DC 
  44      E91A0204 
  44      3DF74484 
  45 0071 B81BFF36 		.ascii	"\270\033\3776\340\020\306\011\220+\206\204XfK\251\226"
  45      E010C609 
  45      902B8684 
  45      58664BA9 
  45      96
  46 0082 D70A2764 		.ascii	"\327\012'dP\033Q\020\320\260Q\352\004\244\311\363\026"
  46      501B5110 
  46      D0B051EA 
  46      04A4C9F3 
  46      16
  47 0093 CF9B606B 		.ascii	"\317\233`k\330*ul\031\344\371\020\317\007!\244\341\220"
  47      D82A756C 
  47      19E4F910 
  47      CF0721A4 
ARM GAS  C:\Users\gjl\AppData\Local\Temp\ccedk5LJ.s 			page 3


  47      E190
  48 00a5 0C331C61 		.ascii	"\0143\034a8\014\021\015Gd\214\341(\303Q\210i8&\343g"
  48      380C110D 
  48      47648CE1 
  48      28C35188 
  48      693826E3 
  49 00ba AB104EAC 		.ascii	"\253\020N\254\237\215p\034\022\032N@Fw*d%\323\222L\253"
  49      9F8D701C 
  49      121A4E40 
  49      46772A64 
  49      25D3924C 
  50 00cf 84948693 		.ascii	"\204\224\206\223\245NJVu\020?\335z3\316WAZ\303i\315"
  50      A54E4A56 
  50      75103FDD 
  50      7A33CE57 
  50      415AC369 
  51 00e4 3F606764 		.ascii	"?`gdE\307a\201\001\331V\013\003\262\000\204;6\210f\251"
  51      45C76181 
  51      01D9560B 
  51      03B20084 
  51      3B368866 
  52 00f9 8C8069D9 		.ascii	"\214\200i\331\301P8\022\215\305\023\025\225\311TU:\223"
  52      C1503812 
  52      8DC51315 
  52      95C95455 
  52      3A93
  53 010b 85669911 		.ascii	"\205f\231\021\372\371C^\222p\260\375\307>Y\367\206\203"
  53      FAF9435E 
  53      9270B0FD 
  53      C73E59F7 
  53      8683
  54 011d CF37F995 		.ascii	"\3177\371\225\312\331X\200\274\022bD\352\030x\003\352"
  54      CAD95880 
  54      BC126244 
  54      EA187803 
  54      EA
  55 012e 30EA83D6 		.ascii	"0\352\203\326mk\325\3572\257\000\014\034\236;\336\365"
  55      6D6BD5EF 
  55      32AF000C 
  55      1C9E3BDE 
  55      F5
  56 013f 5D8C8612 		.ascii	"]\214\206\022\252q\270l\340\247eq\225\003\201\375\336"
  56      AA71B86C 
  56      E0A76571 
  56      950381FD 
  56      DE
  57 0150 81DE75B1 		.ascii	"\201\336u\261\332\327\035\247\305q.\314w\202y\245`3"
  57      DAD71DA7 
  57      C5712ECC 
  57      778279A5 
  57      6033
  58 0162 285C0F36 		.ascii	"(\\\0176A\0166BN $\340M\250\305\350\223]\317\035\017"
  58      410E3642 
  58      4E2024E0 
  58      4DA8C5E8 
  58      935DCF1D 
  59 0177 A91ACDDC 		.ascii	"\251\032\315\334\261\346\254\362\230\375s\035\225W\006"
ARM GAS  C:\Users\gjl\AppData\Local\Temp\ccedk5LJ.s 			page 4


  59      B1E6ACF2 
  59      98FD731D 
  59      955706
  60 0186 6CD1CC59 		.ascii	"l\321\314Y9\270\236x\206\200\255\314;\262\342\327'\324"
  60      39B89E78 
  60      8680ADCC 
  60      3BB2E2D7 
  60      27D4
  61 0198 B54CBB78 		.ascii	"\265L\273x~\327f\360h\227<\332[W\321\272\231\326\277"
  61      7ED766F0 
  61      68973CDA 
  61      5B57D1BA 
  61      99D6BF
  62 01ab 7ADDBDAA 		.ascii	"z\335\275\252\226i;\235\335\317\224t\366\017\204\235"
  62      96693B9D 
  62      DDCF9474 
  62      F60F849D 
  63 01bb EB89B7ED 		.ascii	"\353\211\267\355*^\017\363\266\3579\371lX\3253q\373"
  63      2A5E0FF3 
  63      B6EF39F9 
  63      6C58D533 
  63      71FB
  64 01cd 4BBF3696 		.ascii	"K\2776\226\322\225x\333\257\342\355\200Z\012>\372\351"
  64      D29578DB 
  64      AFE2ED80 
  64      5A0A3EFA 
  64      E9
  65 01de DF7F4AD5 		.ascii	"\337\177J\325\300\304W\333O\017\333S6\020\263\320\263"
  65      C0C457DB 
  65      4F0FDB53 
  65      3610B3D0 
  65      B3
  66 01ef 70B55358 		.ascii	"p\265SXV\235W\001x\333\317\245\007C\327\365oy:\256n"
  66      569D5701 
  66      78DBCFA5 
  66      0743D7F5 
  66      6F793AAE 
  67 0204 64DAF08E 		.ascii	"d\332\360\216\356\257\202Ds\234\302\313M\036\315\204"
  67      EEAF8244 
  67      739CC2CB 
  67      4D1ECD84 
  68 0214 9D63D006 		.ascii	"\235c\320\006\326\037>f\251[\230\326Y\\\2652\354\321"
  68      D61F3E66 
  68      A95B98D6 
  68      595CB532 
  68      ECD1
  69 0226 BAE63AEE 		.ascii	"\272\346:\356mD\332=\006\351\324\311\365-\226\272\225"
  69      6D44DA3D 
  69      06E9D4C9 
  69      F52D96BA 
  69      95
  70 0237 495B3F78 		.ascii	"I[?x\3525\323\223\270f+x\311\014\3303\006\357\207\015"
  70      EA35D393 
  70      B8662B78 
  70      C90CD833 
  70      06EF870D 
  71 024b 7FA4D5ED 		.ascii	"\177\244\325\355L\333\326~deL\323\234\375s8\227\001"
ARM GAS  C:\Users\gjl\AppData\Local\Temp\ccedk5LJ.s 			page 5


  71      4CDBD67E 
  71      64654CD3 
  71      9CFD7338 
  71      9701
  72 025d FBC6E0EC 		.ascii	"\373\306\340\354{\362\375\177lu\007\223\236yoE\322K"
  72      7BF2FD7F 
  72      6C750793 
  72      9E796F45 
  72      D24B
  73 026f B5FAF572 		.ascii	"\265\372\365r\252w\306\240u\355io\011\251;\231\346\356"
  73      AA77C6A0 
  73      75ED696F 
  73      09A93B99 
  73      E6EE
  74 0281 FE646FFC 		.ascii	"\376do\374\312\\\2051H\247?\377bgX\335\305\244-GV>\350"
  74      CA5C8531 
  74      48A73FFF 
  74      626758DD 
  74      C5A42D47 
  75 0298 E55A35D7 		.ascii	"\345Z5\327\343\034\034\313\213\236\177_\210\232\255"
  75      E31C1CCB 
  75      8B9E7F5F 
  75      889AAD
  76 02a7 645A35BC 		.ascii	"dZ5\274\013S\340\000\276\373\361\355\307w/\276}\370"
  76      0B53E000 
  76      BEFBF1ED 
  76      C7772FBE 
  76      7DF8
  77 02b9 EEC2B717 		.ascii	"\356\302\267\027\246\350O\004\016\201\211\367\216q\345"
  77      A6E84F04 
  77      0E8189F7 
  77      8E71E5
  78 02c8 6CF7BD05 		.ascii	"l\367\275\005gd\304u\012\317\007z\2423\200\353Vr\253"
  78      6764C475 
  78      0ACF077A 
  78      A23380EB 
  78      5672AB
  79 02db B8187549 		.ascii	"\270\030uI\006\270\300Ln-nm.\235 \267!\216\017sd\204"
  79      06B8C04C 
  79      6E2D6E6D 
  79      2E9D20B7 
  79      218E0F73 
  80 02f1 DBA8A03C 		.ascii	"\333\250\240<1n\343\334&\270\255\020\224\273\222\333"
  80      316EE3DC 
  80      26B8AD10 
  80      94BB92DB 
  81 0301 A4200D29 		.ascii	"\244 \015)A*2@+\340\255\200+\217\343\310\361\334N\000"
  81      412A3240 
  81      2BE0AD80 
  81      2B8FE3C8 
  81      F1DC4E00 
  82 0315 5A2D0794 		.ascii	"Z-\007\224e\"#\223\270\275\006\213\327\252\346ejX\316"
  82      65222393 
  82      B8BD068B 
  82      D7AAE665 
  82      6A58CE
  83 0328 64A00FF5 		.ascii	"d\240\017\365:\204\355Zj\246\362\\\035\205\325\263\242"
ARM GAS  C:\Users\gjl\AppData\Local\Temp\ccedk5LJ.s 			page 6


  83      3A84ED5A 
  83      6AA6F25C 
  83      1D85D5B3 
  83      A2
  84 0339 69844E67 		.ascii	"i\204Ng\264\201\345\012q\026}\301\333\350\234\224\370"
  84      B481E50A 
  84      71167DC1 
  84      DBE89C94 
  84      F8
  85 034a 479D8216 		.ascii	"G\235\202\026\254v\266\011\005\241\307/\346\017\236"
  85      AC76B609 
  85      05A1C72F 
  85      E60F9E
  86 0359 B0E8EE08 		.ascii	"\260\350\356\010\240+\357\341u\360-\264~\352\236\237"
  86      A02BEFE1 
  86      75F02DB4 
  86      7EEA9E9F 
  87 0369 4921AECA 		.ascii	"I!\256\312\270*\313\247qN*qP\251\037\301\355l;#\365"
  87      B82ACBA7 
  87      714E2A71 
  87      50A91FC1 
  87      ED6C3B23 
  88 037e E4386FFE 		.ascii	"\3448o\376\0240@\247\202 \007\033\243\301\277\033:x"
  88      143040A7 
  88      8220071B 
  88      A3C1BF1B 
  88      3A78
  89 0390 3C4662FC 		.ascii	"<Fb\374\345\301\34398\340\011C\363\030\215j\015\177"
  89      E5C1E339 
  89      38E00943 
  89      F3188D6A 
  89      0D7F
  90 03a2 791A26B8 		.ascii	"y\032&\270\212+\242\010Q\\^\015\276\031F\242\361s\020"
  90      8A2BA208 
  90      515C5E0D 
  90      BE1946A2 
  90      F17310
  91 03b5 99E6689A 		.ascii	"\231\346h\232\341\217\003:z\242G(\345\331K+N\344<\326"
  91      E18F033A 
  91      7AA24728 
  91      E5D94B2B 
  91      4EE43CD6 
  92 03c9 55A22661 		.ascii	"U\242&a$\306_\036<\211\203\355\262(F\343$j\310\035\361"
  92      24C65F1E 
  92      3C8983ED 
  92      B22846E3 
  92      246AC81D 
  93 03de 44450961 		.ascii	"DE\011aQq\\\336\374\222DM\262XT\220\322\220\317\037"
  93      51715CDE 
  93      FC92444D 
  93      B2585490 
  93      D290CF1F 
  94 03f2 3EEAF3B9 		.ascii	">\352\363\271\267}\260'\244}\006\030\000\022\330R\370"
  94      B77DB027 
  94      A47D0618 
  94      0012D852 
  94      F8
ARM GAS  C:\Users\gjl\AppData\Local\Temp\ccedk5LJ.s 			page 7


  95 0403 780147BC 		.ascii	"x\001G\274\253w\215\210s_\331\2348\003\217\225\205q"
  95      AB778D88 
  95      735FD99C 
  95      38038F95 
  95      8571
  96 0415 44E1131F 		.ascii	"D\341\023\037'\343\343\340a\353\255\2248\335\004pD\341"
  96      27E3E3E0 
  96      61EBAD94 
  96      38DD0470 
  96      44E1
  97 0427 331F27EB 		.ascii	"3\037'\353\343\364PH\316\307\331A@\226\015\010\225\015"
  97      E3F45048 
  97      CEC7D941 
  97      40960D08 
  97      950D
  98 0439 E8255E4A 		.ascii	"\350%^J\370\334H\010\337y\305\274\001\223mo\300K\007"
  98      F8DC4808 
  98      DF79C5BC 
  98      01936D6F 
  98      C04B07
  99 044c BC014B51 		.ascii	"\274\001KQ\336\200\205\202>\343\275\263\264\235@\261"
  99      DE808582 
  99      3EE3BDB3 
  99      B49D40B1 
 100 045c 6C27F632 		.ascii	"l'\366266\023\202\373\216\207\212\240\260G\303Lp\243"
 100      36361382 
 100      FB8E878A 
 100      A0B047C3 
 100      4C70A3
 101 046f 5584008A 		.ascii	"U\204\000\212\243Q.8H\2236\366h\230\345\311\030:D\243"
 101      A3512E38 
 101      489336F6 
 101      6898E5C9 
 101      183A44A3 
 102 0483 78700B4D 		.ascii	"xp\013M&\260G\303(O\246\250\266\355\216_L\362>\270\366"
 102      26B047C3 
 102      284FA6A8 
 102      B6ED8E5F 
 102      4CF23EB8 
 103 0498 69FA20C2 		.ascii	"i\372 \302\245\203:\347\263\007\256\2644\340\263\247"
 103      A5833AE7 
 103      B307AEB4 
 103      34E0B3A7 
 104 04a8 474B27CE 		.ascii	"GK'\316y\037G\3718\335\243&\370-Uli\244l)\243A\277W"
 104      791F47F9 
 104      38DDA326 
 104      F82D556C 
 104      69A46C29 
 105 04c0 A6DF2BC3 		.ascii	"\246\337+\303\357\225\024X\264\305\266\257\037\327^"
 105      EF951458 
 105      B4C5B6AF 
 105      1FD75E
 106 04cf 5D838EC3 		.ascii	"]\203\216\303\264\034\202-EKC\325\210\216\026q\037I"
 106      B41C822D 
 106      454B43D5 
 106      888E1671 
 106      1F49
ARM GAS  C:\Users\gjl\AppData\Local\Temp\ccedk5LJ.s 			page 8


 107 04e1 AAD6E57A 		.ascii	"\252\326\345z\336\363\327\240d\354\257\304\015\204\310"
 107      DEF3D7A0 
 107      64ECAFC4 
 107      0D84C8
 108 04f0 EE70C709 		.ascii	"\356p\307\011t\011'\024\015\355\360\252x\221\"\0034"
 108      74092714 
 108      0DEDF0AA 
 108      78912203 
 108      34
 109 0501 029C8C15 		.ascii	"\002\234\214\025!\2108\015\025N\242\374h\311\257\013"
 109      2188380D 
 109      154EA2FC 
 109      68C9AF0B 
 110 0511 DFEA4CBB 		.ascii	"\337\352L\273\270\262G6\015\3571\251\262Mh\206\303\220"
 110      B8B24736 
 110      0DEF31A9 
 110      B24D6886 
 110      C390
 111 0523 E3ADC6CA 		.ascii	"\343\255\306\312[\335Ez\222l\332\305*\346\355'\304 "
 111      5BDD457A 
 111      926CDAC5 
 111      2AE6ED27 
 111      C420
 112 0535 859FBB1B 		.ascii	"\205\237\273\033:L-\321\304\245\272\363\337o\262i)\013"
 112      3A4C2DD1 
 112      C4A5BAF3 
 112      DF6FB269 
 112      290B
 113 0547 46008E80 		.ascii	"F\000\216\200\367\335'\375\337\217\211\337\317Q\310"
 113      F7DD27FD 
 113      DF8F89DF 
 113      CF51C8
 114 0556 45069F8D 		.ascii	"E\006\237\215Q\266\350\3620\246\213\213\177\200>\355"
 114      51B6E8F2 
 114      30A68B8B 
 114      7F803EED 
 115 0566 17DB863A 		.ascii	"\027\333\206:cz\275\032\275\344\207\356\241\023\374"
 115      637ABD1A 
 115      BDE487EE 
 115      A113FC
 116 0575 53C9A025 		.ascii	"S\311\240%\217A\371f`\327kXm\242\254\226Q\213\325\276"
 116      8F41F966 
 116      60D76B58 
 116      6DA2AC96 
 116      518BD5BE 
 117 0589 D216E5C0 		.ascii	"\322\026\345\300\003$W\222\020\013\327\214\241!5\361"
 117      03245792 
 117      100BD78C 
 117      A12135F1 
 118 0599 B53D39E4 		.ascii	"\265=9\344U\010\374\271\247x\037?udu\336\024\355\343"
 118      5508FCB9 
 118      A7781F3F 
 118      756475DE 
 118      14EDE3
 119 05ac 4CDF85A8 		.ascii	"L\337\205\250\336\207\200\367\36560\274R\014LV?C[\241"
 119      DE8780F7 
 119      F53630BC 
ARM GAS  C:\Users\gjl\AppData\Local\Temp\ccedk5LJ.s 			page 9


 119      520C4C56 
 119      3F435BA1 
 120 05c0 77405130 		.ascii	"w@Q0\375\217\353\353;\363\205\325|\311Y\3568\211\274"
 120      FD8FEBEB 
 120      3BF385D5 
 120      7CC959EE 
 120      3889BC
 121 05d3 0A8E48FA 		.ascii	"\012\216H\372\331<\010\315\302U\223]\025rU$\257B\314"
 121      D93C08CD 
 121      C255935D 
 121      15725524 
 121      AF42CC
 122 05e6 4E96D8BB 		.ascii	"N\226\330\273\315\377%\037/\221#\310/\221S\254\224J"
 122      CDFF251F 
 122      2F9123C8 
 122      2F9153AC 
 122      944A
 123 05f8 A67D788D 		.ascii	"\246}x\215w\207]\347\252J*\255N\357\004j\031J\370\013"
 123      77875DE7 
 123      AA4A2AAD 
 123      4EEF046A 
 123      194AF80B 
 124 060c 6B2AA297 		.ascii	"k*\242\227\027\326T]X\027K\333\235\352\337n\030\267"
 124      17D6545D 
 124      58174BDB 
 124      9DEADF6E 
 124      18B7
 125 061e 3B34BADD 		.ascii	";4\272\335*\261&\251S\016t\315\326\321uT\011|N\203\240"
 125      2AB126A9 
 125      530E74CD 
 125      D6D17554 
 125      097C4E83 
 126 0633 917AD659 		.ascii	"\221z\326Y7\232\204k\243^\307\014u\335\244\203\246a"
 126      379A846B 
 126      A35EC70C 
 126      75DDA483 
 126      A661
 127 0645 C993129F 		.ascii	"\311\223\022\237\262\351\210^\256l:'M\363F\365Y2\\\341"
 127      B2E9885E 
 127      AE6C3A27 
 127      4DF346F5 
 127      59325CE1 
 128 0659 7D4ABC70 		.ascii	"}J\274pX/\374o\347R\275J\003Z\344/.\003\213\353\204"
 128      582FFC6F 
 128      E752BD4A 
 128      035AE42F 
 128      2E038BEB 
 129 066e AF46F8E8 		.ascii	"\257F\370\350\033\350\350\361~\217\244\360\350\353\253"
 129      1BE8E8F1 
 129      7E8FA4F0 
 129      E8EBAB
 130 067d 3A7AE717 		.ascii	":z\347\027\241\002w\236\372h\026f\255Z\333\3730\346"
 130      A102779E 
 130      FA681666 
 130      AD5ADBFB 
 130      30E6
 131 068f CD08FCA9 		.ascii	"\315\010\374\251\357\317[\351\317\033\361\006\274^\210"
ARM GAS  C:\Users\gjl\AppData\Local\Temp\ccedk5LJ.s 			page 10


 131      EFCF5BE9 
 131      CF1BF106 
 131      BC5E88
 132 069e 2CFCCCDD 		.ascii	",\374\314\335\337\241\264\010\313\345C\302$x\3342\261"
 132      DFA1B408 
 132      CBE543C2 
 132      2478DC32 
 132      B1
 133 06af 11EFBC86 		.ascii	"\021\357\274\2064]Zh\214\221\370\262\033\263\206\323"
 133      345D5A68 
 133      8C91F8B2 
 133      1BB386D3 
 134 06bf 50844AFC 		.ascii	"P\204J\374\254\023\373~\303aE\0320e\226\252\3664]\357"
 134      AC13FB7E 
 134      C361451A 
 134      306596AA 
 134      F6345DEF 
 135 06d3 777241D0 		.ascii	"wrA\320s\026K\240\325\302b\0357c\306\234\307f?8s\316"
 135      73164BA0 
 135      D5C2621D 
 135      3763C69C 
 135      C7663F38 
 136 06e9 BC258BE7 		.ascii	"\274%\213\347q\357\376\207\037zd\301\214y\302\240\201"
 136      71EFFE87 
 136      1F7A64C1 
 136      8C79C2A0 
 136      81
 137 06fa 6CBC4136 		.ascii	"l\274A6\335 \033g\312\246\231\346\222\307\037X\324\330"
 137      DD201B67 
 137      CAA699E6 
 137      92C71F58 
 137      D4D8
 138 070c 14685AB2 		.ascii	"\024hZ\262t\301\"\265`\361b9\277I\316o\204&hTK\027."
 138      74C122B5 
 138      60F16239 
 138      BF49CE6F 
 138      84266854 
 139 0723 FA0F7B01 		.ascii	"\372\017{\001\261\375"
 139      B1FD
 140              		.text
 141              		.section	.gnu.lto_.symbol_nodes.50a26907,"",%progbits
 142 0000 789C6361 		.ascii	"x\234ca`d0e\000\002&\206z\006\206\011\347\030@\324\256"
 142      60643065 
 142      00022686 
 142      7A068609 
 142      E71840D4 
 143 0015 06450606 		.ascii	"\006E\006\006F\306zF\260\000\003CC\203\002\003\0033"
 143      46C67A46 
 143      B0000343 
 143      43830203 
 143      0333
 144 0027 50E593C7 		.ascii	"P\345\223\307?\336\033\203\030-\317\200\014\006\000"
 144      3FDE1B83 
 144      182DCF80 
 144      0C0600
 145 0036 46D30E61 		.ascii	"F\323\016a"
 146              		.text
ARM GAS  C:\Users\gjl\AppData\Local\Temp\ccedk5LJ.s 			page 11


 147              		.section	.gnu.lto_.refs.50a26907,"",%progbits
 148 0000 789C6361 		.ascii	"x\234ca`\004B \000\000\0009\000\007"
 148      60044220 
 148      00000039 
 148      0007
 149              		.text
 150              		.section	.gnu.lto_.decls.50a26907,"",%progbits
 151 0000 789CC55A 		.ascii	"x\234\305Z{PTYz\357\323\247\201\246\273\001EG\235\024"
 151      7B505459 
 151      7AEFD3A7 
 151      81A6BB01 
 151      45479D14 
 152 0014 D9B1A68C 		.ascii	"\331\261\246\214C\252v\034\235\331l\334\3747\225T\222"
 152      43AA761C 
 152      9DD96CDC 
 152      FC379554 
 152      92
 153 0025 4AA5525B 		.ascii	"J\245R[\225\354\376E\252\267iZ\355,\002\325\3358\270"
 153      95ECFE45 
 153      AAB7695A 
 153      ED2C02D5 
 153      DD38B8
 154 0038 95AA6D10 		.ascii	"\225\252m\020DQy*\012\342[\361\255\274\024Q\021|!\250"
 154      4451792A 
 154      0AE25BF1 
 154      ADBC1451 
 154      117C21A8 
 155 004c 3CDB178A 		.ascii	"<\333\027\212\200/\3047\"\212\274$\3379\337\355{\317"
 155      802FC437 
 155      228ABC24 
 155      DF39DFED 
 155      7BCF
 156 005e 85CB4EAA 		.ascii	"\205\313N\252\222I\272\370\372\336\357\234\337=\347"
 156      9249BAF8 
 156      FADEEF9C 
 156      DF3DE7
 157 006d 3BDFEB7C 		.ascii	";\337\353|\347\322\006\035\321\261O\314\327:]\177\220"
 157      E7D2061D 
 157      D1B14FCC 
 157      D73A5D7F 
 157      90
 158 007e 4E970AF7 		.ascii	"N\227\012\367\343\360\321\303\365\267:\345\303x#|\205"
 158      E3F0D1C3 
 158      F5B73AE5 
 158      C378237C 
 158      85
 159 008f EA75933E 		.ascii	"\352u\223>\254\335\"\341\303\201f\002u\300\260\025p"
 159      ACDD22E1 
 159      C3816602 
 159      75C0B015 
 159      70
 160 00a0 2D059A06 		.ascii	"-\005\232\006\375\021\254\017\256\237\001\205\000\315"
 160      FD11AC0F 
 160      AE9F0185 
 160      00CD
 161 00ae FE6F8C3B 		.ascii	"\376o\214;\246'-\251u\225\306{\244\235\350\211$\250"
 161      A6272DA9 
ARM GAS  C:\Users\gjl\AppData\Local\Temp\ccedk5LJ.s 			page 12


 161      7595C67B 
 161      A49DE889 
 161      24A8
 162 00c0 8E10FC26 		.ascii	"\216\020\374&\234tH\234\205\033=\377\326\311M\362E\307"
 162      9C74489C 
 162      851B3DFF 
 162      D6C94DF2 
 162      45C7
 163 00d2 BE7588E7 		.ascii	"\276u\210\347m\312`\374\317\177\035\367\177\370 \312"
 163      6DCA60FC 
 163      CF7F1DF7 
 163      7FF820CA 
 164 00e2 E8447A88 		.ascii	"\350Dz\210\310\022\340S\330\257\367\217\212\027\275"
 164      C812E053 
 164      D8AFF78F 
 164      8A17BD
 165 00f1 F280301E 		.ascii	"\362\2000\036\212+\310D\324k\"\376E\267\357\313\273"
 165      8A2BC844 
 165      D46B22FE 
 165      45B7EFCB 
 165      BB
 166 0102 6DA1B062 		.ascii	"m\241\260b\270\357\032:\360\367\013\216x\341\223\355"
 166      B8EF1A3A 
 166      F0F70B8E 
 166      78E193ED 
 167 0112 F5EA2315 		.ascii	"\365\352#\025\315\034O{|\3208\240'\021&2N\030\377\262"
 167      CD1C4F7B 
 167      7CD038A0 
 167      27112632 
 167      4E18FFB2 
 168 0126 6A280479 		.ascii	"j(\004y\326]Q\373\356\250\201~\316\356\365\255\345\355"
 168      D65D51FB 
 168      EEA8817E 
 168      CEEEF5AD 
 168      E5ED
 169 0138 978349A4 		.ascii	"\227\203I\244\251\230\015\323\275\371\375\367\253\274"
 169      A9980DD3 
 169      BDF9FDF7 
 169      ABBC
 170 0146 5E428E11 		.ascii	"^B\216\021\0239B(9H\026\260\311#L\360\275\306\353M\361"
 170      13394228 
 170      394816B0 
 170      C9234CF0 
 170      BDC6EB4D 
 171 015b F6EDF606 		.ascii	"\366\355\366\006\316\321\221\357\"\310\302\010\0359"
 171      CED191EF 
 171      22C8C208 
 171      1D39
 172 0169 4A22D998 		.ascii	"J\"\331\230\014E\016\223\010r\210D\260\361\017\3568"
 172      0C450E93 
 172      08728844 
 172      B0F10FEE 
 172      38
 173 017a 70298416 		.ascii	"p)\204\026\023>\301\253\215/\326Py\202\352u\021\207"
 173      133EC1AB 
 173      8D2FD650 
 173      7982EA75 
ARM GAS  C:\Users\gjl\AppData\Local\Temp\ccedk5LJ.s 			page 13


 173      1187
 174 018c BDDE69A4 		.ascii	"\275\336i\244\024&8\256L\000\363i\317P\242=\303\373"
 174      142638AE 
 174      4C00F369 
 174      CF50A23D 
 174      C3FB
 175 019e A6B79916 		.ascii	"\246\267\231\026\272\217\253A\177yt\354\271^\236\301"
 175      BA8FAB41 
 175      7F7974EC 
 175      B95E9EC1 
 176 01ae E7FBCFDC 		.ascii	"\347\373\317\3344P\007\251\200)\312\224)J\247\232\242"
 176      345007A9 
 176      8029CA94 
 176      294AA79A 
 176      A2
 177 01bf 5C7B8AF1 		.ascii	"\\{\212\361\301\336\023&\003x\036\037(\332\300\332\232"
 177      C1DE1326 
 177      03781E1F 
 177      28DAC0DA 
 177      9A
 178 01d0 467AD605 		.ascii	"Fz\326\005\310m'\010o,\336v\343U\210\334x\022\033/\177"
 178      C86D2708 
 178      6F2CDE76 
 178      E35588DC 
 178      78121B2F 
 179 01e5 CAEFB1C8 		.ascii	"\312\357\261\310\215\225\330\330\232ZRD\301\014\341"
 179      8D95D8D8 
 179      9A5A5244 
 179      C10CE1
 180 01f4 266200F6 		.ascii	"&b\000\366mc\341\243P`g\232\310\\`\267\276\273\377,"
 180      6D63E1A3 
 180      5060679A 
 180      C85C60B7 
 180      BEBBFF2C 
 181 0208 18D94860 		.ascii	"\030\331H`\327<H\367\231\020\374\221=|\272\257y\203"
 181      D73C48F7 
 181      9910FC91 
 181      3D7CBAAF 
 181      7983
 182 021a 99D6A1E5 		.ascii	"\231\326\241\345_\247>\3516#v\016\260\353O\227\036\015"
 182      5FA73EE9 
 182      3623760E 
 182      B0EB4F97 
 182      1E0D
 183 022c A1ADD877 		.ascii	"\241\255\330whO\367v6\316l0>\343k|\335E&\344\275\177"
 183      684FF776 
 183      36CE6C30 
 183      3EE36B7C 
 183      DD4526E4 
 184 0242 047E5353 		.ascii	"\004~SS\321\015#\355F\335]*\274\220\022\240\230\377"
 184      D10D23ED 
 184      46DD5D2A 
 184      BC9012A0 
 184      98FF
 185 0254 D5CA1466 		.ascii	"\325\312\024f\376K \363\005Eu\263%\315y'h\356\"hn\266"
 185      FE4B20F3 
 185      054575B3 
ARM GAS  C:\Users\gjl\AppData\Local\Temp\ccedk5LJ.s 			page 14


 185      25CD7927 
 185      68EE2268 
 186 026a A4B9F3A0 		.ascii	"\244\271\363\240\271Z\324\234\257c\270\326H\237\341"
 186      B95AD49C 
 186      AF63B8D6 
 186      489FE1
 187 0279 04FB1B86 		.ascii	"\004\373\033\206O\005\022S\244\306\343W4\036\367{\311"
 187      4F051253 
 187      A4C6E357 
 187      341EF77B 
 187      C9
 188 028a AC43CC4B 		.ascii	"\254C\314K\352@\216\313\212\034\227\270\011a\206\266"
 188      EA408ECB 
 188      8A1C97B8 
 188      096186B6 
 189 029a BEEBDBA4 		.ascii	"\276\353\333\244\345O\0036\255%\343\230\231\366\341"
 189      E54F0336 
 189      AD25E398 
 189      99F6E1
 190 02a9 F29FAFE9 		.ascii	"\362\237\257\351j7\323d\312\231\372\213\367\377\225"
 190      6A37D364 
 190      CA99FA8B 
 190      F7FF95
 191 02b8 E6E07DCA 		.ascii	"\346\340}\312\231\366\2340Th\267\250\303p\324a\311\331"
 191      99F69C30 
 191      5468B7A8 
 191      C370D461 
 191      C9D9
 192 02ca D4579235 		.ascii	"\324W\2225jY\314\244\024\370\362(\335\215\317\236\251"
 192      6A59CCA4 
 192      14F8F228 
 192      DD8DCF9E 
 192      A9
 193 02db 3C5B1780 		.ascii	"<[\027\200\235\013\205\371\303q\376\313\343\203\265"
 193      9D0B85F9 
 193      C371FECB 
 193      E383B5
 194 02ea D2C87A60 		.ascii	"\322\310z`G\273^7\032\350\021|r\337\360H\037\263\371"
 194      47BB5E37 
 194      1AE8117C 
 194      72DFF048 
 194      1FB3F9
 195 02fd 7CB0C638 		.ascii	"|\260\3068\025bq>\306b\315\265\206b\013=\307\301\372"
 195      1562713E 
 195      C662CDB5 
 195      86620B3D 
 195      C7C1FA
 196 0310 BDB52969 		.ascii	"\275\265)i\004\225\005vX\3455\035\010\325\221zPM\033"
 196      04950576 
 196      58E5351D 
 196      08D5917A 
 196      504D1B
 197 0323 A886DC01 		.ascii	"\250\206\334\001}\315\227\364u\023\032o\310\372\332"
 197      7DCD97F4 
 197      75131A6F 
 197      C8FADA
 198 0332 FCEA9F78 		.ascii	"\374\352\237x\330\336\006}\335R\3645_R\327\271\234{"
ARM GAS  C:\Users\gjl\AppData\Local\Temp\ccedk5LJ.s 			page 15


 198      D8DE067D 
 198      DD52F435 
 198      5F52D7B9 
 198      9C7B
 199 0344 3D26DA80 		.ascii	"=&\332\200s\034\354\273~$l\3129\356M9G\365\272\371G"
 199      731CECBB 
 199      7E246CCA 
 199      39EE4D39 
 199      47F5BAF9 
 200 0359 984DEEC2 		.ascii	"\230M\356\302\034\355\312\034\267\3756y\234q\374r\010"
 200      1CEDCA1C 
 200      B7FD3679 
 200      9C71FC72 
 200      08
 201 036a 6DC3553F 		.ascii	"m\303U?\333\356K\013\245\217\2219\320S\224iA\345-\006"
 201      DBEE4B0B 
 201      A58F9139 
 201      D0539469 
 201      41E52D06 
 202 037e B6F0CCC0 		.ascii	"\266\360\314\300\325\000\324\226\021\330\035\017\012"
 202      D500D496 
 202      11D81D0F 
 202      0A
 203 038b C683E85B 		.ascii	"\306\203\350[\204f\365m\337h\244c\310\344\014\025\324"
 203      8466F56D 
 203      DF68A463 
 203      C8E40C15 
 203      D4
 204 039c 07D27403 		.ascii	"\007\322t\003gN_YU\034D\263\221I\256\276X\036B\013\220"
 204      674E5F59 
 204      551C44B3 
 204      9149AEBE 
 204      581E420B 
 205 03b1 795D5F66 		.ascii	"y]_f\242\273\361\276\372i\366\031J\313\220\331\263\357"
 205      A2BBF1BE 
 205      FA69F619 
 205      4ACB90D9 
 205      B3EF
 206 03c3 DAA0819E 		.ascii	"\332\240\201\236Gf\310[\370\314H\333\220yY\371f\263"
 206      4766C85B 
 206      F8CC48DB 
 206      907959F9 
 206      66B3
 207 03d5 9E3E44A6 		.ascii	"\236>D\246\343M\337H0\355G\246f\367\255O\3014=\2003"
 207      E34DDF48 
 207      30ED47A6 
 207      66F7AD4F 
 207      C1343D80 
 208 03ea 994D871A 		.ascii	"\231M\207\032\314t+2\345\265\365\315&Z\214\314\341\342"
 208      CC742B32 
 208      E5B5F5CD 
 208      265A8CCC 
 208      E1E2
 209 03fc E163265A 		.ascii	"\341c&Z\212\314\323\256\247\243a\36442\373\366\247\354"
 209      8ACCD3AE 
 209      A7A361F4 
 209      3432FBF6 
ARM GAS  C:\Users\gjl\AppData\Local\Temp\ccedk5LJ.s 			page 16


 209      A7EC
 210 040e 36D24BC8 		.ascii	"6\322K\310\354>\274\276>\224\336\342\314\254\253\317"
 210      EC3EBCBE 
 210      3E94DEE2 
 210      CCACABCF 
 211 041e 5B7D6632 		.ascii	"[}f2O\375\211\344\3373vc\352\312\373\367=\217\322\274"
 211      4FFD89E4 
 211      DF337663 
 211      EACAFBF7 
 211      3D8FD2BC 
 212 0432 25BFE38E 		.ascii	"%\277\343\216\337\003JN\327\317\360GK\027X\202\205\016"
 212      DF034A4E 
 212      D7CFF047 
 212      4B175882 
 212      850E
 213 0444 687B3733 		.ascii	"h{73]mWS\310fo-8:\313\245O\265\300\213$\260\327[;\230"
 213      5D6D5753 
 213      C8666F2D 
 213      383ACBA5 
 213      4FB5C08B 
 214 045e 2981D9C8 		.ascii	")\201\331\310O\264\300\365D\031\372\2668\364\0135\372"
 214      4FB4C0F5 
 214      4419FAB6 
 214      38F40B35 
 214      FA
 215 046f 1B063E2D 		.ascii	"\033\006>-\200\3576\231\231\310\014\372L\003\332B\024"
 215      80EF3699 
 215      99C80CFA 
 215      4C03DA42 
 215      14
 216 0480 29729BCD 		.ascii	")r\233\315\376\325=\320\222A\304f+\330\207Z\3303\002"
 216      FED53DD0 
 216      9241C466 
 216      2BD8875A 
 216      D83302
 217 0493 76445CDD 		.ascii	"vD\\\335#-\264(p\253\270\272\227\032\"\237\023\206\036"
 217      232DB428 
 217      70ABB8BA 
 217      971A229F 
 217      13861E
 218 04a6 12877EAC 		.ascii	"\022\207~\2545\3649a\350\312\254\320-\336\332\024\312"
 218      35F43961 
 218      E8CAACD0 
 218      2DDEDA14 
 218      CA
 219 04b7 A3E4AD84 		.ascii	"\243\344\255\204\226\203\253U\275H\300\027eY\274-\277"
 219      9683AB55 
 219      BD48C017 
 219      6559BC2D 
 219      BF
 220 04c8 E3E80E6D 		.ascii	"\343\350\016m\264h\226jQ\360\327\032\202\177\247\310"
 220      B468966A 
 220      51F0D71A 
 220      827FA7C8 
 221 04d8 BD51515F 		.ascii	"\275QQ_\267\226\324\235\302\270w\024\013>\327\030\025"
 221      B796D49D 
 221      C2B87714 
ARM GAS  C:\Users\gjl\AppData\Local\Temp\ccedk5LJ.s 			page 17


 221      0B3ED718 
 221      15
 222 04e9 35CDB340 		.ascii	"5\315\263@\355\211L\213\327kd\020\235\224\001t\3620"
 222      ED894C8B 
 222      D76B6410 
 222      9D940174 
 222      F230
 223 04fb 6744F1DE 		.ascii	"gD\361\336h\014\264H\231\362\2342\345+\015\244\270\352"
 223      680CB448 
 223      99F29C32 
 223      E52B0DA4 
 223      B8EA
 224 050d 1DA24E7D 		.ascii	"\035\242N}\332Z\022\315{_\024\243Wc\360N\301\274\371"
 224      DA5A12CD 
 224      7B5F14A3 
 224      5763F04E 
 224      C1BCF9
 225 0520 8A9AEEAB 		.ascii	"\212\232\356\253\241\255J\010\345H%\226\227\270t\244"
 225      A1AD4A08 
 225      E5482596 
 225      97B874A4 
 226 0530 09666E64 		.ascii	"\011fnd3\367IxP\003I\326G\222\024\375<\362\211\314#"
 226      33F74978 
 226      500349D6 
 226      479214FD 
 226      3CF289CC 
 227 0545 ABE03A0C 		.ascii	"\253\340:\014\327\367@^\270\377\000\3274\270\276\203"
 227      D7F7405E 
 227      B8FF00D7 
 227      34B8BE83 
 228 0555 6B3FD000 		.ascii	"k?\320\000\320\010\320\020\320G\240A\240q\240\325\200"
 228      D008D010 
 228      D047A041 
 228      A071A0D5 
 228      80
 229 0566 19836B2A 		.ascii	"\031\203k*\\G\311<\177-\367\336[t\225\322^\236C\364"
 229      5C47C93C 
 229      7F2DF7DE 
 229      5B7495D2 
 229      5E9E43F4 
 230 057a 0FCF55FB 		.ascii	"\017\317U\373\202\310\214Hm\2112@\212\237Z\"t\203\352"
 230      82C88C48 
 230      6D893240 
 230      8A9F5A22 
 230      7483EA
 231 058d ACBF606E 		.ascii	"\254\277`n\260\026&[\243\227\367\002\346\025\\f_\317"
 231      B016265B 
 231      A397F702 
 231      E6155C66 
 231      5FCF
 232 059f AE540BA6 		.ascii	"\256T\013\246\370\026\306\237\354i\2503\341\016\340"
 232      F816C69F 
 232      EC69A833 
 232      E10EE0
 233 05ae 657B6BC5 		.ascii	"e{k\305\316\0335At\010\223d\2257=\307H\323\0029\323"
 233      CE1B3541 
 233      74089364 
ARM GAS  C:\Users\gjl\AppData\Local\Temp\ccedk5LJ.s 			page 18


 233      95373DC7 
 233      48D30239 
 234 05c3 F8A2EF84 		.ascii	"\370\242\357\204\221f\"3x\277 \323L7#3>\262f\031-\306"
 234      91662233 
 234      78BF20D3 
 234      4C372333 
 234      3EB26619 
 235 05d9 FBFEC6CA 		.ascii	"\373\376\306\312\001JO \323s\356\315\240\205^@\346l"
 235      014A4F20 
 235      D373EECD 
 235      A0855E40 
 235      E66C
 236 05eb C6B55123 		.ascii	"\306\265Q#mB\246\360tz\212\211\266 \223~\242\2728\220"
 236      6D42A6F0 
 236      747A8A89 
 236      B620937E 
 236      A2BA3890 
 237 05ff B62153F5 		.ascii	"\266!S\3658\243\301H\357!3\364\272.#\200>Ff\333\315"
 237      38A3C148 
 237      EF2133F4 
 237      BA2E2380 
 237      3E4666DB 
 238 0614 87D9C126 		.ascii	"\207\331\301&\251L\314\376\361J\364YG\345\250\305\222"
 238      A94CCCFE 
 238      F14AF459 
 238      47E5A8C5 
 238      92
 239 0625 C1F0D9AB 		.ascii	"\301\360\331\253\274\341\365\241\244@ob\376H\252\270"
 239      BCE1F5A1 
 239      A4406F62 
 239      FE48AAB8 
 240 0635 0315EA2D 		.ascii	"\003\025\352-\222!\033\232\033\376\232\276\221\346\337"
 240      92211B9A 
 240      1BFE9ABE 
 240      91E6DF
 241 0644 B67D3084 		.ascii	"\266}0\204\256\012bLhE\326\301\212`ic\230!\355\010R"
 241      AE0A624C 
 241      6845D6C1 
 241      8A606963 
 241      9821ED08 
 242 0659 D6CE1292 		.ascii	"\326\316\022\222O.(z\317\237\330\017r\332\004\277\317"
 242      4F2E287A 
 242      CF9FD80F 
 242      72DA04BF 
 242      CF
 243 066a D4029F11 		.ascii	"\324\002\237\021\243\2449\014\321\254>\315W\243\277"
 243      A3A4390C 
 243      D1AC3ECD 
 243      57A3BF
 244 0679 8998905F 		.ascii	"\211\230\220_\337\211rl\324\000\213\331d\223(G\221\226"
 244      DF89726C 
 244      D4008BD9 
 244      64932847 
 244      9196
 245 068b 1C62061C 		.ascii	"\034b\006\034n\226\023A\216\026\0263\201\342\357\036"
 245      6E961341 
 245      8E161633 
ARM GAS  C:\Users\gjl\AppData\Local\Temp\ccedk5LJ.s 			page 19


 245      81E2EF1E 
 246 069b 1D59AF8F 		.ascii	"\035Y\257\217\340\321I\266J\0170\177\337\007\376~\000"
 246      E0D149B6 
 246      4A0F307F 
 246      DF07FE7E 
 246      00
 247 06ac FCF420D0 		.ascii	"\374\364 \320\016\240\275@;\201\212\201\266\001\355"
 247      0EA0BD40 
 247      3B818A81 
 247      B601ED
 248 06bb 06DA0F74 		.ascii	"\006\332\017t\010h;\320.\375<\177\352\202\005\276\025"
 248      08683BD0 
 248      2EFD3C7F 
 248      EA8205BE 
 248      15
 249 06cc 17B84963 		.ascii	"\027\270Ic\201-B\016\364e\361\034\270gR\016\204\276"
 249      812D420E 
 249      F465F11C 
 249      B867520E 
 249      84BE
 250 06de F7E24079 		.ascii	"\367\342@yZ\013\022\222\340X\263\240\251l-\260\270\267"
 250      5A0B1292 
 250      E058B3A0 
 250      A96C2DB0 
 250      B8B7
 251 06f0 DCCEFAAC 		.ascii	"\334\316\372\254\300[\233J\231K\221-\022\332\357h\223"
 251      C05B9B4A 
 251      994B912D 
 251      12DAEF68 
 251      93
 252 0701 12EC3DD1 		.ascii	"\022\354=\321\276\2335V$\246\314qQ\220,-A\020\015\236"
 252      BE9B3556 
 252      24A6CC71 
 252      51902C2D 
 252      41100D9E 
 253 0715 7BB5BCF9 		.ascii	"{\265\274\371\013\232\316\035W\377|hmn \211\234\201"
 253      0B9ACE1D 
 253      57FF7C68 
 253      6D6E2089 
 253      9C81
 254 0727 6AD99A3B 		.ascii	"j\331\232;\237\251\345(<zX\311\011{xN\320\266\337\021"
 254      9FA9E528 
 254      3C7A58C9 
 254      097B784E 
 254      D0B6DF11 
 255 073b B0D9FFD4 		.ascii	"\260\331\377\324~ \322\272\313'\352\244cU=\217\364\236"
 255      7E20D2BA 
 255      CB27EAA4 
 255      63553D8F 
 255      F49E
 256 074d 2B701C28 		.ascii	"+p\034(\3442\222\201\361\265g\214\364 2=\031\007\337"
 256      E4329281 
 256      F1B5678C 
 256      F420323D 
 256      1907DF
 257 0760 5AE84564 		.ascii	"Z\350Ed*_\037\256\014\301\307j\031\177\276|\004\222"
 257      2A5F1FAE 
ARM GAS  C:\Users\gjl\AppData\Local\Temp\ccedk5LJ.s 			page 20


 257      0CC1C76A 
 257      197FBE7C 
 257      0492
 258 0772 523D765E 		.ascii	"R=v^L~\012\205h\0132e\031gK\014\364\0162\305O\326\255"
 258      4C7E0A85 
 258      680B3265 
 258      19674B0C 
 258      F40E32C5 
 259 0789 32D16E64 		.ascii	"2\321nd\352\367\367g\020\332\033\244\252s\303\261\316"
 259      EAF7F767 
 259      10DA1BA4 
 259      AA73C3B1 
 259      CE
 260 079a 3DB2E5CD 		.ascii	"=\262\345\3151B\337`_wm\371M\003}\217L\343\323\333>"
 260      3142DF60 
 260      5F776DF9 
 260      4D037D8F 
 260      4CE3D3DB 
 261 07af 031D45A6 		.ascii	"\003\035E\246\350\351\330\200\236\2562rfg\356\300cJ"
 261      E8E9D880 
 261      9EAE3272 
 261      6667EEC0 
 261      634A
 262 07c1 7391C91D 		.ascii	"s\221\311\035\333[\252\247{\220\271r(\265["
 262      DB5BAAA7 
 262      7B90B972 
 262      28B55B
 263 07d0 4FCB91E9 		.ascii	"O\313\221\351\254\332[\037D\317\033Ug\223p<\233\234"
 263      ACDA5B1F 
 263      44CF1B55 
 263      6793703C 
 263      9B9C
 264 07e2 DE7EA3D5 		.ascii	"\336~\243\325@[\261oc\357\225`Urb\006V\222\323E99]h"
 264      405BB16F 
 264      63EF9560 
 264      55726206 
 264      5692D345 
 265 07fa 599B1F46 		.ascii	"Y\233\037F;\361\251\347Mu\037B\351\003d\036&oy\252\247"
 265      3BF1A9E7 
 265      4D751F42 
 265      E903641E 
 265      266F79AA 
 266 080f BDC86C78 		.ascii	"\275\310lxy|s0M\016V)p\246\244\300\003\235e\245&\232"
 266      797C7330 
 266      4D0E5629 
 266      70A6A4C0 
 266      039D65A5 
 267 0825 8D9D0FDE 		.ascii	"\215\235\017\336T\027\004\361\003p\251||>V\334\234e"
 267      541704F1 
 267      0370A97C 
 267      7C3E56DC 
 267      9C65
 268 0837 900FC557 		.ascii	"\220\017\305W\365\274\261{\374D\225r\246\276\206\215"
 268      F5BCB17B 
 268      FC449572 
 268      A6BE868D 
 269 0847 C7F78F0F 		.ascii	"\307\367\217\017\005\313\215\327\261q\240l\375\276@"
ARM GAS  C:\Users\gjl\AppData\Local\Temp\ccedk5LJ.s 			page 21


 269      05CB8DD7 
 269      B171A06C 
 269      FDBE40
 270 0856 5A102C15 		.ascii	"Z\020,\025\335\367\340p\177\010\031\377\3219\034\217"
 270      DDF7E070 
 270      7F0819FF 
 270      D1391C8F 
 271 0866 CE1BFB5B 		.ascii	"\316\033\373[w\007\321\012\354\253+|\012\231\363\034"
 271      7707D10A 
 271      ECAB2B7C 
 271      0A99F31C 
 272 0876 32A9DBB2 		.ascii	"2\251\333\262\233\365\010\3749\260\371k\213\272\015"
 272      9BF508FC 
 272      39B0F96B 
 272      8BBA0D
 273 0885 B8826E76 		.ascii	"\270\202nvr\333ycOG \275\211X\377\361<\034\217\347\336"
 273      72DB7963 
 273      4F4720BD 
 273      8958FFF1 
 273      3C1C8FE7 
 274 089a DED41D7A 		.ascii	"\336\324\035zz\027\373jzsj\340\210\213L\313\376W\267"
 274      7A17FB6A 
 274      7A736AE0 
 274      888B4CCB 
 274      FE57B7
 275 08ad 4369329E 		.ascii	"Ci2\236\347zw\326\224\031i\0212\233jsGM\364\0002\015"
 275      E77A77D6 
 275      94196911 
 275      329B6A73 
 275      474DF400 
 276 08c3 550F17D2 		.ascii	"U\017\027\322r\274\377p\355\306}J/ \223u\241\372\"\354"
 276      72BCFF70 
 276      EDC67D4A 
 276      2F209375 
 276      A1FA22EC 
 277 08d7 59C8D475 		.ascii	"Y\310\324u\334\005G\271\213\314Xy\371Ep!d\036\226\016"
 277      DC0547B9 
 277      8BCC5879 
 277      F9457021 
 277      641E960E 
 278 08eb BE34D28F 		.ascii	"\2764\322\217\310\034;2R\202o'~c\221\264{o\365\376k"
 278      C81C3B32 
 278      52826F27 
 278      7E6391B4 
 278      7B6FF5FE 
 279 0900 6659E30F 		.ascii	"fY\343\017Qg7\357t\336\014\226\033\037ac\372\370\375"
 279      516737EF 
 279      74DE0C96 
 279      1B1F6163 
 279      FAF8FD
 280 0913 4B469A61 		.ascii	"KF\232aF\225\354\337\2605\204\346#\223Y\320\177&\210"
 280      4695ECDF 
 280      B03584E6 
 280      239359D0 
 280      7F2688
 281 0926 6E47C657 		.ascii	"nG\306W\273sk0\335\207\314\243\212\301\275!\264\304"
 281      BB736B30 
ARM GAS  C:\Users\gjl\AppData\Local\Temp\ccedk5LJ.s 			page 22


 281      DD87CCA3 
 281      8AC1BD21 
 281      B4C4
 282 0938 3CA5714F 		.ascii	"<\245qO\264\355\350\012\242\247\0200\334<r\232\320\313"
 282      B4EDE80A 
 282      A2A71030 
 282      DC3C729A 
 282      D0CB
 283 094a C8ACF79D 		.ascii	"\310\254\367\235\374\216\266\341\375\221\233w\306\010"
 283      FC8EB6E1 
 283      FD919B77 
 283      C608
 284 0958 ED44A6F1 		.ascii	"\355D\246\361S\3379J\373\2209\332\275\332\027@\223-"
 284      53DF394A 
 284      FB9039DA 
 284      BDDA1740 
 284      932D
 285 096a 1864A3BB 		.ascii	"\030d\243\273*,t\0032u\203\325{\002\350\026d2\326\035"
 285      2A2C7403 
 285      327583D5 
 285      7B02E816 
 285      6432D61D 
 286 097e DA154A8F 		.ascii	"\332\025J\217\"\223\266\376\360YJk\221i\351*{\017\306"
 286      2293B6FE 
 286      F0594A6B 
 286      9169E92A 
 286      7B0FC6
 287 0991 43A6AB33 		.ascii	"C\246\2533\347?h'\336\337\257?x\230\345\207\257\330"
 287      E73F6827 
 287      DEDFAF3F 
 287      7898E587 
 287      AFD8
 288 09a3 117C7C3C 		.ascii	"\021||<L8\204\177\205\332l\313\352\337\033D_p\270\276"
 288      4C38847F 
 288      85DA6CCB 
 288      EADF1B44 
 288      5F70B8BE 
 289 09b7 6E437999 		.ascii	"nCy\231Yy%\262\317R\305\216\275#\260\253\017)i\355+"
 289      597925B2 
 289      CF52C58E 
 289      BD23B0AB 
 289      0F2969ED 
 290 09cc F9651206 		.ascii	"\371e\022\006\226N\311\304\303\220\311\276\222\012\205"
 290      964EC9C4 
 290      C390C9BE 
 290      920A85
 291 09db 8F90EA06 		.ascii	"\217\220\352\006\365\370Rlo\316\356@\372\001\347(\250"
 291      F5F8526C 
 291      6FCEEE40 
 291      FA01E728 
 291      A8
 292 09ec 38346812 		.ascii	"84h\022^\212\375\202\037\255?\301\034\243\312\0340\345"
 292      5E8AFD82 
 292      1FAD3FC1 
 292      1CA3CA1C 
 292      30E5
 293 09fe 94938C69 		.ascii	"\224\223\214iO\362\342F[N\000\035\307u\217\225\245\237"
ARM GAS  C:\Users\gjl\AppData\Local\Temp\ccedk5LJ.s 			page 23


 293      4FF2E246 
 293      5B4E001D 
 293      C7758F95 
 293      A59F
 294 0a10 31D0DC10 		.ascii	"1\320\334\020\214\227\372\241\0013\335\213\314\360\205"
 294      8C97FAA1 
 294      0133DD8B 
 294      CCF085
 295 0a1f 942A422B 		.ascii	"\224*B+\2219ya\350z\000\275\216\314\353\224\303{\011"
 295      91397961 
 295      E87A00BD 
 295      8ECCEB94 
 295      C37B09
 296 0a32 7D824CCB 		.ascii	"}\202L\313\246WP\031|Bft$/9\200\346\204\242\377w\364"
 296      A6575019 
 296      7C426674 
 296      242F3980 
 296      E684A2FF 
 297 0a48 1E31D33D 		.ascii	"\0361\323=\310\034\330\320w\321D\317r\346\263\344\232"
 297      C81CD8D0 
 297      77D144CF 
 297      72E6B3E4 
 297      9A
 298 0a59 C62B4144 		.ascii	"\306+AD\252e\324\347\\\276\327t\227\177\370\376\354"
 298      AA65D4E7 
 298      5CBED774 
 298      977FF8FE 
 298      EC
 299 0a6a C90EAF77 		.ascii	"\311\016\257w\265\205;\217\227R\222I\24782\302\326\224"
 299      B5853B8F 
 299      97529249 
 299      A73832C2 
 299      D694
 300 0a7c DD26D707 		.ascii	"\335&\327\007}z\025\264ub\001\324\241\234)R5F\025\317"
 300      7D7A15B4 
 300      756201D4 
 300      A19C2952 
 300      354615CF 
 301 0a90 145B94AA 		.ascii	"\024[\224\252c\\?\031:\305\341(Mc\324\357&\225'r9\236"
 301      635C3F19 
 301      3AC5E128 
 301      4D63D4EF 
 301      26952772 
 302 0aa6 2EC1D9F6 		.ascii	".\301\331\366VH#I6\235G6\000\255\003\312\001\312\005"
 302      56482349 
 302      369D4736 
 302      00AD03CA 
 302      01CA05
 303 0ab9 DA0AB416 		.ascii	"\332\012\264\026h=\320&\240-@\371@y@\005@\333\2002\200"
 303      683DD026 
 303      A02D40F9 
 303      40794005 
 303      40DB8032 
 304 0ace 36026501 		.ascii	"6\002e\001m\006*\242r\351\002\362\345+\012z\255\245"
 304      6D062AA2 
 304      72E902F2 
 304      E52B0A7A 
ARM GAS  C:\Users\gjl\AppData\Local\Temp\ccedk5LJ.s 			page 24


 304      ADA5
 305 0ae0 20B184B8 		.ascii	" \261\204\270\245\254e\265\306Z\204\362\241SA\256\322"
 305      A5AC65B5 
 305      C65A84F2 
 305      A15341AE 
 305      D2
 306 0af1 408A83F6 		.ascii	"@\212\203\366)\320\024\015\250Xg\014(j\177\247\226u"
 306      29D0140D 
 306      A858670C 
 306      286A7FA7 
 306      9675
 307 0b03 7261B851 		.ascii	"ra\270QY\327\033\255uM8\"bi\304\"\350\203\204\226ce"
 307      59D71BAD 
 307      754D3822 
 307      6269C422 
 307      E8838496 
 308 0b19 52DDD52E 		.ascii	"R\335\325.\226;\003Z\202\210\225re\256p\376|%\241\377"
 308      963B035A 
 308      82889572 
 308      65AE70FE 
 308      7C25A1FF 
 309 0b2d C4F9D327 		.ascii	"\304\371\323'\216\376^kt\021\375QQI\277\026\266S(<k"
 309      8EFE5E6B 
 309      7411FD51 
 309      5149BF16 
 309      B653283C 
 310 0b42 F0F00D98 		.ascii	"\360\360\015\230\311\207\357w\342\2517Y\303\016\342"
 310      C987EF77 
 310      E2A93759 
 310      C30EE2
 311 0b51 92AAC425 		.ascii	"\222\252\304%\255\241\232K\022m\241\252\017\337jYc\221"
 311      ADA19A4B 
 311      126DA1AA 
 311      0FDF6A59 
 311      6391
 312 0b63 541EB667 		.ascii	"T\036\266gm-\200:\202\347\002}\343\343\302\232P\325"
 312      6D2D803A 
 312      82E7027D 
 312      E3E3C29A 
 312      50D5
 313 0b75 69550C8F 		.ascii	"iU\014\217\235\020\022?ex\240\316\356_\3739\323\331"
 313      9D10123F 
 313      6578A0CE 
 313      EE5FFB39 
 313      D3D9
 314 0b87 0E98683B 		.ascii	"\016\230h;\225S+S!\227w\327\201\375\033\310\014I\300"
 314      95532B53 
 314      219777D7 
 314      81FD1BC8 
 314      0C49C0
 315 0b9a DA2905D4 		.ascii	"\332)\005\324\375\257K\007s\257\316x\227LT\325\331."
 315      FDAF4B07 
 315      73AFCE78 
 315      974C54D5 
 315      D92E
 316 0bac C16D7564 		.ascii	"\301mud7\365Wg\203G\237v\004\320~L\267\275O\266\326"
 316      37F55767 
ARM GAS  C:\Users\gjl\AppData\Local\Temp\ccedk5LJ.s 			page 25


 316      83479F76 
 316      04D07E4C 
 316      B7BD4FB6 
 317 0bc1 99E82729 		.ascii	"\231\350')\021\373\216_\017\243\271a\214\371\262\343"
 317      11FB8E5F 
 317      0FA3B961 
 317      8CF9B2E3 
 318 0bd1 65595508 		.ascii	"eYU\010Q\345\335y\363,\2269\006\313\014\377]\344\274"
 318      51E5DD79 
 318      F32C9639 
 318      06CB0CFF 
 318      5DE4BC
 319 0be4 C8C84834 		.ascii	"\310\310H4\352\346[\202Q\273\300\250\373\025\2436\012"
 319      EAE65B82 
 319      51BBC0A8 
 319      FB15A336 
 319      0A
 320 0bf5 BEA7B2DE 		.ascii	"\276\247\262\336\015\330k|\260\327\220=\024\037`\326"
 320      0DD86B7C 
 320      B0D7903D 
 320      141F60D6 
 321 0c05 BB0C8ABA 		.ascii	"\273\014\212\272\004k;\007T\015t\026\350\014P\005P9"
 321      046B3B07 
 321      540D7416 
 321      E80C5005 
 321      5039
 322 0c17 50195029 		.ascii	"P\031P)P1P\011\320q\240c@G\201\216\000\035\006:\004"
 322      50315009 
 322      D071A063 
 322      4047818E 
 322      001D063A 
 323 0c2c 7410E880 		.ascii	"t\020\350\200*\271\235\275%G\307^\252\222\260E?!\250"
 323      2AB99DBD 
 323      2547C75E 
 323      AA92B045 
 323      3F21A8
 324 0c3f 4F2BD0DB 		.ascii	"O+\320\333\352\305\334\322O\314\351\247\024\354\035"
 324      EAC5DCD2 
 324      4FCCE9A7 
 324      14EC1D
 325 0c4e 2DACE8FB 		.ascii	"-\254\350\373'\025l\273\026V\214\253\012\005{W\013+"
 325      27156CBB 
 325      16568CAB 
 325      0A057B57 
 325      0B2B
 326 0c60 067E9982 		.ascii	"\006~\231\202\275\247\205\025Sl\211\202\355\320\302"
 326      BDA78515 
 326      536C8982 
 326      EDD0C2
 327 0c6f 8AB970BB 		.ascii	"\212\271p\273\202\275\257\205\0256\314-\012\264S\013"
 327      82BDAF85 
 327      1536CC2D 
 327      0AB4530B 
 328 0c7f 2A6877A3 		.ascii	"*hw\243\002e/A'\271\212\250\261\274|!\273tK\003\313"
 328      02652F41 
 328      27B98AA8 
 328      B1BC7C21 
ARM GAS  C:\Users\gjl\AppData\Local\Temp\ccedk5LJ.s 			page 26


 328      BB744B03 
 329 0c94 D9A57152 		.ascii	"\331\245qR\012\314\311\027\016\266\245\022^\316\336"
 329      0ACCC917 
 329      0EB6A512 
 329      5ECEDE
 330 0ca3 8D13B3F7 		.ascii	"\215\023\263\367\270/\014\341'\250\205<\230\010\027"
 330      B82F0CE1 
 330      27A8853C 
 330      980817
 331 0cb2 F3B1185A 		.ascii	"\363\261\030Z\225t\216\002\272\002\016{\022\236\306"
 331      95748E02 
 331      BA020E7B 
 331      129EC6
 332 0cc1 6C30154C 		.ascii	"l0\025L'`\362Y\020xWy\347\352\271\016\374\253\321\261"
 332      2760F259 
 332      10785779 
 332      E7EAB90E 
 332      FCABD1B1 
 333 0cd5 07E0FB14 		.ascii	"\007\340\373\0245\350\370\377\253I\025<\362\030\312"
 333      35E8F8FF 
 333      AB49153C 
 333      F218CA
 334 0ce4 6C71D0D3 		.ascii	"lq\320\323\252\260\256\302\260\326\016\253:\220\354"
 334      AAB0AEC2 
 334      B0D60EAB 
 334      3A90EC
 335 0cf3 A70FAB51 		.ascii	"\247\017\253Q\237\305\233m\343\012\354\321V\240\240"
 335      9FC59B6D 
 335      E30AECD1 
 335      56A0A0
 336 0d02 EF6105FC 		.ascii	"\357a\005\374t\"Xc?S\320\275\332ha\350\301\274\231h"
 336      74225863 
 336      3F53D0BD 
 336      DA6861E8 
 336      C1BC9968 
 337 0d16 CA1A803F 		.ascii	"\312\032\200?\233\010\377F\333\222\347EK^\004\035\325"
 337      9B08FF46 
 337      DB92E745 
 337      4B5E041D 
 337      D5
 338 0d27 6A5AF2BC 		.ascii	"jZ\362\274\312\222\265Z\226\274\253\262\344yn\311\013"
 338      CA92B55A 
 338      96BCABB2 
 338      E4796EC9 
 338      0B
 339 0d38 2A4B3E07 		.ascii	"*K>\007K\342>\362~\335,\266\2170A_(%z-\267%.\346}\336"
 339      4BE23EF2 
 339      7EDD2CB6 
 339      8F30415F 
 339      28257A2D 
 340 0d52 17B818C8 		.ascii	"\027\270\030\310\333\344\245\346b\026){\371\333<\276"
 340      DBE4A5E6 
 340      6216297B 
 340      F9DB3CBE 
 341 0d62 97EF57EF 		.ascii	"\227\357W\357\345\330wo\335\317X\037s\233}\312\236\265"
 341      E5D8776F 
 341      DDCF581F 
ARM GAS  C:\Users\gjl\AppData\Local\Temp\ccedk5LJ.s 			page 27


 341      739B7DCA 
 341      9EB5
 342 0d74 9FEF5988 		.ascii	"\237\357Y\210xw\3553\206`Z~\242Hs\222K\003\273BI\313"
 342      7877ED33 
 342      86605A7E 
 342      A2487392 
 342      4B03BB42 
 343 0d8a 8994105A 		.ascii	"\211\224\020Z\020F\304\227\257\341\322\313\327\261["
 343      1046C497 
 343      AFE1D2CB 
 343      D7B15B
 344 0d99 2F2E11E9 		.ascii	"/.\021\351e,\373\007\\\347\315\355=\241t\037\202[?\366"
 344      652CFB07 
 344      5CE7CDED 
 344      3DA1741F 
 344      825B3FF6 
 345 0dad AE26F414 		.ascii	"\256&\364\024g~Ur\244\354\272I\334O\224\275D\334`f\000"
 345      677E5572 
 345      A4ECBA49 
 345      DC4F94BD 
 345      44DC6066 
 346 0dc2 82EF2D91 		.ascii	"\202\357-\221\370\015\234\262\315t\373\362\226\017\340"
 346      F80D9CB2 
 346      CD74FBF2 
 346      960FE0
 347 0dd1 3FB5D851 		.ascii	"?\265\330Q\376,H\333\244$\217SBZT\005\304U\032A\032"
 347      FE2C48DB 
 347      A4248F53 
 347      425A5405 
 347      C4551A41 
 348 0de6 2820EA29 		.ascii	"( \352)>\300\002b\225!\222\244\030\346\221qp\350\227"
 348      3EC00262 
 348      952192A4 
 348      18E69171 
 348      70E897
 349 0df9 402F809E 		.ascii	"@/\200\236\003=\003\352\005z\012\324\010\324\003\364"
 349      033D03EA 
 349      057A0AD4 
 349      08D403F4 
 350 0e09 04E831D0 		.ascii	"\004\3501\320#\240\207@\017\200\272\201\272\200:\201"
 350      23A08740 
 350      0F80BA81 
 350      BA803A81 
 351 0e19 6E03DD02 		.ascii	"n\003\335\002\272\011t\003\310\007\324\006\324\012\324"
 351      BA097403 
 351      C807D406 
 351      D40AD4
 352 0e28 02D4AC0A 		.ascii	"\002\324\254\012\230\233\342^y\215\252\326pvR\305xN"
 352      989BE25E 
 352      798DAAD6 
 352      707652C5 
 352      784E
 353 0e3a 4996D544 		.ascii	"I\226\325D\003+\307\013X\262*_xaX\243\205\026\377\033"
 353      032BC70B 
 353      58B22A5F 
 353      786158A3 
 353      8516FF1B 
ARM GAS  C:\Users\gjl\AppData\Local\Temp\ccedk5LJ.s 			page 28


 354 0e4e 256D300C 		.ascii	"%m0\014\333\240\205\255\027\260e\012\366\252\026V\330"
 354      DBA085AD 
 354      17B0650A 
 354      F6AA1656 
 354      D8
 355 0e5f 084A55CB 		.ascii	"\010JU\313\323\002\013\377J\334\226?+\231\247w\366\366"
 355      D3020BFF 
 355      4ADC963F 
 355      2B99A777 
 355      F6F6
 356 0e71 BF5902CB 		.ascii	"\277Y\002\313E\323\365\211\360\255\371\263\223yX\260"
 356      45D3F589 
 356      F0ADF9B3 
 356      937958B0 
 357 0e81 17831B24 		.ascii	"\027\203\033$\363\313\257\000\327M\334h\012n\375\014"
 357      F3CBAF00 
 357      D74DDC68 
 357      0A6EFD0C 
 358 0e91 A3E80EF8 		.ascii	"\243\350\016\370\366q\011.G\3211\275vN\270+\346\204"
 358      F671092E 
 358      47D131BD 
 358      764EB82B 
 358      E684
 359 0ea3 34709376 		.ascii	"4p\223v\315\234pW\225\023\332\265rB\205*'\334\3459\341"
 359      CD9C7057 
 359      9513DAB5 
 359      7242852A 
 359      27DCE539 
 360 0eb8 9E9C133A 		.ascii	"\236\234\023:(\177\333\"\216y_\225\334;4\222\273\354"
 360      287FDB22 
 360      8E795F95 
 360      DC3B3492 
 360      BBEC
 361 0eca CBA920D8 		.ascii	"\313\251 \330\377\277/O\332n54,\030d\304'\274H.W\207"
 361      FFBF2F4F 
 361      DA6E3534 
 361      2C1864C4 
 361      27BC482E 
 362 0ee0 6FD9A4AA 		.ascii	"o\331\244\252\346\243\317\354\017\365\012-\254X\325"
 362      E6A3CFEC 
 362      0FF50A2D 
 362      AC58D5
 363 0eef 7C50B027 		.ascii	"|P\260'\264\260bU3\240`Oja\005g\276\253@+\265\240\302"
 363      B4B06255 
 363      33A0604F 
 363      6A610567 
 363      BEAB402B 
 364 0f06 DAEE28D0 		.ascii	"\332\356(\320*\255\304$\326\214m\012\366\264\026V\254"
 364      2AADC424 
 364      D68C6D0A 
 364      F6B41656 
 364      AC
 365 0f17 805A14EC 		.ascii	"\200Z\024\354\031-\254\230,\312\024l\265\026VU\007*"
 365      192DAC98 
 365      2CCA146C 
 365      B5165655 
 365      072A
ARM GAS  C:\Users\gjl\AppData\Local\Temp\ccedk5LJ.s 			page 29


 366 0f29 D8735A58 		.ascii	"\330sZXQc[}BL\327h\241\305J\320'g\254Z-\250\240\263"
 366      51635B7D 
 366      424CD768 
 366      A1C54AD0 
 366      2767AC5A 
 367 0f41 CD79D259 		.ascii	"\315y\322Y\373\"\270\317\205\211\356s~\222G\344\344"
 367      FB22B8CF 
 367      8589EE73 
 367      7E9247E4 
 367      E4
 368 0f52 CD42FC2B 		.ascii	"\315B\374+\210\235K\332\370E\023\343\371\265*\250^\251"
 368      889D4BDA 
 368      F84513E3 
 368      F9B52AA8 
 368      5EA9
 369 0f64 820A4F69 		.ascii	"\202\012Oi\365\220A\272\370\2330\250\000\372\374\247"
 369      F59041BA 
 369      F89B30A8 
 369      00FAFCA7 
 370 0f74 B4B7E0ED 		.ascii	"\264\267\340\355oT\336\336\321\306\353\221\2170y\003"
 370      6F54DEDE 
 370      D1C6EB91 
 370      8F307903 
 371 0f84 4CDE3745 		.ascii	"L\3367E\201\201c\327z\325c_\221\236`\001;\010\363L\036"
 371      818163D7 
 371      7AD5635F 
 371      919E6001 
 371      3B08F34C 
 372 0f99 FE5EAE94 		.ascii	"\376^\256\224\256\372a"
 372      AEFA61
 373 0fa0 82CB9A13 		.ascii	"\202\313\232\023LZ\334\200\230\254>\300\260\3574\223"
 373      4C5ADC80 
 373      98AC3EC0 
 373      B0EF3493 
 374 0fb0 D5802A59 		.ascii	"\325\200*Y\275\323JV\277\235%\344\252\001\236\253\336"
 374      BDD34A56 
 374      BF9D25E4 
 374      AA019EAB 
 374      DE
 375 0fc1 4FCC5558 		.ascii	"O\314UX0l\312\234\311\012\006&e\235R0\274\343\212E\304"
 375      306CCA9C 
 375      C90A0626 
 375      659D5230 
 375      BCE38A45 
 376 0fd6 ED5C5E90 		.ascii	"\355\\^\220\364\251\013\022Q\240aQ\356Q\220{HS\356a"
 376      F4A90B12 
 376      51A06151 
 376      EE51907B 
 376      4853EE61 
 377 0fea 95DC433F 		.ascii	"\225\334C?*\3670\227{D%w\243\\wmF\301\231\375\232\024"
 377      2AF73097 
 377      7B442577 
 377      A35C776D 
 377      46C199FD 
 378 1000 C18704C1 		.ascii	"\301\207\004\301s\232\276`\210O\240\370f\005\321G'\375"
 378      739ABE60 
 378      884FA0F8 
ARM GAS  C:\Users\gjl\AppData\Local\Temp\ccedk5LJ.s 			page 30


 378      6605D147 
 378      27FD
 379 1012 DF49CB65 		.ascii	"\337I\313e\2460\353x\356\237\243Y\275\006\013i\235\350"
 379      A630EB78 
 379      EE9FA359 
 379      BD060B69 
 379      9DE8
 380 1024 B42D53EC 		.ascii	"\264-S\354B*\005%\033D\005\241\250\005\270\0306h\333"
 380      422A0525 
 380      1B4405A1 
 380      A805B818 
 380      3668DB
 381 1037 C4C5E06E 		.ascii	"\304\305\340n9\226\033\202\273%+\376nJ\023\313\247\203"
 381      39961B82 
 381      BB252BFE 
 381      6E4A13CB 
 381      A783
 382 1049 8945E410 		.ascii	"\211E\344\020\332\254I\253\210\034\307\"\222mO\327\225"
 382      DAAC49AB 
 382      881CC722 
 382      926D4FD7 
 382      95
 383 105a 22B2492C 		.ascii	"\"\262I,\"\333f3\004\333hK\024i\332\375EdY\327\313~"
 383      22DB6633 
 383      04DB684B 
 383      1469DAFD 
 383      456459D7 
 384 1070 BDC16F91 		.ascii	"\275\301o\221S\370\023\306}C9\351as\2462e\272\201\231"
 384      53F813C6 
 384      7D4339E9 
 384      6173A632 
 384      65BA8199 
 385 1084 72B5C180 		.ascii	"r\265\301\200#\214<+\334\022\370\345N\357\316\022o\367"
 385      238C3C2B 
 385      DC12F8E5 
 385      4EEFCE12 
 385      6FF7
 386 1096 F8C8F78F 		.ascii	"\370\310\367\217\313\274\3364x\316\300p\344\200\362"
 386      CBBCDE34 
 386      78CEC070 
 386      E480F2
 387 10a5 1B32B8E5 		.ascii	"\0332\270\345\005.\271Gtd\215\341K\366\313\251u\315"
 387      052EB947 
 387      74648DE1 
 387      4BF6CBA9 
 387      75CD
 388 10b7 A742683B 		.ascii	"\247Bh;\026\245?\376S\314\014\003o\034\255\317\336\244"
 388      16A53FFE 
 388      53CC0C03 
 388      6F1CADCF 
 388      DEA4
 389 10c9 88BC0E1B 		.ascii	"\210\274\016\033\267\0276\\5N)\362\006.\362z\277\310"
 389      B717365C 
 389      354E29F2 
 389      062EF27A 
 389      BFC8
 390 10db A529EF0F 		.ascii	"\245)\357\0171\221\273\275\336\3566\337\277\025\225"
ARM GAS  C:\Users\gjl\AppData\Local\Temp\ccedk5LJ.s 			page 31


 390      3191BBBD 
 390      DEEE36DF 
 390      BF1595
 391 10ea 79530318 		.ascii	"yS\003\030\206\2545\310\342\302-\3273\311\344\242\276"
 391      86AC35C8 
 391      E2C22DD7 
 391      33C9E4A2 
 391      BE
 392 10fb EBEF2F21 		.ascii	"\353\357/!\264\227\213\252\277?\226V\032\242\375s\307"
 392      B4978BAA 
 392      BF3F9656 
 392      1AA2FD73 
 392      C7
 393 110c 1CC3143F 		.ascii	"\034\303\024?w\204\263\005w\213l\203\211d)\323\324\361"
 393      7784B305 
 393      778B6C83 
 393      896429D3 
 393      D4F1
 394 111e 5FD6B1D6 		.ascii	"_\326\261\3261=\335\231~\353Q(1E\020x\220\340\257\023"
 394      313DDD99 
 394      7EEB5128 
 394      31451078 
 394      90E0AF13 
 395 1132 5284C175 		.ascii	"R\204\301u$\327\000h\262\321\020A\362\014\021\272B/"
 395      24D70068 
 395      B2D11041 
 395      F20C11BA 
 395      422F
 396 1144 60FAFEC8 		.ascii	"`\372\376\310[\013ahve_ n\366\335\3142\223\352\255\023"
 396      5B0B6168 
 396      76655F20 
 396      6EF6DDCC 
 396      3293EAAD 
 397 1159 5B9E12B0 		.ascii	"[\236\022\260\233\014<\331\362kH\342\342\245\337Z\377"
 397      9B0C3CD9 
 397      F26B48E2 
 397      E2A5DF5A 
 397      FF
 398 116a CE65FBE1 		.ascii	"\316e\373\341\237\235q\016\343?\374\313o\346\376\355"
 398      9F9D710E 
 398      E33FFCCB 
 398      6FE6FEED 
 399 117a A245BA60 		.ascii	"\242E\272`\2535\321\031\347Yl\365$\023\373\337D%\270"
 399      AB35D119 
 399      E7596CF5 
 399      2413FBDF 
 399      4425B8
 400 118d E297BA6C 		.ascii	"\342\227\272l\313\347.q\306:\334s#\223\026\377\362/"
 400      CBE72E71 
 400      C63ADC73 
 400      239316FF 
 400      F22F
 401 119f A3EC2B13 		.ascii	"\243\354+\023\\\016\267;*\301\035o\237kw9l\236xW\324"
 401      5C0EB73B 
 401      2AC11D6F 
 401      9F6B7739 
 401      6C9E7857 
ARM GAS  C:\Users\gjl\AppData\Local\Temp\ccedk5LJ.s 			page 32


 402 11b4 2F162C52 		.ascii	"/\026,R78\227'\304\273<QK\343\022\243l\256\345Q\177"
 402      37389727 
 402      C4BB3C51 
 402      4BE312A3 
 402      6CAEE551 
 403 11c9 B58021E0 		.ascii	"\265\200!\340\356\353\270\3708\307\327\016[\2643\312"
 403      EEEBB8F8 
 403      38C7D70E 
 403      5BB433CA 
 404 11d9 19678F4D 		.ascii	"\031g\217M\214qD-\267\331\227\201\014Q\326\030\307\022"
 404      8C71442D 
 404      B7D99781 
 404      0C51D618 
 404      C712
 405 11eb 5B62ACC7 		.ascii	"[b\254\307\352Y\231\340p/X\246\013\222DY\361\177%\211"
 405      EA5999E0 
 405      702F58A6 
 405      0B924459 
 405      F17F2589 
 406 11ff 7BA53BCA 		.ascii	"{\245;\312\352\366\304\300\2640\275\231\253\210\311"
 406      EAF6C4C0 
 406      B430BD99 
 406      AB88C9
 407 120e 60F5CC5C 		.ascii	"`\365\314\\\260 \212\261Qv\267\313\316\357\000`\212"
 407      B0208AB1 
 407      5176B7CB 
 407      CEEF0060 
 407      8A
 408 121f 01F559ED 		.ascii	"\001\365Y\355\361\261\361\256\320\245\261+\023\226Y"
 408      F1B1F1AE 
 408      D0A5B12B 
 408      139659
 409 122e 93ACF14B 		.ascii	"\223\254\361K\226\270\035\036\243\325\212\242\007\342"
 409      96B81D1E 
 409      A3D58AA2 
 409      07E2
 410 123c 65DA9278 		.ascii	"e\332\222x\030\305\345X\002kt\333\035q\2360\271\301"
 410      18C5E558 
 410      026B74DB 
 410      1D719E30 
 410      B9C1
 411 124e C679042C 		.ascii	"\306y\004,s8\227.\363X\227\307\3078\202y\2033nI\374"
 411      7338972E 
 411      F35897C7 
 411      C7388279 
 411      83336E49 
 412 1263 74B7C7E6 		.ascii	"t\267\307\346\362X\023\342\335\326\330\370\037\034."
 412      F25813E2 
 412      DDD6D8F8 
 412      1F1C2E
 413 1272 ABCD8446 		.ascii	"\253\315\204FZ\364K\253\307\350\277\021P\211\011\011"
 413      5AF44BAB 
 413      C7E8BF11 
 413      50890909 
 414 1282 80FADE22 		.ascii	"\200\372\336\"MeM\260\271lf\233r\037\354\357Xj\224Z"
 414      4D654DB0 
 414      B96C669B 
ARM GAS  C:\Users\gjl\AppData\Local\Temp\ccedk5LJ.s 			page 33


 414      721FECEF 
 414      586A945A 
 415 1296 BF37AEF4 		.ascii	"\2777\256\364\013\356_A\330r[\222\325\276\314\346\222"
 415      0BEE5F41 
 415      D8725B92 
 415      D5BECCE6 
 415      92
 416 12a7 840A95F9 		.ascii	"\204\012\225\371\037\2341\236e\323\242\235\036\267\225"
 416      1F9C319E 
 416      65D3A29D 
 416      1EB795
 417 12b6 CD13E388 		.ascii	"\315\023\343\210\365\330\254Iar\003\007\255\234\300"
 417      F5D8AC49 
 417      61720307 
 417      AD9CC0
 418 12c5 27CD54F3 		.ascii	"'\315T\3638\350\014u#\037\331$\267-Rn\027\032\243\243"
 418      38E80C75 
 418      231FD924 
 418      B72D526E 
 418      171AA3A3 
 419 12d9 93502FA8 		.ascii	"\223P/\250h{\234g\272\225\333G\326\223Z\007qN;\240\247"
 419      687B9C67 
 419      BA95DB47 
 419      D6935A07 
 419      714E3BA0 
 420 12ee 4D8498F9 		.ascii	"M\204\230\371}\214\203u\032\243\227\242\361\214K\244"
 420      7D8C8375 
 420      1AA397A2 
 420      F18C4BA4 
 421 12fe 9B50A7DB 		.ascii	"\233P\247\333\352q\331\342\334\240&\320K(\342\254 \006"
 421      EA71D9E2 
 421      DCA026D0 
 421      4B28E2AC 
 421      2006
 422 1310 1BD48253 		.ascii	"\033\324\202S\243\350fd\270\310d%I2\302\324K\035\036"
 422      A3E86664 
 422      B8C86425 
 422      4932C2D4 
 422      4B1D1E
 423 1323 EB4AFF4D 		.ascii	"\353J\377M\222Iz:\301\343\232!\210*\265zh\214\323\025"
 423      92497A3A 
 423      C1E39A21 
 423      882AB57A 
 423      688CD315 
 424 1337 3EB93994 		.ascii	">\2719\224sv[\254\335\272\002\334\343s\005!\267Y\227"
 424      73765BAC 
 424      DDBA02DC 
 424      E3730521 
 424      B75997
 425 134a C4C19806 		.ascii	"\304\301\230\006\326\030\224\350\006\355\254\\$]\027"
 425      D61894E8 
 425      06EDAC5C 
 425      245D17
 426 1359 E23549E2 		.ascii	"\3425I\342\223\026\006\242\260\001\\\314\300\350\304"
 426      931606A2 
 426      B0015CCC 
 426      C0E8C4
ARM GAS  C:\Users\gjl\AppData\Local\Temp\ccedk5LJ.s 			page 34


 427 1368 2580C5CB 		.ascii	"%\200\305\313\302\320\004g\222#\326jOt\271\254\256\370"
 427      C2D00467 
 427      9223D66A 
 427      4F74B9AC 
 427      AEF8
 428 137a 1FA621CB 		.ascii	"\037\246!\313\372\360\2310\245\201?\035\342\201\310"
 428      FAF09930 
 428      A5813F1D 
 428      E281C8
 429 1389 93E1619C 		.ascii	"\223\341a\234S\320\026\231\007\321\364\366\350\300\304"
 429      53D01699 
 429      07D1F4F6 
 429      E8C0C4
 430 1398 84189BC7 		.ascii	"\204\030\233\3071\007C\210\337[c\234\313\035qng|\234"
 430      31074388 
 430      DF5B639C 
 430      CB1D716E 
 430      677C9C
 431 13ab D51E1DCA 		.ascii	"\325\036\035\312;\354\321\020m\256D\273\307\310#)\366"
 431      3BECD110 
 431      6DAE44BB 
 431      C7C82329 
 431      F6
 432 13bc 570BD160 		.ascii	"W\013\321`~\016\000\301~\240'86\326\272lE,d\212Y\002"
 432      7E0E00C1 
 432      7EA02738 
 432      36D6BA6C 
 432      452C648A 
 433 13d2 C8DF0610 		.ascii	"\310\337\006\020C\342\342\244\305`\263\350\370\3048"
 433      43E2E2A4 
 433      C560B3E8 
 433      F8C438
 434 13e1 BB034686 		.ascii	"\273\003F\206Ig\313l\254\315\015Vt\306a\373\237\311"
 434      4967CB6C 
 434      ACCD0D56 
 434      74C661FB 
 434      9FC9
 435 13f3 EDFEA423 		.ascii	"\355\376\244#w\231\227&8\343!4\335\320jJ\364,Y\214\315"
 435      77999726 
 435      38E32134 
 435      DDD06A4A 
 435      F42C598C 
 436 1408 30F00A27 		.ascii	"0\360\012'\340m11,\351\230\235\337\332\255\334\337\034"
 436      E06D3131 
 436      2CE9989D 
 436      DFDAADDC 
 436      DF1C
 437 141a 31FC5E6A 		.ascii	"1\374^j\237\011.$\371\333\012\207\313\355\340Nkt\304"
 437      9F092E24 
 437      F9DB0A87 
 437      CBEDE04E 
 437      6B74C4
 438 142d 81759D71 		.ascii	"\201u\235qK\247\363\261mq1,ll+Ah3\023\332\272\334\015"
 438      4BA7F3B1 
 438      6D71312C 
 438      6C6C2B41 
 438      683313DA 
ARM GAS  C:\Users\gjl\AppData\Local\Temp\ccedk5LJ.s 			page 35


 439 1444 1E181D14 		.ascii	"\036\030\035\024\275\322\303\026\022h\267\305\300\305"
 439      BDD2C316 
 439      1268B7C5 
 439      C0C5
 440 1452 14E37427 		.ascii	"\024\343t' *(\316\221\004\036\020m\341h\036,\300\370"
 440      202A28CE 
 440      91041E10 
 440      6DE1681E 
 440      2CC0F8
 441 1465 FB996B9B 		.ascii	"\373\231k\233\321\\\334T\323\227\304:\023\330\274r>"
 441      D15CDC54 
 441      D397C43A 
 441      13D8BC72 
 441      3E
 442 1476 9AE65FA5 		.ascii	"\232\346_\245\277\301\314\355\205\2663\361{\376\344"
 442      BFC1CCED 
 442      85B633F1 
 442      7BFEE4
 443 1485 CC1F5C4E 		.ascii	"\314\037\\N\020!!1\326-\265X\343\334\341`=\233\025\036"
 443      10212131 
 443      D62DB558 
 443      E3DCE160 
 443      3D9B151E 
 444 1499 4A4CB07A 		.ascii	"JL\260z\300\206\3204\223\2558:\321m\265\307\306\333"
 444      C086D034 
 444      93AD383A 
 444      D16DB5C7 
 444      C6DB
 445 14ab 7F6F5DB4 		.ascii	"\177o]\264p\341\357\377\361\017Fw\202\223/\327\342\206"
 445      70E1EFFF 
 445      F10F4677 
 445      82932FD7 
 445      E286
 446 14bd 36EC59F6 		.ascii	"6\354Y\366\007)Y}\367\255\224\254\330M8\003\250'\231"
 446      0729597D 
 446      F7AD94AC 
 446      D84D3803 
 446      A82799
 447 14d0 EE8E9930 		.ascii	"\356\216\2310G8\204\034K\221\320h\375\301\006!\270\334"
 447      4738841C 
 447      4B91D068 
 447      FDC10621 
 447      B8DC
 448 14e2 3D1339F1 		.ascii	"=\0239\361\311\345\3569\260\011\200J\234\011\340`n["
 448      C9E5EE39 
 448      B009804A 
 448      9C09E060 
 448      6E5B
 449 14f4 345B0A43 		.ascii	"4[\012C\307A\007\033\200\3678\342\304\216p\025:\326"
 449      C741071B 
 449      80F738E2 
 449      C48E7015 
 449      3AD6
 450 1506 B1C2113B 		.ascii	"\261\302\021;]\204\361\2269\\\325\242\212%_\265\240"
 450      5D84F196 
 450      395CD5A2 
 450      8A255FB5 
ARM GAS  C:\Users\gjl\AppData\Local\Temp\ccedk5LJ.s 			page 36


 450      A0
 451 1517 A6517713 		.ascii	"\246Qw\023\367\205\244\305\260/\314\230\374\250\007"
 451      F785A4C5 
 451      B02FCC98 
 451      FCA807
 452 1526 ED8C23CC 		.ascii	"\355\214#\314\220\235\017\275\214\231?\220\367{p\317"
 452      909D0FBD 
 452      8C993F90 
 452      F77B70CF 
 453 1536 415838B8 		.ascii	"AX8\270\222-\321\023\017I{)\2540\326as\005\362n\317"
 453      922DD113 
 453      0F497B29 
 453      AC30D661 
 453      7305F26E 
 454 154b E7937623 		.ascii	"\347\223v#+\213\201\005v]\250\274\255\377\232Ii\342"
 454      2B8B8105 
 454      765DA8BC 
 454      ADFF9A49 
 454      69E2
 455 155d 2CDFC1FE 		.ascii	",\337\301\376\013\261?{("
 455      0BB13F7B 
 455      28
 456              		.text
 457              		.section	.gnu.lto_.symtab.50a26907,"",%progbits
 458 0000 75386732 		.ascii	"u8g2_DrawLine\000"
 458      5F447261 
 458      774C696E 
 458      6500
 459 000e 00       		.ascii	"\000"
 460 000f 00       		.ascii	"\000"
 461 0010 00       		.ascii	"\000"
 462 0011 00000000 		.ascii	"\000\000\000\000\000\000\000\000"
 462      00000000 
 463 0019 08020000 		.ascii	"\010\002\000\000"
 464 001d 75386732 		.ascii	"u8g2_DrawPixel\000"
 464      5F447261 
 464      77506978 
 464      656C00
 465 002c 00       		.ascii	"\000"
 466 002d 02       		.ascii	"\002"
 467 002e 00       		.ascii	"\000"
 468 002f 00000000 		.ascii	"\000\000\000\000\000\000\000\000"
 468      00000000 
 469 0037 0E020000 		.ascii	"\016\002\000\000"
 470              		.text
 471              		.section	.gnu.lto_.opts,"",%progbits
 472 0000 272D666D 		.ascii	"'-fmath-errno' '-fsigned-zeros' '-ftrapping-math' '"
 472      6174682D 
 472      6572726E 
 472      6F272027 
 472      2D667369 
 473 0033 2D666E6F 		.ascii	"-fno-trapv' '-fno-openmp' '-fno-openacc' '-mcpu=cor"
 473      2D747261 
 473      70762720 
 473      272D666E 
 473      6F2D6F70 
 474 0066 7465782D 		.ascii	"tex-m0' '-mthumb' '-g' '-Os' '-ffunction-sections' "
ARM GAS  C:\Users\gjl\AppData\Local\Temp\ccedk5LJ.s 			page 37


 474      6D302720 
 474      272D6D74 
 474      68756D62 
 474      2720272D 
 475 0099 272D6666 		.ascii	"'-ffat-lto-objects' '-flto'\000"
 475      61742D6C 
 475      746F2D6F 
 475      626A6563 
 475      74732720 
 476              		.text
 477              		.cfi_sections	.debug_frame
 478              		.section	.text.u8g2_DrawLine,"ax",%progbits
 479              		.align	1
 480              		.global	u8g2_DrawLine
 481              		.code	16
 482              		.thumb_func
 483              		.type	u8g2_DrawLine, %function
 484              	u8g2_DrawLine:
 485              	.LFB0:
 486              		.file 1 "..\\u8g2\\csrc\\u8g2_line.c"
   1:..\u8g2\csrc/u8g2_line.c **** /*
   2:..\u8g2\csrc/u8g2_line.c ****   u8g2_box.c
   3:..\u8g2\csrc/u8g2_line.c ****   Universal 8bit Graphics Library (https://github.com/olikraus/u8g2/)
   4:..\u8g2\csrc/u8g2_line.c ****   Copyright (c) 2016, olikraus@gmail.com
   5:..\u8g2\csrc/u8g2_line.c ****   All rights reserved.
   6:..\u8g2\csrc/u8g2_line.c ****   Redistribution and use in source and binary forms, with or without modification, 
   7:..\u8g2\csrc/u8g2_line.c ****   are permitted provided that the following conditions are met:
   8:..\u8g2\csrc/u8g2_line.c ****   * Redistributions of source code must retain the above copyright notice, this list 
   9:..\u8g2\csrc/u8g2_line.c ****     of conditions and the following disclaimer.
  10:..\u8g2\csrc/u8g2_line.c ****     
  11:..\u8g2\csrc/u8g2_line.c ****   * Redistributions in binary form must reproduce the above copyright notice, this 
  12:..\u8g2\csrc/u8g2_line.c ****     list of conditions and the following disclaimer in the documentation and/or other 
  13:..\u8g2\csrc/u8g2_line.c ****     materials provided with the distribution.
  14:..\u8g2\csrc/u8g2_line.c ****   THIS SOFTWARE IS PROVIDED BY THE COPYRIGHT HOLDERS AND 
  15:..\u8g2\csrc/u8g2_line.c ****   CONTRIBUTORS "AS IS" AND ANY EXPRESS OR IMPLIED WARRANTIES, 
  16:..\u8g2\csrc/u8g2_line.c ****   INCLUDING, BUT NOT LIMITED TO, THE IMPLIED WARRANTIES OF 
  17:..\u8g2\csrc/u8g2_line.c ****   MERCHANTABILITY AND FITNESS FOR A PARTICULAR PURPOSE ARE 
  18:..\u8g2\csrc/u8g2_line.c ****   DISCLAIMED. IN NO EVENT SHALL THE COPYRIGHT HOLDER OR 
  19:..\u8g2\csrc/u8g2_line.c ****   CONTRIBUTORS BE LIABLE FOR ANY DIRECT, INDIRECT, INCIDENTAL, 
  20:..\u8g2\csrc/u8g2_line.c ****   SPECIAL, EXEMPLARY, OR CONSEQUENTIAL DAMAGES (INCLUDING, BUT 
  21:..\u8g2\csrc/u8g2_line.c ****   NOT LIMITED TO, PROCUREMENT OF SUBSTITUTE GOODS OR SERVICES; 
  22:..\u8g2\csrc/u8g2_line.c ****   LOSS OF USE, DATA, OR PROFITS; OR BUSINESS INTERRUPTION) HOWEVER 
  23:..\u8g2\csrc/u8g2_line.c ****   CAUSED AND ON ANY THEORY OF LIABILITY, WHETHER IN CONTRACT, 
  24:..\u8g2\csrc/u8g2_line.c ****   STRICT LIABILITY, OR TORT (INCLUDING NEGLIGENCE OR OTHERWISE) 
  25:..\u8g2\csrc/u8g2_line.c ****   ARISING IN ANY WAY OUT OF THE USE OF THIS SOFTWARE, EVEN IF 
  26:..\u8g2\csrc/u8g2_line.c ****   ADVISED OF THE POSSIBILITY OF SUCH DAMAGE.  
  27:..\u8g2\csrc/u8g2_line.c **** */
  28:..\u8g2\csrc/u8g2_line.c **** 
  29:..\u8g2\csrc/u8g2_line.c **** #include "u8g2.h"
  30:..\u8g2\csrc/u8g2_line.c **** 
  31:..\u8g2\csrc/u8g2_line.c **** 
  32:..\u8g2\csrc/u8g2_line.c **** void u8g2_DrawLine(u8g2_t *u8g2, u8g2_uint_t x1, u8g2_uint_t y1, u8g2_uint_t x2, u8g2_uint_t y2)
  33:..\u8g2\csrc/u8g2_line.c **** {
 487              		.loc 1 33 0
 488              		.cfi_startproc
 489              		@ args = 4, pretend = 0, frame = 24
 490              		@ frame_needed = 0, uses_anonymous_args = 0
ARM GAS  C:\Users\gjl\AppData\Local\Temp\ccedk5LJ.s 			page 38


 491              	.LVL0:
 492 0000 F0B5     		push	{r4, r5, r6, r7, lr}
 493              		.cfi_def_cfa_offset 20
 494              		.cfi_offset 4, -20
 495              		.cfi_offset 5, -16
 496              		.cfi_offset 6, -12
 497              		.cfi_offset 7, -8
 498              		.cfi_offset 14, -4
 499 0002 1E00     		movs	r6, r3
 500 0004 87B0     		sub	sp, sp, #28
 501              		.cfi_def_cfa_offset 48
 502              		.loc 1 33 0
 503 0006 0CAB     		add	r3, sp, #48
 504              	.LVL1:
  34:..\u8g2\csrc/u8g2_line.c ****   u8g2_uint_t tmp;
  35:..\u8g2\csrc/u8g2_line.c ****   u8g2_uint_t x,y;
  36:..\u8g2\csrc/u8g2_line.c ****   u8g2_uint_t dx, dy;
  37:..\u8g2\csrc/u8g2_line.c ****   u8g2_int_t err;
  38:..\u8g2\csrc/u8g2_line.c ****   u8g2_int_t ystep;
  39:..\u8g2\csrc/u8g2_line.c **** 
  40:..\u8g2\csrc/u8g2_line.c ****   uint8_t swapxy = 0;
  41:..\u8g2\csrc/u8g2_line.c ****   
  42:..\u8g2\csrc/u8g2_line.c ****   /* no intersection check at the moment, should be added... */
  43:..\u8g2\csrc/u8g2_line.c **** 
  44:..\u8g2\csrc/u8g2_line.c ****   if ( x1 > x2 ) dx = x1-x2; else dx = x2-x1;
 505              		.loc 1 44 0
 506 0008 771A     		subs	r7, r6, r1
  33:..\u8g2\csrc/u8g2_line.c ****   u8g2_uint_t tmp;
 507              		.loc 1 33 0
 508 000a 0590     		str	r0, [sp, #20]
 509 000c 0C00     		movs	r4, r1
 510              	.LVL2:
 511 000e 1500     		movs	r5, r2
 512 0010 1B78     		ldrb	r3, [r3]
 513              	.LVL3:
 514              		.loc 1 44 0
 515 0012 FFB2     		uxtb	r7, r7
 516 0014 B142     		cmp	r1, r6
 517 0016 01D9     		bls	.L3
 518              		.loc 1 44 0 is_stmt 0 discriminator 1
 519 0018 8F1B     		subs	r7, r1, r6
 520 001a FFB2     		uxtb	r7, r7
 521              	.LVL4:
 522              	.L3:
  45:..\u8g2\csrc/u8g2_line.c ****   if ( y1 > y2 ) dy = y1-y2; else dy = y2-y1;
 523              		.loc 1 45 0 is_stmt 1
 524 001c 9D42     		cmp	r5, r3
 525 001e 0ED9     		bls	.L4
 526              		.loc 1 45 0 is_stmt 0 discriminator 1
 527 0020 EA1A     		subs	r2, r5, r3
 528              	.LVL5:
 529 0022 D2B2     		uxtb	r2, r2
 530 0024 0192     		str	r2, [sp, #4]
 531              	.LVL6:
  46:..\u8g2\csrc/u8g2_line.c **** 
  47:..\u8g2\csrc/u8g2_line.c ****   if ( dy > dx ) 
 532              		.loc 1 47 0 is_stmt 1 discriminator 1
ARM GAS  C:\Users\gjl\AppData\Local\Temp\ccedk5LJ.s 			page 39


 533 0026 9742     		cmp	r7, r2
 534 0028 45D2     		bcs	.L28
 535              		.loc 1 47 0 is_stmt 0
 536 002a 3A00     		movs	r2, r7
 537 002c 019F     		ldr	r7, [sp, #4]
 538              	.LVL7:
 539 002e 0192     		str	r2, [sp, #4]
 540              	.LVL8:
 541 0030 2A00     		movs	r2, r5
 542 0032 3500     		movs	r5, r6
 543 0034 1600     		movs	r6, r2
 544 0036 2200     		movs	r2, r4
 545 0038 1C00     		movs	r4, r3
 546 003a 1300     		movs	r3, r2
 547 003c 0DE0     		b	.L23
 548              	.LVL9:
 549              	.L4:
  45:..\u8g2\csrc/u8g2_line.c ****   if ( y1 > y2 ) dy = y1-y2; else dy = y2-y1;
 550              		.loc 1 45 0 is_stmt 1 discriminator 2
 551 003e 5A1B     		subs	r2, r3, r5
 552              	.LVL10:
 553 0040 D2B2     		uxtb	r2, r2
 554 0042 0192     		str	r2, [sp, #4]
 555              	.LVL11:
 556              		.loc 1 47 0 discriminator 2
 557 0044 9742     		cmp	r7, r2
 558 0046 43D2     		bcs	.L7
 559              		.loc 1 47 0 is_stmt 0
 560 0048 3A00     		movs	r2, r7
 561 004a 019F     		ldr	r7, [sp, #4]
 562              	.LVL12:
 563 004c 0192     		str	r2, [sp, #4]
 564              	.LVL13:
 565 004e 3200     		movs	r2, r6
 566 0050 1E00     		movs	r6, r3
 567 0052 1300     		movs	r3, r2
 568 0054 2200     		movs	r2, r4
 569 0056 2C00     		movs	r4, r5
 570 0058 1500     		movs	r5, r2
 571              	.L23:
  48:..\u8g2\csrc/u8g2_line.c ****   {
  49:..\u8g2\csrc/u8g2_line.c ****     swapxy = 1;
 572              		.loc 1 49 0 is_stmt 1
 573 005a 0122     		movs	r2, #1
 574              	.LVL14:
 575              	.L22:
 576 005c 0292     		str	r2, [sp, #8]
 577              	.LVL15:
  50:..\u8g2\csrc/u8g2_line.c ****     tmp = dx; dx =dy; dy = tmp;
  51:..\u8g2\csrc/u8g2_line.c ****     tmp = x1; x1 =y1; y1 = tmp;
  52:..\u8g2\csrc/u8g2_line.c ****     tmp = x2; x2 =y2; y2 = tmp;
  53:..\u8g2\csrc/u8g2_line.c ****   }
  54:..\u8g2\csrc/u8g2_line.c ****   if ( x1 > x2 ) 
  55:..\u8g2\csrc/u8g2_line.c ****   {
  56:..\u8g2\csrc/u8g2_line.c ****     tmp = x1; x1 =x2; x2 = tmp;
  57:..\u8g2\csrc/u8g2_line.c ****     tmp = y1; y1 =y2; y2 = tmp;
  58:..\u8g2\csrc/u8g2_line.c ****   }
ARM GAS  C:\Users\gjl\AppData\Local\Temp\ccedk5LJ.s 			page 40


  59:..\u8g2\csrc/u8g2_line.c ****   err = dx >> 1;
 578              		.loc 1 59 0
 579 005e 7A08     		lsrs	r2, r7, #1
 580 0060 52B2     		sxtb	r2, r2
 581 0062 0392     		str	r2, [sp, #12]
 582              	.LVL16:
  60:..\u8g2\csrc/u8g2_line.c ****   if ( y2 > y1 ) ystep = 1; else ystep = -1;
 583              		.loc 1 60 0
 584 0064 0022     		movs	r2, #0
 585 0066 9D42     		cmp	r5, r3
 586 0068 5241     		adcs	r2, r2, r2
 587 006a 0123     		movs	r3, #1
 588              	.LVL17:
 589 006c 5242     		rsbs	r2, r2, #0
 590 006e 1343     		orrs	r3, r2
 591              	.LVL18:
 592              	.L24:
 593 0070 0493     		str	r3, [sp, #16]
 594              	.LVL19:
  61:..\u8g2\csrc/u8g2_line.c ****   y = y1;
  62:..\u8g2\csrc/u8g2_line.c **** 
  63:..\u8g2\csrc/u8g2_line.c **** #ifndef  U8G2_16BIT
  64:..\u8g2\csrc/u8g2_line.c ****   if ( x2 == 255 )
 595              		.loc 1 64 0
 596 0072 FF2E     		cmp	r6, #255
 597 0074 19D1     		bne	.L10
  65:..\u8g2\csrc/u8g2_line.c ****     x2--;
 598              		.loc 1 65 0
 599 0076 013E     		subs	r6, r6, #1
 600              	.LVL20:
  66:..\u8g2\csrc/u8g2_line.c **** #else
  67:..\u8g2\csrc/u8g2_line.c ****   if ( x2 == 0xffff )
  68:..\u8g2\csrc/u8g2_line.c ****     x2--;
  69:..\u8g2\csrc/u8g2_line.c **** #endif
  70:..\u8g2\csrc/u8g2_line.c **** 
  71:..\u8g2\csrc/u8g2_line.c ****   for( x = x1; x <= x2; x++ )
 601              		.loc 1 71 0
 602 0078 17E0     		b	.L10
 603              	.LVL21:
 604              	.L14:
  72:..\u8g2\csrc/u8g2_line.c ****   {
  73:..\u8g2\csrc/u8g2_line.c ****     if ( swapxy == 0 ) 
 605              		.loc 1 73 0
 606 007a 029B     		ldr	r3, [sp, #8]
 607 007c 002B     		cmp	r3, #0
 608 007e 17D1     		bne	.L11
  74:..\u8g2\csrc/u8g2_line.c ****       u8g2_DrawPixel(u8g2, x, y); 
 609              		.loc 1 74 0
 610 0080 2A00     		movs	r2, r5
 611 0082 2100     		movs	r1, r4
 612              	.L25:
  75:..\u8g2\csrc/u8g2_line.c ****     else 
  76:..\u8g2\csrc/u8g2_line.c ****       u8g2_DrawPixel(u8g2, y, x); 
 613              		.loc 1 76 0
 614 0084 0598     		ldr	r0, [sp, #20]
 615 0086 FFF7FEFF 		bl	u8g2_DrawPixel
 616              	.LVL22:
ARM GAS  C:\Users\gjl\AppData\Local\Temp\ccedk5LJ.s 			page 41


  77:..\u8g2\csrc/u8g2_line.c ****     err -= (uint8_t)dy;
 617              		.loc 1 77 0
 618 008a 039B     		ldr	r3, [sp, #12]
 619 008c 019A     		ldr	r2, [sp, #4]
 620 008e 9B1A     		subs	r3, r3, r2
 621 0090 DBB2     		uxtb	r3, r3
 622 0092 5AB2     		sxtb	r2, r3
 623 0094 0392     		str	r2, [sp, #12]
 624              	.LVL23:
  78:..\u8g2\csrc/u8g2_line.c ****     if ( err < 0 ) 
 625              		.loc 1 78 0
 626 0096 002A     		cmp	r2, #0
 627 0098 05DA     		bge	.L13
  79:..\u8g2\csrc/u8g2_line.c ****     {
  80:..\u8g2\csrc/u8g2_line.c ****       y += (u8g2_uint_t)ystep;
 628              		.loc 1 80 0
 629 009a 049A     		ldr	r2, [sp, #16]
  81:..\u8g2\csrc/u8g2_line.c ****       err += (u8g2_uint_t)dx;
 630              		.loc 1 81 0
 631 009c DB19     		adds	r3, r3, r7
  80:..\u8g2\csrc/u8g2_line.c ****       err += (u8g2_uint_t)dx;
 632              		.loc 1 80 0
 633 009e AD18     		adds	r5, r5, r2
 634              	.LVL24:
 635              		.loc 1 81 0
 636 00a0 5BB2     		sxtb	r3, r3
  80:..\u8g2\csrc/u8g2_line.c ****       err += (u8g2_uint_t)dx;
 637              		.loc 1 80 0
 638 00a2 EDB2     		uxtb	r5, r5
 639              		.loc 1 81 0
 640 00a4 0393     		str	r3, [sp, #12]
 641              	.LVL25:
 642              	.L13:
  71:..\u8g2\csrc/u8g2_line.c ****   {
 643              		.loc 1 71 0 discriminator 2
 644 00a6 0134     		adds	r4, r4, #1
 645              	.LVL26:
 646 00a8 E4B2     		uxtb	r4, r4
 647              	.LVL27:
 648              	.L10:
  71:..\u8g2\csrc/u8g2_line.c ****   {
 649              		.loc 1 71 0 is_stmt 0 discriminator 1
 650 00aa A642     		cmp	r6, r4
 651 00ac E5D2     		bcs	.L14
 652 00ae 1EE0     		b	.L29
 653              	.L11:
  76:..\u8g2\csrc/u8g2_line.c ****     err -= (uint8_t)dy;
 654              		.loc 1 76 0 is_stmt 1
 655 00b0 2200     		movs	r2, r4
 656 00b2 2900     		movs	r1, r5
 657 00b4 E6E7     		b	.L25
 658              	.LVL28:
 659              	.L28:
  54:..\u8g2\csrc/u8g2_line.c ****   {
 660              		.loc 1 54 0
 661 00b6 B442     		cmp	r4, r6
 662 00b8 17D9     		bls	.L26
ARM GAS  C:\Users\gjl\AppData\Local\Temp\ccedk5LJ.s 			page 42


 663              	.LVL29:
  59:..\u8g2\csrc/u8g2_line.c ****   if ( y2 > y1 ) ystep = 1; else ystep = -1;
 664              		.loc 1 59 0
 665 00ba 1D00     		movs	r5, r3
 666              	.LVL30:
 667 00bc 2300     		movs	r3, r4
 668              	.LVL31:
 669 00be 3400     		movs	r4, r6
 670              	.LVL32:
 671 00c0 1E00     		movs	r6, r3
 672              	.LVL33:
 673 00c2 0023     		movs	r3, #0
 674 00c4 7A08     		lsrs	r2, r7, #1
 675 00c6 52B2     		sxtb	r2, r2
 676 00c8 0293     		str	r3, [sp, #8]
 677 00ca 0392     		str	r2, [sp, #12]
 678              	.LVL34:
  60:..\u8g2\csrc/u8g2_line.c ****   y = y1;
 679              		.loc 1 60 0
 680 00cc 0133     		adds	r3, r3, #1
 681 00ce CFE7     		b	.L24
 682              	.LVL35:
 683              	.L7:
  54:..\u8g2\csrc/u8g2_line.c ****   {
 684              		.loc 1 54 0
 685 00d0 B442     		cmp	r4, r6
 686 00d2 0AD9     		bls	.L26
 687              	.LVL36:
  59:..\u8g2\csrc/u8g2_line.c ****   if ( y2 > y1 ) ystep = 1; else ystep = -1;
 688              		.loc 1 59 0
 689 00d4 1D00     		movs	r5, r3
 690              	.LVL37:
 691 00d6 2300     		movs	r3, r4
 692              	.LVL38:
 693 00d8 3400     		movs	r4, r6
 694              	.LVL39:
 695 00da 1E00     		movs	r6, r3
 696              	.LVL40:
 697 00dc 0023     		movs	r3, #0
 698 00de 7A08     		lsrs	r2, r7, #1
 699 00e0 52B2     		sxtb	r2, r2
 700 00e2 0293     		str	r3, [sp, #8]
 701 00e4 0392     		str	r2, [sp, #12]
 702              	.LVL41:
  60:..\u8g2\csrc/u8g2_line.c ****   y = y1;
 703              		.loc 1 60 0
 704 00e6 013B     		subs	r3, r3, #1
 705 00e8 C2E7     		b	.L24
 706              	.LVL42:
 707              	.L26:
  54:..\u8g2\csrc/u8g2_line.c ****   {
 708              		.loc 1 54 0
 709 00ea 0022     		movs	r2, #0
 710 00ec B6E7     		b	.L22
 711              	.LVL43:
 712              	.L29:
  82:..\u8g2\csrc/u8g2_line.c ****     }
ARM GAS  C:\Users\gjl\AppData\Local\Temp\ccedk5LJ.s 			page 43


  83:..\u8g2\csrc/u8g2_line.c ****   }
  84:..\u8g2\csrc/u8g2_line.c **** }...
 713              		.loc 1 84 0
 714 00ee 07B0     		add	sp, sp, #28
 715              		@ sp needed
 716              	.LVL44:
 717 00f0 F0BD     		pop	{r4, r5, r6, r7, pc}
 718              		.cfi_endproc
 719              	.LFE0:
 720              		.size	u8g2_DrawLine, .-u8g2_DrawLine
 721              		.text
 722              	.Letext0:
 723              		.file 2 "c:\\program files (x86)\\cypress\\psoc creator\\4.1\\psoc creator\\import\\gnu\\arm\\5.4.
 724              		.file 3 "c:\\program files (x86)\\cypress\\psoc creator\\4.1\\psoc creator\\import\\gnu\\arm\\5.4.
 725              		.file 4 "..\\u8g2\\csrc\\u8x8.h"
 726              		.file 5 "..\\u8g2\\csrc\\u8g2.h"