ARM GAS  C:\Users\gjl\AppData\Local\Temp\cc539Vna.s 			page 1


   1              		.syntax unified
   2              		.cpu cortex-m0
   3              		.fpu softvfp
   4              		.eabi_attribute 20, 1
   5              		.eabi_attribute 21, 1
   6              		.eabi_attribute 23, 3
   7              		.eabi_attribute 24, 1
   8              		.eabi_attribute 25, 1
   9              		.eabi_attribute 26, 1
  10              		.eabi_attribute 30, 4
  11              		.eabi_attribute 34, 0
  12              		.eabi_attribute 18, 4
  13              		.thumb
  14              		.syntax unified
  15              		.file	"u8g2_intersection.c"
  16              		.text
  17              	.Ltext0:
  18              		.section	.gnu.lto_.profile.1a38245,"",%progbits
  19 0000 789C6361 		.ascii	"x\234ca`d`a`\000\222N*\000\001\022\000q"
  19      60646061 
  19      6000924E 
  19      2A000112 
  19      0071
  20              		.text
  21              		.section	.gnu.lto_.icf.1a38245,"",%progbits
  22 0000 789C6361 		.ascii	"x\234ca`d\000\001\001\006\004`f\370\331\266.\201q\355"
  22      60640001 
  22      01060460 
  22      66F8D9B6 
  22      2E8171ED 
  23 0014 5509A64B 		.ascii	"U\011\246K\037\03612\000\000;w\006\350"
  23      1F1E3132 
  23      00003B77 
  23      06E8
  24              		.text
  25              		.section	.gnu.lto_.jmpfuncs.1a38245,"",%progbits
  26 0000 789C6361 		.ascii	"x\234ca`d\000\201\030\006\004`f`a\004\002\376z `d\006"
  26      60640081 
  26      18060460 
  26      66606104 
  26      02FE7A20 
  27 0017 B2D8EB19 		.ascii	"\262\330\353\031\0319 rL\225\214`\222\011D\262\202\224"
  27      19392072 
  27      4C958C60 
  27      920944B2 
  27      8294
  28 0029 31CAD783 		.ascii	"1\312\327\203H6\246J\220Q0yf \011\327\002V\\\311\002"
  28      4836A64A 
  28      90513079 
  28      662009D7 
  28      02565CC9 
  29 003e E2000090 		.ascii	"\342\000\000\220\202\0076"
  29      820736
  30              		.text
  31              		.section	.gnu.lto_.inline.1a38245,"",%progbits
  32 0000 789C7D8E 		.ascii	"x\234}\2161\016\3020\020\004\367\354\213}\022!H\204"
  32      310EC230 
ARM GAS  C:\Users\gjl\AppData\Local\Temp\cc539Vna.s 			page 2


  32      1004F7EC 
  32      8B7D1221 
  32      4884
  33 0012 1A7F8107 		.ascii	"\032\177\201\007\360\206\274+eJJ\177\215\216g\340\365"
  33      F086BC2B 
  33      654A4A7F 
  33      8D8E67E0 
  33      F5
  34 0023 81221ACE 		.ascii	"\201\"\032\316\322\254%{G\247\020p\236\330'\002\307"
  34      D2AC257B 
  34      47A71070 
  34      9ED82702 
  34      C7
  35 0034 2C1AAC3D 		.ascii	",\032\254=\011\021\011\020C\313TK\200\3262\302j\271"
  35      09110910 
  35      43CB544B 
  35      80D632C2 
  35      6AB9
  36 0046 C1D6F9C2 		.ascii	"\301\326\371\302\226\3400\213\362W\\=6\355\355\356I"
  36      96E0308B 
  36      F2575C3D 
  36      36EDEDEE 
  36      49
  37 0057 DFA2BCB2 		.ascii	"\337\242\274\262:\011\353Wc?\235\000\335\026?\001\347"
  37      3A09EB57 
  37      633F9D00 
  37      DD163F01 
  37      E7
  38 0068 EB47F6F0 		.ascii	"\353G\366\360\250\276\217\022\371\277\254\355v\247q"
  38      A8BE8F12 
  38      F9BFACED 
  38      76A771
  39 0077 98DAEAEE 		.ascii	"\230\332\352\356\373\221\343\015\302H\033\262"
  39      FB91E30D 
  39      C2481BB2 
  40              		.text
  41              		.section	.gnu.lto_.pureconst.1a38245,"",%progbits
  42 0000 789C6361 		.ascii	"x\234ca`d`g```f``deb\005\000\000\326\000\035"
  42      60646067 
  42      60606066 
  42      60606465 
  42      62050000 
  43              		.text
  44              		.section	.gnu.lto_u8g2_is_intersection_decision_tree.1a38245,"",%progbits
  45 0000 789C6592 		.ascii	"x\234e\222\313kSQ\020\306g\346\334W\036>v\026\011\342"
  45      CB6B5351 
  45      10C667E6 
  45      DC571E3E 
  45      761609E2 
  46 0014 42B85430 		.ascii	"B\270T0\246u\343\237\340Z\0217\025-\261H7\025\322Z\212"
  46      A675E39F 
  46      E05A1137 
  46      152DB148 
  46      3715D25A 
  47 0029 9B1E731B 		.ascii	"\233\036s\033-X\250H\243\013\335\270\320\324Wc\304\""
  47      2D58A848 
  47      A30BDDB8 
ARM GAS  C:\Users\gjl\AppData\Local\Temp\cc539Vna.s 			page 3


  47      D0D45763 
  47      C422
  48 003b 828B56DA 		.ascii	"\202\213V\332*DR\012\025]\270\360\201\010E\241))A\254"
  48      2A44520A 
  48      155DB8F0 
  48      810845A1 
  48      292941AC 
  49 004f 8D33270F 		.ascii	"\2153'\017\027\271\334{\347\234\363\315\357\2333\347"
  49      17B9DC7B 
  49      E79CF3CD 
  49      EF9B33E7 
  50 005f 5E0B10E4 		.ascii	"^\013\020\344J\021@7\307K\374`\030\220\256\227\000."
  50      4A114037 
  50      C74BFC60 
  50      1890AE97 
  50      002E
  51 0071 7B446ADC 		.ascii	"{Dj\334\007\035v\344\035U\024z\265\217g\326\352a\236"
  51      071D76E4 
  51      1D55147A 
  51      B58F67D6 
  51      EA619E
  52 0084 5914329A 		.ascii	"Y\0242\232m4\033Cu\304!W\344\260I\215\272\015\3043\210"
  52      6D341B43 
  52      75C42157 
  52      E4B0498D 
  52      BA0DC433 
  53 0099 D74C0A21 		.ascii	"\327L\012!\312@{\010\243\244,\333qyi\0247\351/a\261"
  53      CA407B08 
  53      A3A42CDB 
  53      71796914 
  53      37E92F61 
  54 00ae FA7622DC 		.ascii	"\372v\"\334\231\323:\255?\177\337>VNg:2\012\240F\200"
  54      99D33AAD 
  54      3F7FDF3E 
  54      564E673A 
  54      320AA046 
  55 00c3 47629888 		.ascii	"Gb\230\210\311\016s\330\311\231K\267\356/\272\312G\340"
  55      C90E73D8 
  55      C9994BB7 
  55      EE2FBACA 
  55      47E0
  56 00d5 71A5327D 		.ascii	"q\2452}\326\277'\220.\237\326*\243\020\247Q\375\207"
  56      D6BF2790 
  56      2E9FD62A 
  56      A310A751 
  56      FD87
  57 00e7 7801F001 		.ascii	"x\001\360\001\372\234\372\376\327\313\342.u\320`\237"
  57      FA9CFAFE 
  57      D7CBE22E 
  57      75D0609F 
  58 00f7 AECC16A2 		.ascii	"\256\314\026\242\015\256\260\024\321\011\001\037\266"
  58      0DAEB014 
  58      D109011F 
  58      B6
  59 0104 818F0CB8 		.ascii	"\201\217\014\270X\272]\214\252C\006\374\363cy\303i\026"
  59      58BA5D8C 
  59      AA4306FC 
ARM GAS  C:\Users\gjl\AppData\Local\Temp\cc539Vna.s 			page 4


  59      F36379C3 
  59      6916
  60 0116 6C828FDB 		.ascii	"l\202\217\333\300'\006\314}\233\270F*a\300\352\314\335"
  60      C02706CC 
  60      7D9BB846 
  60      2A61C0EA 
  60      CCDD
  61 0128 79AB59F1 		.ascii	"y\253Y\361M\003\234i\003\363\350K\366\327\302vv\207"
  61      4D039C69 
  61      03F3E84B 
  61      F6D7C276 
  61      7687
  62 013a 33A6F9DA 		.ascii	"3\246\371\332/G\300\275?EG\276Y\376\370\234\256\325"
  62      2F47C0BD 
  62      3F4547BE 
  62      59FEF89C 
  62      AED5
  63 014c 023DF7DB 		.ascii	"\002=\367\333\235\277\021q\2211 \224\202\354\307\373"
  63      9DBF1171 
  63      91312094 
  63      82ECC7FB 
  64 015c B5503C6C 		.ascii	"\265P<l\224\246\001\326\031\225\023/\023IT_p\254\024"
  64      94A601D6 
  64      1995132F 
  64      1349545F 
  64      70AC14
  65 016f 54271D71 		.ascii	"T'\035q\013\024\005J\231\337\240L\012\306}Q?\006\265"
  65      0B14054A 
  65      99DFA04C 
  65      0AC67D51 
  65      3F06B5
  66 0182 C98EBA6A 		.ascii	"\311\216\272j\005\312n\250\026\254\355\251\253/\246"
  66      05CA6EA8 
  66      16ACEDA9 
  66      AB2FA6
  67 0191 F6B658CB 		.ascii	"\366\266X\313\250\353d\303fD\225\311iY\344\262\355\026"
  67      A8EB64C3 
  67      664495C9 
  67      6959E4B2 
  67      ED16
  68 01a3 6ECB229F 		.ascii	"n\313\"\237m\267\360`a'[\204\314&\3270\275\033\002%"
  68      6DB7F060 
  68      61275B84 
  68      CC26D730 
  68      BD1B0225 
  69 01b7 DD6E20F2 		.ascii	"\335n \362i\314^}W\010W\210;E\304\002\306\324\235\225"
  69      69CC5E7D 
  69      57085788 
  69      3B45C402 
  69      C6D49D95 
  70 01cb 1189D6D6 		.ascii	"\021\211\326\326\3129\226of^/\273u\031\360\031\306\354"
  70      CA39966F 
  70      665E2FBB 
  70      7519F019 
  70      C6EC
  71 01dd E7274475 		.ascii	"\347'DuWO\312\314\233:%\301\371\371a\204\013\241T\340"
  71      574FCACC 
ARM GAS  C:\Users\gjl\AppData\Local\Temp\cc539Vna.s 			page 5


  71      9B3A25C1 
  71      F9F96184 
  71      0BA154E0 
  72 01f1 4339108F 		.ascii	"C9\020\217\367\360}\361\350\371\356\236\344`*iFg\372"
  72      F7F07DF1 
  72      E8F9EE9E 
  72      E4602A69 
  72      4667FA
  73 0204 0786FA52 		.ascii	"\007\206\372R\203}\311\241\376\013\003\361$Po\202z\273"
  73      837DC9A1 
  73      FE0B03F1 
  73      24506F82 
  73      7ABB
  74 0216 683841C3 		.ascii	"h8A\303]\377\000\335\006\342,"
  74      5DFF00DD 
  74      06E22C
  75              		.text
  76              		.section	.gnu.lto_u8g2_IsIntersection.part.0.1a38245,"",%progbits
  77 0000 789C8D53 		.ascii	"x\234\215SMHTQ\024\276\337\275o\346\215?\225m\302\305"
  77      4D485451 
  77      14BEDFBD 
  77      6FE68D3F 
  77      956DC2C5 
  78 0014 2C5C2483 		.ascii	",\\$\203\222:\032Q\313v\021\355Z\033-\006\0217\006j"
  78      923A1A51 
  78      CB7611ED 
  78      5A1B2D06 
  78      1137066A 
  79 0028 A0B4983B 		.ascii	"\240\264\230;3>p\021e\320\017\231\223a\230f5\216\216"
  79      333E7011 
  79      65D00F99 
  79      93619866 
  79      358E8E
  80 003b 66633F58 		.ascii	"fc?X\220\211b?\213h\341\302\260\260\010\007\234,\\\210"
  80      9089623F 
  80      8B68E1C2 
  80      B0B00807 
  80      9C2C5C88 
  81 004f 4EE7DCD1 		.ascii	"N\347\334\321A\320E\227\367\356=\367\274\363}\3379\347"
  81      41D04597 
  81      F7EE3DF7 
  81      BCF37DDF 
  81      39E7
  82 0061 DE670908 		.ascii	"\336g\011\010\036Q%\304qZ+\350\205K\300\352|O\206\005"
  82      1E5125C4 
  82      715A2BE8 
  82      854BC0EA 
  82      7C4F8605 
  83 0075 695609C5 		.ascii	"iV\011\305k\310\243\0006\264\007\"hI\205 \376\312\015"
  83      6BC8A300 
  83      36B40722 
  83      68498520 
  83      FECA0D
  84 0088 89D9B5E9 		.ascii	"\211\331\265\351\313\371e\375Z\207\365\327\267\211\323"
  84      CBF965FD 
  84      5A87F5D7 
  84      B789D3
ARM GAS  C:\Users\gjl\AppData\Local\Temp\cc539Vna.s 			page 6


  85 0097 E9B053EC 		.ascii	"\351\260S\354\020aF\012\034\365\302\357e\322~\224Q\344"
  85      1061460A 
  85      1CF5C2EF 
  85      65D27E94 
  85      51E4
  86 00a9 A7F678B7 		.ascii	"\247\366x\267\372#\035\"\262h\233\236\353\372\266\237"
  86      FA231D22 
  86      B2689B9E 
  86      EBFAB69F 
  87 00b9 B71225B4 		.ascii	"\267\022%\264\015M\375\010\035P>\010\262\307\246\306"
  87      0D4DFD08 
  87      1D503E08 
  87      B2C7A6C6 
  88 00c9 EEEEF7F5 		.ascii	"\356\356\367\3651\247\276S\247\363\034\2450\010\305"
  88      31A7BE53 
  88      A7F31CA5 
  88      3008C5
  89 00d8 9C0FE1C5 		.ascii	"\234\017\341\305\000\274\202\\\002\217\340\243\350\324"
  89      00BC825C 
  89      028FE0A3 
  89      E8D4
  90 00e6 C2975E97 		.ascii	"\302\227^\227:b\220\363W?.\251-\344\3029\255\034e\341"
  90      3A6290F3 
  90      573F2EA9 
  90      2DE4C239 
  90      AD1C65E1 
  91 00fa 711699CD 		.ascii	"q\026\231\315\206\034\002O\014n\241\353\332\\\276\252"
  91      861C024F 
  91      0C6EA1EB 
  91      DA5CBEAA 
  92 010a CA2A266E 		.ascii	"\312*&n\257\344pS\005\332\317\300\330.\340\020|\034"
  92      AFE47053 
  92      05DACFC0 
  92      D82EE010 
  92      7C1C
  93 011c BDD4333C 		.ascii	"\275\3243<\342R5\006y%z}\255\260\364\276A&ju\344$#\343"
  93      E2523506 
  93      79257A7D 
  93      ADB0F4BE 
  93      41266A75 
  94 0134 3B913C28 		.ascii	";\221<(p\2723uI\0353\230\321\365\231\202-HLk\204J\030"
  94      70BA3375 
  94      491D3398 
  94      D1F59982 
  94      2D484C6B 
  95 014b 33B20766 		.ascii	"3\262\007fqx\363\306>w\273\246Q\202\004J1\214Rn-\365"
  95      7178F3C6 
  95      3E77BBA6 
  95      5182044A 
  95      318C526E 
  96 0161 74146E3A 		.ascii	"t\024n:>\271\355\035:\253u&\023\321\235\253\207\220"
  96      3EB9ED1D 
  96      3AAB7526 
  96      13D19DAB 
  96      8790
  97 0173 07706B24 		.ascii	"\007pk$\345\354R<Y\340\222]\340\374\335\344\0206OB\254"
  97      E5EC523C 
ARM GAS  C:\Users\gjl\AppData\Local\Temp\cc539Vna.s 			page 7


  97      59E0925D 
  97      E0FCDDE4 
  97      10364F42 
  98 0188 10139F69 		.ascii	"\020\023\237iZZ\274\252E\204\017\262\354\353\317C\313"
  98      5A5ABCAA 
  98      45840FB2 
  98      ECEBCF43 
  98      CB
  99 0199 F9E5032C 		.ascii	"\371\345\003,\253c\223E\246\366\354\300\030\312)`}u"
  99      AB639345 
  99      A6F6ECC0 
  99      18CA2960 
  99      7D75
 100 01ab 7C10D976 		.ascii	"|\020\331vMFg\353\323a]\234+\001;\033\366\224\032F\254"
 100      4D4667EB 
 100      D3615D9C 
 100      2B013B1B 
 100      F6941A46 
 101 01c0 45C2E449 		.ascii	"E\302\344I`\261\207\306d\362\314\255{\236\035\"\343"
 101      60B187C6 
 101      64F2CCAD 
 101      7B9E1D22 
 101      E3
 102 01d1 4624F5A0 		.ascii	"F$\365\240;\236\227\0239\265-\022\337%\362,'B\215`\260"
 102      3B9E9713 
 102      39B52D12 
 102      DF25F22C 
 102      27428D60 
 103 01e6 E092A429 		.ascii	"\340\222\244)i\011\341\211t\252Wq\277\"\212/\354M\347"
 103      6909E189 
 103      74AA5771 
 103      BF228A2F 
 103      EC4DE7
 104 01f9 CD079BEF 		.ascii	"\315\007\233\357\2352g\261\366n\246\243\260\007\321"
 104      9D3267B1 
 104      F66EA6A3 
 104      B007D1
 105 0208 102552E4 		.ascii	"\020%R\344(\012\002\222t\301\370[\337\367p\314\256\252"
 105      280A0292 
 105      74C1F85B 
 105      DFF770CC 
 105      AEAA
 106 021a 60D509F4 		.ascii	"`\325\011\364`S\232\354\236\243J0-\262\234\352\377I"
 106      60539AEC 
 106      9EA34A30 
 106      2DB29CEA 
 106      FF49
 107 022c 5E1812FE 		.ascii	"^\030\022\376\353\360\222H~\302\316R\270),\231\\\236"
 107      EBF09248 
 107      7EC2CE52 
 107      B8292C99 
 107      5C9E
 108 023e B7831BBA 		.ascii	"\267\203\033\272\3030\330\031\312_\340\025\202\202\262"
 108      C330D819 
 108      CA5FE015 
 108      8282B2
 109 024d 269188B2 		.ascii	"&\221\210\262\"\312\345(\217\251M\231\332~q\315\021"
ARM GAS  C:\Users\gjl\AppData\Local\Temp\cc539Vna.s 			page 8


 109      22CAE528 
 109      8FA94D99 
 109      DA7E71CD 
 109      11
 110 025e 6593EB37 		.ascii	"e\223\3537l\242\221|\244\340od\035\256\254\254\245\347"
 110      6CA2917C 
 110      A4E06F64 
 110      1DAEACAC 
 110      A5E7
 111 0270 E289FA9A 		.ascii	"\342\211\372\232\332@sS\300X\347\033\032[\352\232\232"
 111      DA407353 
 111      C058E71B 
 111      1A5BEA9A 
 111      9A
 112 0281 EB022D0D 		.ascii	"\353\002-\015\027\032+\003\302b\247l\365\313\326j\331"
 112      171A2B03 
 112      C262A76C 
 112      F5CBD66A 
 112      D9
 113 0292 E6976DD5 		.ascii	"\346\227m\325\377\000\314\2730\004"
 113      FF00CCBB 
 113      3004
 114              		.text
 115              		.section	.gnu.lto_u8g2_IsIntersection.1a38245,"",%progbits
 116 0000 789C8553 		.ascii	"x\234\205S\337K\024Q\024>\347\336\231\235\331]\265}"
 116      DF4B1451 
 116      143EE7DE 
 116      999DD95D 
 116      B57D
 117 0012 8C58C287 		.ascii	"\214X\302\207`Q\302]\225\250\177!z\353\331\350a\221"
 117      6051C25D 
 117      95A87F21 
 117      7AEBD9E8 
 117      6191
 118 0024 F0C5420D 		.ascii	"\360\305B\015\224\036\366\356\216\023>\004\331CEfm\004"
 118      941EF6EE 
 118      8E133E04 
 118      D9434566 
 118      6D04
 119 0036 A659BAAE 		.ascii	"\246Y\272\256f\272f\271\006\251\024\366\003\214 \037"
 119      66BA66B9 
 119      06A914F6 
 119      038C201F 
 120 0046 340B8B58 		.ascii	"4\013\213XA\373\201D\350v\316\214\226\264A\227\231\271"
 120      41FB8144 
 120      E876CE8C 
 120      96B44197 
 120      99B9
 121 0058 F79EFB7D 		.ascii	"\367\236\373}\337\371\3569\214\006\010<2\022\340 \315"
 121      DFF9EE39 
 121      8C06083C 
 121      3212E020 
 121      CD
 122 0069 D5F4A20E 		.ascii	"\325\364\242\016(\332\237\003\304M!\264\361\275\240"
 122      28DA9F03 
 122      C44D21B4 
 122      F1BDA0
ARM GAS  C:\Users\gjl\AppData\Local\Temp\cc539Vna.s 			page 9


 123 0078 7C722E0C 		.ascii	"|r.\014\252H\242\306a\324\020yV&BLH\015c\370]l\010|"
 123      AA48A2C6 
 123      61D41079 
 123      5626424C 
 123      480D63F8 
 124 0090 B63E73CE 		.ascii	"\266>s\316W\326\255TB->\031:\274\226\260w\333$\233\027"
 124      57D6AD54 
 124      422D3E19 
 124      3ABC96B0 
 124      77DB249B 
 125 00a5 80D5418C 		.ascii	"\200\325A\214\004Y\272\033\313\010\371\252u\240S~\023"
 125      0459BA1B 
 125      CB08F9AA 
 125      75A0537E 
 125      13
 126 00b6 B644D468 		.ascii	"\266D\324h\2736\333\361\276\204\267\002Ki\033\237\372"
 126      BB36DBF1 
 126      BE84B702 
 126      4B691B9F 
 126      FA
 127 00c7 18DF2543 		.ascii	"\030\337%C\010\264\036\236\032\276^\022\352bMu\265V"
 127      08B41E9E 
 127      1ABE5E12 
 127      EA624D75 
 127      B556
 128 00d9 796D29B1 		.ascii	"ym)\261\027%k\336\306 \366`\020(\004x\007C\204^YxsS"
 128      17256BDE 
 128      C620F660 
 128      10280478 
 128      0743845E 
 129 00f1 97FB1DE6 		.ascii	"\227\373\035\346\374\371\227\313r\213\271pLI\233\214"
 129      FCF997CB 
 129      728BB970 
 129      4C499B8C 
 130 0101 DE7599AE 		.ascii	"\336u\231\256\033\012\000\3669\274\345dzP\227a\207\267"
 130      1B0A00F6 
 130      39BCE564 
 130      7A509761 
 130      87B7
 131 0113 72AB73C0 		.ascii	"r\253s\300\273\305KN\371U\204\211\375\005\304\224C\\"
 131      BBC54B4E 
 131      F9558489 
 131      FD05C494 
 131      435C
 132 0125 E8B830EB 		.ascii	"\350\2700\353\223U\256\325\241+\253\277\023n\023\007"
 132      9355AED5 
 132      A12BABBF 
 132      136E1307 
 133 0135 0A886987 		.ascii	"\012\210i\2078\323\276rF\036px?\277\216\364\342v\302"
 133      38D3BE72 
 133      461E7078 
 133      3FBF8EF4 
 133      E276C2
 134 0148 E92DDE60 		.ascii	"\351-\336`\001o\010C\214^Jo^,\366\264*\032\245\\Z\252"
 134      016F0843 
 134      8C5E4A6F 
 134      5E2CF6B4 
ARM GAS  C:\Users\gjl\AppData\Local\Temp\cc539Vna.s 			page 10


 134      2A1AA55C 
 135 015e E93DF470 		.ascii	"\351=\364p\023SG\263*\237\267T6\351\237\034\365\027"
 135      135347B3 
 135      2A9FB754 
 135      36E99F1C 
 135      F517
 136 0170 21D140F0 		.ascii	"!\321@\360\207\332E\345\321i\251{\370c \2737\221%\275"
 136      87DA45E5 
 136      D169A97B 
 136      F86320BB 
 136      379125BD 
 137 0184 1CF021D7 		.ascii	"\034\360!\327\301\217\354\015`\225D\271\275kB\360,\227"
 137      C18FEC0D 
 137      609544B9 
 137      BD6B42F0 
 137      2C97
 138 0196 313196CE 		.ascii	"11\226\316%$\347\261\244N\036.\331\217_\030\334/\351"
 138      2524E7B1 
 138      A44E1E2E 
 138      D98F5F18 
 138      DC2FE9
 139 01a9 5C607DFA 		.ascii	"\\`}\372i[Q\022\257\305\331\324\004\347%\234\206\303"
 139      695B5112 
 139      AFC5D9D4 
 139      04E7259C 
 139      86C3
 140 01bb D41B3EEE 		.ascii	"\324\033>\356\372\220\3507\302}|\250*\371n\3671\211"
 140      FA90E837 
 140      C27D7CA8 
 140      2AF96EF7 
 140      3189
 141 01cd 9BEC1C70 		.ascii	"\233\354\034p\004\303\300\372\350\212{\376V\333\370"
 141      04C3C0FA 
 141      E88A7BFE 
 141      56DBF8
 142 01dc BFDAA8A3 		.ascii	"\277\332\250\243\306\005\300\014\251}B\303\325\362\022"
 142      C605C00C 
 142      A97D42C3 
 142      D5F212
 143 01eb 3893C9CD 		.ascii	"8\223\311\315\033\261\015\325\246T\300\226F\236a8\206"
 143      1BB10DD5 
 143      A654C096 
 143      469E6138 
 143      86
 144 01fc 31A07B58 		.ascii	"1\240{X\254kX\322\264\245\011\357\260\365\255\265\347"
 144      AC6B58D2 
 144      B4A509EF 
 144      B0F5ADB5 
 144      E7
 145 020d 0F3195CB 		.ascii	"\0171\225\313\374(\346\033\352\010\370\200S\003\027"
 145      FC28E61B 
 145      EA08F880 
 145      530317
 146 021c 44C25C58 		.ascii	"D\302\\X.a\"\300H\202M\276N\345|\345=\354%\2339r\371"
 146      2E6122C0 
 146      48824DBE 
 146      4EE57CE5 
ARM GAS  C:\Users\gjl\AppData\Local\Temp\cc539Vna.s 			page 11


 146      3DEC259B 
 147 0233 86C99D72 		.ascii	"\206\311\235r\007\216c9\351\303\277\321\252?\033\200"
 147      078E6339 
 147      E9C3BFD1 
 147      AA3F1B80 
 148 0243 1DE0870C 		.ascii	"\035\340\207\0146\311\374\331\200kB\024\270\367\346"
 148      36C9FCD9 
 148      806B4214 
 148      B8F7E6
 149 0252 A91F808F 		.ascii	"\251\037\200\217\034\367\232%}\226\364\333\322\347\370"
 149      1CF79A25 
 149      7D96F4DB 
 149      D2E7F8
 150 0261 D29C467D 		.ascii	"\322\234F}\246Tt\306\245\370\202\270\263O\364\223\343"
 150      A65474C6 
 150      A5F882B8 
 150      B34FF493 
 150      E3
 151 0272 040645E7 		.ascii	"\004\006E\347\374)\222&\304*U\202($\270\257\242\242"
 151      FC299226 
 151      C42A5582 
 151      2824B8AF 
 151      A2A2
 152 0284 869ED387 		.ascii	"\206\236\323\207NT\325D\033\033\242\316\352x]}SmCcm"
 152      4E54D544 
 152      1B1BA2CE 
 152      EA785D7D 
 152      536D4363 
 153 0299 B4A9EE64 		.ascii	"\264\251\356d}E\0244\016\212\346\210h\211\210\346J\321"
 153      7D451434 
 153      0E8AE688 
 153      688988E6 
 153      4AD1
 154 02ab 52F90B39 		.ascii	"R\371\0139i=-"
 154      693D2D
 155              		.text
 156              		.section	.gnu.lto_.symbol_nodes.1a38245,"",%progbits
 157 0000 789C6361 		.ascii	"x\234ca`d\360g\000\002&\206z\006\206\011\347\030@\324"
 157      6064F067 
 157      00022686 
 157      7A068609 
 157      E71840D4 
 158 0014 AE0645A0 		.ascii	"\256\006E\240\000S=#T\200qg\313\302\006\005\240\020"
 158      00533D23 
 158      54807167 
 158      CBC20605 
 158      A010
 159 0026 633D138A 		.ascii	"c=\023\212\032fF\006\206G\017\377123\001\351\007 \232"
 159      1A664606 
 159      86470FFF 
 159      31323301 
 159      E907209A 
 160 003a 91E1D1CA 		.ascii	"\221\341\321\312s\214\014\000\373\227\024\226"
 160      738C0C00 
 160      FB971496 
 161              		.text
 162              		.section	.gnu.lto_.refs.1a38245,"",%progbits
ARM GAS  C:\Users\gjl\AppData\Local\Temp\cc539Vna.s 			page 12


 163 0000 789C6361 		.ascii	"x\234ca`\004B \000\000\0009\000\007"
 163      60044220 
 163      00000039 
 163      0007
 164              		.text
 165              		.section	.gnu.lto_.decls.1a38245,"",%progbits
 166 0000 789CC55A 		.ascii	"x\234\305Z{PTYz\357\333\247\201\246\273\001\005G\315"
 166      7B505459 
 166      7AEFDBA7 
 166      81A6BB01 
 166      0547CD
 167 0013 96D9B1A6 		.ascii	"\226\331\261\246\214C\252v\034\235\331l\334\374\225"
 167      8C43AA76 
 167      1C9DD96C 
 167      DCFC95
 168 0022 A95425D9 		.ascii	"\251T%\331T%\377\244v\377\"\325\3234\255v\026\201\352"
 168      5425FFA4 
 168      76FF22D5 
 168      D334AD76 
 168      1681EA
 169 0035 6E14B792 		.ascii	"n\024\267\222J\203\370B\345\251(\017\337/DT\004|\360"
 169      4A83F842 
 169      E5A9280F 
 169      DF2F4454 
 169      047CF0
 170 0048 12C607E2 		.ascii	"\022\306\007\342\003A[P\004\005_\340[T\020yI\276s\276"
 170      03415B50 
 170      04055FE0 
 170      5B541079 
 170      49BE73BE 
 171 005c DBF79E0B 		.ascii	"\333\367\236\013\207\335\251J&\351\342\353{\276s\177"
 171      87DDA94A 
 171      26E9E2EB 
 171      7BBE737F 
 172 006c F79CEF75 		.ascii	"\367\234\357u\276\363\235K\033t\222\216~*\276\322\351"
 172      BEF39D4B 
 172      1B74928E 
 172      7E2ABED2 
 172      E9
 173 007d BE32EA74 		.ascii	"\2762\352t3\200\035\207\217\001\372~\247S?\004\250\006"
 173      33801D87 
 173      8F01FA7E 
 173      A7533F04 
 173      A806
 174 008f 2844AFD3 		.ascii	"(D\257\323}\246\327M\372\320{\264\373\004\035K\356\223"
 174      7DA6D74D 
 174      FAD07BB4 
 174      FB041D4B 
 174      EE93
 175 00a1 E4FE891F 		.ascii	"\344\376\211\037:F\260\214\015\007\232\001\364@\302"
 175      3A46B08C 
 175      0D079A01 
 175      F440C2
 176 00b0 E7E6003D 		.ascii	"\347\346\000=\204\366L\300T\313c\366\002\337#\241\014"
 176      84F64CC0 
 176      54CB63F6 
 176      02DF23A1 
ARM GAS  C:\Users\gjl\AppData\Local\Temp\cc539Vna.s 			page 13


 176      0C
 177 00c1 FEF945E3 		.ascii	"\376\371E\343\322~\363\217\034w\026\\-z\034\377\011"
 177      D27EF38F 
 177      1C77165C 
 177      2D7A1CFF 
 177      09
 178 00d2 F43F96C7 		.ascii	"\364?\226\307\367\217\035\"\320qL/\265\2446\2346vH\355"
 178      F78F1D22 
 178      D0714C2F 
 178      B5A4369C 
 178      367648ED 
 179 00e6 925E920D 		.ascii	"\222^\222\015\247\223$\374\226\030\351\220\030\013\015"
 179      A79324FC 
 179      9618E990 
 179      180B0D
 180 00f5 3DFBD629 		.ascii	"=\373\326)]\312EG\277u\210g}\352`\354\317\177\035\367"
 180      5DCA4547 
 180      BF758867 
 180      7DEA60EC 
 180      CF7F1DF7 
 181 0109 7FD820EA 		.ascii	"\177\330 \352\350\222\374\220\244H\200O\341}\275\177"
 181      E892FC90 
 181      A448804F 
 181      E17DBD7F 
 182 0119 54BCE8D5 		.ascii	"T\274\350\325\007\270\361P\\N&I\253\223\344W\272\352"
 182      07B8F150 
 182      5C4E2649 
 182      AB93E457 
 182      BAEA
 183 012b E185FC60 		.ascii	"\341\205\374`\002\032C\273k\250\350\357\027\224x\341"
 183      021A43BB 
 183      6BA8E8EF 
 183      179478E1 
 184 013b 93E9F5EA 		.ascii	"\223\351\365\352\377Y\265\314\3615\217\017\033\373\365"
 184      FF59B5CC 
 184      F1358F0F 
 184      1BFBF5
 185 014a D21C9334 		.ascii	"\322\034\2234.Q\376e\345P\010\362\364vE\375\373\243"
 185      2E51FE65 
 185      E55008F2 
 185      F47645FD 
 185      FBA3
 186 015c 06B280B6 		.ascii	"\006\262\200\266\3657\312\333/\006K\221\246\203t\230"
 186      F537CADB 
 186      2F064B91 
 186      A6837498 
 187 016c EEB703DF 		.ascii	"\356\267\003\337\255\366z%\351\230d\222J$\"\035\226"
 187      ADF67A25 
 187      E9986492 
 187      4A24221D 
 187      96
 188 017d 16D0C9E7 		.ascii	"\026\320\311\347\230\340{\275\327\233\342\355\333\353"
 188      98E07BBD 
 188      D79BE2ED 
 188      DBEB
 189 018b 0D9CAD93 		.ascii	"\015\234\255\223\276\235#-\234\243\223\216J\221tL\212"
 189      BE9D232D 
ARM GAS  C:\Users\gjl\AppData\Local\Temp\cc539Vna.s 			page 14


 189      9CA3938E 
 189      4A91744C 
 189      8A
 190 019c 928E4873 		.ascii	"\222\216Hs\244bi\016\035\377\360\256\242\013!\244Zb"
 190      A462690E 
 190      1DFFF0AE 
 190      A20B21A4 
 190      5A62
 191 01ae 13BCDAF2 		.ascii	"\023\274\332\362b=Q&\330\226>\347\210\327;M:\001\023"
 191      623D5126 
 191      D8963EE7 
 191      88D73B4D 
 191      3A0113
 192 01c1 1C572780 		.ascii	"\034W'\200\371\3043\224\212g\030\270\3766\335B\252\230"
 192      F9C43394 
 192      8A6718B8 
 192      FE36DD42 
 192      AA98
 193 01d3 19F41747 		.ascii	"\031\364\027G\307\236\353\225\031v\264\375G\366\032"
 193      C79EEB95 
 193      1976B4FD 
 193      47F61A
 194 01e2 30875401 		.ascii	"0\207T\001S\224\251S\234\230j\212r\361\024\343\203O"
 194      5394A953 
 194      9C986A8A 
 194      72F114E3 
 194      834F
 195 01f4 4F9A0C10 		.ascii	"O\232\014\020yl\240h\003\355\273>\322\2631@\351;)\261"
 195      796CA068 
 195      03EDBB3E 
 195      D2B33140 
 195      E93B29B1 
 196 0208 CE833B6E 		.ascii	"\316\203;n\275\012Q:Oa\347\305O\271=\026\245\363\264"
 196      BD0A513A 
 196      4F61E7C5 
 196      4FB93D16 
 196      A5F3B4
 197 021b DC393E58 		.ascii	"\3349>X\037\006n\0107Iz`o\366]\333a\006v\206I\232\006"
 197      1F066E08 
 197      37497A60 
 197      6FF65DDB 
 197      61067686 
 198 0232 ECCB1D6B 		.ascii	"\354\313\035k\033\003g\347R%\274\253\275s\365\314FU"
 198      1B0367E7 
 198      5225BCAB 
 198      BD73F5CC 
 198      4655
 199 0244 20502508 		.ascii	" P%\010\244\223\252\245\331\360}F2\310.\276\2325\032"
 199      A493AAA5 
 199      D9F07D46 
 199      32C82EBE 
 199      9A351A
 200 0257 F2C56E6F 		.ascii	"\362\305no_\251\267{\254\355?\263\366\255\365\266\300"
 200      5FA9B77B 
 200      ACED3FB3 
 200      F6ADF5B6 
 200      C0
ARM GAS  C:\Users\gjl\AppData\Local\Temp\cc539Vna.s 			page 15


 201 0268 837FCB80 		.ascii	"\203\177\313\200R\221\25274\351\345\220\324\001\021"
 201      5291AA37 
 201      34E9E590 
 201      D40111
 202 0277 55237D01 		.ascii	"U#}\001\317~\252}\234n\"\253\211\364\343\364<\213\322"
 202      CF7EAA7D 
 202      9C6E22AB 
 202      89F4E3F4 
 202      3C8BD2
 203 028a DF482D2D 		.ascii	"\337H--$(\275\001\330\267M\371\217BQ\372\271\300\026"
 203      2428BD01 
 203      D8B74DF9 
 203      8F4251FA 
 203      B9C016
 204 029d BCBFF72C 		.ascii	"\274\277\367,\030\331H`\327?X\3473!\370#\013\333\276"
 204      18D94860 
 204      D73F58E7 
 204      3321F823 
 204      0BDBBE
 205 02b0 E6CD66B2 		.ascii	"\346\315f\262\023\247|\235\372\244[V|6\260\233\252N"
 205      13A77C9D 
 205      FAA45B56 
 205      7C36B09B 
 205      AA4E
 206 02c2 1C0D2187 		.ascii	"\034\015!\207\361^\361\276\356\235t\234Y\020\272\224"
 206      F15EF1BE 
 206      EE9D749C 
 206      5910BA94 
 207 02d2 AFF37517 		.ascii	"\257\363u\027\232\220\367\376\027\360[\257\027\3362"
 207      9A90F7FE 
 207      17F05BAF 
 207      17DE32
 208 02e1 92330CAC 		.ascii	"\2223\014\254\277\220\177.%@\015\336W\253Rh\360^\005"
 208      BF907F2E 
 208      25400DDE 
 208      57AB5268 
 208      F05E05
 209 02f4 992FAB06 		.ascii	"\231/\253\006\230%\373\335;\301\357W\300\357\263d\277"
 209      9825FBDD 
 209      3BC1EF57 
 209      C0EFB364 
 209      BF
 210 0305 3782992F 		.ascii	"7\202\231/\241\337}\235\303\365F\362\003Np\350\362\360"
 210      A1DF7D9D 
 210      C3F546F2 
 210      034E70E8 
 210      F2F0
 211 0317 9940C914 		.ascii	"\231@\311\024)x\374\272\340q\177\214\317,\2461\336\004"
 211      2978FCBA 
 211      E0717F8C 
 211      CF2CA631 
 211      DE04
 212 0329 725C53E5 		.ascii	"r\\S\345\270\312\002\020fX\323\222v\314L\032Q\337\347"
 212      B8CA0210 
 212      6658D392 
 212      76CC4C1A 
 212      51DFE7
ARM GAS  C:\Users\gjl\AppData\Local\Temp\cc539Vna.s 			page 16


 213 033c EBBBDACD 		.ascii	"\353\273\332\315\244\035\231\306\363\367\376\225<\303"
 213      A41D99C6 
 213      F3F7FE95 
 213      3CC3
 214 034a 764A757B 		.ascii	"vJu{\226\034,\335\274\321\302\321h\2455\251\257d\363"
 214      961C2CDD 
 214      BCD1C2D1 
 214      68A535A9 
 214      AF64F3
 215 035d D7D3259E 		.ascii	"\327\323%\236\222\347\313!d\030\237\255>]\323\020\200"
 215      92E7CB21 
 215      64189FAD 
 215      3E5DD310 
 215      80
 216 036e 37177281 		.ascii	"7\027r\201\026\216\2016\332\365\272\311@R\015\014z`"
 216      168E8136 
 216      DAF5BAC9 
 216      40520D0C 
 216      7A60
 217 0380 78A48F7A 		.ascii	"x\244\217zu>\330{\234p\271b>\346\212\272\253\227\017"
 217      753ED87B 
 217      9C70B962 
 217      3EE68ABA 
 217      AB970F
 218 0393 5A482E03 		.ascii	"ZH.\003\353\367\327\247\254\221\320\034)4HME\241:%D"
 218      EBF7D7A7 
 218      AC91D01C 
 218      2934484D 
 218      45A13A25 
 219 03a8 A57B6091 		.ascii	"\245{`\221\371\262E\356Bg\273b\221\267\257\376\211\245"
 219      F9B245EE 
 219      4267BB62 
 219      91B7AFFE 
 219      89A5
 220 03ba 954EB048 		.ascii	"\225N\260H\207j\221\371\262A\316fu\364\230\310\036\234"
 220      876A91F9 
 220      B241CE66 
 220      75F498C8 
 220      1E9C
 221 03cc E370DFB5 		.ascii	"\343p\337\265\222\260)\347\350\236r\216m\351\363K\250"
 221      92B029E7 
 221      E89E728E 
 221      6DE9F34B 
 221      A8
 222 03dd D5BB608E 		.ascii	"\325\273`\216\373\352\034\235~\253?N;~1\204\024\243"
 222      FBEA1C9D 
 222      7EAB3F4E 
 222      3B7E3184 
 222      14A3
 223 03ef D6CF76FA 		.ascii	"\326\317v\372\326\204\222\032d\212z\012\323-h\255\305"
 223      D684921A 
 223      648A7A0A 
 223      D32D68AD 
 223      C5
 224 0400 C0E657F7 		.ascii	"\300\346W\367_\011@k\031\201\335\365 o<\210\\FhF\337"
 224      5F09406B 
 224      1981DDF5 
ARM GAS  C:\Users\gjl\AppData\Local\Temp\cc539Vna.s 			page 17


 224      206F3C88 
 224      5C466846 
 225 0415 CE2D46D2 		.ascii	"\316-F\322\212L\326P^c \351B\246\352\322\352\203A\344"
 225      8A4CD650 
 225      5E6320E9 
 225      42A6EAD2 
 225      EA8341E4 
 226 0429 2932C9B5 		.ascii	")2\311\265\347\313C\310[d^7\226\231\3100\266k{3\253"
 226      E7CB43C8 
 226      5B645E37 
 226      9699C830 
 226      B66B7B33 
 227 043e 09490B60 		.ascii	"\011I\013`\314\276\003W\007\015$\017\231!o\3763#)F\346"
 227      CCBE0357 
 227      070D240F 
 227      99216FFE 
 227      33232946 
 228 0453 E5E937DB 		.ascii	"\345\3517\333\364\244\012\231\3167}#\301\344\0122u{"
 228      F4A40A99 
 228      CE377D23 
 228      C1E40A32 
 228      757B
 229 0465 DB3E0593 		.ascii	"\333>\005\223.d\322\257\027_6\223\367\310\224\32776"
 229      2E64D2AF 
 229      175F3693 
 229      F7C894D7 
 229      3736
 230 0477 9BC82764 		.ascii	"\233\310'd\216\034\034>f\"\033\002\031\323\333\325;"
 230      8E1C1C3E 
 230      66221B02 
 230      19D3DBD5 
 230      3B
 231 0488 1A46B291 		.ascii	"\032F\262\2219p(e\257\221\024\"\263\367\310\246\306"
 231      39702865 
 231      AF911422 
 231      B3F7C8A6 
 231      C6
 232 0499 50728C31 		.ascii	"Pr\21413\257<\277\3413K\363\264\237H\366\035\261\027"
 232      33AF3CBF 
 232      E1334BF3 
 232      B49F48F6 
 232      1DB117
 233 04ac 536BEEBF 		.ascii	"Sk\356\277\355{\264\306[\372=\013\355\027`\344M\372"
 233      ED7BB4C6 
 233      5BFA3D0B 
 233      ED1760E4 
 233      4DFA
 234 04be 08FF7A78 		.ascii	"\010\377zx\314\262\324\267to\337K]W\337u=d\233\267>"
 234      CCB2D4B7 
 234      746FDF4B 
 234      5D57DF75 
 234      3D649BB7 
 235 04d3 99B03CF6 		.ascii	"\231\260<\366R\004^$\203\275\336\372\301t\031LG~.\002"
 235      52045E24 
 235      83BDDEFA 
 235      C174194C 
 235      477E2E02 
ARM GAS  C:\Users\gjl\AppData\Local\Temp\cc539Vna.s 			page 18


 236 04e7 5749EAD0 		.ascii	"WI\352\320\267\371\241\373\264\350\257)\370\007\016"
 236      B7F9A1FB 
 236      B4E8AF29 
 236      F8070E
 237 04f6 7CF7BA99 		.ascii	"|\367\272\231\212L\241\257\005\3206I\225\"\273\331\354"
 237      8A4CA1AF 
 237      05D03649 
 237      9522BBD9 
 237      EC
 238 0507 D7AE4724 		.ascii	"\327\256G$\003\217\315T\261\275\"\3549\016;\302k\367"
 238      038FCD54 
 238      B1BD22EC 
 238      390E3BC2 
 238      6BF7
 239 0519 5484E605 		.ascii	"T\204\346\005\276\301k\367V \362En\350!~\350g\242\241"
 239      BEC16BF7 
 239      5620F245 
 239      6EE8217E 
 239      E867A2A1 
 240 052d 2F72439F 		.ascii	"/rC\237\316\010\335\356\255O!l\225|\220\321\312\342"
 240      CE08DDEE 
 240      AD4F216C 
 240      957C90D1 
 240      CAE2
 241 053f BAAD5512 		.ascii	"\272\255U\022\360\205\031\026o\313\367\014\375@\214"
 241      F0851916 
 241      6FCBF70C 
 241      FD408C
 242 054e E6DD52CB 		.ascii	"\346\335R\313\013\376^ \370\267\252\334[T\363=\021I"
 242      0BFE5E20 
 242      F8B7AADC 
 242      5B54F33D 
 242      1149
 243 0560 FD881BF7 		.ascii	"\375\210\033\367\216\352\3017\202Q\321\322,\013\324"
 243      8EEAC137 
 243      8251D1D2 
 243      2C0BD4
 244 056f 9F4CB778 		.ascii	"\237L\267x\275F\012\321\311\031@\247\014S\315\213\327"
 244      BD460AD1 
 244      C91940A7 
 244      0C53CD8B 
 244      D7
 245 0580 2F186891 		.ascii	"/\030h\221:\345Yu\312w\002$\257\365.\336\246w\304V\342"
 245      3AE55975 
 245      CA770224 
 245      AFF52EDE 
 245      A677C456 
 246 0595 DD7B8F17 		.ascii	"\335{\217\027\343\225`\360G\234{sU3=\324Bo\253K(K.\001"
 246      E39560F0 
 246      479C7B73 
 246      55333DD4 
 246      426FAB4B 
 247 05ad BD924B27 		.ascii	"\275\222K'\335\202\231}t\346\001\031\017f\220\326\352"
 247      DD82997D 
 247      74E60119 
 247      0F6690D6 
 247      EA
ARM GAS  C:\Users\gjl\AppData\Local\Temp\cc539Vna.s 			page 19


 248 05be 23A575FA 		.ascii	"#\245u\372y\322j\240\365@\343\322<i\030h\015\264G\340"
 248      79D26AA0 
 248      F540E3D2 
 248      3C691868 
 248      0DB447E0 
 249 05d2 9A06D78F 		.ascii	"\232\006\327\217p\035\004\032\002\362\002\377\011\256"
 249      701D041A 
 249      02F202FF 
 249      09AE
 250 05e0 6340A340 		.ascii	"c@\243@\251\300o\004J\001\332\000\224\254\237\347\257"
 250      A9C06F04 
 250      4A01DA00 
 250      94AC9FE7 
 250      AF
 251 05f1 3507BC85 		.ascii	"5\007\274\205W\010\251g9D\377\360l\255/H\212\210\024"
 251      5708A967 
 251      3944FFF0 
 251      6CAD2F48 
 251      8A8814
 252 0604 4B940152 		.ascii	"K\224\001R\374\324\022a\030\324f\374\005\015\203t\230"
 252      FCD41261 
 252      18D466FC 
 252      050D8374 
 252      98
 253 0615 6CB35ED9 		.ascii	"l\263^\331\013hT0\231}={R-\230\342[(\177\252\347r\203"
 253      0B685430 
 253      997D3D7B 
 253      522D98E2 
 253      5B287FAA 
 254 062c 0977002F 		.ascii	"\011w\000/\335L+v\337\252\013\"70IVz\327e\031\311=d"
 254      DD4C2B76 
 254      DFAA0B22 
 254      37304956 
 254      7AD76519 
 255 0643 9A5EF49D 		.ascii	"\232^\364\2354\222\036d\006\357\345\245\233\311\033"
 255      34921E64 
 255      06EFE5A5 
 255      9BC91B
 256 0652 64C647D6 		.ascii	"d\306G\326/#\237\260\375\256\351t?!\233\203\030\323"
 256      2F239FB0 
 256      FDAEE974 
 256      3F219B83 
 256      18D3
 257 0664 73F6CDA0 		.ascii	"s\366\315\240\205\344#S\223vu\324H\016\"\223_\265.\305"
 257      85E42353 
 257      937675D4 
 257      480E2293 
 257      5FB52EC5 
 258 0678 448A9059 		.ascii	"D\212\220Yw\262\366` )F\246\362q\332e#)Gf\350uCZ\000"
 258      77B2F660 
 258      202946A6 
 258      F271DA65 
 258      23294766 
 259 0691 A9416647 		.ascii	"\251AfG\353\303\314`\223\\\306f\376\351J\371Y\347\351"
 259      EBC3CC60 
 259      935CC666 
 259      FEE94AF9 
ARM GAS  C:\Users\gjl\AppData\Local\Temp\cc539Vna.s 			page 20


 259      59E7E9
 260 06a4 518B258D 		.ascii	"Q\213%\215\3423W{\303\033C\245\235z\023\215G(\033h\000"
 260      E233577B 
 260      C31B43A5 
 260      9D7A138D 
 260      47281B68 
 261 06b9 EDD25B64 		.ascii	"\355\322[dG^n\276\374\327\344\222<\377\216\235\203!"
 261      475E6EBE 
 261      FCD7E492 
 261      3CFF8E9D 
 261      8321
 262 06cb A48331A1 		.ascii	"\244\2031\241\025\031\207+\202\345\215!B\336\021\344"
 262      1519872B 
 262      82E58D21 
 262      42DE11E4 
 263 06db AC9DC125 		.ascii	"\254\235\301%\037\330\261\244\242?\262\037d\335\344"
 263      1FD8B1A4 
 263      A23FB21F 
 263      64DDE4
 264 06ea E23E4704 		.ascii	"\342>G\004>\307\257\222\3460D\323\012\264@\213\376z"
 264      3EC7AF92 
 264      E63044D3 
 264      0AB4408B 
 264      FE7A
 265 06fc CE84FCFA 		.ascii	"\316\204\374\372\236\227#O\000\346\263\311V^\216=\""
 265      9E97234F 
 265      00E6B3C9 
 265      565E8E3D 
 265      22
 266 070d 39F80C38 		.ascii	"9\370\0148\334\254$\202\\\021\0263\201\032\357\036\235"
 266      DCAC2482 
 266      5C111633 
 266      811AEF1E 
 266      9D
 267 071e 94A59FC3 		.ascii	"\224\245\237\303V\247\264[~\200\306{1\304\373Q\210\323"
 267      56A7B45B 
 267      7E80C67B 
 267      31C4FB51 
 267      88D3
 268 0730 6340FB81 		.ascii	"c@\373\201\016\003\035\000:\002\264\027\350\020P\011"
 268      0E031D00 
 268      3A02B417 
 268      E8105009 
 269 0740 D071A07D 		.ascii	"\320q\240}@\007\345xF\005\337\362\012\346\013\024l\343"
 269      4007E578 
 269      4605DFF2 
 269      0AE60B14 
 269      6CE3
 270 0752 72A02F83 		.ascii	"r\240/\203\345\300\242I9\020\356\015\360\003m\027)\304"
 270      E5C0A249 
 270      3910EE0D 
 270      F0036D17 
 270      29C4
 271 0764 25C1B166 		.ascii	"%\301\261f\316R[E`~o\271\235\361Y\236\267>\225\320\220"
 271      CE525B45 
 271      607E6FB9 
 271      9DF1599E 
ARM GAS  C:\Users\gjl\AppData\Local\Temp\cc539Vna.s 			page 21


 271      B73E95D0 
 272 0779 9276C868 		.ascii	"\222v\310h\177\240MJ\260\035\274\177\013\005\032\361"
 272      7FA04D4A 
 272      B01DBC7F 
 272      0B051AF1 
 273 0789 29739C17 		.ascii	")s\234\027d\213H\020DC\344^)o\376\234t\261\300\325?"
 273      648B4810 
 273      4443E45E 
 273      296FFE9C 
 273      74B1C0D5 
 274 079e 1FDA0055 		.ascii	"\037\332\000UOd\004\232\245 {>5K\031<Z\252\346\204\""
 274      4F64049A 
 274      A5207B3E 
 274      354B193C 
 274      5AAAE684 
 275 07b3 9613C4FE 		.ascii	"\226\023\304\376;\001>\373\237\372\017D\332x\361d\203"
 275      3B013EFB 
 275      9FFA0F44 
 275      DA78F164 
 275      83
 276 07c4 7C706A64 		.ascii	"|pjd+\275\347\022\324\377\357p"
 276      2BBDE712 
 276      D4FFEF70 
 277 07d0 A5F58F6F 		.ascii	"\245\365\217o\2506\222d#\246\212\264\303o-\244\000\231"
 277      A8369264 
 277      23A68AB4 
 277      C36F2DA4 
 277      0099
 278 07e2 D3AF8F9C 		.ascii	"\323\257\217\234\016\301\307\352)\377C\371\010$\245"
 278      0EC1C7EA 
 278      29FF43F9 
 278      0824A5
 279 07f1 DD78F37C 		.ascii	"\335x\363|r/\024\242E\310\224\245\325\224\032H)2\007"
 279      722F14A2 
 279      45C894A5 
 279      D5941A48 
 279      293207
 280 0804 9F6C5C6D 		.ascii	"\237l\\m\"g\220i<\364.M\"\365FM\235\033\216un\311\366"
 280      22679069 
 280      3CF42E4D 
 280      22F5464D 
 280      9D1B8E75 
 281 081b 37C72472 		.ascii	"7\307$r\011\357u\327\227\267\032H\0232M\275\267}\006"
 281      09EF75D7 
 281      97B71A48 
 281      13324DBD 
 281      B77D06
 282 082e 720B99C2 		.ascii	"r\013\231\302\336\261~=\351@fwv\377cB\236#\223=\266"
 282      DEB17E3D 
 282      E9406677 
 282      76FF6342 
 282      9E23933D 
 283 0843 FF849E8C 		.ascii	"\377\204\236\214 s\2518\265[O6\0063\346~\345\376\306"
 283      2073A938 
 283      B55B4F36 
 283      0633E67E 
 283      E5FEC6
ARM GAS  C:\Users\gjl\AppData\Local\Temp\cc539Vna.s 			page 22


 284 0856 209217AC 		.ascii	" \222\027\2549\214\204\343a\244j\347\255\033\006r\030"
 284      398C84E3 
 284      61A46AE7 
 284      AD1B0672 
 284      18
 285 0867 EF6D797A 		.ascii	"\357myz)X\223\234\250\203\325\344\324\250$\247s-\033"
 285      2958939C 
 285      A883D5E4 
 285      D4A824A7 
 285      732D1B
 286 087a 72C3C829 		.ascii	"r\303\310)|\352\371\365\206\017\241\244\022\231\207"
 286      7CEAF9F5 
 286      860FA1A4 
 286      129987
 287 0889 C9DB7BF5 		.ascii	"\311\333{\365\244\036\231\315/\217o\013&\355\301\032"
 287      A41E99CD 
 287      2F8F6F0B 
 287      26EDC11A 
 288 0899 03CE900D 		.ascii	"\003\316\220\015Xt\277\354\204\211<\305\233\017\336"
 288      5874BFEC 
 288      84893CC5 
 288      9B0FDE
 289 08a8 D4E605B1 		.ascii	"\324\346\005\261#\356\011\345\330{\354`s\206A9\3666"
 289      23EE09E5 
 289      D87BEC60 
 289      73864139 
 289      F636
 290 08ba EB5967F7 		.ascii	"\353Yg\367\370\311J\365,\334\202\235\307\017\215\017"
 290      F8C94AF5 
 290      2CDC829D 
 290      C70F8D0F 
 291 08ca 052B9D37 		.ascii	"\005+\2357\260\263\277l\323\201@\3626X.\272;\312$\222"
 291      B0B3BF6C 
 291      D38140F2 
 291      36582EBA 
 291      3BCA2492 
 292 08de 828728FF 		.ascii	"\202\207(\377\3418\034\017\307[\336\335\330\033D6\341"
 292      E1381C0F 
 292      C75BDEDD 
 292      D81B4436 
 292      E1
 293 08ef BD86FCDE 		.ascii	"\275\206\374\336l=\311E&uGf\263\036\201\277\0006wCa"
 293      6C3DC945 
 293      26754766 
 293      B31E81BF 
 293      00367743 
 294 0904 B70135E8 		.ascii	"\267\0015\350\246o\014v\337\332\327\031H\216\"\326\177"
 294      A66F0C76 
 294      DFDAD719 
 294      488E22D6 
 294      7F
 295 0915 000FC703 		.ascii	"\000\017\307\003\270\367i\352.=)\223OmO\263\352\340"
 295      B8F769EA 
 295      2E3D2993 
 295      4F6D4FB3 
 295      EAE0
 296 0927 108B4CCB 		.ascii	"\020\213L\313\241W\267CI;2Ow\327\225\031I?2[\353\263"
ARM GAS  C:\Users\gjl\AppData\Local\Temp\cc539Vna.s 			page 23


 296      A157B743 
 296      493B324F 
 296      77D79519 
 296      493F325B 
 297 093d 474DC46B 		.ascii	"GM\304kf\314\345\312\207\013\311Fl\177\270z\353\036"
 297      66CCE5CA 
 297      870BC946 
 297      6C7FB87A 
 297      EB1E
 298 094f 21F9C864 		.ascii	"!\371\310d\234\253=\017{\0262\015\235w!P\312\220\031"
 298      9CAB3D0F 
 298      7B16320D 
 298      9D772150 
 298      CA9019
 299 0962 2B2F3F0F 		.ascii	"+/?\017!\204\314\303\023\203/\215\244\005\231c%#\245"
 299      2184CCC3 
 299      13832F8D 
 299      A4059963 
 299      2523A5
 300 0975 F856E1B7 		.ascii	"\370V\341\267\026\331\272\035k\017]5+\026\357E\233\265"
 300      16D9BA1D 
 300      6B0F5D35 
 300      2B16EF45 
 300      9BB5
 301 0987 DEB9DF1A 		.ascii	"\336\271\337\032\254t>\305\316u\343\367.\030\311C\034"
 301      AC743EC5 
 301      CE75E3F7 
 301      2E18C943 
 301      1C
 302 0998 29F5D0E6 		.ascii	")\365\320\346\202\020\362\032\231\364\274w\325A\344"
 302      8210F21A 
 302      99F4BC77 
 302      D541E4
 303 09a7 0332BEFA 		.ascii	"\0032\276\372\335\005\301d\014\231G\025\203\373C\310"
 303      DD05C164 
 303      0C994715 
 303      83FB43C8 
 304 09b7 7ACB94CE 		.ascii	"z\313\224\316=ysWW\020\311D\300p\363H\225Dv \263\311"
 304      3D797357 
 304      5710C944 
 304      C070F348 
 304      95447620 
 305 09cd 77EA5B52 		.ascii	"w\352[R\214\355\222\326;c\0229\205L\323\247\276\263"
 305      8CED92D6 
 305      3B631239 
 305      854CD3A7 
 305      BEB3
 306 09df 84342273 		.ascii	"\2044\"s\264{\255/\200\264#sptO\205\205<A\246a\260v"
 306      B47BAD2F 
 306      80B42373 
 306      70744F85 
 306      853C41A6 
 307 09f6 5F00E943 		.ascii	"_\000\351C&mc\361\236P\262&\2041k6\035\251!d;2-]e\003"
 307      266D63F1 
 307      9E50B226 
 307      84316B36 
 307      1DA92164 
ARM GAS  C:\Users\gjl\AppData\Local\Temp\cc539Vna.s 			page 24


 308 0a10 E03C64BA 		.ascii	"\340<d\272\356g\375;9\205\355{\215\207\217\320\374\360"
 308      EE67FD3B 
 308      3985ED7B 
 308      8D878FD0 
 308      FCF0
 309 0a22 253D828F 		.ascii	"%=\202\217\217\207q\207\360/\321O73\336\355\017\"\347"
 309      8F877187 
 309      F02FD14F 
 309      3733DEED 
 309      0F22E7
 310 0a35 195CDFB0 		.ascii	"\031\\\337\260\271\034\314\257\274\3648`\251\244\307"
 310      B91CCCAF 
 310      BCF43860 
 310      A9A4C7
 311 0a44 5E2F3149 		.ascii	"^/1I\237\324\264\366\245\362\262\013\027\226N\315\304"
 311      9FD4B4F6 
 311      A5F2B20B 
 311      17964ECD 
 311      C4
 312 0a55 E390C9BE 		.ascii	"\343\220\311\276\224\013\2051Hu\243z|i\267?ko \271\216"
 312      940B8531 
 312      4875A37A 
 312      7C69B73F 
 312      6B6F20B9 
 313 0a6a 73E45514 		.ascii	"s\344U\024\017\232\270\227v\277dG\353\3250G2Q\346\200"
 313      0F9AB897 
 313      76BF6447 
 313      EBD53047 
 313      3251E680 
 314 0a7e 29A79C24 		.ascii	")\247\234$\205\010'yq\353fV\000\271\215z\217\225\255"
 314      85082779 
 314      71EB6656 
 314      00B98D7A 
 314      8F95AD
 315 0a91 AB3690E7 		.ascii	"\2536\220\347\310\3646\016\365\233\311(2\303\347R*%"
 315      C8F4360E 
 315      F59BC928 
 315      32C3E752 
 315      2A25
 316 0aa3 9211CA98 		.ascii	"\222\021\312\230S\347\206\256\005\220\375\310\274N9"
 316      53E786AE 
 316      0590FDC8 
 316      BC4E39
 317 0ab2 B25F22B5 		.ascii	"\262_\"\265\310\264l}\005{r\0332\243#9\311\001\344\031"
 317      C8B46C7D 
 317      057B721B 
 317      32A32339 
 317      C901E419 
 318 0ac6 32759D4F 		.ascii	"2u\235OK\314d\004\231\242\315}\347MdK\030e>K\256k\202"
 318      4BCC6404 
 318      99A2CD7D 
 318      E74D644B 
 318      18653E4B 
 319 0add 1A47AE65 		.ascii	"\032G\256e\264\347\\\266\327t\347\214|Ws\252\323\353"
 319      B4E75CB6 
 319      D774E78C 
 319      7C5773AA 
ARM GAS  C:\Users\gjl\AppData\Local\Temp\cc539Vna.s 			page 25


 319      D3EB
 320 0aef 5D6B61C1 		.ascii	"]ka\301\263\006\364\315!S\034\031ak\312\274\251\324"
 320      B306F4CD 
 320      21531C19 
 320      616BCABC 
 320      A9D4
 321 0b01 07037A0D 		.ascii	"\007\003z\015\364\366\304\002\250S=Sl\020\214\312\237"
 321      F4F6C402 
 321      A8533D53 
 321      6C108CCA 
 321      9F
 322 0b12 29B6AB55 		.ascii	")\266\253UG\252\000:\305\341(M\000\375vRy\242\224\343"
 322      47AA003A 
 322      C5E1284D 
 322      00FD7652 
 322      79A294E3 
 323 0b26 9B6438DD 		.ascii	"\233d8\335\336v\201\277\266\222yR6P&P.\3206\240\335"
 323      DE7681BF 
 323      B6927952 
 323      36502650 
 323      2ED036A0 
 324 0b3b 40E94059 		.ascii	"@\351@Y@\371@;\200\012\200\266\003\355\004\332\013\224"
 324      40F9403B 
 324      800A80B6 
 324      03ED04DA 
 324      0B94
 325 0b4d 019407B4 		.ascii	"\001\224\007\264\005\250\020h\017QJ\027\220/W5\320{"
 325      05A81068 
 325      0F514A17 
 325      902F5735 
 325      D07B
 326 0b5f 9181F812 		.ascii	"\221\201\370\022\242M\325e\243@\027\256|\270\257\"\327"
 326      A24DD565 
 326      A34017AE 
 326      7CB8AF22 
 326      D7
 327 0b70 0B90FCA0 		.ascii	"\013\220\374\240}*t\235\000\312\327\031\375\252\331"
 327      7D2A749D 
 327      00CAD719 
 327      FDAAD9
 328 0b7f 3F6A659D 		.ascii	"?je\235\\\030nQ\365\352\027\3515\341\210\210\245\021"
 328      5C186E51 
 328      F5EA17E9 
 328      35E18888 
 328      A511
 329 0b91 5D412332 		.ascii	"]A#2ZY+\223\352\256v\276\334\031\022\011\302W\312\247"
 329      5A592B93 
 329      EAAE76BE 
 329      DC191209 
 329      C257CAA7 
 330 0ba5 B3B9F3E7 		.ascii	"\263\271\363\347;\031\375G\316\237>~\364a\321\350<\372"
 330      3B19FD47 
 330      CE9F3E7E 
 330      F461D1E8 
 330      3CFA
 331 0bb7 A36A9241 		.ascii	"\243j\222A\021\366\021Wx\326\341\341\0330\223\017\337"
 331      11F61157 
ARM GAS  C:\Users\gjl\AppData\Local\Temp\cc539Vna.s 			page 26


 331      78D6E1E1 
 331      1B30930F 
 331      DF
 332 0bc8 EFF953EF 		.ascii	"\357\371S\357Z\201\037x\225*y\2256\023\241J\274/4\365"
 332      5A811F78 
 332      952A7995 
 332      3613A14A 
 332      BC2F34F5 
 333 0bdc E1079137 		.ascii	"\341\007\2217\026\311\345a{FA^\030\251d\271@\337\364"
 333      16C9E561 
 333      7B46415E 
 333      18A964B9 
 333      40DFF4
 334 0bef 38BF2E54 		.ascii	"8\277.TsZ\345\227\307\001X\022?\345\362@\233\335\273"
 334      735AE597 
 334      C7015812 
 334      3FE5F240 
 334      9BDDBB
 335 0c02 FA0B6AB3 		.ascii	"\372\013j\263\3750\321>5\265R\0232y\367\024\035\332"
 335      FD30D13E 
 335      35B55213 
 335      3279F714 
 335      1DDA
 336 0c14 2C45C802 		.ascii	",E\310\002\326O)\240\356\177]:\230{m\332\373dIS\235"
 336      D64F29A0 
 336      EE7F5D3A 
 336      987B6DDA 
 336      FB644953 
 337 0c29 1DE4C256 		.ascii	"\035\344\302V'\035\"\376\352l\360hog\000i\012\303\012"
 337      271D22FE 
 337      EA6CF068 
 337      6F670069 
 337      0AC30A
 338 0c3c E3494183 		.ascii	"\343IA\203\211\264#S\347;~-\214\274b\314\027\235/\313"
 338      89B42353 
 338      E73B7E2D 
 338      8CBC62CC 
 338      179D2FCB 
 339 0c50 2A43244D 		.ascii	"*C$M\336\2357\317b\231m\260D\370[\221\363\"##\321\251"
 339      DE9D37CF 
 339      62996DB0 
 339      44F85B91 
 339      F3222323 
 340 0c66 DBDA38A7 		.ascii	"\333\3328\247>\006\247\226\250N\365q\261\247\361^;\354"
 340      3E06A796 
 340      A84EF571 
 340      B1A7F15E 
 340      3BEC
 341 0c78 357760AF 		.ascii	"5w`\257\221\212\010>@\275w\005\014u\031t;\017t\016\350"
 341      918A083E 
 341      40BD7705 
 341      0C751974 
 341      3B0F740E 
 342 0c8d 07A07AA0 		.ascii	"\007\240z\240J\2403@\247\201N\001\035\001:\011T\001"
 342      4AA03340 
 342      A7814E01 
 342      1D013A09 
ARM GAS  C:\Users\gjl\AppData\Local\Temp\cc539Vna.s 			page 27


 342      5401
 343 0c9f 540E5406 		.ascii	"T\016T\006t\002\250\024\3508\3201\240\243\232\344V\323"
 343      7402A814 
 343      E838D031 
 343      A0A39AE4 
 343      56D3
 344 0cb1 A6AC8EC3 		.ascii	"\246\254\216\303D#a\253~\302\242\256R\241\235Ze:\364"
 344      442361AB 
 344      7EC2A2AE 
 344      52A19D5A 
 344      653AF4
 345 0cc4 1373FA19 		.ascii	"\023s\372\031\025{O\204\345c\377\224\212\275/\302\362"
 345      157B4F84 
 345      E563FF94 
 345      8ABD2FC2 
 345      F2
 346 0cd5 EBAA42C5 		.ascii	"\353\252B\305v\211\260\374\302/S\261\335\",\237bKU\354"
 346      7689B0FC 
 346      C22F53B1 
 346      DD222C9F 
 346      624B55EC 
 347 0ce9 031196CF 		.ascii	"\003\021\226\317\205;U\354C\021\226\3330\267\253\320"
 347      853B55EC 
 347      431196DB 
 347      30B7ABD0 
 348 0cf9 47222867 		.ascii	"G\"(g\335-*\224\276\004\235\024*\274\305rr\271\354\362"
 348      DD2D2A94 
 348      BE049D14 
 348      2ABCC572 
 348      72B9ECF2 
 349 0d0d 441E58C9 		.ascii	"D\036X\311.\276I)0+\227;\330\236\222\361J\366\366M\314"
 349      2EBE4929 
 349      302B973B 
 349      D89E92F1 
 349      4AF6F64D 
 350 0d22 DEE3BE30 		.ascii	"\336\343\2760\204W\021\213\3243\021\316\347c~i\325\220"
 350      8457118B 
 350      D43311CE 
 350      E7637E69 
 350      D590
 351 0d34 D92AE81A 		.ascii	"\331*\350\032\004l5<\215\331`*\230\216\303L\371oCx\000"
 351      046C353C 
 351      8DD9602A 
 351      988EC34C 
 351      F96F4378 
 352 0d49 BE6B09FD 		.ascii	"\276k\011\375\267!-\210\317\302#\317\240\314\346\007"
 352      B7212D88 
 352      CFC223CF 
 352      A0CCE607 
 353 0d59 ADD32CEB 		.ascii	"\255\323,\353\263\270\254\305\313\352*H\366\323/\253"
 353      B3B8ACC5 
 353      CBEA2A48 
 353      F6D32FAB 
 354 0d69 519FC59B 		.ascii	"Q\237\305\233ic\006|!6 g\357a\025\374r\"X\260\237\251"
 354      6963067C 
 354      21362067 
 354      EF6115FC 
ARM GAS  C:\Users\gjl\AppData\Local\Temp\cc539Vna.s 			page 28


 354      722258B0 
 355 0d7f E8576234 		.ascii	"\350Wb47\364`\316\014t\345\005\200\277\236\010\377Z"
 355      37F460CE 
 355      0C74E505 
 355      80BF9E08 
 355      FF5A
 356 0d91 ECC906DE 		.ascii	"\354\311\006\336\223\215`\243\213BO6h<yQ\344\311.\215"
 356      938D60A3 
 356      8B424F36 
 356      683C7951 
 356      E4C92E8D 
 357 0da5 271B9827 		.ascii	"'\033\230'/i<\371\006<\211\373\310\300\306\231t\037"
 357      2F693CF9 
 357      063C89FB 
 357      C8C0C699 
 357      741F
 358 0db7 A182F6A9 		.ascii	"\241\202\366\251\307\200\213\314\227\250\314@\316\347"
 358      C7808BCC 
 358      97A8CC40 
 358      CEE7
 359 0dc5 A80CE46D 		.ascii	"\250\014\344m\351\255P\231E\352^\3766\207\355\345%\332"
 359      E9AD5099 
 359      45EA5EFE 
 359      3687EDE5 
 359      25DA
 360 0dd7 BD1CEF75 		.ascii	"\275\034\357ul\3749\275G\303\246X\335\263J\330\236\205"
 360      6CFC39BD 
 360      47C3A658 
 360      DDB34AD8 
 360      9E85
 361 0de9 88F7573F 		.ascii	"\210\367W?\243\010j\345\347\2524\325L\032\330\025J["
 361      A3086AE5 
 361      E7AA34D5 
 361      4C1AD815 
 361      4A5B
 362 0dfb 4EA68490 		.ascii	"N\246\204\220~\334\"\374/_\303\345\227\257cm/.H\362"
 362      7EDC22FC 
 362      2F5FC3E5 
 362      97AF636D 
 362      2F2E48F2 
 363 0e0f CB58FA0F 		.ascii	"\313X\372\017\270\373\255;{B\011\034?(\370\306\307\247"
 363      B8FBAD3B 
 363      7B42091C 
 363      3F28F8C6 
 363      C7A7
 364 0e21 6B2592C3 		.ascii	"k%\222\303\230_\227\226\224]3\361\373\211\272\227\360"
 364      985F9796 
 364      945D33F1 
 364      FB89BA97 
 364      F0
 365 0e32 1B4C0420 		.ascii	"\033L\004 \330\336\022\211\337\300\251\333L\367\216"
 365      D8DE1289 
 365      DFC0A9DB 
 365      4CF78E
 366 0e41 DCE5FDF8 		.ascii	"\334\345\375\370O-z\224\377\001\244\365\251\311\243"
 366      4F2D7A94 
 366      FF01A4F5 
ARM GAS  C:\Users\gjl\AppData\Local\Temp\cc539Vna.s 			page 29


 366      A9C9A3
 367 0e50 964B8B9A 		.ascii	"\226K\213\232\005\321L\346H\327\011 \232\010>@\027\304"
 367      05D14CE6 
 367      48D70920 
 367      9A083E40 
 367      17C4
 368 0e62 7A43A4B4 		.ascii	"zC\244\264\3160OJ\005z\013A\335\007\364\006\3505\320"
 368      CE304F4A 
 368      057A0B41 
 368      DD07F406 
 368      E835D0
 369 0e75 2BA09740 		.ascii	"+\240\227@7\201^\000=\007z\006\364\024\250\027\250\007"
 369      37815E00 
 369      3D077A06 
 369      F414A817 
 369      A807
 370 0e87 E809D063 		.ascii	"\350\011\320c\240G@\235@\035@w\201\332\201\356\000\335"
 370      A047409D 
 370      401D4077 
 370      81DA81EE 
 370      00DD
 371 0e99 066A036A 		.ascii	"\006j\003j\005\272\245Y0\255\374^\331B4:\234\237T1\236"
 371      05BAA559 
 371      30ADFC5E 
 371      D942343A 
 371      9C9F5431 
 372 0eae 5593E505 		.ascii	"U\223\345\005I\200U\326\013x\2622\227{a\330 B\363\377"
 372      498055D6 
 372      0B78B232 
 372      977B61D8 
 372      2042F3FF 
 373 0ec2 8D923718 		.ascii	"\215\2227\030\212m\026a\2538l\231\212m\021a\271\215"
 373      8A6D1661 
 373      AB386C99 
 373      8A6D1161 
 373      B98D
 374 0ed4 E004AFDE 		.ascii	"\340\004\257\336\015\021\230\373W\342\216\334\231\311"
 374      0D1198FB 
 374      57E28EDC 
 374      99C9
 375 0ee2 2CBDD3B7 		.ascii	",\275\323\267\377\2552X)\232nN\204\027\344\316Jf\313"
 375      FFAD3258 
 375      299A6E4E 
 375      8417E4CE 
 375      4A66CB
 376 0ef5 82BE18CC 		.ascii	"\202\276\030\314\226\335\257\274\002\314\234\270\321"
 376      96DDAFBC 
 376      02CC9CB8 
 376      D1
 377 0f02 E4B5FD1C 		.ascii	"\344\265\375\034W\321=\210\355\012\031\256\254\242r"
 377      57D13D88 
 377      ED0A19AE 
 377      ACA272
 378 0f11 BD382774 		.ascii	"\2758't\3619!\015\302\344\2760'tir\302}QN\250\320\344"
 378      F139210D 
 378      C2E4BE30 
 378      27746972 
ARM GAS  C:\Users\gjl\AppData\Local\Temp\cc539Vna.s 			page 30


 378      C27D514E 
 379 0f28 842E9613 		.ascii	"\204.\226\023\272\225\234\360\200\260\267-\374\230\017"
 379      BA959CF0 
 379      80B0B72D 
 379      FC980F
 380 0f37 35C9FD81 		.ascii	"5\311\375\201 \271+\261\274\001\004\373\377\217\345"
 380      20B92BB1 
 380      BC0104FB 
 380      FF8FE5
 381 0f46 49DBADC0 		.ascii	"I\333\255\300\302\234CF|\334\213\3443\332\345{zRU\363"
 381      C29C4346 
 381      7CDC8BE4 
 381      33DAE57B 
 381      7A5255F3 
 382 0f5a D167F62F 		.ascii	"\321g\366/\365J\021\226\257j>\250\330*\021\226\257j"
 382      F54A1196 
 382      AF6A3EA8 
 382      D82A1196 
 382      AF6A
 383 0f6c FA556CB5 		.ascii	"\372Ul\265\010\313\005\363]\025Z#\202r\272\335Q\241"
 383      08CB05F3 
 383      5D155A23 
 383      8272BADD 
 383      51A1
 384 0f7e 67458989 		.ascii	"gE\211\211\257\031o\252\330:\021\226\257\200ZTl\275"
 384      AF196FAA 
 384      D83A1196 
 384      AF805A54 
 384      6CBD
 385 0f90 08CB278B 		.ascii	"\010\313'\2132\025{N\204\325\324\201*\366\274\010"
 385      32157B4E 
 385      84D5D481 
 385      2AF6BC08 
 386 0fa0 CB5BACC0 		.ascii	"\313[\254\300\307\255\351\013\"4_\011\372\224\214uQ"
 386      C7ADE90B 
 386      22345F09 
 386      FA948C75 
 386      51
 387 0fb1 04E56CB6 		.ascii	"\004\345l\266-G>k7B\370\\\232\030>\015\223\"\"+g&\342"
 387      2D473E6B 
 387      3742F85C 
 387      9A183E0D 
 387      9322222B 
 388 0fc8 DFC1DAB9 		.ascii	"\337\301\332\271,\306/\232\270\236\337k\026\325;\315"
 388      2CC62F9A 
 388      B89EDF6B 
 388      16D53BCD 
 389 0fd8 A2C2535A 		.ascii	"\242\302SZ\023d\220\307\354M\030,\244\001\377)\355\003"
 389      136490C7 
 389      EC4D182C 
 389      A401FF29 
 389      ED03
 390 0fea 447BBF26 		.ascii	"D{\277&\332;o\262zd\014&\277\016\223\017LQ`\340\330"
 390      DA3B6FB2 
 390      7A640C26 
 390      BF0E930F 
 390      4C5160E0 
ARM GAS  C:\Users\gjl\AppData\Local\Temp\cc539Vna.s 			page 31


 391 0fff F5       		.ascii	"\365"
 392 1000 5EEDD8D7 		.ascii	"^\355\330\327\344'\350\202\035\205Jc\362\360\035\331"
 392      E427E882 
 392      1D854A63 
 392      F2F01DD9 
 393 1010 72BA1A84 		.ascii	"r\272\032\204\011\256\010'\230\244\334\020\237\254F"
 393      09AE0827 
 393      98A4DC10 
 393      9FAC46
 394 101f 60D88FC2 		.ascii	"`\330\217\302d5\244IV\037E\311\352w3\271\\5\304r\325"
 394      6435A449 
 394      561F45C9 
 394      EA7733B9 
 394      5C35C472 
 395 1034 F0C45C85 		.ascii	"\360\304\\\205\005\303\326\364\031\264`\240R^U\013\206"
 395      05C3D6F4 
 395      19B460A0 
 395      525E550B 
 395      86
 396 1045 8FCCB088 		.ascii	"\217\314\260\210\270\235\315\012\222\001mA\302\0134"
 396      B89DCD0A 
 396      92016D41 
 396      C20B34
 397 1054 CECB9D0C 		.ascii	"\316\313\235\014f\377$\224{\\#\367\247?)\3678\223\333"
 397      66FF2494 
 397      7B5C23F7 
 397      A73F29F7 
 397      3893DB
 398 1067 6BE0E5BE 		.ascii	"k\340\345\276\251\324]\333Pp\352?\237*\370'N\360\254"
 398      A9D45DDB 
 398      5070EA3F 
 398      9F2AF827 
 398      4EF0AC
 399 107a EB9F53C4 		.ascii	"\353\237S\304j\003\354B*b\200L\372\277\223(d\246p\353"
 399      6A03EC42 
 399      2A62804C 
 399      FABF9328 
 399      64A670EB 
 400 108e 78F69FA3 		.ascii	"x\366\237\243[\327\030,R\333\304\240m\235b\027\322\030"
 400      5BD7182C 
 400      52DBC4A0 
 400      6D9D6217 
 400      D218
 401 10a0 68ADC640 		.ascii	"h\255\306@(j\036*C\007\275=Q\031\334-\307\262Cp\267"
 401      286A1E2A 
 401      4307BD3D 
 401      5119DC2D 
 401      C7B24370 
 402 10b5 A4C5DF5D 		.ascii	"\244\305\337]yb\345t0\261\210\034B\237\371DE\3448\026"
 402      7962E574 
 402      30B1881C 
 402      429FF944 
 402      45E43816 
 403 10c9 91747BBA 		.ascii	"\221t{\272\241\026\221>\276\210\2749\213\"\350F{R\225"
 403      A116913E 
 403      BE88BC39 
 403      8B22E846 
ARM GAS  C:\Users\gjl\AppData\Local\Temp\cc539Vna.s 			page 32


 403      7B5295
 404 10dc E6BEBF88 		.ascii	"\346\276\277\210\034m\314\334\2527\370=R\207?Rl-\030"
 404      1C6DCCDC 
 404      AA37F83D 
 404      52873F52 
 404      6C2D18
 405 10ef 39153CF5 		.ascii	"9\025<\365\217(7\031\250/7\032\344\037Q^X[4\024\372"
 405      8F283719 
 405      A82F371A 
 405      E41F515E 
 405      585B3414 
 406 1104 C56E485C 		.ascii	"\305nH\\\336\356\261\334\245\331\373\326\256\247?\242"
 406      DEEEB1DC 
 406      A5D9FBD6 
 406      AEA73FA2 
 407 1114 FC5E4F81 		.ascii	"\374^O\201R\255\372+\262Z\376G\224\233\015\364G\224"
 407      52ADFA2B 
 407      B25AFE47 
 407      949B0DF4 
 407      4794
 408 1126 FBDA0EBD 		.ascii	"\373\332\016\275\222H\376\264\037\371#\312\014\203\340"
 408      9248FEB4 
 408      1FF923CA 
 408      0C83E0
 409 1135 C7A29906 		.ascii	"\307\242\231\006\301\217E\263\260\263\254\353\345;U"
 409      C18F45B3 
 409      B0B3ACEB 
 409      E53B55
 410 1144 BD6CECF4 		.ascii	"\275l\354\364\366\334M5O\255\336\026\246^\216_\275\207"
 410      F6DC4D35 
 410      4FADDE16 
 410      A65E8E5F 
 410      BD87
 411 1156 ED652703 		.ascii	"\355e'\003@\275\335\245^o\031\304X\212\327\233\034N"
 411      40BDDDA5 
 411      5E6F19C4 
 411      588AD79B 
 411      1C4E
 412 1168 4152BA41 		.ascii	"AR\272AQ\015\232\252j[\231j\217\267\356\261k\336\373"
 412      510D9AAA 
 412      6A5B996A 
 412      8FB7EEB1 
 412      6BDEFB
 413 117b D09F94AA 		.ascii	"\320\237\224\252K&\327\300\322\035\275\002\270\276\260"
 413      4B26D7C0 
 413      D21DBD02 
 413      B8BEB0
 414 118a E0A2F607 		.ascii	"\340\242\366\007\006\324v*z\233\214\246\327/\022\027"
 414      06D4762A 
 414      7A9B8CA6 
 414      D72F1217 
 415 119a 2FFDC6EA 		.ascii	"/\375\306\352t[\235q\036\207\313\355\260{\234\361q\326"
 415      745B9D71 
 415      1E87CBED 
 415      B07B9CF1 
 415      71D6
 416 11ac 1887DDE9 		.ascii	"\030\207\335\351\246\015\217\313\3410\376\303\277\374"
ARM GAS  C:\Users\gjl\AppData\Local\Temp\cc539Vna.s 			page 33


 416      A60D8FCB 
 416      E130FEC3 
 416      BFFC
 417 11ba 76EEDF2D 		.ascii	"v\356\337-Z\244\013\266Z\023\001\266\330\352I\226\354"
 417      5AA40BB6 
 417      5A1301B6 
 417      D8EA4996 
 417      EC
 418 11cb 7F1395E0 		.ascii	"\177\023\225\340\212_\352\262-\237\273\304\031\353p"
 418      8A5FEAB2 
 418      2D9FBBC4 
 418      19EB70
 419 11da CF8D4C5A 		.ascii	"\317\215LZ\374\253\277\214\262\257Jp9\334\356\250\004"
 419      FCABBF8C 
 419      B2AF4A70 
 419      39DCEEA8 
 419      04
 420 11eb 77BC7DAE 		.ascii	"w\274}\256\335\345\260y\342]Q\277\\\260H\333\341\\\236"
 420      DDE5B079 
 420      E25D51BF 
 420      5CB048DB 
 420      E15C9E
 421 11fe 10EFF244 		.ascii	"\020\357\362D-\215K\214\262\271\226G\375\325\002\212"
 421      2D8D4B8C 
 421      B2B99647 
 421      FDD5028A 
 422 120e 80D65771 		.ascii	"\200\326Wq\361q\216\257\034\266hg\2243\316\036\233\030"
 422      F1718EAF 
 422      1CB66867 
 422      9433CE1E 
 422      9B18
 423 1220 E3885A6E 		.ascii	"\343\210Zn\263/s\3069\242@\244%\266\304X\217\325\263"
 423      B32F73C6 
 423      39A240A4 
 423      25B6C458 
 423      8FD5B3
 424 1233 2AC1E15E 		.ascii	"*\301\341^\260L\027$\213\262\342\377J\022\367*w\224"
 424      B04C1724 
 424      8BB2E2FF 
 424      4A12F72A 
 424      7794
 425 1245 D5ED8981 		.ascii	"\325\355\211\201iaz3\263\033\225\301\352\231\265`A\024"
 425      69617A33 
 425      B31B95C1 
 425      EA99B560 
 425      4114
 426 1257 FCD19E28 		.ascii	"\374\321\236(\273\333eg-\300\314\023\365k\014\275\300"
 426      BBDB6567 
 426      2DC0CC13 
 426      F56B0CBD 
 426      C0
 427 1268 AEFB19EB 		.ascii	"\256\373\031\353\374\215\3737|w\202\315\345Y\260\320"
 427      FC8DFB37 
 427      7C7782CD 
 427      E559B0D0 
 428 1278 14E3B2AD 		.ascii	"\024\343\262\255\264\332\343c\343]\241KcW%,\263&Y\343"
 428      B4DAE363 
ARM GAS  C:\Users\gjl\AppData\Local\Temp\cc539Vna.s 			page 34


 428      E35DA14B 
 428      6357252C 
 428      B32659E3 
 429 128c 972C713B 		.ascii	"\227,q;<F\253\025\265\017\304\313\264%\361 \210\313"
 429      3C46AB15 
 429      B50FC4CB 
 429      B425F120 
 429      88CB
 430 129e B104CCE4 		.ascii	"\261\004\314\344\266;\342<aJ\207\215\361\010X\346p."
 430      B63BE23C 
 430      614A878D 
 430      F10858E6 
 430      702E
 431 12b0 5DE6B12E 		.ascii	"]\346\261.\217\217q\004\263\016g\334\222\370\351n\017"
 431      8F8F7104 
 431      B30E67DC 
 431      92F8E96E 
 431      0F
 432 12c1 CC664D88 		.ascii	"\314fM\210w[c\343W:\\V\233\011\375\274\350WV\217\321"
 432      775B63E3 
 432      573A5C56 
 432      9B09FDBC 
 432      E857568F 
 433 12d6 DFE05089 		.ascii	"\337\340P\211\011\011\200\372\316\"Oe\005amf\233\332"
 433      090980FA 
 433      CE224F65 
 433      05616D66 
 433      9BDA
 434 12e8 0EF6DF58 		.ascii	"\016\366\337Xj\224{\2773\256\362\013\356\327 l\271-"
 434      6A947BBF 
 434      33AEF20B 
 434      EED7206C 
 434      B92D
 435 12fa C96A5F66 		.ascii	"\311j_fs\311B\205*\374Jg\214g\331\264h\247\307m\245"
 435      73C94285 
 435      2AFC4A67 
 435      8C67D9B4 
 435      68A7C76D 
 436 130f F3C43862 		.ascii	"\363\3048b=6kR\230\322\301@\253&\360I3\264<\016\032"
 436      3D366B52 
 436      98D2C140 
 436      AB26F049 
 436      33B43C0E 
 437 1324 A1ED6423 		.ascii	"\241\355d#\233\224\276Ejs\2411::\011\355\202\206\266"
 437      9B94BE45 
 437      6A73A131 
 437      3A3A09ED 
 437      8286B6
 438 1337 C779A65B 		.ascii	"\307y\246[\231g\024;im\020\347\264\003z\332D\210\231"
 438      9967143B 
 438      696D10E7 
 438      B4037ADA 
 438      448899
 439 134a B561F9C0 		.ascii	"\265a\371\300Mc\364Rt\236q\211\334\010\205u\346q\331"
 439      4D63F452 
 439      749E7189 
 439      DC088575 
ARM GAS  C:\Users\gjl\AppData\Local\Temp\cc539Vna.s 			page 35


 439      E671D9
 440 135d E2DC6026 		.ascii	"\342\334`&\260K(\342\254 \006\035\324\202S\243\350f"
 440      B04B28E2 
 440      AC20061D 
 440      D48253A3 
 440      E866
 441 136f 6498C8D2 		.ascii	"d\230\310\322*)\311\010S/ux\254\253\374\215$\223\374"
 441      2A29C908 
 441      532F7578 
 441      ACABFC8D 
 441      2493FC
 442 1382 7482C715 		.ascii	"t\202\307\025\301\211*\367zH\214\323\025>\271;\224q"
 442      C1892AF7 
 442      7A488CD3 
 442      153EB93B 
 442      9471
 443 1394 765BACDD 		.ascii	"v[\254\335\272\002\302\343\317T\204\322g]\022\007c\032"
 443      BA02C2E3 
 443      CF5484D2 
 443      675D1207 
 443      631A
 444 13a6 686750A2 		.ascii	"hgP\242\033\254\263j\221|]\210\327$\231OZ\030\210\302"
 444      1BACB36A 
 444      917C5D88 
 444      D724994F 
 444      5A1888C2 
 445 13ba 06303103 		.ascii	"\00601\003\243\023\227\000\026/\013C\023\234I\216X\253"
 445      A3139700 
 445      162F0B43 
 445      139C498E 
 445      58AB
 446 13cc 3DD1E5B2 		.ascii	"=\321\345\262\272\342WNC\226\336\303g\302\324\016\366"
 446      BAE2574E 
 446      4396DEC3 
 446      67C2D40E 
 446      F6
 447 13dd 74880716 		.ascii	"t\210\007\026\257\002\017c\234\212\266(<\210\246\267"
 447      AF020F63 
 447      9C8AB628 
 447      3C88A6B7 
 448 13ed 47072626 		.ascii	"G\007&&\304\330<\216\331\270\012Y\333\032\343\\\356"
 448      C4D83C8E 
 448      D9B80A59 
 448      DB1AE35C 
 448      EE
 449 13fe 886359CB 		.ascii	"\210cY\313\036\035\312n\330\243a\301\272\022\355\036"
 449      1E1DCA6E 
 449      D8A361C1 
 449      BA12ED1E 
 450 140e 235B49B1 		.ascii	"#[I\261\277^\210\016\363s\000\010\366\003=\301\261\261"
 450      BF5E880E 
 450      F3730008 
 450      F6033DC1 
 450      B1B1
 451 1420 D6652B62 		.ascii	"\326e+b!\331\314\344@\376>\200\030\022\027'-\006\237"
 451      21D9CCE4 
 451      40FE3E80 
ARM GAS  C:\Users\gjl\AppData\Local\Temp\cc539Vna.s 			page 36


 451      18121727 
 451      2D069F
 452 1433 45C727C6 		.ascii	"E\307'\306\331\03502L:Kacmn\360\2423\016\373\177\246"
 452      D91D3032 
 452      4C3A4B61 
 452      636D6EF0 
 452      A2330EFB 
 453 1449 F4FBF396 		.ascii	"\364\373\363\226r\313\2744\301\031\017K\323\015\275"
 453      72CBBC34 
 453      C1190F4B 
 453      D30DBD
 454 1458 A644CF92 		.ascii	"\246D\317\222\305\330\015\003\257p\002\336\026\023C"
 454      C5D80D03 
 454      AF7002DE 
 454      161343
 455 1467 F396D9F9 		.ascii	"\363\226\331\371\215\335\312\342\315\021\303\332r\377"
 455      8DDDCAE2 
 455      CD11C3DA 
 455      72FF
 456 1475 0C082139 		.ascii	"\014\010!9\336V\320|\301\202\326\350\210\003\357:\343"
 456      DE56D07C 
 456      C182D6E8 
 456      8803EF3A 
 456      E3
 457 1486 964E6763 		.ascii	"\226Ngc\333\342b\350\262\261\255\002\241\315Th\353r"
 457      DBE262E8 
 457      B2B1AD02 
 457      A1CD5468 
 457      EB72
 458 1498 37446074 		.ascii	"7D`tP\364*\017U$\320n\213\201\213)\306\351N@TP\234#"
 458      50F42A0F 
 458      5524D06E 
 458      8B818B29 
 458      C6E94E40 
 459 14b0 092220DA 		.ascii	"\011\" \332\302\320l\261\000\343\277OC\333\214\356b"
 459      C2D06CB1 
 459      00E3BF4F 
 459      43DB8CEE 
 459      62
 460 14c1 AE9ABE24 		.ascii	"\256\232\276$\326\231@\347U\362\3214\277\226\376\016"
 460      D69940E7 
 460      55F2D134 
 460      BF96FE0E 
 461 14d1 33F317FA 		.ascii	"3\363\027\372\316\304\332\354\311\031+]N\020!!1\326"
 461      CEC4DAEC 
 461      C9192B5D 
 461      4E102121 
 461      31D6
 462 14e3 2DF758E3 		.ascii	"-\367X\343\334\341\340=\233\025\036JL\260z\300\207\320"
 462      DCE1E03D 
 462      9B151E4A 
 462      4CB07AC0 
 462      87D0
 463 14f5 35836A1C 		.ascii	"5\203j\034\235\350\266\332c\343\355\277\267.Z\270\360"
 463      9DE8B6DA 
 463      63E3EDBF 
 463      B72E5AB8 
ARM GAS  C:\Users\gjl\AppData\Local\Temp\cc539Vna.s 			page 37


 463      F0
 464 1506 F7FFF807 		.ascii	"\367\377\370\007\243;\301\311\324\265\270\241\017\357"
 464      A33BC1C9 
 464      D4B5B8A1 
 464      0FEF
 465 1514 2CFB839C 		.ascii	",\373\203\234\254\276\375FNV\264\021N\001\332I\246\273"
 465      ACBEFD46 
 465      4E56B411 
 465      4E01DA49 
 465      A6BB
 466 1526 6326CC11 		.ascii	"c&\314\021\016K\216\246H\350\264\256\264\301\022\\\356"
 466      0E4B8EA6 
 466      48E8B4AE 
 466      B4C1125C 
 466      EE
 467 1537 9E811CFF 		.ascii	"\236\201\034\377\344r\367l\330G\300$\316\004\0100\267"
 467      E472F76C 
 467      D847C024 
 467      CE040830 
 467      B7
 468 1548 2D9AAA42 		.ascii	"-\232\252B\321qp\203\016\300\3568\342\370\033\341\032"
 468      D1717083 
 468      0EC0EE38 
 468      E2F81BE1 
 468      1A
 469 1559 74AC6385 		.ascii	"t\254c\205#v:\017c=\263\231\251y\023\313\261jAK\243"
 469      23763A0F 
 469      633DB399 
 469      A97913CB 
 469      B16A414B 
 470 156e ED045B4B 		.ascii	"\355\004[K\322b\330Z\"&?\355AW\343 \021J\374a\240\321"
 470      D262D85A 
 470      22263FED 
 470      4157E320 
 470      114AFC61 
 471 1584 080864F7 		.ascii	"\010\010d\367=\270s!,\034\242\311\226\350\211\207\274"
 471      3DB87321 
 471      2C1CA2C9 
 471      96E88987 
 471      BC
 472 1595 BD14948C 		.ascii	"\275\024\224\214u\330\\\201\354\266'B\260-\3757\274"
 472      75D85C81 
 472      ECB62742 
 472      B02DFD37 
 472      BC
 473 15a6 DEC10F   		.ascii	"\336\301\017"
 474              		.text
 475              		.section	.gnu.lto_.symtab.1a38245,"",%progbits
 476 0000 75386732 		.ascii	"u8g2_is_intersection_decision_tree\000"
 476      5F69735F 
 476      696E7465 
 476      72736563 
 476      74696F6E 
 477 0023 00       		.ascii	"\000"
 478 0024 00       		.ascii	"\000"
 479 0025 00       		.ascii	"\000"
 480 0026 00000000 		.ascii	"\000\000\000\000\000\000\000\000"
ARM GAS  C:\Users\gjl\AppData\Local\Temp\cc539Vna.s 			page 38


 480      00000000 
 481 002e BC000000 		.ascii	"\274\000\000\000"
 482 0032 75386732 		.ascii	"u8g2_IsIntersection\000"
 482      5F497349 
 482      6E746572 
 482      73656374 
 482      696F6E00 
 483 0046 00       		.ascii	"\000"
 484 0047 00       		.ascii	"\000"
 485 0048 00       		.ascii	"\000"
 486 0049 00000000 		.ascii	"\000\000\000\000\000\000\000\000"
 486      00000000 
 487 0051 15020000 		.ascii	"\025\002\000\000"
 488              		.text
 489              		.section	.gnu.lto_.opts,"",%progbits
 490 0000 272D666D 		.ascii	"'-fmath-errno' '-fsigned-zeros' '-ftrapping-math' '"
 490      6174682D 
 490      6572726E 
 490      6F272027 
 490      2D667369 
 491 0033 2D666E6F 		.ascii	"-fno-trapv' '-fno-openmp' '-fno-openacc' '-mcpu=cor"
 491      2D747261 
 491      70762720 
 491      272D666E 
 491      6F2D6F70 
 492 0066 7465782D 		.ascii	"tex-m0' '-mthumb' '-g' '-Os' '-ffunction-sections' "
 492      6D302720 
 492      272D6D74 
 492      68756D62 
 492      2720272D 
 493 0099 272D6666 		.ascii	"'-ffat-lto-objects' '-flto'\000"
 493      61742D6C 
 493      746F2D6F 
 493      626A6563 
 493      74732720 
 494              		.text
 495              		.cfi_sections	.debug_frame
 496              		.section	.text.u8g2_is_intersection_decision_tree,"ax",%progbits
 497              		.align	1
 498              		.global	u8g2_is_intersection_decision_tree
 499              		.code	16
 500              		.thumb_func
 501              		.type	u8g2_is_intersection_decision_tree, %function
 502              	u8g2_is_intersection_decision_tree:
 503              	.LFB0:
 504              		.file 1 "..\\..\\u8g2\\csrc\\u8g2_intersection.c"
   1:..\..\u8g2\csrc/u8g2_intersection.c **** /*
   2:..\..\u8g2\csrc/u8g2_intersection.c **** 
   3:..\..\u8g2\csrc/u8g2_intersection.c ****   u8g2_intersection.c 
   4:..\..\u8g2\csrc/u8g2_intersection.c ****   
   5:..\..\u8g2\csrc/u8g2_intersection.c ****   Intersection calculation, code taken from u8g_clip.c
   6:..\..\u8g2\csrc/u8g2_intersection.c **** 
   7:..\..\u8g2\csrc/u8g2_intersection.c ****   Universal 8bit Graphics Library (https://github.com/olikraus/u8g2/)
   8:..\..\u8g2\csrc/u8g2_intersection.c **** 
   9:..\..\u8g2\csrc/u8g2_intersection.c ****   Copyright (c) 2016, olikraus@gmail.com
  10:..\..\u8g2\csrc/u8g2_intersection.c ****   All rights reserved.
  11:..\..\u8g2\csrc/u8g2_intersection.c **** 
ARM GAS  C:\Users\gjl\AppData\Local\Temp\cc539Vna.s 			page 39


  12:..\..\u8g2\csrc/u8g2_intersection.c ****   Redistribution and use in source and binary forms, with or without modification, 
  13:..\..\u8g2\csrc/u8g2_intersection.c ****   are permitted provided that the following conditions are met:
  14:..\..\u8g2\csrc/u8g2_intersection.c **** 
  15:..\..\u8g2\csrc/u8g2_intersection.c ****   * Redistributions of source code must retain the above copyright notice, this list 
  16:..\..\u8g2\csrc/u8g2_intersection.c ****     of conditions and the following disclaimer.
  17:..\..\u8g2\csrc/u8g2_intersection.c ****     
  18:..\..\u8g2\csrc/u8g2_intersection.c ****   * Redistributions in binary form must reproduce the above copyright notice, this 
  19:..\..\u8g2\csrc/u8g2_intersection.c ****     list of conditions and the following disclaimer in the documentation and/or other 
  20:..\..\u8g2\csrc/u8g2_intersection.c ****     materials provided with the distribution.
  21:..\..\u8g2\csrc/u8g2_intersection.c **** 
  22:..\..\u8g2\csrc/u8g2_intersection.c ****   THIS SOFTWARE IS PROVIDED BY THE COPYRIGHT HOLDERS AND 
  23:..\..\u8g2\csrc/u8g2_intersection.c ****   CONTRIBUTORS "AS IS" AND ANY EXPRESS OR IMPLIED WARRANTIES, 
  24:..\..\u8g2\csrc/u8g2_intersection.c ****   INCLUDING, BUT NOT LIMITED TO, THE IMPLIED WARRANTIES OF 
  25:..\..\u8g2\csrc/u8g2_intersection.c ****   MERCHANTABILITY AND FITNESS FOR A PARTICULAR PURPOSE ARE 
  26:..\..\u8g2\csrc/u8g2_intersection.c ****   DISCLAIMED. IN NO EVENT SHALL THE COPYRIGHT HOLDER OR 
  27:..\..\u8g2\csrc/u8g2_intersection.c ****   CONTRIBUTORS BE LIABLE FOR ANY DIRECT, INDIRECT, INCIDENTAL, 
  28:..\..\u8g2\csrc/u8g2_intersection.c ****   SPECIAL, EXEMPLARY, OR CONSEQUENTIAL DAMAGES (INCLUDING, BUT 
  29:..\..\u8g2\csrc/u8g2_intersection.c ****   NOT LIMITED TO, PROCUREMENT OF SUBSTITUTE GOODS OR SERVICES; 
  30:..\..\u8g2\csrc/u8g2_intersection.c ****   LOSS OF USE, DATA, OR PROFITS; OR BUSINESS INTERRUPTION) HOWEVER 
  31:..\..\u8g2\csrc/u8g2_intersection.c ****   CAUSED AND ON ANY THEORY OF LIABILITY, WHETHER IN CONTRACT, 
  32:..\..\u8g2\csrc/u8g2_intersection.c ****   STRICT LIABILITY, OR TORT (INCLUDING NEGLIGENCE OR OTHERWISE) 
  33:..\..\u8g2\csrc/u8g2_intersection.c ****   ARISING IN ANY WAY OUT OF THE USE OF THIS SOFTWARE, EVEN IF 
  34:..\..\u8g2\csrc/u8g2_intersection.c ****   ADVISED OF THE POSSIBILITY OF SUCH DAMAGE.  
  35:..\..\u8g2\csrc/u8g2_intersection.c **** 
  36:..\..\u8g2\csrc/u8g2_intersection.c **** */
  37:..\..\u8g2\csrc/u8g2_intersection.c **** 
  38:..\..\u8g2\csrc/u8g2_intersection.c **** #include "u8g2.h"
  39:..\..\u8g2\csrc/u8g2_intersection.c **** 
  40:..\..\u8g2\csrc/u8g2_intersection.c **** #ifdef __GNUC__
  41:..\..\u8g2\csrc/u8g2_intersection.c **** #define U8G2_ALWAYS_INLINE __inline__ __attribute__((always_inline))
  42:..\..\u8g2\csrc/u8g2_intersection.c **** #else
  43:..\..\u8g2\csrc/u8g2_intersection.c **** #define U8G2_ALWAYS_INLINE
  44:..\..\u8g2\csrc/u8g2_intersection.c **** #endif 
  45:..\..\u8g2\csrc/u8g2_intersection.c **** 
  46:..\..\u8g2\csrc/u8g2_intersection.c **** 
  47:..\..\u8g2\csrc/u8g2_intersection.c **** #ifdef U8G2_WITH_INTERSECTION    
  48:..\..\u8g2\csrc/u8g2_intersection.c **** 
  49:..\..\u8g2\csrc/u8g2_intersection.c **** #ifdef OLD_VERSION_WITH_SYMETRIC_BOUNDARIES
  50:..\..\u8g2\csrc/u8g2_intersection.c **** 
  51:..\..\u8g2\csrc/u8g2_intersection.c **** /*
  52:..\..\u8g2\csrc/u8g2_intersection.c ****   intersection assumptions:
  53:..\..\u8g2\csrc/u8g2_intersection.c ****     a1 <= a2 is always true    
  54:..\..\u8g2\csrc/u8g2_intersection.c ****     
  55:..\..\u8g2\csrc/u8g2_intersection.c ****     minimized version
  56:..\..\u8g2\csrc/u8g2_intersection.c ****     ---1----0 1             b1 <= a2 && b1 > b2
  57:..\..\u8g2\csrc/u8g2_intersection.c ****     -----1--0 1             b2 >= a1 && b1 > b2
  58:..\..\u8g2\csrc/u8g2_intersection.c ****     ---1-1--- 1             b1 <= a2 && b2 >= a1
  59:..\..\u8g2\csrc/u8g2_intersection.c ****   */
  60:..\..\u8g2\csrc/u8g2_intersection.c **** 
  61:..\..\u8g2\csrc/u8g2_intersection.c **** 
  62:..\..\u8g2\csrc/u8g2_intersection.c **** /*
  63:..\..\u8g2\csrc/u8g2_intersection.c ****   calculate the intersection between a0/a1 and v0/v1
  64:..\..\u8g2\csrc/u8g2_intersection.c ****   The intersection check returns one if the range of a0/a1 has an intersection with v0/v1.
  65:..\..\u8g2\csrc/u8g2_intersection.c ****   The intersection check includes the boundary values v1 and a1.
  66:..\..\u8g2\csrc/u8g2_intersection.c **** 
  67:..\..\u8g2\csrc/u8g2_intersection.c ****   The following asserts will succeed:
  68:..\..\u8g2\csrc/u8g2_intersection.c ****     assert( u8g2_is_intersection_decision_tree(4, 6, 7, 9) == 0 );
ARM GAS  C:\Users\gjl\AppData\Local\Temp\cc539Vna.s 			page 40


  69:..\..\u8g2\csrc/u8g2_intersection.c ****     assert( u8g2_is_intersection_decision_tree(4, 6, 6, 9) != 0 );
  70:..\..\u8g2\csrc/u8g2_intersection.c ****     assert( u8g2_is_intersection_decision_tree(6, 9, 4, 6) != 0 );
  71:..\..\u8g2\csrc/u8g2_intersection.c ****     assert( u8g2_is_intersection_decision_tree(7, 9, 4, 6) == 0 );  
  72:..\..\u8g2\csrc/u8g2_intersection.c **** */
  73:..\..\u8g2\csrc/u8g2_intersection.c **** 
  74:..\..\u8g2\csrc/u8g2_intersection.c **** //static uint8_t U8G2_ALWAYS_INLINE u8g2_is_intersection_decision_tree(u8g_uint_t a0, u8g_uint_t a1
  75:..\..\u8g2\csrc/u8g2_intersection.c **** static uint8_t u8g2_is_intersection_decision_tree(u8g2_uint_t a0, u8g2_uint_t a1, u8g2_uint_t v0, u
  76:..\..\u8g2\csrc/u8g2_intersection.c **** {
  77:..\..\u8g2\csrc/u8g2_intersection.c ****   if ( v0 <= a1 )
  78:..\..\u8g2\csrc/u8g2_intersection.c ****   {
  79:..\..\u8g2\csrc/u8g2_intersection.c ****     if ( v1 >= a0 )
  80:..\..\u8g2\csrc/u8g2_intersection.c ****     {
  81:..\..\u8g2\csrc/u8g2_intersection.c ****       return 1;
  82:..\..\u8g2\csrc/u8g2_intersection.c ****     }
  83:..\..\u8g2\csrc/u8g2_intersection.c ****     else
  84:..\..\u8g2\csrc/u8g2_intersection.c ****     {
  85:..\..\u8g2\csrc/u8g2_intersection.c ****       if ( v0 > v1 )
  86:..\..\u8g2\csrc/u8g2_intersection.c ****       {
  87:..\..\u8g2\csrc/u8g2_intersection.c **** 	return 1;
  88:..\..\u8g2\csrc/u8g2_intersection.c ****       }
  89:..\..\u8g2\csrc/u8g2_intersection.c ****       else
  90:..\..\u8g2\csrc/u8g2_intersection.c ****       {
  91:..\..\u8g2\csrc/u8g2_intersection.c **** 	return 0;
  92:..\..\u8g2\csrc/u8g2_intersection.c ****       }
  93:..\..\u8g2\csrc/u8g2_intersection.c ****     }
  94:..\..\u8g2\csrc/u8g2_intersection.c ****   }
  95:..\..\u8g2\csrc/u8g2_intersection.c ****   else
  96:..\..\u8g2\csrc/u8g2_intersection.c ****   {
  97:..\..\u8g2\csrc/u8g2_intersection.c ****     if ( v1 >= a0 )
  98:..\..\u8g2\csrc/u8g2_intersection.c ****     {
  99:..\..\u8g2\csrc/u8g2_intersection.c ****       if ( v0 > v1 )
 100:..\..\u8g2\csrc/u8g2_intersection.c ****       {
 101:..\..\u8g2\csrc/u8g2_intersection.c **** 	return 1;
 102:..\..\u8g2\csrc/u8g2_intersection.c ****       }
 103:..\..\u8g2\csrc/u8g2_intersection.c ****       else
 104:..\..\u8g2\csrc/u8g2_intersection.c ****       {
 105:..\..\u8g2\csrc/u8g2_intersection.c **** 	return 0;
 106:..\..\u8g2\csrc/u8g2_intersection.c ****       }
 107:..\..\u8g2\csrc/u8g2_intersection.c ****     }
 108:..\..\u8g2\csrc/u8g2_intersection.c ****     else
 109:..\..\u8g2\csrc/u8g2_intersection.c ****     {
 110:..\..\u8g2\csrc/u8g2_intersection.c ****       return 0;
 111:..\..\u8g2\csrc/u8g2_intersection.c ****     }
 112:..\..\u8g2\csrc/u8g2_intersection.c ****   }
 113:..\..\u8g2\csrc/u8g2_intersection.c **** }
 114:..\..\u8g2\csrc/u8g2_intersection.c **** 
 115:..\..\u8g2\csrc/u8g2_intersection.c **** #endif	/* OLD_VERSION_WITH_SYMETRIC_BOUNDARIES */
 116:..\..\u8g2\csrc/u8g2_intersection.c **** 
 117:..\..\u8g2\csrc/u8g2_intersection.c **** 
 118:..\..\u8g2\csrc/u8g2_intersection.c **** /*
 119:..\..\u8g2\csrc/u8g2_intersection.c ****   version with asymetric boundaries.
 120:..\..\u8g2\csrc/u8g2_intersection.c ****   a1 and v1 are excluded
 121:..\..\u8g2\csrc/u8g2_intersection.c ****   v0 == v1 is not support end return 1
 122:..\..\u8g2\csrc/u8g2_intersection.c **** */
 123:..\..\u8g2\csrc/u8g2_intersection.c **** uint8_t u8g2_is_intersection_decision_tree(u8g2_uint_t a0, u8g2_uint_t a1, u8g2_uint_t v0, u8g2_uin
 124:..\..\u8g2\csrc/u8g2_intersection.c **** {
 505              		.loc 1 124 0
ARM GAS  C:\Users\gjl\AppData\Local\Temp\cc539Vna.s 			page 41


 506              		.cfi_startproc
 507              		@ args = 0, pretend = 0, frame = 0
 508              		@ frame_needed = 0, uses_anonymous_args = 0
 509              		@ link register save eliminated.
 510              	.LVL0:
 125:..\..\u8g2\csrc/u8g2_intersection.c ****   if ( v0 < a1 )		// v0 <= a1
 511              		.loc 1 125 0
 512 0000 8A42     		cmp	r2, r1
 513 0002 06D2     		bcs	.L2
 126:..\..\u8g2\csrc/u8g2_intersection.c ****   {
 127:..\..\u8g2\csrc/u8g2_intersection.c ****     if ( v1 > a0 )	// v1 >= a0
 128:..\..\u8g2\csrc/u8g2_intersection.c ****     {
 129:..\..\u8g2\csrc/u8g2_intersection.c ****       return 1;
 514              		.loc 1 129 0
 515 0004 0121     		movs	r1, #1
 516              	.LVL1:
 127:..\..\u8g2\csrc/u8g2_intersection.c ****     {
 517              		.loc 1 127 0
 518 0006 8342     		cmp	r3, r0
 519 0008 06D8     		bhi	.L3
 520              	.L4:
 521              		.loc 1 129 0
 522 000a 9342     		cmp	r3, r2
 523 000c 9B41     		sbcs	r3, r3, r3
 524              	.LVL2:
 525 000e 5942     		rsbs	r1, r3, #0
 526 0010 02E0     		b	.L3
 527              	.LVL3:
 528              	.L2:
 130:..\..\u8g2\csrc/u8g2_intersection.c ****     }
 131:..\..\u8g2\csrc/u8g2_intersection.c ****     else
 132:..\..\u8g2\csrc/u8g2_intersection.c ****     {
 133:..\..\u8g2\csrc/u8g2_intersection.c ****       if ( v0 > v1 )	// v0 > v1
 134:..\..\u8g2\csrc/u8g2_intersection.c ****       {
 135:..\..\u8g2\csrc/u8g2_intersection.c **** 	return 1;
 136:..\..\u8g2\csrc/u8g2_intersection.c ****       }
 137:..\..\u8g2\csrc/u8g2_intersection.c ****       else
 138:..\..\u8g2\csrc/u8g2_intersection.c ****       {
 139:..\..\u8g2\csrc/u8g2_intersection.c **** 	return 0;
 140:..\..\u8g2\csrc/u8g2_intersection.c ****       }
 141:..\..\u8g2\csrc/u8g2_intersection.c ****     }
 142:..\..\u8g2\csrc/u8g2_intersection.c ****   }
 143:..\..\u8g2\csrc/u8g2_intersection.c ****   else
 144:..\..\u8g2\csrc/u8g2_intersection.c ****   {
 145:..\..\u8g2\csrc/u8g2_intersection.c ****     if ( v1 > a0 )	// v1 >= a0
 529              		.loc 1 145 0
 530 0012 8342     		cmp	r3, r0
 531 0014 F9D8     		bhi	.L4
 146:..\..\u8g2\csrc/u8g2_intersection.c ****     {
 147:..\..\u8g2\csrc/u8g2_intersection.c ****       if ( v0 > v1 )	// v0 > v1
 148:..\..\u8g2\csrc/u8g2_intersection.c ****       {
 149:..\..\u8g2\csrc/u8g2_intersection.c **** 	return 1;
 150:..\..\u8g2\csrc/u8g2_intersection.c ****       }
 151:..\..\u8g2\csrc/u8g2_intersection.c ****       else
 152:..\..\u8g2\csrc/u8g2_intersection.c ****       {
 153:..\..\u8g2\csrc/u8g2_intersection.c **** 	return 0;
 154:..\..\u8g2\csrc/u8g2_intersection.c ****       }
ARM GAS  C:\Users\gjl\AppData\Local\Temp\cc539Vna.s 			page 42


 155:..\..\u8g2\csrc/u8g2_intersection.c ****     }
 156:..\..\u8g2\csrc/u8g2_intersection.c ****     else
 157:..\..\u8g2\csrc/u8g2_intersection.c ****     {
 158:..\..\u8g2\csrc/u8g2_intersection.c ****       return 0;
 532              		.loc 1 158 0
 533 0016 0021     		movs	r1, #0
 534              	.LVL4:
 535              	.L3:
 159:..\..\u8g2\csrc/u8g2_intersection.c ****     }
 160:..\..\u8g2\csrc/u8g2_intersection.c ****   }
 161:..\..\u8g2\csrc/u8g2_intersection.c **** }
 536              		.loc 1 161 0
 537 0018 0800     		movs	r0, r1
 538              	.LVL5:
 539              		@ sp needed
 540 001a 7047     		bx	lr
 541              		.cfi_endproc
 542              	.LFE0:
 543              		.size	u8g2_is_intersection_decision_tree, .-u8g2_is_intersection_decision_tree
 544              		.section	.text.u8g2_IsIntersection,"ax",%progbits
 545              		.align	1
 546              		.global	u8g2_IsIntersection
 547              		.code	16
 548              		.thumb_func
 549              		.type	u8g2_IsIntersection, %function
 550              	u8g2_IsIntersection:
 551              	.LFB1:
 162:..\..\u8g2\csrc/u8g2_intersection.c **** 
 163:..\..\u8g2\csrc/u8g2_intersection.c **** 
 164:..\..\u8g2\csrc/u8g2_intersection.c **** 
 165:..\..\u8g2\csrc/u8g2_intersection.c **** /* upper limits are not included (asymetric boundaries) */
 166:..\..\u8g2\csrc/u8g2_intersection.c **** uint8_t u8g2_IsIntersection(u8g2_t *u8g2, u8g2_uint_t x0, u8g2_uint_t y0, u8g2_uint_t x1, u8g2_uint
 167:..\..\u8g2\csrc/u8g2_intersection.c **** {
 552              		.loc 1 167 0
 553              		.cfi_startproc
 554              		@ args = 4, pretend = 0, frame = 0
 555              		@ frame_needed = 0, uses_anonymous_args = 0
 556              	.LVL6:
 557 0000 70B5     		push	{r4, r5, r6, lr}
 558              		.cfi_def_cfa_offset 16
 559              		.cfi_offset 4, -16
 560              		.cfi_offset 5, -12
 561              		.cfi_offset 6, -8
 562              		.cfi_offset 14, -4
 563              		.loc 1 167 0
 564 0002 0D00     		movs	r5, r1
 168:..\..\u8g2\csrc/u8g2_intersection.c ****   if ( u8g2_is_intersection_decision_tree(u8g2->user_y0, u8g2->user_y1, y0, y1) == 0 )
 565              		.loc 1 168 0
 566 0004 0100     		movs	r1, r0
 567              	.LVL7:
 167:..\..\u8g2\csrc/u8g2_intersection.c ****   if ( u8g2_is_intersection_decision_tree(u8g2->user_y0, u8g2->user_y1, y0, y1) == 0 )
 568              		.loc 1 167 0
 569 0006 0400     		movs	r4, r0
 570 0008 1E00     		movs	r6, r3
 571              		.loc 1 168 0
 572 000a 4431     		adds	r1, r1, #68
 167:..\..\u8g2\csrc/u8g2_intersection.c ****   if ( u8g2_is_intersection_decision_tree(u8g2->user_y0, u8g2->user_y1, y0, y1) == 0 )
ARM GAS  C:\Users\gjl\AppData\Local\Temp\cc539Vna.s 			page 43


 573              		.loc 1 167 0
 574 000c 04AB     		add	r3, sp, #16
 575              	.LVL8:
 576              		.loc 1 168 0
 577 000e 4330     		adds	r0, r0, #67
 578              	.LVL9:
 167:..\..\u8g2\csrc/u8g2_intersection.c ****   if ( u8g2_is_intersection_decision_tree(u8g2->user_y0, u8g2->user_y1, y0, y1) == 0 )
 579              		.loc 1 167 0
 580 0010 1B78     		ldrb	r3, [r3]
 581              	.LVL10:
 582              		.loc 1 168 0
 583 0012 0978     		ldrb	r1, [r1]
 584 0014 0078     		ldrb	r0, [r0]
 585 0016 FFF7FEFF 		bl	u8g2_is_intersection_decision_tree
 586              	.LVL11:
 587 001a 0028     		cmp	r0, #0
 588 001c 08D0     		beq	.L8
 589              	.LVL12:
 590              	.LBB4:
 591              	.LBB5:
 169:..\..\u8g2\csrc/u8g2_intersection.c ****     return 0; 
 170:..\..\u8g2\csrc/u8g2_intersection.c ****   
 171:..\..\u8g2\csrc/u8g2_intersection.c ****   return u8g2_is_intersection_decision_tree(u8g2->user_x0, u8g2->user_x1, x0, x1);
 592              		.loc 1 171 0
 593 001e 2300     		movs	r3, r4
 594 0020 4134     		adds	r4, r4, #65
 595              	.LVL13:
 596 0022 4233     		adds	r3, r3, #66
 597              	.LVL14:
 598 0024 1978     		ldrb	r1, [r3]
 599 0026 2078     		ldrb	r0, [r4]
 600 0028 3300     		movs	r3, r6
 601              	.LVL15:
 602 002a 2A00     		movs	r2, r5
 603 002c FFF7FEFF 		bl	u8g2_is_intersection_decision_tree
 604              	.LVL16:
 605              	.L8:
 606              	.LBE5:
 607              	.LBE4:
 172:..\..\u8g2\csrc/u8g2_intersection.c **** }
 608              		.loc 1 172 0
 609              		@ sp needed
 610 0030 70BD     		pop	{r4, r5, r6, pc}
 611              		.cfi_endproc
 612              	.LFE1:
 613              		.size	u8g2_IsIntersection, .-u8g2_IsIntersection
 614              		.text
 615              	.Letext0:
 616              		.file 2 "c:\\program files (x86)\\cypress\\psoc creator\\4.1\\psoc creator\\import\\gnu\\arm\\5.4.
 617              		.file 3 "c:\\program files (x86)\\cypress\\psoc creator\\4.1\\psoc creator\\import\\gnu\\arm\\5.4.
 618              		.file 4 "..\\..\\u8g2\\csrc\\u8x8.h"
 619              		.file 5 "..\\..\\u8g2\\csrc\\u8g2.h"