ARM GAS  C:\Users\gjl\AppData\Local\Temp\ccd4oeHb.s 			page 1


   1              		.syntax unified
   2              		.cpu cortex-m0
   3              		.fpu softvfp
   4              		.eabi_attribute 20, 1
   5              		.eabi_attribute 21, 1
   6              		.eabi_attribute 23, 3
   7              		.eabi_attribute 24, 1
   8              		.eabi_attribute 25, 1
   9              		.eabi_attribute 26, 1
  10              		.eabi_attribute 30, 4
  11              		.eabi_attribute 34, 0
  12              		.eabi_attribute 18, 4
  13              		.thumb
  14              		.syntax unified
  15              		.file	"u8g2_input_value.c"
  16              		.text
  17              	.Ltext0:
  18              		.section	.gnu.lto_.profile.50a23f21,"",%progbits
  19 0000 789C6361 		.ascii	"x\234ca`d`e`\000\222O\031\323\000\003\225\001X"
  19      60646065 
  19      6000924F 
  19      19D30003 
  19      950158
  20              		.text
  21              		.section	.gnu.lto_.icf.50a23f21,"",%progbits
  22 0000 789C6361 		.ascii	"x\234ca`d\000\001\016\006\004`d\230\365\344g'/\003\000"
  22      60640001 
  22      0E060460 
  22      6498F5E4 
  22      67272F03 
  23 0015 0EF7031C 		.ascii	"\016\367\003\034"
  24              		.text
  25              		.section	.gnu.lto_.jmpfuncs.50a23f21,"",%progbits
  26 0000 789C654E 		.ascii	"x\234eN1\016\3020\020;;\021\255\004\022\014\214\014"
  26      310EC230 
  26      103B3B11 
  26      AD04120C 
  26      8C0C
  27 0012 F4077CAF 		.ascii	"\364\007|\257S\262dfC\335\030\201\016\360\001X\370\000"
  27      53B26466 
  27      43DD1881 
  27      0EF00158 
  27      F800
  28 0024 2B0F61AD 		.ascii	"+\017a\255\340\232DjU<\304\222\317\261m\005\322c\255"
  28      E09A446A 
  28      553CC492 
  28      CFB16D05 
  28      D263AD
  29 0037 64240152 		.ascii	"d$\001R\"\343\013G:\005\311\272\277e*\023%\260.\246"
  29      22E30B47 
  29      3A05C9BA 
  29      BF652A13 
  29      25B02EA6 
  30 004b 92C2C6CB 		.ascii	"\222\302\306\313\354\337L}\027IBG\034\302\363U|\030"
  30      ECDF4C7D 
  30      17494247 
  30      1CC2F355 
ARM GAS  C:\Users\gjl\AppData\Local\Temp\ccd4oeHb.s 			page 2


  30      7C18
  31 005d 8CF6E284 		.ascii	"\214\366\342\204\215\214\275\030*m\036\020\313\354\360"
  31      8D8CBD18 
  31      2A6D1E10 
  31      CBECF0
  32 006c FFF1BEF9 		.ascii	"\377\361\276\371e\205\243o\266\301@T\271\357\257\355"
  32      6585A36F 
  32      B6C14054 
  32      B9EFAFED 
  33 007c DC75BEF1 		.ascii	"\334u\276\361~\025\014qF\245\326\013\334(\204)x\222"
  33      7E150C71 
  33      46A5D60B 
  33      DC288429 
  33      7892
  34 008e 8FC924CD 		.ascii	"\217\311$\315C\033'q'?7q)}"
  34      431B2771 
  34      273F3771 
  34      297D
  35              		.text
  36              		.section	.gnu.lto_.inline.50a23f21,"",%progbits
  37 0000 789C454E 		.ascii	"x\234EN\301\015\0021\014s\334\320\236t=\020o\330\204"
  37      C10D0231 
  37      0C73DCD0 
  37      9E743D10 
  37      6FD884
  38 0013 1D2A863A 		.ascii	"\035*\206:^\360\3500<\362`\0166@\272\017;\320\364\244"
  38      5EF0E830 
  38      3CF2600E 
  38      3640BA0F 
  38      3BD0F4A4 
  39 0027 C30F3B76 		.ascii	"\303\017;v\034)\012\201\343\211?Z\262\340}\026\206A"
  39      1C290A81 
  39      E3893F5A 
  39      B2E07D16 
  39      8641
  40 0039 10101B43 		.ascii	"\020\020\033C\257\237\333\005\371\373\"!K\322\225\275"
  40      AF9FDB05 
  40      F9FB2221 
  40      4BD295BD 
  41 0049 1D729B1F 		.ascii	"\035r\233\037\241\213q\267'\324XK-\306x\330L-:\021\234"
  41      A18B71B7 
  41      27D4584B 
  41      2DC678D8 
  41      4C2D3A11 
  42 005e D396CEC9 		.ascii	"\323\226\316\311+\303\221\210Fx\313h\344(\220\373I'"
  42      2BC39188 
  42      4678CB68 
  42      E42890FB 
  42      4927
  43 0070 80EB551F 		.ascii	"\200\353U\037\260\005!\267\007k\341\330\305\235\257"
  43      B00521B7 
  43      076BE1D8 
  43      C59DAF
  44 007f F103DEE1 		.ascii	"\361\003\336\341 \275"
  44      20BD
  45              		.text
  46              		.section	.gnu.lto_.pureconst.50a23f21,"",%progbits
ARM GAS  C:\Users\gjl\AppData\Local\Temp\ccd4oeHb.s 			page 3


  47 0000 789C6361 		.ascii	"x\234ca`d`f`\000\222R\000\000r\000$"
  47      60646066 
  47      60009252 
  47      00007200 
  47      24
  48              		.text
  49              		.section	.gnu.lto_u8g2_UserInterfaceInputValue.50a23f21,"",%progbits
  50 0000 789C8D57 		.ascii	"x\234\215WilTG\022\356z=\367\214=>\306'f\201\0001\341"
  50      696C5447 
  50      12EE7A3D 
  50      F78C3D3E 
  50      C6276681 
  51 0017 302440F0 		.ascii	"0$@\360r$\334B\373k\217_+\021!\004\026Xr\000\201\311"
  51      7224DC42 
  51      FB6B8F5F 
  51      2B112104 
  51      16587200 
  52 002d 82B42B3F 		.ascii	"\202\264+?3\036\033\261\034&!\204@\302\221\025\342X"
  52      331E1BB1 
  52      1C262184 
  52      40C29115 
  52      E258
  53 003f 83F17A61 		.ascii	"\203\361za1\266\303,\030\333\030\203\261M\342\000\341"
  53      31B6C32C 
  53      18DB1883 
  53      B14DE200 
  53      E1
  54 0050 2640B25C 		.ascii	"&@\262\\v\000\007\2043[U\375f|\015\022#\275~\257\253"
  54      76000784 
  54      335B55FD 
  54      667C0D12 
  54      23BD7EAF 
  55 0065 EBABAFBA 		.ascii	"\353\253\257\272\252\272\336\033\223\000A\277w\243\205"
  55      AABADE1B 
  55      930041BF 
  55      77A385
  56 0074 D884F759 		.ascii	"\330\204\367Y8\205$\001Z\3419!rm\232&W\247\012\335a"
  56      38852401 
  56      5AE13921 
  56      726D9A26 
  56      57A70ADD 
  57 0089 A2D125C1 		.ascii	"\242\321%\301\244\304&\315\314b\013\213\315`Qb\013\330"
  57      A4C426CD 
  57      CC620B8B 
  57      CD605162 
  57      0BD8
  58 009b E801ACEA 		.ascii	"\350\001\254\352>\305\006v\265`\327\022\327\326\010"
  58      3EC50676 
  58      B560D712 
  58      D7D608
  59 00aa 0438F2AC 		.ascii	"\0048\362\254\010HT\362)\016\210g\375x\315Y\013\270"
  59      084854F2 
  59      290E8867 
  59      FD78CD59 
  59      0BB8
  60 00bc EAAAAD47 		.ascii	"\352\252\255G%\227\023\342\024\314\245\305\261<B\311"
  60      259713E2 
ARM GAS  C:\Users\gjl\AppData\Local\Temp\ccd4oeHb.s 			page 4


  60      14CCA5C5 
  60      B13C42C9 
  61 00cc 2334374F 		.ascii	"#47O#\3254\322\230F\253\251[\263\262OQ\354S\024X\225"
  61      23D534D2 
  61      9846ABA9 
  61      5BB3B24F 
  61      51EC5314 
  62 00e2 8D682D96 		.ascii	"\215h-\226\265b\224V\2141MP\323\004\345\301\224X\003"
  62      B5629456 
  62      8C314D50 
  62      D304E5C1 
  62      945803
  63 00f5 EC61B027 		.ascii	"\354a\260'\010\216\003\240\007\335\006\"G\223&\263\305"
  63      088E03A0 
  63      07DD0622 
  63      479326B3 
  63      C5
  64 0106 6AB3273A 		.ascii	"j\263':\342\235\256\210HwTtLB\254'\016rL6\241~v\343"
  64      E29DAE88 
  64      48775474 
  64      4C42AC27 
  64      0E724C36 
  65 011e 1E6FDC9F 		.ascii	"\036o\334\237j\035\032\234i\257]\353xk\217\256\257\322"
  65      6A1D1A9C 
  65      69AF5DEB 
  65      786B8FAE 
  65      AFD2
  66 0130 AFFB5A5C 		.ascii	"\257\373Z\\\237\355\365\203O\012\021\320\004\214N\201"
  66      9FEDF583 
  66      4F0A11D0 
  66      048C4E81 
  67 0140 5129A807 		.ascii	"Q)\250\007{\340-\324l\314;\364\205|\242\371$\200\011"
  67      7BE02DD4 
  67      6CCC3BF4 
  67      857CA2F9 
  67      248009
  68 0153 A7AD67B7 		.ascii	"\247\255g\267\336\212\244\251\006\375q\232[}7\327-\007"
  68      DE8AA4A9 
  68      06FD719A 
  68      5B7D37D7 
  68      2D07
  69 0165 82C0E7C3 		.ascii	"\202\300\347\303\325\207\267G\246\356&\233ze\206n\367"
  69      D587B747 
  69      A6EE269B 
  69      7A65866E 
  69      F7
  70 0176 4909FB41 		.ascii	"I\011\373A\222\315}\220\002{!E\240H\300?!\025\265\365"
  70      92CD7D90 
  70      027B2145 
  70      A048C03F 
  70      2115B5F5 
  71 018a 4DA54D52 		.ascii	"M\245MR\016ad\353\371\302B\273\201\334X\355\322\013"
  71      0E6164EB 
  71      F9C242BB 
  71      81DC58ED 
  71      D20B
  72 019c D1191314 		.ascii	"\321\031\023\024\365\304\232\004\034`\354\351\023\315"
ARM GAS  C:\Users\gjl\AppData\Local\Temp\ccd4oeHb.s 			page 5


  72      F5C49A04 
  72      1C60ECE9 
  72      13CD
  73 01aa EB22651A 		.ascii	"\353\"e\032c\333\353\0366\202\201m\011a\017\206\301"
  73      63DBEB1E 
  73      3682816D 
  73      09610F86 
  73      C1
  74 01bb 1633F66E 		.ascii	"\0263\366nE\301\005\220\3570\266\244x\375N\315\300~"
  74      45C10590 
  74      EF30B6A4 
  74      78FD4ECD 
  74      C07E
  75 01cd 52A3B066 		.ascii	"R\243\260f8\324\023k\026P\302\330\235%E\357\313t\206"
  75      38D4136B 
  75      1650C2D8 
  75      9D2545EF 
  75      CB7486
  76 01e0 FEBDFEF9 		.ascii	"\376\275\376\371\036\233\001m\254q\352\2430|\360/\205"
  76      1E9B016D 
  76      AC71EAA3 
  76      307CF02F 
  76      85
  77 01f1 5411A478 		.ascii	"T\021\244xB)\343V\277<s\305.'0po\363\347\333\034\006"
  77      4229E356 
  77      BF3C73C5 
  77      2E273070 
  77      6FF3E7DB 
  78 0207 F07910F8 		.ascii	"\360y\020\370\357^\300\303\014\274usm\263S\276\307\300"
  78      EF5EC0C3 
  78      0CBC7573 
  78      6DB353BE 
  78      C7C0
  79 0219 4F9B4A7F 		.ascii	"O\233J\177\2110\200%u\006\360H/\340\177\030XR\347\257"
  79      89308025 
  79      7506F048 
  79      2FE07F18 
  79      5852E7AF 
  80 022d 32C9190C 		.ascii	"2\311\031\014\374|{s}\320\325\347u\301\010\035\015\023"
  80      FC7C7B73 
  80      7DD0D5E7 
  80      75C1081D 
  80      0D13
  81 023f A1324825 		.ascii	"\2412H%\300\226\334\216\035\221\362w\014nh\\\373\225"
  81      C096DC8E 
  81      1D91F277 
  81      0C6E685C 
  81      FB95
  82 0251 7DF03F08 		.ascii	"}\360?\010\354\277\366\341g\272?\267?\361\036\353\312"
  82      ECBFF6E1 
  82      67BA3FB7 
  82      3FF11EEB 
  82      CA
  83 0262 4B3F547D 		.ascii	"K?T}XY\265\311-\177\317\260\242c\355\353\"\015\330\245"
  83      5859B5C9 
  83      2D7FCFB0 
  83      A263EDEB 
ARM GAS  C:\Users\gjl\AppData\Local\Temp\ccd4oeHb.s 			page 6


  83      220DD8A5 
  84 0276 0F74EF64 		.ascii	"\017t\357d\002U\204\001]\015\254\257\261\313\331\014"
  84      02558401 
  84      5D0DACAF 
  84      B1CBD90C 
  85 0286 EAF01F5D 		.ascii	"\352\360\037]\017\006\250\345\000\030d\026\370:\014"
  85      0F06A8E5 
  85      00186416 
  85      F83A0C
  86 0295 6EEBB182 		.ascii	"n\353\261\202U\0169\207q\336\243-\345n\205\323\033g"
  86      550E3987 
  86      71DEA32D 
  86      E56E85D3 
  86      1B67
  87 02a7 339905FC 		.ascii	"3\231\005\374a@k\233\217\214\226s\031s\253\241(\337"
  87      61406B9B 
  87      8F8C9673 
  87      1973ABA1 
  87      28DF
  88 02b9 6C705DF8 		.ascii	"lp]\370\300\300\234\010\203YS\376\340\231[~\310\240"
  88      C0C09C08 
  88      835953FE 
  88      E0995B7E 
  88      C8A0
  89 02cb 96036BFE 		.ascii	"\226\003k\376l`\232\273\370W\025\006V\261\346\314K\233"
  89      6C609ABB 
  89      F8571506 
  89      56B1E6CC 
  89      4B9B
  90 02dd 5CC2B0F5 		.ascii	"\\\302\260\365\247\012c{\272W\035\006\263w\335\343\223"
  90      A70A637B 
  90      BA571D06 
  90      B377DDE3 
  90      93
  91 02ee 0EB99431 		.ascii	"\016\271\22417\037\335ir\031\\\215\177\013Q\325\206"
  91      371FDD69 
  91      72195C8D 
  91      7F0B51D5 
  91      86
  92 02ff 81D5EE69 		.ascii	"\201\325\356i[\0032\207a\307\237\257\036d\240\216wf"
  92      5B033287 
  92      61C79FAF 
  92      1E64A08E 
  92      7766
  93 0311 AB2E0CEA 		.ascii	"\253.\014\352`\321\223\353V\231\017\014\333\325\361"
  93      60D193EB 
  93      56990F0C 
  93      DBD5F1
  94 0320 E3459B81 		.ascii	"\343E\233\201\253\010\246\253>\014\352f\311\257\237"
  94      AB08A6AB 
  94      3E0CEA66 
  94      C9AF9F
  95 032f 4658F274 		.ascii	"FX\362t\374\365\207\2630\030\316\340u\032\257\032\274"
  95      FCF587B3 
  95      3018CEE0 
  95      751AAF1A 
  95      BC
ARM GAS  C:\Users\gjl\AppData\Local\Temp\ccd4oeHb.s 			page 7


  96 0340 4EE17512 		.ascii	"N\341u\022\257\377\342u\034\257J\274\312a0u\025,\314"
  96      AFFFE275 
  96      1CAF4ABC 
  96      CA613075 
  96      152CCC
  97 0353 7360C12E 		.ascii	"s`\301.nc\324\253\020\250]\374G\277\036\010xu\177\271"
  97      6E63D4AB 
  97      10A85DFC 
  97      47BF1E08 
  97      78757FB9 
  98 0367 B92C0E6B 		.ascii	"\271,\016k\220t\320\013\\\225|*LT\346\016\240\023\351"
  98      9074D00B 
  98      5C957C2A 
  98      4C54E60E 
  98      A013E9
  99 037a 64810BA8 		.ascii	"d\201\013\250\243\270Ql\215\022d=\232\036cp\260\305"
  99      A3B8516C 
  99      8D12643D 
  99      9A1E6370 
  99      B0C5
 100 038c F2DC03D4 		.ascii	"\362\334\003\3246\342I\220 \210:\221\307$\022$\263\345"
 100      36E24990 
 100      20883A91 
 100      C7241224 
 100      B3E5
 101 039e 3E82BC49 		.ascii	">\202\274Ia\256\276@\215\242\237 \277\006\220\312\033"
 101      61AEBE40 
 101      8DA29F20 
 101      BF0690CA 
 101      1B
 102 03af 38D80702 		.ascii	"8\330\007\002\035\254A\3648\230\2067i%\225\225\206\000"
 102      1DAC41F4 
 102      38988637 
 102      69259595 
 102      8600
 103 03c1 9D9BA124 		.ascii	"\235\233\241$\030\306\202\341\3648\202}K\023\264\265"
 103      18C682E1 
 103      F438827D 
 103      4B13B4B5 
 104 03d1 914CF236 		.ascii	"\221L\3626\211G\3230\206\211\306\262t\034\011\322\371"
 104      8947D330 
 104      8689C6B2 
 104      741C09D2 
 104      F9
 105 03e2 713C1DC2 		.ascii	"q<\035\302\2114\237\304\363\311\3648UPP\246\001u\222"
 105      89349FC4 
 105      F3C9F438 
 105      555050A6 
 105      017592
 106 03f5 E96C7306 		.ascii	"\351ls\006\2173\201\306Y\374,\304c\214\360QM\264j\032"
 106      8F3381C6 
 106      59FC2CC4 
 106      638CF051 
 106      4DB46A1A 
 107 0409 DEE41D58 		.ascii	"\336\344\035X\365b\315\303#\222B\356\225NL\333f\337"
 107      F562CDC3 
 107      239242EE 
ARM GAS  C:\Users\gjl\AppData\Local\Temp\ccd4oeHb.s 			page 8


 107      954E4CDB 
 107      66DF
 108 041b 89062B75 		.ascii	"\211\006+um\263\352\2315u\253];\340\313\\\312\3432\012"
 108      6DB3EA99 
 108      3575AB5D 
 108      3BE0CB5C 
 108      CAE3320A 
 109 042f A8573AA0 		.ascii	"\250W:\240\001\333\200\200\363\260\003\304MX\245\217"
 109      01DB8080 
 109      F3B003C4 
 109      4D58A58F 
 110 043f E38C610E 		.ascii	"\343\214a\016\321\204\270\007>\377\323\010\222\020\276"
 110      D184B807 
 110      3EFFD308 
 110      9210BE
 111 044e ACECFE65 		.ascii	"\254\354\376ekN\207\276Z\327\243|\322\021\320\350\365"
 111      6B4E87BE 
 111      5AD7A37C 
 111      D211D0E8 
 111      F5
 112 045f DC083968 		.ascii	"\334\0109h\306\325\225\015\337\342\320\004)>6\220\347"
 112      C6D5950D 
 112      DFE2D004 
 112      293E3690 
 112      E7
 113 0470 7F01E10D 		.ascii	"\177\001\341\015\270\002\350\267\200fe\300'#\004\356"
 113      B802E8B7 
 113      806665C0 
 113      272304EE 
 114 0480 E05849D5 		.ascii	"\340XI\325F\263\332\201\273\253M\331m\007\330\312\""
 114      46B3DA81 
 114      BBAB4DD9 
 114      6D07D8CA 
 114      22
 115 0491 110317C8 		.ascii	"\021\003\027\310w\224\357\276\275\352\240u\344\010\237"
 115      7794EFBE 
 115      BDEAA075 
 115      E4089F
 116 04a0 74C337B8 		.ascii	"t\3037\270\221_\251\362\004|\013#\311d[\301KP\026\243"
 116      915FA9F2 
 116      047C0B23 
 116      C9645BC1 
 116      4B5016A3 
 117 04b4 D0286E52 		.ascii	"\320(nR\343-\236\245-F1gk\325.\2033\372\365HZ\230\204"
 117      E32D9EA5 
 117      2D463167 
 117      6BD52E83 
 117      33FAF548 
 118 04cb 3E56E0BB 		.ascii	">V\340\273\236$1h\005%\336-\0265\217e\336\230\356\274"
 118      9E243168 
 118      0525DE2D 
 118      16358F65 
 118      DE98EEBC 
 119 04df B1146BFF 		.ascii	"\261\024k\377\266|\216-\235&z\221\026\324\2278T\374"
 119      B67C8E2D 
 119      9D267A91 
 119      16D49738 
ARM GAS  C:\Users\gjl\AppData\Local\Temp\ccd4oeHb.s 			page 9


 119      54FC
 120 04f1 002E2229 		.ascii	"\000.\")\005\357\313\352He&\276W\374\242\002\032u\376"
 120      05EFCBEA 
 120      486526BE 
 120      57FCA202 
 120      1A75FE
 121 0504 4B1C3F8F 		.ascii	"K\034?\217O\261n\316\277`\370\221\200\0306\023$>C\304"
 121      4FB16ECE 
 121      BF60F891 
 121      80183613 
 121      243E43C4 
 122 0518 094C5C9A 		.ascii	"\011L\\\232\357a\321i%B\334\326\374\246$\205Kd\227\023"
 122      EF61D169 
 122      2542DCD6 
 122      FCA62485 
 122      4B649713 
 123 052c 4230D649 		.ascii	"B0\326IdXe\265\022\325\260\277\241\334\340\001\207\313"
 123      645865B5 
 123      12D5B0BF 
 123      A1DCE001 
 123      87CB
 124 053e 48C4A16C 		.ascii	"H\304\241lh5B\231\364:\241\264\300\367\034Jn\025W0\224"
 124      68354299 
 124      F43AA1B4 
 124      C0F71C4A 
 124      6E155730 
 125 0553 3720EF9C 		.ascii	"7 \357\23479\344I\022w\240V\334\350\027 \311\205\346"
 125      3739E449 
 125      1277A056 
 125      DCE81720 
 125      C985E6
 126 0566 6A197481 		.ascii	"j\031t\201V)\316\371M\206~\037\224(W\265N\235>\244s"
 126      5629CEF9 
 126      4D867E1F 
 126      942857B5 
 126      4E9D3EA4 
 127 057b 28FF92A1 		.ascii	"(\377\222\241\223\202\022t\340T\240\335\357&\337m\250"
 127      93821274 
 127      E054A0DD 
 127      EF26DF6D 
 127      A8
 128 058c 7BB54B90 		.ascii	"{\265K\220\030\223\302\234&:T\310\031%\224\224\317\207"
 128      1893C29C 
 128      263A54C8 
 128      19259494 
 128      CF87
 129 059e FF9A1103 		.ascii	"\377\232\021\003\352]\2279I>\177k\265[Y\357\327+I1\001"
 129      EA5D9739 
 129      493E7F6B 
 129      B55B59EF 
 129      D72B4931 
 130 05b3 B423E09A 		.ascii	"\264#\340\232*r\257\354\353\343\334+\033'\311l?6\361"
 130      2A72AFEC 
 130      EBE3DC2B 
 130      1B27C96C 
 130      3F36F1
 131 05c6 737E9C32 		.ascii	"s~\23421\340U&\256\207\016Z\345w\305\272{\300\307\260"
ARM GAS  C:\Users\gjl\AppData\Local\Temp\ccd4oeHb.s 			page 10


 131      31E05526 
 131      AE870E5A 
 131      E577C5BA 
 131      7BC0C7B0 
 132 05da 43DF827D 		.ascii	"C\337\202}\336\303\357\235\015\007\367;\021\221\350"
 132      DEC3EF9D 
 132      0D07F73B 
 132      1191E8
 133 05e9 93717003 		.ascii	"\223qp\003\006\360\211\203\233\220Ct\252<\215\264\274"
 133      06F08983 
 133      9B904374 
 133      AA3C8DB4 
 133      BC
 134 05fa 81142CB1 		.ascii	"\201\024,\261\252\371 \257\034\310\005`\224\353`V\031"
 134      AAF920AF 
 134      1CC80560 
 134      94EB6056 
 134      19
 135 060b D4BDA6DF 		.ascii	"\324\275\246\337D9W\227\241\224\212n\243\264\373FRU"
 135      44395797 
 135      A1948A6E 
 135      A3B4FB46 
 135      5255
 136 061d BB086E64 		.ascii	"\273\010nd\350\2536r+\030\213!\3129\254\331 \31706="
 136      E8AB3672 
 136      2B188B21 
 136      CA39ACD9 
 136      20CF3036 
 137 0632 B4BBDD61 		.ascii	"\264\273\335a\252\260\256\3340v0\374\365\012\3536\027"
 137      AAB0AEDC 
 137      307630FC 
 137      F50AEB36 
 137      17
 138 0643 96A4C2FA 		.ascii	"\226\244\302\372\241Ga!\315p\252\2536<h\230C\355~\251"
 138      A1476121 
 138      CD70AAAB 
 138      363C6898 
 138      43ED7EA9 
 139 0657 07932E2B 		.ascii	"\007\223.+\016\247`\332\315\301R{a\011&\232\324\271"
 139      0EA760DA 
 139      CDC1527B 
 139      6109269A 
 139      D4B9
 140 0669 D2DAFA28 		.ascii	"\322\332\372(\003i(!\307\202~\262N\232\252\264\027\206"
 140      03692821 
 140      C7827EB2 
 140      4E9AAAB4 
 140      1786
 141 067b CE489474 		.ascii	"\316H\224t+-V\032\311\245e\301\322\002\244\037\213\002"
 141      2B2D561A 
 141      C9A565C1 
 141      D202A41F 
 141      8B02
 142 068d 331F1ED3 		.ascii	"3\037\036\323\313\303\2366\230\216M\327\374\375\003"
 142      CBC39E36 
 142      988E4DD7 
 142      FCFD03
ARM GAS  C:\Users\gjl\AppData\Local\Temp\ccd4oeHb.s 			page 11


 143 069c 6ADF26D2 		.ascii	"j\337&\322\263\212z\223D\275d\257\324\334\200C,\015"
 143      B38A7A93 
 143      44BD64AF 
 143      D4DC8043 
 143      2C0D
 144 06ae 1E1AA2A0 		.ascii	"\036\032\242\240\015Fx\3454w}\343N\234\317\214\255\372"
 144      0D4678E5 
 144      34777DE3 
 144      4E9CCF8C 
 144      ADFA
 145 06c0 9357CEF0 		.ascii	"\223W\316\360\334o\376\253W\316\212\272\375\007D\333"
 145      DC6FFEAB 
 145      57CE8ABA 
 145      FD0744DB 
 146 06d0 449E1554 		.ascii	"D\236\025T\001s?\227BM\330\021\215\333\313\266\032\355"
 146      01733F97 
 146      424DD811 
 146      8DDBCBB6 
 146      1AED
 147 06e2 95CDD98C 		.ascii	"\225\315\331\214\221\273\323\331\234\321\015\315+\307"
 147      91BBD3D9 
 147      9CD10DCD 
 147      2BC7
 148 06f0 5A902CD9 		.ascii	"Z\220,\331\212\344\322+\247\323d\204\025\220\313.\360"
 148      8AE4D22B 
 148      A7D36484 
 148      1590CB2E 
 148      F0
 149 0701 BF0987AD 		.ascii	"\277\011\207\255\264@5\265S\352\314pO\177\320h\274\225"
 149      B44035B5 
 149      53EACC70 
 149      4F7FD068 
 149      BC95
 150 0713 DEEEF91A 		.ascii	"\336\356\371\032*\007\0216\205\007hQ\237@\211\274\333"
 150      2A071136 
 150      85076851 
 150      9F4089BC 
 150      DB
 151 0724 99C87B98 		.ascii	"\231\310{\230\310{`4\252\321\275\234\216\017`d\005\374"
 151      C87B6034 
 151      AAD1BD9C 
 151      8E0F6064 
 151      05FC
 152 0736 A89CA6B0 		.ascii	"\250\234\246\260\242\007H\312\035\015;dB\367\0169\206"
 152      A20748CA 
 152      1D0D3B64 
 152      42F70E39 
 152      86
 153 0747 57478712 		.ascii	"WG\207\022\304\036\217\341S~\204O\007\275\216U\244\012"
 153      C41E8FE1 
 153      537E844F 
 153      07BD8E55 
 153      A40A
 154 0759 FC653546 		.ascii	"\374e5F#\036\327\21361\200\211\022\360S\260\25656\215"
 154      231ED78B 
 154      36318089 
 154      12F053B0 
ARM GAS  C:\Users\gjl\AppData\Local\Temp\ccd4oeHb.s 			page 12


 154      AE35368D 
 155 076d 273DA93B 		.ascii	"'=\251;_:/\215\013\361\261\365t>5\345A\353\343{YO\016"
 155      5F3A2F8D 
 155      0BF1B1F5 
 155      743E35E5 
 155      41EBE37B 
 156 0784 602205FC 		.ascii	"`\"\005\374\217\255c\320\007\372\260\247\335\003\343"
 156      8FAD63D0 
 156      07FAB0A7 
 156      DD03E3
 157 0793 F84E7C95 		.ascii	"\370N|\2257\367\203\336\244\2637\343{y3\211\227&v\367"
 157      37F783DE 
 157      A4B337E3 
 157      7B793389 
 157      972676F7 
 158 07a7 6612EFB5 		.ascii	"f\022\357\265\262F\206\257\012\303\366\203\240\355I"
 158      B24686AF 
 158      0AC3F683 
 158      A0ED49
 159 07b6 6C7B08D9 		.ascii	"l{\010\331\246j:^`\364\301\311\275\220)\001,\021\001"
 159      A66A3A5E 
 159      60F4C1C9 
 159      BD902901 
 159      2C1101
 160 07c9 0F83F5D4 		.ascii	"\017\203\365\324\227\016\344"
 160      970EE4
 161 07d0 656F7CA7 		.ascii	"eo|\247~\361\375\262\347\021\252%\013x\004\352\333\363"
 161      7EF1FDB2 
 161      E711AA25 
 161      0B7804EA 
 161      DBF3
 162 07e2 B19628F0 		.ascii	"\261\226(\360\317:\264j\016*f:\023\361\242~\022\020"
 162      CF3AB46A 
 162      0E2A663A 
 162      13F1A27E 
 162      1210
 163 07f4 DBB560CC 		.ascii	"\333\265`\314\246\366b\373M\000\365\005<\016\262\365"
 163      A6F662FB 
 163      4D00F505 
 163      3C0EB2F5 
 164 0804 0BEDB29C 		.ascii	"\013\355\262\234v9\225\310/yomH\3564\320|gW\236K\321"
 164      763995C8 
 164      2F796F6D 
 164      48EE34D0 
 164      7C67579E 
 165 081a 9F473E83 		.ascii	"\237G>\203\277Us\212\355@\237V\233K:6rTzV\260\271\333"
 165      BF55738A 
 165      ED409F56 
 165      9B4B3A36 
 165      72547A56 
 166 0831 77541B16 		.ascii	"wT\033\026+\2354\202\272\304\301\211\222\231\3327\364"
 166      2B9D3482 
 166      BAC4C189 
 166      9299DA37 
 166      F4
 167 0842 EB64BA78 		.ascii	"\353d\272xL\257\004\305\324,\340\347\020S\204\3304A"
 167      4CAF04C5 
ARM GAS  C:\Users\gjl\AppData\Local\Temp\ccd4oeHb.s 			page 13


 167      D42CE0E7 
 167      105384D8 
 167      3441
 168 0854 A9EFF674 		.ascii	"\251\357\366tjW\335(.2\264\033\005<\011iG\212\227\277"
 168      6A57DD28 
 168      2E32B41B 
 168      053C0969 
 168      478A97BF 
 169 0868 55DAFB65 		.ascii	"U\332\373e\247vm\361\307W\215]\\\020\3604\244\355\026"
 169      A7766DF1 
 169      C7578D5D 
 169      5C10F034 
 169      A4ED16
 170 087b 451A695F 		.ascii	"E\032i_\364\026o2\332(\226\322Lc5Jl\246=bq<\333\373"
 170      F4166F32 
 170      DA2896D2 
 170      4C63354A 
 170      6CA63D62 
 171 0893 9E5A9D85 		.ascii	"\236Z\235\205\012\335\276\036\270\203\314b\365hq/]Q"
 171      0ADDBE1E 
 171      B883CC62 
 171      F568712F 
 171      5D51
 172 08a5 FFD0C5D1 		.ascii	"\377\320\305\321};\353\276\266*\352&\001\317B\3241\342"
 172      7D3BEBBE 
 172      B62AEA26 
 172      01CF42D4 
 172      31E2
 173 08b7 DB71BD1D 		.ascii	"\333q\275\035\275\261\373\223Mv\245\375\215\200\366"
 173      BDB1FB93 
 173      4D76A5FD 
 173      8D80F6
 174 08c6 50BA1344 		.ascii	"P\272\023D\355\273\230\355X\261\223\375m\360>\352\342"
 174      EDBB98ED 
 174      58B193FD 
 174      6DF03EEA 
 174      E2
 175 08d7 EF34C3A4 		.ascii	"\3574\303\244G\024\006\375\335g\370;\003\025(\213\336"
 175      471406FD 
 175      DD67F83B 
 175      0315288B 
 175      DE
 176 08e8 AA06A9BE 		.ascii	"\252\006\251\276\241\002\000\277\364\364\177\006\303"
 176      A10200BF 
 176      F4F47F06 
 176      C3
 177 08f5 E3E8C5FE 		.ascii	"\343\350\305\376\023\265B/\376\375\245\306f\242\255"
 177      13B5422F 
 177      FEFDA5C6 
 177      66A2AD
 178 0904 3A2B8ECF 		.ascii	":+\216\317\247\357V\327\223\367\321\021@%\374*\351\237"
 178      A7EF56D7 
 178      93F7D111 
 178      4025FC2A 
 178      E99F
 179 0916 96367B79 		.ascii	"\2266{y\372\202wf\317[\266t\036?\315\311\\\264dy\366"
 179      FA827766 
ARM GAS  C:\Users\gjl\AppData\Local\Temp\ccd4oeHb.s 			page 14


 179      CF5BB674 
 179      1E3FCDC9 
 179      5CB46479 
 180 092b 9C8FE666 		.ascii	"\234\217\346f-\317H\233'L$3ggfge\310%K3\314,\327\262"
 180      2DCF489B 
 180      274C2433 
 180      67676667 
 180      65C8254B 
 181 0944 166B0B33 		.ascii	"\026k\0133-\3633\027df/3-Y\274,\333\234\361Q\306\242"
 181      2DF33317 
 181      64662F33 
 181      2D59BC2C 
 181      DB9CF151 
 182 095a 6C67D6E2 		.ascii	"lg\326\342ys\263\024V[\261\002V8\227d\256\310\310\232"
 182      7973B314 
 182      565BB102 
 182      56389764 
 182      AEC8C89A 
 183 096e F397CCF9 		.ascii	"\363\227\314\371\331\013\265\225+a\245K\011\026fd.X"
 183      D90BB595 
 183      2B61A54B 
 183      09166664 
 183      2E58
 184 0980 986D5137 		.ascii	"\230mQ7gV\346\242\014C\244\215\022\377\007\332\003\232"
 184      6756E6A2 
 184      0C43A48D 
 184      12FF07DA 
 184      039A
 185 0992 DE       		.ascii	"\336"
 186              		.text
 187              		.section	.gnu.lto_.symbol_nodes.50a23f21,"",%progbits
 188 0000 789C55CC 		.ascii	"x\234U\314-\016\302@\020\206\341ov\266\277\206#\000"
 188      2D0EC240 
 188      1086E16F 
 188      76B6BF86 
 188      2300
 189 0012 37E0429C 		.ascii	"7\340B\234e*6AB\300\243\2529\000\272A\326`p\374m\032"
 189      652A3641 
 189      42C0A3AA 
 189      3900BA41 
 189      D66070FC 
 190 0028 442D12C2 		.ascii	"D-\022\302\226\226\204Q\357\367L\262kA\230\021\000\003"
 190      96968451 
 190      EFF74CB2 
 190      6B419811 
 190      0003
 191 003a 015635BA 		.ascii	"\001V5\272\354\213)@\271\320\367\000\024\305$8\023\243"
 191      EC8B2940 
 191      B9D0F700 
 191      14C52438 
 191      13A3
 192 004c 9C082BA7 		.ascii	"\234\010+\247b\225c\211\224#\211\225\255$\312,\251\262"
 192      62956389 
 192      94238995 
 192      AD24CA2C 
 192      A9B2
 193 005e 914C9924 		.ascii	"\221L\231$\3777#\207\277\274\211\221\301]\273\246(\027"
ARM GAS  C:\Users\gjl\AppData\Local\Temp\ccd4oeHb.s 			page 15


 193      FF372387 
 193      BFBC8991 
 193      C15DBBA6 
 193      2817
 194 0070 ED9891A0 		.ascii	"\355\230\221\240Z\366u\353\276~\3235F\271=\314\031\021"
 194      5AF675EB 
 194      BE7ED335 
 194      46B93DCC 
 194      1911
 195 0082 DCF9D98E 		.ascii	"\334\371\331\2168|\341n\247\372\025\236Z\370a\205\333"
 195      387CE16E 
 195      A7FA159E 
 195      5AF86185 
 195      DB
 196 0093 FDB7FCB0 		.ascii	"\375\267\374\260\014\\\323/B\325<vG\302\007[0O\341"
 196      0C5CD32F 
 196      42D53C76 
 196      47C2075B 
 196      304FE1
 197              		.text
 198              		.section	.gnu.lto_.refs.50a23f21,"",%progbits
 199 0000 789C6361 		.ascii	"x\234ca`\004B \000\000\0009\000\007"
 199      60044220 
 199      00000039 
 199      0007
 200              		.text
 201              		.section	.gnu.lto_.decls.50a23f21,"",%progbits
 202 0000 789CC55B 		.ascii	"x\234\305[\013PT\331\231\356\333\247\201\246i@\321\031"
 202      0B5054D9 
 202      99EEDBA7 
 202      81A66940 
 202      D119
 203 0012 CD96D9B1 		.ascii	"\315\226\331\261\262\356\204T%\216\316\314f\315VR\233"
 203      B2EE8454 
 203      258ECECC 
 203      66CD5652 
 203      9B
 204 0023 D94C268F 		.ascii	"\331L&\217\315\246f+;\331\332*w;\015\264\312\006\201"
 204      CDA6662B 
 204      3BD9DA2A 
 204      773B0DB4 
 204      CA0681
 205 0036 EA6E1C4C 		.ascii	"\352n\034Lmm\032DT|\360\022\020ADE@\005E@\2217\212\""
 205      6D6D1A44 
 205      547CF012 
 205      10414445 
 205      40054540 
 206 004e C8535AF0 		.ascii	"\310SZ\360\001\012:\012\276EDy\313\376\347\374\267\357"
 206      010A3A0A 
 206      BE454479 
 206      CBFEE7FC 
 206      B7EF
 207 0060 3D172EC9 		.ascii	"=\027.\311V\355f\267\313\277\357\375\317\375\3169\377"
 207      56ED66B7 
 207      CBBFEFFD 
 207      CFFDCE39 
 207      FF
ARM GAS  C:\Users\gjl\AppData\Local\Temp\ccd4oeHb.s 			page 16


 208 0071 E3FCFFF9 		.ascii	"\343\374\377\371\317m\324i\004\015\375\374\333\307\032"
 208      CF6DD469 
 208      040DFDFC 
 208      DBC71A
 209 0080 4D8E5EA3 		.ascii	"M\216^\243\371>\2603\360\321B\333\257\201t@\305@\325"
 209      F93EB033 
 209      F0D142DB 
 209      AF817440 
 209      C540D5
 210 0093 403540A7 		.ascii	"@5@\2474\370\361\002z\007@_\003\372:\320\012\240o\001"
 210      34F8F102 
 210      7A07405F 
 210      03FA3AD0 
 210      0AA06F01 
 211 00a7 7D08F431 		.ascii	"}\010\3641\320\367\200~\000\364\267@\237j5s>\264\357"
 211      D0F7807E 
 211      00F4B740 
 211      9F6A3573 
 211      3EB4EF
 212 00ba 72713C3F 		.ascii	"rq<?\240\305@\217`\356\013p\275,\316\271\004h\031\320"
 212      A0C5408F 
 212      60EE0B70 
 212      BD2CCEB9 
 212      046819D0 
 213 00ce E7403F06 		.ascii	"\347@?\006\374\217\3508@\002\320c\300v\003\373\031\334"
 213      FC8FE838 
 213      4002D063 
 213      C07603FB 
 213      19DC
 214 00e0 7F1FE827 		.ascii	"\177\037\350'@k\264\262\234?\205\373\325@?\003\372\013"
 214      406BB4B2 
 214      9C3F85FB 
 214      D5403F03 
 214      FA0B
 215 00f2 A09F03F9 		.ascii	"\240\237\003\371\003\375=\3202\240_\000-\325\242~\375"
 215      03FD3DD0 
 215      32A05F00 
 215      2DD5A27E 
 215      FD
 216 0103 30561FD0 		.ascii	"0V\037\320\020\320KA\326\355SQ\376\037\210\372|,\352"
 216      10D04B41 
 216      D6ED5351 
 216      FE1F88FA 
 216      7C2CEA
 217 0116 E7D2F5EB 		.ascii	"\347\322\365\353\242\376\263?\323Z\341\324\326\373\307"
 217      A2FEB33F 
 217      D35AE1D4 
 217      D6FBC7
 218 0125 F4235A61 		.ascii	"\364#Za\231A\230\021(\377\264|\334\033y\372\270o<\377"
 218      99419811 
 218      28FFB47C 
 218      DC1B79FA 
 218      B86F3CFF 
 219 0139 B395050E 		.ascii	"\263\225\005\016\370$8\034Z\255\334\257\264\356U\241"
 219      F824381C 
 219      5AADDCAF 
 219      B4EE55A1 
ARM GAS  C:\Users\gjl\AppData\Local\Temp\ccd4oeHb.s 			page 17


 220 0149 8E785190 		.ascii	"\216xQ\220\366j\311\315K\236\202\277!\227\342\372{F"
 220      F66AC9CD 
 220      4B9E82BF 
 220      2197E2FA 
 220      7B46
 221 015b 3ED9E270 		.ascii	">\331\342p\010B\201`\020\216\013D8&\254\204.0 |ow8\242"
 221      08428160 
 221      108E0B44 
 221      3826AC84 
 221      2E30207C 
 222 0173 1D43871D 		.ascii	"\035C\207\035\356K5\302G\313\204U\3134\302\011\301\237"
 222      EE4B35C2 
 222      47CB8455 
 222      CB34C209 
 222      C19F
 223 0185 4E465142 		.ascii	"NFQB\276\260L\310\023\226\321\361\217\035\314\277\350"
 223      BEB04CC8 
 223      1396D1F1 
 223      8F1DCCBF 
 223      E8
 224 0196 4DF6096C 		.ascii	"M\366\011l\202g{\237l'\322\004\211;\227\235p8\026\010"
 224      82677B9F 
 224      6C27D204 
 224      893B979D 
 224      70381608 
 225 01aa A7608242 		.ascii	"\247`\202By\002\230O}\206\223\3523\274n{\271\307H\322"
 225      7902984F 
 225      7D8693EA 
 225      33BC6E7B 
 225      B9C748D2 
 226 01be B46C864B 		.ascii	"\264l\206KS\323\217\265\322\014i\316\377H\332\012\372"
 226      53D38FB5 
 226      D20C69CE 
 226      FF48DA0A 
 226      FA
 227 01cf 0AC53045 		.ascii	"\012\3050E\221<\305\251\371\2468\2552\005\355\014\323"
 227      913CC5A9 
 227      F9A638AD 
 227      3205ED0C 
 227      D3
 228 01e0 5C8D29CA 		.ascii	"\\\215)\312$`P?\203\240\003\366e\353\376\257|\200]l"
 228      2460503F 
 228      83A003F6 
 228      65EBFEAF 
 228      7C805D6C 
 229 01f4 1096037B 		.ascii	"\020\226\003{\346@w\226\227a;3\360\026\207_\243\017"
 229      E6407796 
 229      97613B33 
 229      F016875F 
 229      A30F
 230 0206 C595C208 		.ascii	"\305\225\302\010%0\202F8C'\024>`\223\000\372\322\314"
 230      25308246 
 230      38432714 
 230      3E609300 
 230      FAD2CC
 231 0219 689D2F8E 		.ascii	"h\235/\216\245\005\266s\250\345\200\027\216\265\000"
 231      A505B673 
ARM GAS  C:\Users\gjl\AppData\Local\Temp\ccd4oeHb.s 			page 18


 231      A8E58017 
 231      8EB500
 232 0228 D8AEB1EA 		.ascii	"\330\256\261\352\011#9\307\024\322\225D\367\035\362"
 232      092339C7 
 232      14D29544 
 232      F71DF2
 233 0237 11FC9709 		.ascii	"\021\374\227\0110\226\200jQ\017j\204*P\351\234@\\K`"
 233      3096806A 
 233      510F6A84 
 233      2A50E99C 
 233      405C4B60 
 234 024b BF03261F 		.ascii	"\277\003&\037\372=m\206{=\273\252(X\016\012V1a*a\300"
 234      FA3D6D86 
 234      7B3DBBAA 
 234      28580E0A 
 234      5631612A 
 235 0261 0AB4E08D 		.ascii	"\012\264\340\215\321\276Qo\277\0046v\235\343\207\002"
 235      D1BE516F 
 235      BF043676 
 235      9DE38702 
 236 0271 1BBB0C9E 		.ascii	"\033\273\014\236\237e\302W\013~.\025\030\003=.\354\357"
 236      9F65C257 
 236      0B7E2E15 
 236      18033D2E 
 236      ECEF
 237 0283 78A837C6 		.ascii	"x\2507\306\321\361Eu\241\235\323\267F0R\241\350\025"
 237      D1F14575 
 237      A19DD3B7 
 237      463052A1 
 237      E815
 238 0295 D01D310D 		.ascii	"\320\0351\015e\372\036\341\246\000*a\360k\004\001\277"
 238      65FA1EE1 
 238      A6002A61 
 238      F06B0401 
 238      BF
 239 02a6 05461A24 		.ascii	"\005F\032$\306\262h\243\337\032\251I\272h\350\267\006"
 239      C6B268A3 
 239      DF1AA949 
 239      BA68E8B7 
 239      06
 240 02b7 F1AC4D1E 		.ascii	"\361\254M\036\214\375s]g\\\0376\210<\272 v\022$\011"
 240      8CFD735D 
 240      675C1F36 
 240      883CBA20 
 240      76122409 
 241 02cb B0173ED7 		.ascii	"\260\027>\327\272F\305\213V\356\300\215\207\342r2\011"
 241      BA46C58B 
 241      56EEC08D 
 241      87E27232 
 241      09
 242 02dc 4A9D0457 		.ascii	"J\235\004W`=H=t\323\213T3/\012\267.\267\304\270\033"
 242      603D483D 
 242      74D38B54 
 242      332F0AB7 
 242      2EB7C4B8 
 243 02f1 447F24FC 		.ascii	"D\177$\3741\177<91\320\355\243\260\356y\201_M\027\320"
 243      317F3C39 
ARM GAS  C:\Users\gjl\AppData\Local\Temp\ccd4oeHb.s 			page 19


 243      31D0EDA3 
 243      B0EE7981 
 243      5F4D17D0 
 244 0305 BA806CAA 		.ascii	"\272\200l\252o\216&:-\266\011\001:\332v\340\331\335"
 244      6F8E263A 
 244      2DB60901 
 244      3ADA76E0 
 244      D9DD
 245 0317 6637D646 		.ascii	"f7\326F\003\253^`\215y\235\217\227Im\027\261m\252\377"
 245      03AB5E60 
 245      8D799D8F 
 245      97496D17 
 245      B16DAAFF 
 246 032b 5E974E6A 		.ascii	"^\227Nj\274\204\215{\037^\366TL}J1\365ei\352\252\311"
 246      BC848D7B 
 246      1F5EF654 
 246      4C7D4A31 
 246      F56569EA 
 247 0341 B8177AD6 		.ascii	"\270\027z\326\033\332\204\006\354\235x>\267\324G\222"
 247      1BDA8406 
 247      EC9D783E 
 247      B7D44792 
 248 0351 A7111B8B 		.ascii	"\247\021\033\213O\326\357\365\225\032\233\2601\343\325"
 248      4FD6EFF5 
 248      951A9BB0 
 248      31E3D5
 249 0360 ED479EB8 		.ascii	"\355G\236\270\346\375\201\335~w\233\323\200\0211F\037"
 249      E6FD81DD 
 249      7E779BD3 
 249      80113146 
 249      1F
 250 0371 570CB5EF 		.ascii	"W\014\265\357\366\"\267\320z\317c\036\364\213\361\261"
 250      F622B7D0 
 250      7ACF631E 
 250      F48BF1B1 
 251 0381 14D85D15 		.ascii	"\024\330]\025\247\013\275\311\003|v\374H\177\026\035"
 251      A70BBDC9 
 251      037C76FC 
 251      487F161D 
 252 0391 6709E43D 		.ascii	"g\011\344=\312\327:\3733\015\310;~\017|J[\3465=\215"
 252      CAD73AFB 
 252      330DC83B 
 252      7E0F7C4A 
 252      5BE6353D 
 253 03a6 5B9A1D2E 		.ascii	"[\232\035.\356\277\020\355&'\270\247\233\243i\202\273"
 253      EEBF10ED 
 253      2627B8A7 
 253      9BA36982 
 253      BB
 254 03b7 061A76CA 		.ascii	"\006\032v\312\311a\211\230\033\034\263B\307\011\256"
 254      C9618998 
 254      1B1CB342 
 254      C709AE
 255 03c6 5A22E686 		.ascii	"Z\"\346\206\253`\220\016t\226\263w\242NO\246q\202\274"
 255      AB60900E 
 255      7496B377 
 255      A24E4FA6 
ARM GAS  C:\Users\gjl\AppData\Local\Temp\ccd4oeHb.s 			page 20


 255      7182BC
 256 03d9 A68973EE 		.ascii	"\246\211s\356\202\301_\245\373u\225\356\256<\370\356"
 256      82C15FA5 
 256      FB7595EE 
 256      AE3CF8EE 
 257 03e9 719A07BB 		.ascii	"q\232\007\273A\216.Y\216k,\340`\340\255\035q'\275H\014"
 257      418E2E59 
 257      8E6B2CE0 
 257      60E0AD1D 
 257      7127BD48 
 258 03fe 61FA3EDE 		.ascii	"a\372>\336\336\007\313*\005\231\306\372\333\277\"G\361"
 258      DE07CB2A 
 258      0599C6FA 
 258      DBBF2247 
 258      F1
 259 040f 3EBAF266 		.ascii	">\272\362f\242\230S\372y\243\371\241\321\212\252b\236"
 259      A29853FA 
 259      79A3F9A1 
 259      D18AAA62 
 259      9E
 260 0420 89F9AA8E 		.ascii	"\211\371\252\216\356\017\321\351\316dB\316b\337\312"
 260      EE0FD1E9 
 260      CE6442CE 
 260      62DFCA
 261 042f B2AA0637 		.ascii	"\262\252\0067|\270\212\313G~\230\217\246\372\236\267"
 261      7CB88ACB 
 261      477E988F 
 261      A6FA9EB7 
 262 043f EA481D42 		.ascii	"\352H\035B\217NL\016Qs\276\017\366\236!\334F\363>n4"
 262      8F4E4C0E 
 262      5173BE0F 
 262      F69E21DC 
 262      46F33E6E 
 263 0454 B5CD4DB9 		.ascii	"\265\315M\271F\322\311\300\332\234\272\350\255\002\232"
 263      46D2C9C0 
 263      DA9CBAE8 
 263      AD029A
 264 0463 032CBDC5 		.ascii	"\003,\275\305a\310\367\321H\211E\030\000\213\274/Z\344"
 264      61C8F7D1 
 264      48894518 
 264      008BBC2F 
 264      5AE4
 265 0475 2B68BC27 		.ascii	"+h\274'Y\244\347\351\317\331\326\363\000,r_\266\310"
 265      59A4E7E9 
 265      CFD9D6F3 
 265      002C725F 
 265      B6C8
 266 0487 FBA2416A 		.ascii	"\373\242Aj\022{\006\014\3446\316ql\250\245\300w\336"
 266      127B060C 
 266      E436CE71 
 266      6CA8A5C0 
 266      77DE
 267 0499 391ECD3B 		.ascii	"9\036\315;G\342\316\367\013\250\325\037\302\034\203"
 267      47E2CEF7 
 267      0BA8D51F 
 267      C21C83
 268 04a8 F21C0F5C 		.ascii	"\362\034\017\\V\277\037w\352\2227\031@\255\037e9\267"
ARM GAS  C:\Users\gjl\AppData\Local\Temp\ccd4oeHb.s 			page 21


 268      56BF1F77 
 268      EA923719 
 268      40AD1F65 
 268      39B7
 269 04ba FA903164 		.ascii	"\372\2201d\362\0072\367\030\321Zk\200\335_9r\305\015"
 269      F20732F7 
 269      18D15A6B 
 269      80DD5F39 
 269      72C50D
 270 04cd ADA507F6 		.ascii	"\255\245\007\366\340\335\364\031\017\262U\307\240\361"
 270      E0DDF419 
 270      0FB255C7 
 270      A0F1
 271 04db 43597BF5 		.ascii	"CY{\365$\021\231\304\361\364Fw\222\201L\305\345-\271"
 271      241199C4 
 271      F1F44677 
 271      92814CC5 
 271      E52DB9
 272 04ee 1E240799 		.ascii	"\036$\007\231\250\352\372\022oR\210\314\363\306b\003"
 272      A8EAFA12 
 272      6F5288CC 
 272      F3C66203 
 273 04fe 398BF7D5 		.ascii	"9\213\367\325\203\011\225\2044 s\344h\363\250\216t!"
 273      83099584 
 273      342073E4 
 273      68F3A88E 
 273      7421
 274 0510 33EED8FF 		.ascii	"3\356\330\377HO\006\220yZ\366\"MK\336 \323\373bh\322"
 274      484F0690 
 274      795AF622 
 274      4D4BDE20 
 274      D3FB6268 
 275 0525 93C4BAA1 		.ascii	"\223\304\272\241;\016w\277\365$\031\310\354i;\336\344"
 275      3B0E77BF 
 275      F52419C8 
 275      EC693BDE 
 275      E4
 276 0536 454E2153 		.ascii	"EN!SR\327\330n \025\310\234\310\2358i \227\220\031\354"
 276      52D7D86E 
 276      2015C89C 
 276      C89D3869 
 276      20979019 
 277 054b 1B9CF225 		.ascii	"\033\234\362%m\310\034\315\213>\254'7\2209|bW\243\017"
 277      6DC81CCD 
 277      8B3EAC27 
 277      3790397C 
 277      6257A30F 
 278 055f 79CC9877 		.ascii	"y\314\230w\257<\276\352\364\022V(?\376\354{\321a\334"
 278      AF3CBEEA 
 278      F4125628 
 278      3FFEEC7B 
 278      D161DC
 279 0572 7E93FFF5 		.ascii	"~\223\377\365\310W[\035E\277aK{\004\214\234\242]\344"
 279      C8575B1D 
 279      45BF614B 
 279      7B048C9C 
 279      A25DE4
ARM GAS  C:\Users\gjl\AppData\Local\Temp\ccd4oeHb.s 			page 22


 280 0585 8A87672C 		.ascii	"\212\207g,\237|D\313\255\303\324uu}m\336i\216\272(\302"
 280      9F7C44CB 
 280      ADC3D475 
 280      757D6DDE 
 280      698EBA28 
 281 059a 32CE6B35 		.ascii	"2\316k5\360j\021\354p\324\215\356\021\301t\344Wj\340"
 281      F06A11EC 
 281      70D48DEE 
 281      11C174E4 
 281      576AE0
 282 05ad 32411EFA 		.ascii	"2A\036\372:?\364\270\022\375\001\005\227r\340[m^Td\012"
 282      3A3FF4B8 
 282      12FD0105 
 282      9772E05B 
 282      6D5E5464 
 283 05c2 1D5581F6 		.ascii	"\035U\201\366\011\262\024I\355^.\355^\250\311\300c\023"
 283      09B21449 
 283      ED5E2EED 
 283      5EA8C9C0 
 283      6313
 284 05d4 64EC901A 		.ascii	"d\354\220\032\266\231\303N\362\332\275TC\363\002_\345"
 284      B699C34E 
 284      F2DABD54 
 284      43F3025F 
 284      E5
 285 05e5 B59B5011 		.ascii	"\265\233P\021\271\215\033z\234\037zXm\3506n\350\262"
 285      B98D1B7A 
 285      9C1F7A58 
 285      6DE8366E 
 285      E8B2
 286 05f7 789F7D8E 		.ascii	"x\237}\216\272h\302\242dFDK\301\325\257T\022\360\231"
 286      BA68C2A2 
 286      6446444B 
 286      C1D5AF54 
 286      12F099
 287 060a F14647C7 		.ascii	"\361FG\307o\030\372\261:\232wK5/\370\224\212\340\037"
 287      6F18FAB1 
 287      3A9A774B 
 287      352FF894 
 287      8AE01F
 288 061d C972EF95 		.ascii	"\311r\357\225\315\367\\M\352\247\334\2707d\017\216\251"
 288      CDF75C4D 
 288      EAA7DCB8 
 288      37640F8E 
 288      A9
 289 062e 8C8A9666 		.ascii	"\214\212\226fY\240\356\314\036\243\003\252%\200h\304"
 289      59A0EECC 
 289      1EA303AA 
 289      258068C4 
 290 063e 0CA09186 		.ascii	"\014\240\221\206\251\344\305\233V\031h\265<e\215<\345"
 290      A9E4C59B 
 290      561968B5 
 290      3C658D3C 
 290      E5
 291 064f A40A92D7 		.ascii	"\244\012\222\327\372 o\323\273\352V\342\335{\233\027"
 291      FA206FD3 
 291      BBEA56E2 
ARM GAS  C:\Users\gjl\AppData\Local\Temp\ccd4oeHb.s 			page 23


 291      DD7B9B17 
 292 065f E38DCAE0 		.ascii	"\343\215\312\340O9\367\246\312fz\242\204\366\313!\224"
 292      4F39F7A6 
 292      CA667AA2 
 292      84F6CB21 
 292      94
 293 0670 2856910E 		.ascii	"(V\221\016\301\252\021n\303\314\275t\346\267\"\036\314"
 293      C1AA116E 
 293      C3CCBD74 
 293      E6B7221E 
 293      CC
 294 0681 20C46BFD 		.ascii	" \304k\375\205\004\355\012a\027P\"\320v\240-@{\200b"
 294      8504ED0A 
 294      61175022 
 294      D076A02D 
 294      407B8062 
 295 0695 809281A2 		.ascii	"\200\222\201\242\200\034@\321@;\200\266\001\305\002"
 295      801C40D1 
 295      403B80B6 
 295      01C502
 296 06a4 6D05DA0D 		.ascii	"m\005\332\015\264\027h'P\022P\234v\205\253.z\355\310"
 296      B4176827 
 296      5012509C 
 296      7685AB2E 
 296      7AEDC8
 297 06b7 BC42C814 		.ascii	"\274B\310\024\313!\332{5\325N\017a\221\277\272D\373"
 297      CB21DA7B 
 297      35D54E0F 
 297      6191BFBA 
 297      44FB
 298 06c9 408A3FB5 		.ascii	"@\212?\265D\270\014\252\343\377\222.\2034\230,U+\355"
 298      44B80CAA 
 298      E3FF922E 
 298      8334982C 
 298      552BED
 299 06dc 05745530 		.ascii	"\005tU0\231\235\003\207b\214\230\342;(\177v\240\251"
 299      999D0387 
 299      628C98E2 
 299      3B287F76 
 299      A0A9
 300 06ee C1803B80 		.ascii	"\301\200;\200\203n\246\245\331\327j=\310nw\226$\313"
 300      836EA6A5 
 300      D9D76A3D 
 300      C86E7796 
 300      24CB
 301 0700 1DDB12F5 		.ascii	"\035\333\022\365$\035\231\326'Cg\364\34402\243\267\323"
 301      241D99D6 
 301      274367F4 
 301      E43032A3 
 301      B7D3
 302 0712 F7789113 		.ascii	"\367x\221\023\310\314Ln\337@*\360~\270\265l\204\220"
 302      C8CC4C6E 
 302      DF402AF0 
 302      7EB8B56C 
 302      8490
 303 0724 2664066A 		.ascii	"&d\006j^\214\032I72Uq\315Szr\017\231\375\025\333\242"
 303      5E8C1A49 
ARM GAS  C:\Users\gjl\AppData\Local\Temp\ccd4oeHb.s 			page 24


 303      37325571 
 303      CD537A72 
 303      0F99FD15 
 304 073a 0DE43E32 		.ascii	"\015\344>2\333\316T\347\272\223\001q\316\373qMz\362"
 304      DBCE54E7 
 304      BA930171 
 304      CEFB714D 
 304      7AF2
 305 074c 0299F1E7 		.ascii	"\002\231\361\347\015qnd\014\231\003]\367\022<\325*\317"
 305      0D716E64 
 305      0C99035D 
 305      F7123CD5 
 305      2ACF
 306 075e 794E538F 		.ascii	"yNS\217z\313\246\214\212\0020O\313\027\200\371Z\251"
 306      7ACBA68C 
 306      8A02304F 
 306      CB1780F9 
 306      5AA9
 307 0770 F66C6FFA 		.ascii	"\366lo\372k\262\305\003\347?\2205\352M\322\030\343S"
 307      6BB2C503 
 307      E73F9035 
 307      EA4DD218 
 307      E353
 308 0782 1A7FACD4 		.ascii	"\032\177\254\324S\334\030\026\211;\202\230\265\343\271"
 308      53DC1816 
 308      893B8298 
 308      B5E3B9
 309 0791 E4930D86 		.ascii	"\344\223\015\206>\375\007\366\203\304Nn\335g\252\201"
 309      3EFD07F6 
 309      83C44E6E 
 309      DD67AA81 
 310 07a1 9BF92869 		.ascii	"\233\371(i\367E4=\352\345(\321\037,\233\225__\361r\034"
 310      F745343D 
 310      EAE528D1 
 310      1F2C9B95 
 310      5F5FF172 
 311 07b6 5601F3D9 		.ascii	"V\001\363\331$\205\227\343\270\232\034|\006\234h\227"
 311      248597E3 
 311      B89A1C7C 
 311      069C6897 
 312 07c6 12C14135 		.ascii	"\022\301A5,f\002y\275\333"
 312      2C660279 
 312      BDDB
 313 07d0 35C27EED 		.ascii	"5\302~\3552\026\235\3021\261\003]\357%\260\336\317\302"
 313      32169DC2 
 313      31B1035D 
 313      EF25B0DE 
 313      CFC2
 314 07e2 3A2D032A 		.ascii	":-\003*\004*\006:\011T\012t\002\250\010\350\014\320"
 314      042A063A 
 314      09540A74 
 314      02A808E8 
 314      0CD0
 315 07f4 39A002A0 		.ascii	"9\240\002\240S\342zF\005_\362\012\036QQ\260\217\313"
 315      53E27A46 
 315      055FF20A 
 315      1E5151B0 
ARM GAS  C:\Users\gjl\AppData\Local\Temp\ccd4oeHb.s 			page 25


 315      8FCB
 316 0806 81CE7896 		.ascii	"\201\316x\226\003O\317\311\201\360\3545?\320!5\205\270"
 316      034FCFC9 
 316      81F0EC35 
 316      3FD02135 
 316      85B8
 317 0818 2438DDCE 		.ascii	"$8\335\316Y*K\015\314\357-\327\343\337Iw\324AY\013K"
 317      592A4B0D 
 317      CCEF2DD7 
 317      E3DF4977 
 317      D441590B 
 318 082d 4AC815D1 		.ascii	"J\310\025\321\256\2056'\301\366\360\376=\252\242\021"
 318      AE853627 
 318      C1F6F0FE 
 318      3DAAA211 
 319 083d 9F326778 		.ascii	"\2372gxA\016\250\011\202hX\271WJ\332\337#\031l\341j"
 319      410EA809 
 319      826858B9 
 319      574ADADF 
 319      23196CE1 
 320 0852 1F8FEF48 		.ascii	"\037\217\357Hr\027\374\027\241Y2\222\336\247f\251\204"
 320      7217FC17 
 320      A1593292 
 320      DEA766A9 
 320      84
 321 0863 AEE5724E 		.ascii	"\256\345rN8\315r\202\272\377*\300g\377S\377\201H;/\235"
 321      38CD7282 
 321      BAFF2AC0 
 321      67FF53FF 
 321      81483B2F 
 322 0878 6910DF34 		.ascii	"i\020\33744\262H\037\270\014\365\377I\214\264\221\231"
 322      34B2481F 
 322      B80CF5FF 
 322      498CB491 
 322      99
 323 0889 1D957A52 		.ascii	"\035\225zR\215\314@\334\261\227Fr\035\231\262\347'\312"
 323      8DCC40DC 
 323      B1974672 
 323      1D99B2E7 
 323      27CA
 324 089b BCB15B1D 		.ascii	"\274\261[\035\345\317\227LBR\352\305\207\365Q\203P\210"
 324      E5CF974C 
 324      4252EAC5 
 324      87F55183 
 324      5088
 325 08ad DE47A638 		.ascii	"\336G\2468\256\252HG\236\"\223\373`\347\026\003\031"
 325      AEAA4847 
 325      9E2293FB 
 325      60E71603 
 325      19
 326 08be 41A6316F 		.ascii	"A\2461o8N S\036\212:\327\017\353\334\202}/N\012d\213"
 326      384E2053 
 326      1E8A3AD7 
 326      0FEBDC82 
 326      7D2F4E0A 
 327 08d4 9E3DEBAF 		.ascii	"\236=\353\257+\351\322\221\035\310\264\016^w\352H\002"
 327      2BE9D291 
ARM GAS  C:\Users\gjl\AppData\Local\Temp\ccd4oeHb.s 			page 26


 327      1DC8B40E 
 327      5E77EA48 
 327      02
 328 08e5 329983D3 		.ascii	"2\231\203\323#Z\222\206Lv\322\310}Br\221I\232\3169\255"
 328      235A9286 
 328      4C76D2C8 
 328      7D427291 
 328      499ACE39 
 329 08fa 2565C85C 		.ascii	"%e\310\\>\036\323\257%\227\221\271S\236\323\350A\272"
 329      3E1ED3AF 
 329      259791B9 
 329      539ED3E8 
 329      41BA
 330 090c F48AC388 		.ascii	"\364\212\303\210\037\036F*\262\256]\325\221\007\370"
 330      1F1E462A 
 330      B2AE5DD5 
 330      9107F8
 331 091b EC42C78E 		.ascii	"\354B\307\216T_2\214\314\343\266\2067>\34452\367\242"
 331      545F328C 
 331      CCE3B686 
 331      373EE435 
 331      32F7A2
 332 092e F60D6AC9 		.ascii	"\366\015j\311\0242\273\237\236J\363$)\236\012\273,\026"
 332      1432BB9F 
 332      9E4AF324 
 332      299E0ABB 
 332      2C16
 333 0940 ED927FA7 		.ascii	"\355\222\177\247\370\264\201\344\340\303\273/\252\323"
 333      F8B481E4 
 333      E0C3BB2F 
 333      AAD3
 334 094e 3DA43330 		.ascii	"=\24430\036\240O\346\266\307\343\271\230\256\265\353"
 334      1EA04FE6 
 334      B6C7E3B9 
 334      98AEB5EB 
 335 095e 5AD6D83F 		.ascii	"Z\326\330?s\246\334Mj\274\201\215\247\362f\306=\245"
 335      73A6DC4D 
 335      6ABC818D 
 335      A7F266C6 
 335      3DA5
 336 0970 C69BD838 		.ascii	"\306\233\3308R\274\353\250;)\364\024k\351\236b\201\324"
 336      52BCEBA8 
 336      3B29F414 
 336      6BE99E62 
 336      81D4
 337 0982 20E33AF3 		.ascii	" \343:\363\372\341\231w\357\360\325\303\036\244\021"
 337      FAE19977 
 337      EFF0D5C3 
 337      1EA411
 338 0991 9F35EC1F 		.ascii	"\2375\354\037L\322\222Ndb\016$\264k\021\370m`Swd\366"
 338      4CD2924E 
 338      64620E24 
 338      B46B11F8 
 338      6D605377 
 339 09a7 EB50837E 		.ascii	"\353P\203~\372\276(\373\332\221^w\362\010\261\256\027"
 339      FABE28FB 
 339      DA915E77 
ARM GAS  C:\Users\gjl\AppData\Local\Temp\ccd4oeHb.s 			page 27


 339      F208B1AE 
 339      17
 340 09b8 517EF822 		.ascii	"Q~\370\"\312\3610\006\362\316s|V\3730\261\026\316\246"
 340      CAF13006 
 340      F2CE737C 
 340      56FB30B1 
 340      16CEA6
 341 09cb C874E43D 		.ascii	"\310t\344=\273\356CR\360\230\3660\273\266XO\212\220"
 341      BBEE4352 
 341      F098F630 
 341      BBB6584F 
 341      8A90
 342 09dd 49A94B9A 		.ascii	"I\251K\2322\220*d\232\312\357\255\"\227\361\376M\363"
 342      32902A64 
 342      9ACAEFAD 
 342      2297F1FE 
 342      4DF3
 343 09ef B5DB8474 		.ascii	"\265\333\204t#\023\177\241\272\036\266\"d\032zo\201"
 343      23137FA1 
 343      BA1EB622 
 343      641A7A6F 
 343      81
 344 0a00 FF9F2333 		.ascii	"\377\237#3]RR\017+\303\013\035qz\364\251\236\354B\346"
 344      5D52520F 
 344      2BC30B1D 
 344      717AF4A9 
 344      9EEC42E6 
 345 0a14 64C16491 		.ascii	"d\301d\221\201\031\350\013\327\353\211\236\330\274f"
 345      8119E80B 
 345      D7EB899E 
 345      D8BC66
 346 0a23 2FC9E22F 		.ascii	"/\311\342/\320f]7\356tyJ\215C\330\270m\346\366E=\311"
 346      D0665D37 
 346      EE74794A 
 346      8D43D8B8 
 346      6DE6F645 
 347 0a39 C29162F2 		.ascii	"\302\221b\362vgx\223\343\310\354I\037\256\364 \305\310"
 347      76677893 
 347      E3C8EC49 
 347      1FAEF420 
 347      C5C8
 348 0a4b 38EBB233 		.ascii	"8\353\2623<I92_\225\216\346x\223\213^\363:\367L\347"
 348      3C493932 
 348      5F958EE6 
 348      78938B5E 
 348      F33AF74C 
 349 0a60 C13E0FD2 		.ascii	"\301>\017\322\202\200\211\366\311\012\201\334Df\227"
 349      828089F6 
 349      C90A81DC 
 349      446697
 350 0a6f F3EC4764 		.ascii	"\363\354Gd\000\357\013\272n@\3017\214L\353\333\241\032"
 350      00EF0BBA 
 350      6E40C137 
 350      8C4CEBDB 
 350      A11A
 351 0a81 42628C8C 		.ascii	"Bb\214\214)\354\217u\272\221\024dr\247\016\225\032\311"
 351      29EC8F75 
ARM GAS  C:\Users\gjl\AppData\Local\Temp\ccd4oeHb.s 			page 28


 351      BA911464 
 351      72A70E95 
 351      1AC9
 352 0a93 21641A46 		.ascii	"!d\032F\253\217\270\221\002d\342v\036?\344C\316#\263"
 352      AB8FB891 
 352      0264E276 
 352      1E3FE443 
 352      CE23B3
 353 0aa6 75D7892A 		.ascii	"u\327\211*B\256!\323\321W\374\032\234\207L\337\235\304"
 353      42AE21D3 
 353      D157FC1A 
 353      9C874CDF 
 353      9DC4
 354 0ab8 7F27C378 		.ascii	"\177'\303x\177\273\361\330\011\032\366\337\244'\353"
 354      7FBBF1D8 
 354      091AF6DF 
 354      A427EB
 355 0ac7 99195FEE 		.ascii	"\231\031_\356l\375M\264sg\374p\216\007\231apm\303\356"
 355      6CFD4DB4 
 355      7367FC70 
 355      8E079961 
 355      706DC3EE 
 356 0adb 123080F4 		.ascii	"\0220\200\364.#\307XNO\263\333\211A\210%R\266\372\246"
 356      2E23C758 
 356      4E4FB3DB 
 356      89418825 
 356      52B6FAA6 
 357 0aef F49E1337 		.ascii	"\364\236\0237s\215\234`\267\021\177:.\333\377\267\222"
 357      738D9C60 
 357      B7117F3A 
 357      2EDBFFB7 
 357      92
 358 0b00 65420CC1 		.ascii	"eB\014\301\367\2659\211\207\335I\2347\233#\275\364\370"
 358      F7B53989 
 358      87DD499C 
 358      379B23BD 
 358      F4F8
 359 0b12 A8817B5F 		.ascii	"\250\201{_\3731;1\357\2049v\310s\300\224\363N\022\247"
 359      FB313B31 
 359      EF843976 
 359      C873C094 
 359      F34E12A7 
 360 0b26 3EC9936B 		.ascii	">\311\223k\235\211n$\331\033WO\361\266J\035\311Ef\260"
 360      9D896E24 
 360      D91B574F 
 360      F1B64A1D 
 360      C94566B0 
 361 0b3a 717CC48B 		.ascii	"q|\304\213\234Cf\342Bt\271@\232\2219{a\274\305\215\364"
 361      9C4366E2 
 361      4274B940 
 361      9A91397B 
 361      61BCC58D 
 362 0b4f 23F33CFA 		.ascii	"#\363<\372D\216@\306\221\351Hy\006E[\222\017c\246&\223"
 362      448E40C6 
 362      91E94879 
 362      06455B92 
 362      0F63A626 
ARM GAS  C:\Users\gjl\AppData\Local\Temp\ccd4oeHb.s 			page 29


 363 0b64 A3DCC851 		.ascii	"\243\334\310Qdj{\037\026x\2212d\362w\017\325\033H\007"
 363      646A7B1F 
 363      16789132 
 363      64F2770F 
 363      D51B4807 
 364 0b78 63DE89AA 		.ascii	"c\336\211\252m\275\354!\210%\212\362\370\312\266\220"
 364      6DBDEC21 
 364      88258AF2 
 364      F8CAB690 
 365 0b88 FEC9379F 		.ascii	"\376\3117\237T\235\355u8b\215l\361\354\006}3\310<'A"
 365      549DED75 
 365      38628D6C 
 365      F1EC067D 
 365      33C83C27 
 366 0b9d D871123A 		.ascii	"\330q\022:\245m\177Z\253\200\366\317\256kz\345\243B"
 366      A56D7F5A 
 366      AB80F6CF 
 366      AE6B7AE5 
 366      A342
 367 0baf A2CAA8FC 		.ascii	"\242\312\250\374Qa\237\\L\354R\201\316s\346IR\201~4"
 367      51619F5C 
 367      4CEC5281 
 367      CE73E649 
 367      52817E34 
 368 0bc3 A7EA90AA 		.ascii	"\247\352\220\252\354\275\"\234\356Zy\340\257\003d\205"
 368      ECBD229C 
 368      EE5A79E0 
 368      AF036485 
 369 0bd3 B01F681F 		.ascii	"\260\037h\037P\026\320A\240|\240T\240t\240\303@G\201"
 369      5016D041 
 369      A07CA054 
 369      A074A0C3 
 369      404781
 370 0be6 8E006503 		.ascii	"\216\000e\003\345\002\035\007J\003:\004\224\011\224"
 370      E5021D07 
 370      4A033A04 
 370      940994
 371 0bf5 03748C48 		.ascii	"\003t\214H\025\011\310\227*\033hR\315@|e\320-\353\222"
 371      1509C897 
 371      2A1B6852 
 371      CD407C65 
 371      D02DEB92 
 372 0c09 ACA20B57 		.ascii	"\254\242\013W\025\334\221\221\011*H~\320!\031\032\257"
 372      15DC9191 
 372      092A487E 
 372      D021191A 
 372      AF
 373 0c1a 02E5CB87 		.ascii	"\002\345\313\207\021\331\354\016%tn\275\267W\326kJM"
 373      11D9EC0E 
 373      25746EBD 
 373      B757D66B 
 373      4A4D
 374 0c2c AF59273F 		.ascii	"\257Y'?\254xh\004m\021G\226beN9u\223\257b\242\324\004"
 374      AC786804 
 374      6D114796 
 374      62654E39 
 374      7593AF62 
ARM GAS  C:\Users\gjl\AppData\Local\Temp\ccd4oeHb.s 			page 30


 375 0c43 E10BE0B2 		.ascii	"\341\013\340\262$\356X9!\212\362\007\216\225N~\364h"
 375      24EE5839 
 375      218AF207 
 375      8E954E7E 
 375      F468
 376 0c55 B5D179F4 		.ascii	"\265\321y\364\230l\222\031\255\012\366)WO\326\342\231"
 376      986C9219 
 376      AD0AF629 
 376      574FD6E2 
 376      99
 377 0c66 1A3073CF 		.ascii	"\0320s\317\324\257\370\303\354\036\025?\360*\225\363"
 377      D4AFF8C3 
 377      EC1E153F 
 377      F02A95F3 
 378 0c76 2AA51055 		.ascii	"*\245\020U\225x_(\312\276\267j\336X-V}7\3433\322\241"
 378      95785F28 
 378      CABEB76A 
 378      DE582D56 
 378      7D37E333 
 379 0c8c 8E60B940 		.ascii	"\216`\271@\333z\177\177\255\217\342\020\312\207G!\204"
 379      DB7A7F7F 
 379      AD8FE210 
 379      CA874721 
 379      84
 380 0c9d C49F323C 		.ascii	"\304\2372<\320f\267\233\277MmV\000\023\235\220S+5!\223"
 380      D066B79B 
 380      BF4D6D56 
 380      00139D90 
 380      532B3521 
 381 0cb2 F7507EDE 		.ascii	"\367P~\336na\221(`\335\274\002j\376\327\245\203\271"
 381      6E619128 
 381      60DDBC02 
 381      6AFED7A5 
 381      83B9
 382 0cc4 63E35E45 		.ascii	"c\343^E\011\212\023\341In\331\302\336J\\'\302\321\302"
 382      098A13E1 
 382      496ED9C2 
 382      DE4A5C27 
 382      C2D1C2
 383 0cd7 C15E3712 		.ascii	"\301^7\022\353\213\025\306\203\214\006\003IB\246\326"
 383      EB8B15C6 
 383      838C0603 
 383      4942A6D6 
 384 0ce7 79AAC597 		.ascii	"y\252\305\227\3442\346\033\275O\213\313\275\005E\336"
 384      E432E61B 
 384      BD4F8BCB 
 384      BD0545DE 
 385 0cf7 5DB1C268 		.ascii	"]\261\302h\\\2523.r\335\371\257\360\367\367G\247\246"
 385      5CAA332E 
 385      72DDF9AF 
 385      F0F7F747 
 385      A7A6
 386 0d09 75734E7D 		.ascii	"usN}\012N-\225\235\332\313\255=\205\367\356\322\222"
 386      0A4E2D95 
 386      9DDACBAD 
 386      3D85F7EE 
 386      D292
ARM GAS  C:\Users\gjl\AppData\Local\Temp\ccd4oeHb.s 			page 31


 387 0d1b 5C0B8822 		.ascii	"\\\013\210\"\202\035\250\367:\301PWA\267f\240+@M@\215"
 387      821DA8F7 
 387      3AC15057 
 387      41B766A0 
 387      2B404D40 
 388 0d30 40E781EA 		.ascii	"@\347\201\352\200j\201j\200J\200\252\201\252\200*\201"
 388      806A816A 
 388      804A80AA 
 388      81AA802A 
 388      81
 389 0d41 2A80CA81 		.ascii	"*\200\312\201\316\001\225\001\235\005:\243HnU\335Rt"
 389      CE019501 
 389      9D053AA3 
 389      486E55DD 
 389      5274
 390 0d53 9C260A09 		.ascii	"\234&\012\011okg\005u\205\014\275\257T\346+\355\354"
 390      6F6B6705 
 390      75850CBD 
 390      AF54E62B 
 390      EDEC
 391 0d65 9C7E4EC6 		.ascii	"\234~N\306>P\303\362k\377\254\214\035P\303\362qU*c\007"
 391      3E50C3F2 
 391      6BFFAC8C 
 391      1D50C3F2 
 391      71552A63 
 392 0d7a D5B07CE0 		.ascii	"\325\260|\340\027\313\330\207jX>\305\026\311\330GjX"
 392      17CBD887 
 392      6A583EC5 
 392      16C9D847 
 392      6A58
 393 0d8c 3E1766C9 		.ascii	">\027f\311\330\307jXn\303\334'C\237\250A9\353\356\225"
 393      D8C76A58 
 393      6EC3DC27 
 393      439FA841 
 393      39EBEE95 
 394 0da0 A1F4DDE6 		.ascii	"\241\364\335\346\234\245\302[,9\225\313.\317\304\201"
 394      9CA5C25B 
 394      2C3995CB 
 394      2ECFC481 
 395 0db0 A5ECD23B 		.ascii	"\245\354\322;'\005&\246r\347\325Z\021/e\357\336\331"
 395      270526A6 
 395      72E7D55A 
 395      112F65EF 
 395      DED9
 396 0dc2 D97BC6E9 		.ascii	"\331{\306\351\213\360\013\304(<\237\015\347\3631\037"
 396      8BF00BC4 
 396      283C9F0D 
 396      E7F3311F 
 397 0dd2 5A17C952 		.ascii	"Z\027\311R\031t\015\026l=\364\306l0\037L\303aRi\020"
 397      19740D16 
 397      6C3DF4C6 
 397      6C301F4C 
 397      C3615269 
 398 0de7 38B63896 		.ascii	"8\2668\226k\231\015\344\337p\241\003|_\"\364\257\017"
 398      6B990DE4 
 398      DF70A103 
 398      7C5F22F4 
ARM GAS  C:\Users\gjl\AppData\Local\Temp\ccd4oeHb.s 			page 32


 398      AF0F
 399 0df9 6841DC00 		.ascii	"hA\334\000]^B\231\315\017zY\021\326\015\030\326\352"
 399      5D5E4299 
 399      CD0F7A59 
 399      11D60D18 
 399      D6EA
 400 0e0b 61E504C9 		.ascii	"a\345\004\311\376\364a5\3454:\022\314\314\200\257\324"
 400      FEF46135 
 400      E5343A12 
 400      CCCC80AF 
 400      D4
 401 0e1c 0DC8D97B 		.ascii	"\015\310\331{B\006\217\314\006\253\354g2\372\265:\232"
 401      42068FCC 
 401      06ABEC67 
 401      32FAB53A 
 401      9A
 402 0e2d 1B7A3479 		.ascii	"\033z4y1\272\262\005\340of\303?P\367d\033\357\311\016"
 402      31BAB205 
 402      E06F66C3 
 402      3F50F764 
 402      1BEFC90E 
 403 0e41 B051ABAA 		.ascii	"\260Q\253\252'\333\024\236lU\363\344C\205'\333\230'"
 403      27DB149E 
 403      6C55F3E4 
 403      438527DB 
 403      9827
 404 0e53 DB159E1C 		.ascii	"\333\025\236\034\005O\342>\362z\347\273t\037\241\202"
 404      054FE23E 
 404      F27AE7BB 
 404      741FA182 
 405 0e63 8EC92F2D 		.ascii	"\216\311/-Z\231/Q\231\327\311\357\2412\220\267\205q"
 405      5A992F51 
 405      99D7C9EF 
 405      A13290B7 
 405      8571
 406 0e75 556556CB 		.ascii	"UeV\313{\371\313d\266\227\227*\367r|\326\263\363\317"
 406      7BF9CB64 
 406      B697972A 
 406      F7727CD6 
 406      B3F3CF
 407 0e88 E933BA6C 		.ascii	"\3513\272l\212\345=\253\224\355Y\210x\325\374\016EP"
 407      8AE53DAB 
 407      94ED5988 
 407      78D5FC0E 
 407      4550
 408 0e9a 2B0FCBD2 		.ascii	"+\017\313\322\3243i`W(\3528\023\355M\012q\213p\275S"
 408      D4336960 
 408      5728EA38 
 408      13ED4D0A 
 408      718B70BD 
 409 0eaf F513DFA9 		.ascii	"\365\023\337\251Nw?\271(\210\357X\351\357jw\272\262"
 409      4E773FB9 
 409      2888EF58 
 409      E9EF6A77 
 409      BAB2
 410 0ec1 067C4839 		.ascii	"\006|H9\202\257\216=\214\025H\013c\276WTP\334b\340\367"
 410      82AF8E3D 
ARM GAS  C:\Users\gjl\AppData\Local\Temp\ccd4oeHb.s 			page 33


 410      8C15480B 
 410      63BE5754 
 410      50DC62E0 
 411 0ed6 13792FE1 		.ascii	"\023y/\3417\230E\200`{\213?~\003'o3\375i\311\033G\360"
 411      37984580 
 411      607B8B3F 
 411      7E03276F 
 411      33FD69C9 
 412 0eed B72A7A94 		.ascii	"\267*z\224\277\002\322\366\310\311\243\201K\213\212"
 412      BF02D2F6 
 412      C8C9A381 
 412      4B8B8A
 413 0efc 80B80E67 		.ascii	"\200\270\016g\232n8\323\010]\004;\320\200H\320\371\013"
 413      9A6E38D3 
 413      085D043B 
 413      D08048D0 
 413      F90B
 414 0f0e F1BA15C2 		.ascii	"\361\272\025\302.\240qX\324c@\243@o\200^\003\215\000"
 414      2EA07158 
 414      D46340A3 
 414      406F805E 
 414      038D00
 415 0f21 DD027A05 		.ascii	"\335\002z\0054\014\364\022h\010\350\005\320s\240g@O"
 415      340CF412 
 415      6808E805 
 415      D073A067 
 415      404F
 416 0f33 819E00DD 		.ascii	"\201\236\000\335\007\372\012\350\036\320]\240~\240>"
 416      07FA0AE8 
 416      1ED05DA0 
 416      7EA03E
 417 0f42 A03B40B7 		.ascii	"\240;@\267\201z\025\001\323\305\357\2257\210B\207\226"
 417      817A1501 
 417      D3C5EF95 
 417      37884287 
 417      96
 418 0f53 3915638D 		.ascii	"9\025c\215\234,[\005\025\254\024/\340\311\362T\356="
 418      9C2C5B05 
 418      15AC142F 
 418      E0C9F254 
 418      EE3D
 419 0f65 60BB1A9A 		.ascii	"`\273\032\232\377\221I\334`(\366\206\032\266\214\303"
 419      FF9149DC 
 419      6028F686 
 419      1AB68CC3 
 420 0f75 16CBD89B 		.ascii	"\026\313\330\233jXn#8\315\253wK\015\314\375Bx \365\335"
 420      6A586E23 
 420      38CDAB77 
 420      4B0DCCFD 
 420      427820F5 
 421 0f8a 2896DEE9 		.ascii	"(\226\336\351K\375;\"X*\232zf\3033R\227D\261\260\240"
 421      4BFD3B22 
 421      582A9A7A 
 421      66C33352 
 421      9744B1B0 
 422 0f9f EF       		.ascii	"\357"
 423 0fa0 FB3244F7 		.ascii	"\3732D\367Ko\366\322go4\351\335\177\216Q\364\000\326"
ARM GAS  C:\Users\gjl\AppData\Local\Temp\ccd4oeHb.s 			page 34


 423      4B6FF6D2 
 423      676F34E9 
 423      DD7F8E51 
 423      F400D6
 424 0fb3 76B50897 		.ascii	"v\265\010\227\242\250J\253\236\023\006\371\234\220\004"
 424      A2A84AAB 
 424      9E1306F9 
 424      9C9004
 425 0fc2 CB644035 		.ascii	"\313d@5'\014*r\302\200ZN(V\344\204A\226\023\036J9\341"
 425      270C2A72 
 425      C2805A4E 
 425      2856E484 
 425      4196131E 
 426 0fd9 11616F5B 		.ascii	"\021ao[\3701\037+\222\373#\225\344.\255\345D\020\354"
 426      F8311F2B 
 426      92FB2395 
 426      E42EADE5 
 426      4410EC
 427 0fec FF7F2DCF 		.ascii	"\377\177-\317\331nU,\3149d\322\311\275\037>\257\014"
 427      D96E552C 
 427      CC3964D2 
 427      C9BD1F3E 
 427      AF0C
 428 0ffe DFBA     		.ascii	"\337\272"
 429 1000 3955CD98 		.ascii	"9U\315\230\323\313\025\352\027\324\260|U\363F\306\326"
 429      D3CB15EA 
 429      17D4B07C 
 429      55F346C6 
 429      D6
 430 1011 AB61F9AA 		.ascii	"\253a\371\252fD\306^T\303r\213\371\226\014\275\244\006"
 430      6644C65E 
 430      54C3728B 
 430      F9960CBD 
 430      A406
 431 1023 E574BB21 		.ascii	"\345t\273!C/\253%&\276f\354\224\261\215jX\276\002\352"
 431      432FAB25 
 431      26BE66EC 
 431      94B18D6A 
 431      58BE02EA 
 432 1037 90B14D6A 		.ascii	"\220\261MjX>Y\024\313\330f5\254\242\016\224\261-jX\336"
 432      583E5914 
 432      CBD86635 
 432      ACA20E94 
 432      B12D6A58 
 433 104c 62194E2E 		.ascii	"b\031N.\246[\325\320|%\350\2242V\233\032\224\263YZ\262"
 433      A65BD5D0 
 433      7C25E894 
 433      32569B1A 
 433      94B3595A 
 434 1061 78D6A67F 		.ascii	"x\326\246\177\235\3241{\371\264\317Y\021\211\311\357"
 434      9DD4317B 
 434      F9B4CF59 
 434      1189C9EF 
 435 1071 227E0262 		.ascii	"\"~\002b\347\252:~\365\354x\236T\004\325\204\"\250\360"
 435      E7AA3A7E 
 435      F5EC789E 
 435      5404D584 
ARM GAS  C:\Users\gjl\AppData\Local\Temp\ccd4oeHb.s 			page 35


 435      22A8F0
 436 1084 94D60519 		.ascii	"\224\326\005\031\344\031{\023\006\2014\355:\245\275"
 436      E4197B13 
 436      068134ED 
 436      3AA5BD
 437 1093 85D53EA5 		.ascii	"\205\325>\245X\355\275\235\254\036\331\2523\012\335"
 437      58EDBD9D 
 437      AC1ED9AA 
 437      330ADD
 438 10a2 30F9F43C 		.ascii	"0\371\364<\005F\242\3707z\312\261\257\211=h\300\306"
 438      0546A2F8 
 438      377ACAB1 
 438      AF893D68 
 438      C0C6
 439 10b4 C03C7387 		.ascii	"\300<s\207\357I\022\323\325\014h\327\251:\301\034\345"
 439      EF4912D3 
 439      D50C68D7 
 439      A93AC11C 
 439      E5
 440 10c5 A2745CB2 		.ascii	"\242t\\\262\332\002\303:tj\311\212\207i8\014\227\254"
 440      DA02C33A 
 440      746AC98A 
 440      8769380C 
 440      97AC
 441 10d7 7EFD2E97 		.ascii	"~\375.\227\253\000\017\337\321\272Y\271\012\013\206"
 441      AB000FDF 
 441      D1BA59B9 
 441      0A0B86
 442 10e6 943D8B69 		.ascii	"\224=\213i\301@\245t\312\005\003\014*\225\024\327\223"
 442      C140A574 
 442      CA05030C 
 442      2A9514D7 
 442      93
 443 10f7 584132AD 		.ascii	"XA2\255,Hx\201\266\361r\357\000\271cU\345\336\246\220"
 443      2C487881 
 443      B6F172EF 
 443      00B96355 
 443      E5DEA690 
 444 110b 3BF68FCA 		.ascii	";\366\217\312\275\215\311\275]!\367-\251\356JC\301\251"
 444      BD8DC9BD 
 444      5D21F72D 
 444      A9EE4A43 
 444      C1A9
 445 111d FF7A64C1 		.ascii	"\377zd\301c9\301\023\333\336\243\210\235\272EB\257\214"
 445      6339C113 
 445      DBDEA388 
 445      9DBA4542 
 445      AF8C
 446 112f 9826737E 		.ascii	"\230&s~NR[2\363\270u&\351\353\350\326\3350\357\235\331"
 446      4E525B32 
 446      F3B87526 
 446      E9EBE8D6 
 446      DD30EF9D 
 447 1144 8BF6F63C 		.ascii	"\213\366\366<\273\220\302@{\024\006BQ\323Q\031:h\337"
 447      BB90C240 
 447      7B140642 
 447      51D35119 
ARM GAS  C:\Users\gjl\AppData\Local\Temp\ccd4oeHb.s 			page 36


 447      3A68DF
 448 1157 6C6570B7 		.ascii	"lep\267\234N\362\306\335\222\026\177\367\304\211\245"
 448      9C4EF2C6 
 448      DD92167F 
 448      F7C489A5 
 449 1167 D3C1EC22 		.ascii	"\323\301\354\"r\034}\326\243VD\316`\021I\267\247\233"
 449      721C7DD6 
 449      A35644CE 
 449      601149B7 
 449      A79B
 450 1179 7211D9C3 		.ascii	"r\021\331\303\027\221\235K(\202n\2645\2624\003\256\""
 450      17919D4B 
 450      28826EB4 
 450      35B23403 
 450      AE22
 451 118b 32FFCEF3 		.ascii	"2\377\316\363nA\347\362\310\025\374\353\302\224\261"
 451      6E41E7F2 
 451      C815FCEB 
 451      C294B1
 452 119a CA87FAA5 		.ascii	"\312\207\372\245\363\236\206\3662_&3_\322\337\004\362"
 452      F39E86F6 
 452      325F2633 
 452      5FD2DF04 
 452      F2
 453 11ab 635B846F 		.ascii	"c[\204od;\262\213\034\375\327\337\232S\216\304::\240"
 453      643BB28B 
 453      1CFDD7DF 
 453      9A538EC4 
 453      3A3AA0
 454 11be E30F1950 		.ascii	"\343\017\031P\250\223\3778\254\216\375\275\255P\013"
 454      A893FF38 
 454      AC8EFDBD 
 454      AD500B
 455 11cd E5834648 		.ascii	"\345\203FH\321}\003\372n\217/?\242%#X\226\336\273\030"
 455      D17D03FA 
 455      6E8F2F3F 
 455      A2252358 
 455      96DEBB18 
 456 11e1 3D8C3F63 		.ascii	"=\214?c4\020\327\357\035\355\265-\231\272\371E\331\307"
 456      3410D7EF 
 456      1DEDB52D 
 456      99BAF945 
 456      D9C7
 457 11f3 44497389 		.ascii	"DIs\211\362\254\360\305\250\016D\351w8\372'\336\230"
 457      F2ACF0C5 
 457      A80E44E9 
 457      7738FA27 
 457      DE98
 458 1205 4F1D89AD 		.ascii	"O\035\211\255\373\234\201\204T\235$\006\3342\013\012"
 458      FB9C8184 
 458      549D2406 
 458      DC320B0A 
 459 1215 E94C84F6 		.ascii	"\351L\204\366\273[\263=I\354\002&B\236c\354\212V\307"
 459      BB5BB33D 
 459      49EC0226 
 459      429E63EC 
 459      8A56C7
ARM GAS  C:\Users\gjl\AppData\Local\Temp\ccd4oeHb.s 			page 37


 460 1228 0516B45D 		.ascii	"\005\026\264]<\336PI\346\027!\223\211\220\341\022\341"
 460      3CDE5049 
 460      E6172193 
 460      8990E112 
 460      E1
 461 1239 796656AB 		.ascii	"yfV\253^\024!\325\031\226Q\354\210q\243\030a\277,\301"
 461      5E1421D5 
 461      199651EC 
 461      8871A318 
 461      61BF2CC1 
 462 124d 7E970407 		.ascii	"~\227\004\007\230\004\371\311;s\011\331\213\022\250"
 462      9804F9C9 
 462      3B7309D9 
 462      8B12A8
 463 125c FD4D6A6F 		.ascii	"\375Mjo\356\261+\356\322\017e\007u\254qw_\3461\255\324"
 463      EEB12BEE 
 463      D20F6507 
 463      75AC7177 
 463      5FE631AD 
 464 1271 988D8D7D 		.ascii	"\230\215\215}C-\207\274%\371\017a\343\324\231\254&\343"
 464      432D87BC 
 464      25F90F61 
 464      E3D499AC 
 464      26E3
 465 1283 D279CB9F 		.ascii	"\322y\313\237#L\201\303.\005Z.=\213\027P\201\272\344"
 465      234C81C3 
 465      2E055A2E 
 465      3D8B1750 
 465      81BAE4
 466 1296 D10D895B 		.ascii	"\321\015\211[\262\375)D\310\222\345\317r\311\237\303"
 466      B2FD2944 
 466      C892E5CF 
 466      72C99FC3 
 467 12a6 E4DF7977 		.ascii	"\344\337yw\337y\037rx\301\274\277\032uO\354H\222\377"
 467      DF791F72 
 467      78C1BCBF 
 467      1A754FEC 
 467      4892FF
 468 12b9 543617A5 		.ascii	"T6\027\245\272\324\021}Q\340\245\242\372\312R\3453\251"
 468      BAD4117D 
 468      51E0A5A2 
 468      FACA52E5 
 468      33A9
 469 12cb F25C52D5 		.ascii	"\362\\R\325\034tV\310\236\375\227\026\364,\200\204\243"
 469      1C7456C8 
 469      9EFD9716 
 469      F42C8084 
 469      A3
 470 12dc B25C475D 		.ascii	"\262\\G]r\035cr5V\037\314\366 \205\377]\273\236P\263"
 470      721D6372 
 470      35561FCC 
 470      F62085FF 
 470      5DBB9E50 
 471 12f1 6B0136DE 		.ascii	"k\0016\336\211O\236\022\244\306Bl|QS\230G\244\306\223"
 471      894F9E12 
 471      A4C6426C 
 471      7C515398 
ARM GAS  C:\Users\gjl\AppData\Local\Temp\ccd4oeHb.s 			page 38


 471      47A4C693 
 472 1305 D85850DB 		.ascii	"\330XP\333\335\356!y\340\0246\306T\237\315\363\230\337"
 472      DDEE2179 
 472      E01436C6 
 472      549FCDF3 
 472      98DF
 473 1317 03A799AE 		.ascii	"\003\247\231\256E.]o\276M|\340#-\241\377<\300\226\020"
 473      452E5D6F 
 473      BE4D7CE0 
 473      232DA1FF 
 473      3CC09610 
 474 132b 6084E3B2 		.ascii	"`\204\343\262\252\307]\252\026\243\013\356\244\026y"
 474      AAC75DAA 
 474      16A30BEE 
 474      A41679
 475 133a 903A54B5 		.ascii	"\220:T\265\"e[\267\313\203\325/V\245;.h\331>S\"w/qu"
 475      22655BB7 
 475      CB83D52F 
 475      56A53B2E 
 475      68D93E53 
 476 1353 2F65DD4B 		.ascii	"/e\335K\257^K\360!\355\363[jx\2540\203HZ\235\025\327"
 476      AF5E4BF0 
 476      21EDF35B 
 476      6A78AC30 
 476      83485A9D 
 477 1369 55437691 		.ascii	"UCv\221\373\374Z\235cZ\225I\353*%\266\305C\224\252R"
 477      FBFC5A9D 
 477      635A9549 
 477      EB2A25B6 
 477      C54394AA 
 478 137e 5C570011 		.ascii	"\\W\000\021\316\310R\235qIU\316\244rF\275=\346N\356"
 478      CEC8529D 
 478      714955CE 
 478      A47246BD 
 478      3DE64EEE 
 479 1392 CE2F55C7 		.ascii	"\316/U\307\331\254\363\177 2\253\230\000\225.\001\336"
 479      D9ACF37F 
 479      2032AB98 
 479      00952E01 
 479      DE
 480 13a3 C6A6ED37 		.ascii	"\306\246\3557\210f\235|\363\217\255G\032v9\016\011\014"
 480      88669D7C 
 480      F38FAD47 
 480      1A76390E 
 480      090C
 481 13b5 2654C842 		.ascii	"&T\310BT\270\204\250fB$\304\265=\362$\243(\304\330\333"
 481      54B884A8 
 481      664224C4 
 481      B53DF224 
 481      A328C4D8 
 482 13ca E1AB2ECF 		.ascii	"\341\253.\317\2449\303\016\024\260UHm[#\017P\343\032"
 482      A439C30E 
 482      14B05548 
 482      6D5B230F 
 482      50E31A
 483 13dd A0960D30 		.ascii	"\240\226\0150\321U\032\253%\361\013\347\215\216\361"
 483      D1551AAB 
ARM GAS  C:\Users\gjl\AppData\Local\Temp\ccd4oeHb.s 			page 39


 483      25F10BE7 
 483      8D8EF1
 484 13ec A457AF74 		.ascii	"\244W\257t\222m\317\243ms/\365e)bV\261\233\3263\315"
 484      926DCFA3 
 484      6D732FF5 
 484      65296256 
 484      B19BD633 
 485 1401 2EB8347B 		.ascii	".\2704{\340l\177\351&\232\366\355&\346\357z\232ze\231"
 485      E06C7FE9 
 485      269AF6ED 
 485      26E6EF7A 
 485      9A7A6599 
 486 1415 EA5C325D 		.ascii	"\352\\2]d2\015\235\232H4(^J\327+\366\363K:\374\017\010"
 486      64320D9D 
 486      9A483428 
 486      5E4AD72B 
 486      F6F34B3A 
 487 142c 7005F496 		.ascii	"p\005\364\2267\3157\264\012t\225\002\335 \242\033\030"
 487      37CD37B4 
 487      0A749502 
 487      DD20A21B 
 487      18
 488 143d FA92F34E 		.ascii	"\372\222\363N\245\022}N\201\276,\242/3t\326\360\335"
 488      A5127D4E 
 488      81BE2CA2 
 488      2F3374D6 
 488      F0DD
 489 144f 5EE57F85 		.ascii	"^\345\177\2058\255@7\212\350F\206>\330W\364\314W\201"
 489      38AD4037 
 489      8AE84686 
 489      3ED857F4 
 489      CC5781
 490 1462 3EA24037 		.ascii	">\242@7\211\350&\206NH\030yO\001\316W\200\257\210\340"
 490      89E82686 
 490      4E481879 
 490      4F01CE57 
 490      80AF88E0 
 491 1476 2B0CFCF8 		.ascii	"+\014\374\370d\3644Q\2403\025\350f\021\335\314\320O"
 491      64F43451 
 491      A03315E8 
 491      6611DDCC 
 491      D04F
 492 1488 5ED63F73 		.ascii	"^\326?sS\240\367)\320-\"\232^\365?\371\345\027\313\177"
 492      53A0F729 
 492      D02D229A 
 492      5EF53FF9 
 492      E517CB7F 
 493 149c B47AB5C6 		.ascii	"\264z\265\306\323d\212\010\016\265\2571\331\243\204"
 493      D3648A08 
 493      0EB5AF31 
 493      D9A384
 494 14ab C0BF591B 		.ascii	"\300\277Y\033n\015[o5o\\\276.8\304b[\356\037\271\346"
 494      6E0D5B6F 
 494      356F5CBE 
 494      2E38C462 
 494      5BEE1FB9 
 495 14c0 BBDF5A1B 		.ascii	"\273\337Z\033\2709\334j\261\331\326\206\333\302\002"
ARM GAS  C:\Users\gjl\AppData\Local\Temp\ccd4oeHb.s 			page 40


 495      B839DC6A 
 495      B1D9D686 
 495      DBC202
 496 14cf 97075A2D 		.ascii	"\227\007Z-f{\230u\355\307+W+\033\2027\206\207Y\355k"
 496      667B9875 
 496      EDC72B57 
 496      2B1B8237 
 496      868759ED 
 497 14e4 D78746AC 		.ascii	"\327\207F\2545[7\256\375\253\225\024\001w\337\011\015"
 497      355B37AE 
 497      FDAB9514 
 497      0177DF09 
 497      0D
 498 14f5 0BB57CC7 		.ascii	"\013\265|\307b\016\010^\033\034\032\030\022\021dY\273"
 498      620E085E 
 498      1B1C1A18 
 498      12116459 
 498      BB
 499 1506 D11CB821 		.ascii	"\321\034\270!8\324\262\326\024dYg\216\010\261\233\354"
 499      38D4B2D6 
 499      14645967 
 499      8E08B19B 
 499      EC
 500 1517 9BC32DB6 		.ascii	"\233\303-\266\225\0334\036\242(\233\376\257$\261m\266"
 500      951B341E 
 500      A2289BFE 
 500      AF24B16D 
 500      B6
 501 1528 AD35D9EC 		.ascii	"\2555\331\354A0-L\357\025\261f\375\207\314\034&\373"
 501      41302D4C 
 501      EF15B166 
 501      FD87CC1C 
 501      26FB
 502 153a E2952BD7 		.ascii	"\342\225+\327Rvm\240\315\032\310\356\000\240\013\334"
 502      52766DA0 
 502      CD1AC8EE 
 502      00A00BDC 
 503 154a 60B62E63 		.ascii	"`\266.c\250/l\026\353\317B\355\026\353:s\240\345g\241"
 503      A82F6C16 
 503      EBCF42ED 
 503      16EB3A73 
 503      A0E567A1 
 504 155e E111F65F 		.ascii	"\341\021\366_\233C\",\206 \253\371KS`XH\230\325g}\310"
 504      9B43222C 
 504      8620ABF9 
 504      4B536058 
 504      4898D567 
 505 1574 E6F00DA6 		.ascii	"\346\360\015\246HS\330\272u6\213]o2\241r\356xY\260."
 505      4853D8BA 
 505      75368B5D 
 505      6F32A172 
 505      EE7859B0 
 506 1589 0CE6B15A 		.ascii	"\014\346\261Z\326\201\025l\201\226P\273\257\324`f<\002"
 506      D681156C 
 506      819650BB 
 506      AFD46066 
 506      3C02
ARM GAS  C:\Users\gjl\AppData\Local\Temp\ccd4oeHb.s 			page 41


 507 159b 365882D7 		.ascii	"6X\202\327o\260\2336\206\005Y<YCp\350\272\260\2056\273"
 507      6FB09B36 
 507      8605593C 
 507      594370E8 
 507      BAB08536 
 508 15b0 D96A3785 		.ascii	"\331j7\205\207\331L!a_Z\254&\263\001\335\270\372\273"
 508      87D94C21 
 508      615F5AAC 
 508      26B301DD 
 508      B8FABB
 509 15c3 26BBDE75 		.ascii	"&\273\336u\303\241\"\302\303\001\365\211Q\234\312\024"
 509      C3A122C2 
 509      C301F589 
 509      519CCA14 
 510 15d3 6EB69ABD 		.ascii	"n\266\232\275\314\362\275\247\353\301z\275\330\372\211"
 510      CCF2BDA7 
 510      EBC17ABD 
 510      D8FA89
 511 15e2 7EB34B70 		.ascii	"~\263Kp\227\006\276\033\315\221&j\001Q(\037\211\377"
 511      9706BE1B 
 511      CD91266A 
 511      0151281F 
 511      89FF
 512 15f4 3238C8BE 		.ascii	"28\310\276aA@\260\335f\242\363\004YB\354fS\244\257\324"
 512      614140B0 
 512      DD66A2F3 
 512      045942EC 
 512      6653A4AF 
 513 1609 C0409B67 		.ascii	"\300@\233g\361\221\213\225<\016\272H\331\310F6Hm\253"
 513      F1918B95 
 513      3C0EBA48 
 513      D9C84636 
 513      486DAB
 514 161c E5DB55FA 		.ascii	"\345\333U\372\200\200H\264\013\032:0\324\276\320\304"
 514      808048B4 
 514      0B1A3A30 
 514      D4BED0C4 
 515 162c 7C23D949 		.ascii	"|#\331Ii\203\320\340@@/\230\015\361b\367A\026\372P\037"
 515      6983D0E0 
 515      40402F98 
 515      0DF162F7 
 515      4116FA50 
 516 1641 B01E9DA7 		.ascii	"\260\036\235\247_'\336\370\004\333Lv\2539\324\006f\002"
 516      5F27DEF8 
 516      04DB4C76 
 516      AB39D406 
 516      6602
 517 1653 BBF820CE 		.ascii	"\273\370 \316\004b\320A\21585\212\356\205\014\023Y\330"
 517      0462D041 
 517      8D38358A 
 517      EE850C13 
 517      59D8
 518 1665 2C44EA61 		.ascii	",D\352a\352\365\026\273i\263\353&\322 \366\016\267["
 518      EAF516BB 
 518      69B3EB26 
 518      D220F60E 
 518      B75B
ARM GAS  C:\Users\gjl\AppData\Local\Temp\ccd4oeHb.s 			page 42


 519 1677 1771A28A 		.ascii	"\027q\242\212\255v\022\024l\365\233\333\354\303\270"
 519      AD761214 
 519      6CF59BDB 
 519      ECC3B8
 520 1686 407348A0 		.ascii	"@sH\240i\023,\217\257\311\010\251\315\264.\024\306\324"
 520      69132C8F 
 520      AFC908A9 
 520      CDB42E14 
 520      C6D4
 521 1698 D1468F08 		.ascii	"\321F\217\010X\231\246\315\253\305\353*\274F\212|\344"
 521      5899A6CD 
 521      ABC5EB2A 
 521      BC468A7C 
 521      E4
 522 16a9 2A7714D6 		.ascii	"*w\024\326\215\211\351\036\020\261\016\260xY\345\023"
 522      8D89E91E 
 522      10B10EB0 
 522      7859E513 
 523 16b9 1E1C6909 		.ascii	"\036\034i\0111\005FX\255&k\330\227\013\220\245\317\260"
 523      31054658 
 523      AD266BD8 
 523      970B90A5 
 523      CFB0
 524 16cb 8FAFDCC0 		.ascii	"\217\257\334\300z{\333!6%\270/\343d\264Q\342A4m`\200"
 524      7A7BDB21 
 524      3625B82F 
 524      E364B451 
 524      E241346D 
 525 16e1 7B447890 		.ascii	"{Dx\220\331nY\212A\306\356MA\301\033-\241\266\340\260"
 525      D96E598A 
 525      41C6EE4D 
 525      41C11B2D 
 525      A1B6E0B0 
 526 16f5 50536080 		.ascii	"PS`\200\017{\020\030\000\361h\215\010\264\353Y$\205"
 526      0F7B1018 
 526      00F1688D 
 526      08B4EB59 
 526      2485
 527 1707 7C6F153A 		.ascii	"|o\025:\314\305\001\300\323\005\264{\206\204\2306l\012"
 527      CCC501C0 
 527      D305B47B 
 527      86849836 
 527      6C0A
 528 1719 815CF22E 		.ascii	"\201\\\362.\007r\265\001D\027\261&r\015\370, ,\"4\320"
 528      0772B501 
 528      4417B126 
 528      720DF82C 
 528      202C2234 
 529 172e 0223C3A4 		.ascii	"\002#\303\244K$6\304l\003/\006\207b\373\237I\355\256"
 529      4B2436C4 
 529      6C032F06 
 529      8762FB9F 
 529      49EDAE
 530 1741 B4243DF2 		.ascii	"\264$=\362Z\037\036\034\006\241i\203VC\204}\335\032"
 530      5A1F1E1C 
 530      06A16983 
 530      5643847D 
ARM GAS  C:\Users\gjl\AppData\Local\Temp\ccd4oeHb.s 			page 43


 530      DD1A
 531 1753 6C868137 		.ascii	"l\206\2017\005\003\336\034\024D\323\222W\360\207\201"
 531      0503DE1C 
 531      1444D392 
 531      57F08781 
 532 1763 26B6DE2C 		.ascii	"&\266\336,A\354^l_\014KH\\o\233,V\233\205-Z\275%\024"
 532      41EC5E6C 
 532      5F0C4B48 
 532      5C6F9B2C 
 532      569B852D 
 533 177b BC1B1CBA 		.ascii	"\274\033\034\272~!\033\333\034\032D\303\306\274\031"
 533      7E211BDB 
 533      1C1A44C3 
 533      C6BC19
 534 178a 84F6A242 		.ascii	"\204\366\242B\2336\332`\005\006x\004l\266SE\334\003"
 534      9B36DA60 
 534      05067804 
 534      6CB65345 
 534      DC03
 535 179c CD417031 		.ascii	"\315Ap1\004\005\333\302\021\345\021j\211\204\025\020"
 535      0405DBC2 
 535      11E5116A 
 535      89841510 
 536 17ac 60646816 		.ascii	"`dh\026,\300\270\236\323\245\355\205\356b\256Z\270."
 536      2CC0B89E 
 536      D3A5ED85 
 536      EE62AE5A 
 536      B82E
 537 17be 24389CCE 		.ascii	"$8\234\316+\345\243\005.-]\015^\314_\350;\003"
 537      2BE5A305 
 537      2E2D5D0D 
 537      5ECC5FE8 
 537      3B03
 538 17d0 BB673D17 		.ascii	"\273g=\027\177i\015\006\021\302#Blb\213)\324\346\007"
 538      7F690D06 
 538      11C22342 
 538      6C628B29 
 538      D4E607
 539 17e3 DE339BA0 		.ascii	"\3363\233\240SD\270\311\016>\204\246\305T\343\200\010"
 539      5344B8C9 
 539      0E3E84A6 
 539      C554E380 
 539      08
 540 17f4 9B293024 		.ascii	"\233)0$,\360\267\246\325\253V\375\366\247\277\323\333"
 540      2CF0B7A6 
 540      D5AB56FD 
 540      F6A7BFD3 
 540      DB
 541 1805 C28399BA 		.ascii	"\302\203\231\272F\033\264\341\223\015\277\023\223\325"
 541      461BB4E1 
 541      930DBF13 
 541      93D5
 542 1813 471F8AC9 		.ascii	"G\037\212\311\212\336\370Q\200r\222\205\266\240Ys\370"
 542      8ADEF851 
 542      80729285 
 542      B6A05973 
 542      F8
ARM GAS  C:\Users\gjl\AppData\Local\Temp\ccd4oeHb.s 			page 44


 543 1824 41C8D114 		.ascii	"A\310\321\024\011\215\246/\315\020\202\033m\213\221"
 543      098DA62F 
 543      CD10821B 
 543      6D8B91
 544 1833 E37B6EB4 		.ascii	"\343{n\264-\205m\002L\022\034\016\013\314f\016\240\252"
 544      2D856D02 
 544      4C121C0E 
 544      0BCC660E 
 544      A0AA
 545 1845 5074283C 		.ascii	"Pt(<\240\003\260'\226P\376\201\237\002\035b\331d\011"
 545      A003B027 
 545      9650FE81 
 545      9F021D62 
 545      D96409
 546 1858 59C8C358 		.ascii	"Y\310\303X\313Rfj\336\304\342Z5\242\245\321v\263w\216"
 546      CB52666A 
 546      DEC4E25A 
 546      35A2A5D1 
 546      76B3778E 
 547 186c C835B073 		.ascii	"\3105\260s,\232\333\325\216~\306\021\026I\213\017W\031"
 547      2C9ADBD5 
 547      8E7EC611 
 547      16498B0F 
 547      5719
 548 187e 75BF3B7B 		.ascii	"u\277;{n\307]\011a~\260\224\314\021\3660H\332\353A\303"
 548      6EC75D09 
 548      617EB094 
 548      CC11F630 
 548      48DAEB41 
 549 1893 108BD9EA 		.ascii	"\020\213\331\352\316\036\333\227\317\331\257`\026\330"
 549      CE1EDB97 
 549      CFD9AF60 
 549      16D8
 550 18a1 954C9BE8 		.ascii	"\225L\233\350\266\2642P\263\220\215\366\023\213\375"
 550      B6B43250 
 550      B3908DF6 
 550      138BFD
 551 18b0 1F2CA111 		.ascii	"\037,\241\021?\336\004\271\314\233\241~\011\313\350"
 551      3FDE04B9 
 551      CC9BA17E 
 551      09CBE8
 552 18bf 73180DB9 		.ascii	"s\030\015\271O!\202\276\370\247\317\326\030\030:b\215"
 552      4F2182BE 
 552      F8A7CFD6 
 552      18183A62 
 552      8D
 553 18d0 3DCCECA7 		.ascii	"=\314\354\247x\360\013\010,\033\206\352g\301V\033\353"
 553      78F00B08 
 553      2C1B86EA 
 553      67C1561B 
 553      EB
 554 18e1 BA90B130 		.ascii	"\272\220\26104\005\3743\365\301;\256\311~e\267\302\032"
 554      3405FC33 
 554      F5C13BAE 
 554      C97E65B7 
 554      C21A
 555 18f3 A79D7E14 		.ascii	"\247\235~\024j_\302p\277\262\330?\203h\370<\314\366"
ARM GAS  C:\Users\gjl\AppData\Local\Temp\ccd4oeHb.s 			page 45


 555      6A5FC270 
 555      BFB2D83F 
 555      8368F83C 
 555      CCF6
 556 1905 77669B85 		.ascii	"wf\233\205\006\352;|\373\247\301VK\240\035R\302\177"
 556      06EA3B7C 
 556      FBA7C156 
 556      4BA01D52 
 556      C27F
 557 1917 0159E7D8 		.ascii	"\001Y\347\3307"
 557      37
 558              		.text
 559              		.section	.gnu.lto_.symtab.50a23f21,"",%progbits
 560 0000 75386732 		.ascii	"u8g2_UserInterfaceInputValue\000"
 560      5F557365 
 560      72496E74 
 560      65726661 
 560      6365496E 
 561 001d 00       		.ascii	"\000"
 562 001e 00       		.ascii	"\000"
 563 001f 00       		.ascii	"\000"
 564 0020 00000000 		.ascii	"\000\000\000\000\000\000\000\000"
 564      00000000 
 565 0028 15020000 		.ascii	"\025\002\000\000"
 566 002c 75387838 		.ascii	"u8x8_GetMenuEvent\000"
 566      5F476574 
 566      4D656E75 
 566      4576656E 
 566      7400
 567 003e 00       		.ascii	"\000"
 568 003f 02       		.ascii	"\002"
 569 0040 00       		.ascii	"\000"
 570 0041 00000000 		.ascii	"\000\000\000\000\000\000\000\000"
 570      00000000 
 571 0049 19020000 		.ascii	"\031\002\000\000"
 572 004d 75386732 		.ascii	"u8g2_NextPage\000"
 572      5F4E6578 
 572      74506167 
 572      6500
 573 005b 00       		.ascii	"\000"
 574 005c 02       		.ascii	"\002"
 575 005d 00       		.ascii	"\000"
 576 005e 00000000 		.ascii	"\000\000\000\000\000\000\000\000"
 576      00000000 
 577 0066 1D020000 		.ascii	"\035\002\000\000"
 578 006a 75386732 		.ascii	"u8g2_DrawUTF8\000"
 578      5F447261 
 578      77555446 
 578      3800
 579 0078 00       		.ascii	"\000"
 580 0079 02       		.ascii	"\002"
 581 007a 00       		.ascii	"\000"
 582 007b 00000000 		.ascii	"\000\000\000\000\000\000\000\000"
 582      00000000 
 583 0083 24020000 		.ascii	"$\002\000\000"
 584 0087 75387838 		.ascii	"u8x8_u8toa\000"
 584      5F753874 
ARM GAS  C:\Users\gjl\AppData\Local\Temp\ccd4oeHb.s 			page 46


 584      6F6100
 585 0092 00       		.ascii	"\000"
 586 0093 02       		.ascii	"\002"
 587 0094 00       		.ascii	"\000"
 588 0095 00000000 		.ascii	"\000\000\000\000\000\000\000\000"
 588      00000000 
 589 009d 29020000 		.ascii	")\002\000\000"
 590 00a1 75386732 		.ascii	"u8g2_DrawUTF8Lines\000"
 590      5F447261 
 590      77555446 
 590      384C696E 
 590      657300
 591 00b4 00       		.ascii	"\000"
 592 00b5 02       		.ascii	"\002"
 593 00b6 00       		.ascii	"\000"
 594 00b7 00000000 		.ascii	"\000\000\000\000\000\000\000\000"
 594      00000000 
 595 00bf 32020000 		.ascii	"2\002\000\000"
 596 00c3 75386732 		.ascii	"u8g2_FirstPage\000"
 596      5F466972 
 596      73745061 
 596      676500
 597 00d2 00       		.ascii	"\000"
 598 00d3 02       		.ascii	"\002"
 599 00d4 00       		.ascii	"\000"
 600 00d5 00000000 		.ascii	"\000\000\000\000\000\000\000\000"
 600      00000000 
 601 00dd 34020000 		.ascii	"4\002\000\000"
 602 00e1 75386732 		.ascii	"u8g2_GetUTF8Width\000"
 602      5F476574 
 602      55544638 
 602      57696474 
 602      6800
 603 00f3 00       		.ascii	"\000"
 604 00f4 02       		.ascii	"\002"
 605 00f5 00       		.ascii	"\000"
 606 00f6 00000000 		.ascii	"\000\000\000\000\000\000\000\000"
 606      00000000 
 607 00fe 39020000 		.ascii	"9\002\000\000"
 608 0102 75387838 		.ascii	"u8x8_GetStringLineCnt\000"
 608      5F476574 
 608      53747269 
 608      6E674C69 
 608      6E65436E 
 609 0118 00       		.ascii	"\000"
 610 0119 02       		.ascii	"\002"
 611 011a 00       		.ascii	"\000"
 612 011b 00000000 		.ascii	"\000\000\000\000\000\000\000\000"
 612      00000000 
 613 0123 3D020000 		.ascii	"=\002\000\000"
 614 0127 75386732 		.ascii	"u8g2_SetFontPosBaseline\000"
 614      5F536574 
 614      466F6E74 
 614      506F7342 
 614      6173656C 
 615 013f 00       		.ascii	"\000"
 616 0140 02       		.ascii	"\002"
ARM GAS  C:\Users\gjl\AppData\Local\Temp\ccd4oeHb.s 			page 47


 617 0141 00       		.ascii	"\000"
 618 0142 00000000 		.ascii	"\000\000\000\000\000\000\000\000"
 618      00000000 
 619 014a 3F020000 		.ascii	"?\002\000\000"
 620 014e 75386732 		.ascii	"u8g2_SetFontDirection\000"
 620      5F536574 
 620      466F6E74 
 620      44697265 
 620      6374696F 
 621 0164 00       		.ascii	"\000"
 622 0165 02       		.ascii	"\002"
 623 0166 00       		.ascii	"\000"
 624 0167 00000000 		.ascii	"\000\000\000\000\000\000\000\000"
 624      00000000 
 625 016f 44020000 		.ascii	"D\002\000\000"
 626              		.text
 627              		.section	.gnu.lto_.opts,"",%progbits
 628 0000 272D666D 		.ascii	"'-fmath-errno' '-fsigned-zeros' '-ftrapping-math' '"
 628      6174682D 
 628      6572726E 
 628      6F272027 
 628      2D667369 
 629 0033 2D666E6F 		.ascii	"-fno-trapv' '-fno-openmp' '-fno-openacc' '-mcpu=cor"
 629      2D747261 
 629      70762720 
 629      272D666E 
 629      6F2D6F70 
 630 0066 7465782D 		.ascii	"tex-m0' '-mthumb' '-g' '-Os' '-ffunction-sections' "
 630      6D302720 
 630      272D6D74 
 630      68756D62 
 630      2720272D 
 631 0099 272D6666 		.ascii	"'-ffat-lto-objects' '-flto'\000"
 631      61742D6C 
 631      746F2D6F 
 631      626A6563 
 631      74732720 
 632              		.text
 633              		.cfi_sections	.debug_frame
 634              		.section	.text.u8g2_UserInterfaceInputValue,"ax",%progbits
 635              		.align	1
 636              		.global	u8g2_UserInterfaceInputValue
 637              		.code	16
 638              		.thumb_func
 639              		.type	u8g2_UserInterfaceInputValue, %function
 640              	u8g2_UserInterfaceInputValue:
 641              	.LFB0:
 642              		.file 1 "..\\u8g2\\csrc\\u8g2_input_value.c"
   1:..\u8g2\csrc/u8g2_input_value.c **** /*
   2:..\u8g2\csrc/u8g2_input_value.c **** 
   3:..\u8g2\csrc/u8g2_input_value.c ****   u8g2_input_value.c
   4:..\u8g2\csrc/u8g2_input_value.c ****   
   5:..\u8g2\csrc/u8g2_input_value.c ****   Universal 8bit Graphics Library (https://github.com/olikraus/u8g2/)
   6:..\u8g2\csrc/u8g2_input_value.c **** 
   7:..\u8g2\csrc/u8g2_input_value.c ****   Copyright (c) 2016, olikraus@gmail.com
   8:..\u8g2\csrc/u8g2_input_value.c ****   All rights reserved.
   9:..\u8g2\csrc/u8g2_input_value.c **** 
ARM GAS  C:\Users\gjl\AppData\Local\Temp\ccd4oeHb.s 			page 48


  10:..\u8g2\csrc/u8g2_input_value.c ****   Redistribution and use in source and binary forms, with or without modification, 
  11:..\u8g2\csrc/u8g2_input_value.c ****   are permitted provided that the following conditions are met:
  12:..\u8g2\csrc/u8g2_input_value.c **** 
  13:..\u8g2\csrc/u8g2_input_value.c ****   * Redistributions of source code must retain the above copyright notice, this list 
  14:..\u8g2\csrc/u8g2_input_value.c ****     of conditions and the following disclaimer.
  15:..\u8g2\csrc/u8g2_input_value.c ****     
  16:..\u8g2\csrc/u8g2_input_value.c ****   * Redistributions in binary form must reproduce the above copyright notice, this 
  17:..\u8g2\csrc/u8g2_input_value.c ****     list of conditions and the following disclaimer in the documentation and/or other 
  18:..\u8g2\csrc/u8g2_input_value.c ****     materials provided with the distribution.
  19:..\u8g2\csrc/u8g2_input_value.c **** 
  20:..\u8g2\csrc/u8g2_input_value.c ****   THIS SOFTWARE IS PROVIDED BY THE COPYRIGHT HOLDERS AND 
  21:..\u8g2\csrc/u8g2_input_value.c ****   CONTRIBUTORS "AS IS" AND ANY EXPRESS OR IMPLIED WARRANTIES, 
  22:..\u8g2\csrc/u8g2_input_value.c ****   INCLUDING, BUT NOT LIMITED TO, THE IMPLIED WARRANTIES OF 
  23:..\u8g2\csrc/u8g2_input_value.c ****   MERCHANTABILITY AND FITNESS FOR A PARTICULAR PURPOSE ARE 
  24:..\u8g2\csrc/u8g2_input_value.c ****   DISCLAIMED. IN NO EVENT SHALL THE COPYRIGHT HOLDER OR 
  25:..\u8g2\csrc/u8g2_input_value.c ****   CONTRIBUTORS BE LIABLE FOR ANY DIRECT, INDIRECT, INCIDENTAL, 
  26:..\u8g2\csrc/u8g2_input_value.c ****   SPECIAL, EXEMPLARY, OR CONSEQUENTIAL DAMAGES (INCLUDING, BUT 
  27:..\u8g2\csrc/u8g2_input_value.c ****   NOT LIMITED TO, PROCUREMENT OF SUBSTITUTE GOODS OR SERVICES; 
  28:..\u8g2\csrc/u8g2_input_value.c ****   LOSS OF USE, DATA, OR PROFITS; OR BUSINESS INTERRUPTION) HOWEVER 
  29:..\u8g2\csrc/u8g2_input_value.c ****   CAUSED AND ON ANY THEORY OF LIABILITY, WHETHER IN CONTRACT, 
  30:..\u8g2\csrc/u8g2_input_value.c ****   STRICT LIABILITY, OR TORT (INCLUDING NEGLIGENCE OR OTHERWISE) 
  31:..\u8g2\csrc/u8g2_input_value.c ****   ARISING IN ANY WAY OUT OF THE USE OF THIS SOFTWARE, EVEN IF 
  32:..\u8g2\csrc/u8g2_input_value.c ****   ADVISED OF THE POSSIBILITY OF SUCH DAMAGE.  
  33:..\u8g2\csrc/u8g2_input_value.c ****   
  34:..\u8g2\csrc/u8g2_input_value.c **** */
  35:..\u8g2\csrc/u8g2_input_value.c **** 
  36:..\u8g2\csrc/u8g2_input_value.c **** #include "u8g2.h"
  37:..\u8g2\csrc/u8g2_input_value.c **** 
  38:..\u8g2\csrc/u8g2_input_value.c **** /*
  39:..\u8g2\csrc/u8g2_input_value.c ****   return:
  40:..\u8g2\csrc/u8g2_input_value.c ****     0: value is not changed (HOME/Break Button pressed)
  41:..\u8g2\csrc/u8g2_input_value.c ****     1: value has been updated
  42:..\u8g2\csrc/u8g2_input_value.c **** */
  43:..\u8g2\csrc/u8g2_input_value.c **** 
  44:..\u8g2\csrc/u8g2_input_value.c **** uint8_t u8g2_UserInterfaceInputValue(u8g2_t *u8g2, const char *title, const char *pre, uint8_t *val
  45:..\u8g2\csrc/u8g2_input_value.c **** {
 643              		.loc 1 45 0
 644              		.cfi_startproc
 645              		@ args = 16, pretend = 0, frame = 40
 646              		@ frame_needed = 0, uses_anonymous_args = 0
 647              	.LVL0:
 648 0000 F0B5     		push	{r4, r5, r6, r7, lr}
 649              		.cfi_def_cfa_offset 20
 650              		.cfi_offset 4, -20
 651              		.cfi_offset 5, -16
 652              		.cfi_offset 6, -12
 653              		.cfi_offset 7, -8
 654              		.cfi_offset 14, -4
 655 0002 0400     		movs	r4, r0
 656 0004 8DB0     		sub	sp, sp, #52
 657              		.cfi_def_cfa_offset 72
 658              		.loc 1 45 0
 659 0006 0893     		str	r3, [sp, #32]
 660 0008 12AB     		add	r3, sp, #72
 661              	.LVL1:
 662 000a 1B78     		ldrb	r3, [r3]
 663              	.LVL2:
ARM GAS  C:\Users\gjl\AppData\Local\Temp\ccd4oeHb.s 			page 49


 664 000c 0691     		str	r1, [sp, #24]
 665 000e 0993     		str	r3, [sp, #36]
 666 0010 13AB     		add	r3, sp, #76
 667              	.LVL3:
 668 0012 1B78     		ldrb	r3, [r3]
 669              	.LVL4:
  46:..\u8g2\csrc/u8g2_input_value.c ****   uint8_t line_height;
  47:..\u8g2\csrc/u8g2_input_value.c ****   uint8_t height;
  48:..\u8g2\csrc/u8g2_input_value.c ****   u8g2_uint_t pixel_height;
  49:..\u8g2\csrc/u8g2_input_value.c ****   u8g2_uint_t  y, yy;
  50:..\u8g2\csrc/u8g2_input_value.c ****   u8g2_uint_t  pixel_width;
  51:..\u8g2\csrc/u8g2_input_value.c ****   u8g2_uint_t  x, xx;
  52:..\u8g2\csrc/u8g2_input_value.c ****   
  53:..\u8g2\csrc/u8g2_input_value.c ****   uint8_t local_value = *value;
  54:..\u8g2\csrc/u8g2_input_value.c ****   //uint8_t r; /* not used ??? */
  55:..\u8g2\csrc/u8g2_input_value.c ****   uint8_t event;
  56:..\u8g2\csrc/u8g2_input_value.c **** 
  57:..\u8g2\csrc/u8g2_input_value.c ****   /* only horizontal strings are supported, so force this here */
  58:..\u8g2\csrc/u8g2_input_value.c ****   u8g2_SetFontDirection(u8g2, 0);
 670              		.loc 1 58 0
 671 0014 0021     		movs	r1, #0
 672              	.LVL5:
  45:..\u8g2\csrc/u8g2_input_value.c ****   uint8_t line_height;
 673              		.loc 1 45 0
 674 0016 0A93     		str	r3, [sp, #40]
 675 0018 14AB     		add	r3, sp, #80
 676              	.LVL6:
 677 001a 1B78     		ldrb	r3, [r3]
 678              	.LVL7:
 679 001c 0792     		str	r2, [sp, #28]
 680 001e 0B93     		str	r3, [sp, #44]
  53:..\u8g2\csrc/u8g2_input_value.c ****   //uint8_t r; /* not used ??? */
 681              		.loc 1 53 0
 682 0020 089B     		ldr	r3, [sp, #32]
 683 0022 1D78     		ldrb	r5, [r3]
 684              	.LVL8:
 685              		.loc 1 58 0
 686 0024 FFF7FEFF 		bl	u8g2_SetFontDirection
 687              	.LVL9:
  59:..\u8g2\csrc/u8g2_input_value.c **** 
  60:..\u8g2\csrc/u8g2_input_value.c ****   /* force baseline position */
  61:..\u8g2\csrc/u8g2_input_value.c ****   u8g2_SetFontPosBaseline(u8g2);
 688              		.loc 1 61 0
 689 0028 2000     		movs	r0, r4
 690 002a FFF7FEFF 		bl	u8g2_SetFontPosBaseline
 691              	.LVL10:
  62:..\u8g2\csrc/u8g2_input_value.c ****   
  63:..\u8g2\csrc/u8g2_input_value.c ****   /* calculate line height */
  64:..\u8g2\csrc/u8g2_input_value.c ****   line_height = u8g2_GetAscent(u8g2);
 692              		.loc 1 64 0
 693 002e 2300     		movs	r3, r4
  65:..\u8g2\csrc/u8g2_input_value.c ****   line_height -= u8g2_GetDescent(u8g2);
 694              		.loc 1 65 0
 695 0030 2200     		movs	r2, r4
  64:..\u8g2\csrc/u8g2_input_value.c ****   line_height -= u8g2_GetDescent(u8g2);
 696              		.loc 1 64 0
 697 0032 7933     		adds	r3, r3, #121
ARM GAS  C:\Users\gjl\AppData\Local\Temp\ccd4oeHb.s 			page 50


 698              		.loc 1 65 0
 699 0034 7A32     		adds	r2, r2, #122
 700 0036 1278     		ldrb	r2, [r2]
  64:..\u8g2\csrc/u8g2_input_value.c ****   line_height -= u8g2_GetDescent(u8g2);
 701              		.loc 1 64 0
 702 0038 1B78     		ldrb	r3, [r3]
 703              	.LVL11:
  66:..\u8g2\csrc/u8g2_input_value.c ****   
  67:..\u8g2\csrc/u8g2_input_value.c ****   
  68:..\u8g2\csrc/u8g2_input_value.c ****   /* calculate overall height of the input value box */
  69:..\u8g2\csrc/u8g2_input_value.c ****   height = 1;	/* value input line */
  70:..\u8g2\csrc/u8g2_input_value.c ****   height += u8x8_GetStringLineCnt(title);
 704              		.loc 1 70 0
 705 003a 0698     		ldr	r0, [sp, #24]
  65:..\u8g2\csrc/u8g2_input_value.c ****   
 706              		.loc 1 65 0
 707 003c 9B1A     		subs	r3, r3, r2
 708              	.LVL12:
 709 003e DBB2     		uxtb	r3, r3
 710 0040 0593     		str	r3, [sp, #20]
 711              	.LVL13:
 712              		.loc 1 70 0
 713 0042 FFF7FEFF 		bl	u8x8_GetStringLineCnt
 714              	.LVL14:
  71:..\u8g2\csrc/u8g2_input_value.c **** 
  72:..\u8g2\csrc/u8g2_input_value.c ****   /* calculate the height in pixel */
  73:..\u8g2\csrc/u8g2_input_value.c ****   pixel_height = height;
  74:..\u8g2\csrc/u8g2_input_value.c ****   pixel_height *= line_height;
 715              		.loc 1 74 0
 716 0046 059B     		ldr	r3, [sp, #20]
  70:..\u8g2\csrc/u8g2_input_value.c **** 
 717              		.loc 1 70 0
 718 0048 0130     		adds	r0, r0, #1
 719              	.LVL15:
 720              		.loc 1 74 0
 721 004a 5843     		muls	r0, r3
 722              	.LVL16:
  75:..\u8g2\csrc/u8g2_input_value.c **** 
  76:..\u8g2\csrc/u8g2_input_value.c **** 
  77:..\u8g2\csrc/u8g2_input_value.c ****   /* calculate offset from top */
  78:..\u8g2\csrc/u8g2_input_value.c ****   y = 0;
  79:..\u8g2\csrc/u8g2_input_value.c ****   if ( pixel_height < u8g2_GetDisplayHeight(u8g2)  )
 723              		.loc 1 79 0
 724 004c 2300     		movs	r3, r4
  78:..\u8g2\csrc/u8g2_input_value.c ****   if ( pixel_height < u8g2_GetDisplayHeight(u8g2)  )
 725              		.loc 1 78 0
 726 004e 0022     		movs	r2, #0
 727              		.loc 1 79 0
 728 0050 4033     		adds	r3, r3, #64
 729 0052 1B78     		ldrb	r3, [r3]
  74:..\u8g2\csrc/u8g2_input_value.c **** 
 730              		.loc 1 74 0
 731 0054 C0B2     		uxtb	r0, r0
 732              	.LVL17:
  78:..\u8g2\csrc/u8g2_input_value.c ****   if ( pixel_height < u8g2_GetDisplayHeight(u8g2)  )
 733              		.loc 1 78 0
 734 0056 0392     		str	r2, [sp, #12]
ARM GAS  C:\Users\gjl\AppData\Local\Temp\ccd4oeHb.s 			page 51


 735              		.loc 1 79 0
 736 0058 9842     		cmp	r0, r3
 737 005a 03D2     		bcs	.L2
 738              	.LVL18:
  80:..\u8g2\csrc/u8g2_input_value.c ****   {
  81:..\u8g2\csrc/u8g2_input_value.c ****     y = u8g2_GetDisplayHeight(u8g2);
  82:..\u8g2\csrc/u8g2_input_value.c ****     y -= pixel_height;
  83:..\u8g2\csrc/u8g2_input_value.c ****     y /= 2;
 739              		.loc 1 83 0
 740 005c 181A     		subs	r0, r3, r0
 741              	.LVL19:
 742 005e C0B2     		uxtb	r0, r0
 743 0060 4308     		lsrs	r3, r0, #1
 744 0062 0393     		str	r3, [sp, #12]
 745              	.LVL20:
 746              	.L2:
  84:..\u8g2\csrc/u8g2_input_value.c ****   }
  85:..\u8g2\csrc/u8g2_input_value.c ****   
  86:..\u8g2\csrc/u8g2_input_value.c ****   /* calculate offset from left for the label */
  87:..\u8g2\csrc/u8g2_input_value.c ****   x = 0;
  88:..\u8g2\csrc/u8g2_input_value.c ****   pixel_width = u8g2_GetUTF8Width(u8g2, pre);
 747              		.loc 1 88 0
 748 0064 0799     		ldr	r1, [sp, #28]
 749 0066 2000     		movs	r0, r4
 750 0068 FFF7FEFF 		bl	u8g2_GetUTF8Width
 751              	.LVL21:
  89:..\u8g2\csrc/u8g2_input_value.c ****   pixel_width += u8g2_GetUTF8Width(u8g2, "0") * digits;
 752              		.loc 1 89 0
 753 006c 3849     		ldr	r1, .L33
  88:..\u8g2\csrc/u8g2_input_value.c ****   pixel_width += u8g2_GetUTF8Width(u8g2, "0") * digits;
 754              		.loc 1 88 0
 755 006e 0700     		movs	r7, r0
 756              	.LVL22:
 757              		.loc 1 89 0
 758 0070 2000     		movs	r0, r4
 759 0072 FFF7FEFF 		bl	u8g2_GetUTF8Width
 760              	.LVL23:
 761 0076 0600     		movs	r6, r0
 762              	.LVL24:
  90:..\u8g2\csrc/u8g2_input_value.c ****   pixel_width += u8g2_GetUTF8Width(u8g2, post);
 763              		.loc 1 90 0
 764 0078 1599     		ldr	r1, [sp, #84]
 765 007a 2000     		movs	r0, r4
 766 007c FFF7FEFF 		bl	u8g2_GetUTF8Width
 767              	.LVL25:
 768 0080 0B9B     		ldr	r3, [sp, #44]
 769 0082 3F18     		adds	r7, r7, r0
 770              	.LVL26:
 771 0084 5E43     		muls	r6, r3
  91:..\u8g2\csrc/u8g2_input_value.c ****   if ( pixel_width < u8g2_GetDisplayWidth(u8g2) )
 772              		.loc 1 91 0
 773 0086 2300     		movs	r3, r4
 774 0088 3F33     		adds	r3, r3, #63
  90:..\u8g2\csrc/u8g2_input_value.c ****   pixel_width += u8g2_GetUTF8Width(u8g2, post);
 775              		.loc 1 90 0
 776 008a BF19     		adds	r7, r7, r6
 777              		.loc 1 91 0
ARM GAS  C:\Users\gjl\AppData\Local\Temp\ccd4oeHb.s 			page 52


 778 008c 1E78     		ldrb	r6, [r3]
  87:..\u8g2\csrc/u8g2_input_value.c ****   pixel_width = u8g2_GetUTF8Width(u8g2, pre);
 779              		.loc 1 87 0
 780 008e 0023     		movs	r3, #0
  90:..\u8g2\csrc/u8g2_input_value.c ****   pixel_width += u8g2_GetUTF8Width(u8g2, post);
 781              		.loc 1 90 0
 782 0090 FFB2     		uxtb	r7, r7
 783              	.LVL27:
  87:..\u8g2\csrc/u8g2_input_value.c ****   pixel_width = u8g2_GetUTF8Width(u8g2, pre);
 784              		.loc 1 87 0
 785 0092 0493     		str	r3, [sp, #16]
 786              		.loc 1 91 0
 787 0094 B742     		cmp	r7, r6
 788 0096 0CD2     		bcs	.L4
 789              	.LVL28:
  92:..\u8g2\csrc/u8g2_input_value.c ****   {
  93:..\u8g2\csrc/u8g2_input_value.c ****     x = u8g2_GetDisplayWidth(u8g2);
  94:..\u8g2\csrc/u8g2_input_value.c ****     x -= pixel_width;
  95:..\u8g2\csrc/u8g2_input_value.c ****     x /= 2;
 790              		.loc 1 95 0
 791 0098 F71B     		subs	r7, r6, r7
 792              	.LVL29:
 793 009a FFB2     		uxtb	r7, r7
 794 009c 7B08     		lsrs	r3, r7, #1
 795 009e 0493     		str	r3, [sp, #16]
 796              	.LVL30:
 797 00a0 07E0     		b	.L4
 798              	.LVL31:
 799              	.L6:
  96:..\u8g2\csrc/u8g2_input_value.c ****   }
  97:..\u8g2\csrc/u8g2_input_value.c ****   
  98:..\u8g2\csrc/u8g2_input_value.c ****   /* event loop */
  99:..\u8g2\csrc/u8g2_input_value.c ****   for(;;)
 100:..\u8g2\csrc/u8g2_input_value.c ****   {
 101:..\u8g2\csrc/u8g2_input_value.c ****     u8g2_FirstPage(u8g2);
 102:..\u8g2\csrc/u8g2_input_value.c ****     do
 103:..\u8g2\csrc/u8g2_input_value.c ****     {
 104:..\u8g2\csrc/u8g2_input_value.c ****       /* render */
 105:..\u8g2\csrc/u8g2_input_value.c ****       yy = y;
 106:..\u8g2\csrc/u8g2_input_value.c ****       yy += u8g2_DrawUTF8Lines(u8g2, 0, yy, u8g2_GetDisplayWidth(u8g2), line_height, title);
 107:..\u8g2\csrc/u8g2_input_value.c ****       xx = x;
 108:..\u8g2\csrc/u8g2_input_value.c ****       xx += u8g2_DrawUTF8(u8g2, xx, yy, pre);
 109:..\u8g2\csrc/u8g2_input_value.c ****       xx += u8g2_DrawUTF8(u8g2, xx, yy, u8x8_u8toa(local_value, digits));
 110:..\u8g2\csrc/u8g2_input_value.c ****       u8g2_DrawUTF8(u8g2, xx, yy, post);
 111:..\u8g2\csrc/u8g2_input_value.c ****     } while( u8g2_NextPage(u8g2) );
 112:..\u8g2\csrc/u8g2_input_value.c ****     
 113:..\u8g2\csrc/u8g2_input_value.c **** #ifdef U8G2_REF_MAN_PIC
 114:..\u8g2\csrc/u8g2_input_value.c ****       return 0;
 115:..\u8g2\csrc/u8g2_input_value.c **** #endif
 116:..\u8g2\csrc/u8g2_input_value.c ****     
 117:..\u8g2\csrc/u8g2_input_value.c ****     for(;;)
 118:..\u8g2\csrc/u8g2_input_value.c ****     {
 119:..\u8g2\csrc/u8g2_input_value.c ****       event = u8x8_GetMenuEvent(u8g2_GetU8x8(u8g2));
 120:..\u8g2\csrc/u8g2_input_value.c ****       if ( event == U8X8_MSG_GPIO_MENU_SELECT )
 121:..\u8g2\csrc/u8g2_input_value.c ****       {
 122:..\u8g2\csrc/u8g2_input_value.c **** 	*value = local_value;
 123:..\u8g2\csrc/u8g2_input_value.c **** 	return 1;
ARM GAS  C:\Users\gjl\AppData\Local\Temp\ccd4oeHb.s 			page 53


 124:..\u8g2\csrc/u8g2_input_value.c ****       }
 125:..\u8g2\csrc/u8g2_input_value.c ****       else if ( event == U8X8_MSG_GPIO_MENU_HOME )
 800              		.loc 1 125 0
 801 00a2 5328     		cmp	r0, #83
 802 00a4 50D0     		beq	.L7
 126:..\u8g2\csrc/u8g2_input_value.c ****       {
 127:..\u8g2\csrc/u8g2_input_value.c **** 	return 0;
 128:..\u8g2\csrc/u8g2_input_value.c ****       }
 129:..\u8g2\csrc/u8g2_input_value.c ****       else if ( event == U8X8_MSG_GPIO_MENU_NEXT || event == U8X8_MSG_GPIO_MENU_UP )
 803              		.loc 1 129 0
 804 00a6 5128     		cmp	r0, #81
 805 00a8 3DD1     		bne	.L30
 806              	.L8:
 130:..\u8g2\csrc/u8g2_input_value.c ****       {
 131:..\u8g2\csrc/u8g2_input_value.c **** 	if ( local_value >= hi )
 807              		.loc 1 131 0
 808 00aa 0A9B     		ldr	r3, [sp, #40]
 809 00ac 9D42     		cmp	r5, r3
 810 00ae 3DD3     		bcc	.L31
 811 00b0 099D     		ldr	r5, [sp, #36]
 812              	.LVL32:
 813              	.L4:
 101:..\u8g2\csrc/u8g2_input_value.c ****     do
 814              		.loc 1 101 0
 815 00b2 2000     		movs	r0, r4
 816 00b4 FFF7FEFF 		bl	u8g2_FirstPage
 817              	.LVL33:
 818              	.L5:
 106:..\u8g2\csrc/u8g2_input_value.c ****       xx = x;
 819              		.loc 1 106 0 discriminator 1
 820 00b8 2300     		movs	r3, r4
 821 00ba 069A     		ldr	r2, [sp, #24]
 822 00bc 3F33     		adds	r3, r3, #63
 823 00be 1B78     		ldrb	r3, [r3]
 824 00c0 0192     		str	r2, [sp, #4]
 825 00c2 059A     		ldr	r2, [sp, #20]
 826 00c4 0021     		movs	r1, #0
 827 00c6 0092     		str	r2, [sp]
 828 00c8 2000     		movs	r0, r4
 829 00ca 039A     		ldr	r2, [sp, #12]
 830 00cc FFF7FEFF 		bl	u8g2_DrawUTF8Lines
 831              	.LVL34:
 832 00d0 039B     		ldr	r3, [sp, #12]
 108:..\u8g2\csrc/u8g2_input_value.c ****       xx += u8g2_DrawUTF8(u8g2, xx, yy, u8x8_u8toa(local_value, digits));
 833              		.loc 1 108 0 discriminator 1
 834 00d2 0499     		ldr	r1, [sp, #16]
 106:..\u8g2\csrc/u8g2_input_value.c ****       xx = x;
 835              		.loc 1 106 0 discriminator 1
 836 00d4 1818     		adds	r0, r3, r0
 837 00d6 C6B2     		uxtb	r6, r0
 838              	.LVL35:
 108:..\u8g2\csrc/u8g2_input_value.c ****       xx += u8g2_DrawUTF8(u8g2, xx, yy, u8x8_u8toa(local_value, digits));
 839              		.loc 1 108 0 discriminator 1
 840 00d8 3200     		movs	r2, r6
 841 00da 079B     		ldr	r3, [sp, #28]
 842 00dc 2000     		movs	r0, r4
 843 00de FFF7FEFF 		bl	u8g2_DrawUTF8
ARM GAS  C:\Users\gjl\AppData\Local\Temp\ccd4oeHb.s 			page 54


 844              	.LVL36:
 845 00e2 049B     		ldr	r3, [sp, #16]
 109:..\u8g2\csrc/u8g2_input_value.c ****       u8g2_DrawUTF8(u8g2, xx, yy, post);
 846              		.loc 1 109 0 discriminator 1
 847 00e4 0B99     		ldr	r1, [sp, #44]
 108:..\u8g2\csrc/u8g2_input_value.c ****       xx += u8g2_DrawUTF8(u8g2, xx, yy, u8x8_u8toa(local_value, digits));
 848              		.loc 1 108 0 discriminator 1
 849 00e6 1818     		adds	r0, r3, r0
 850 00e8 C7B2     		uxtb	r7, r0
 851              	.LVL37:
 109:..\u8g2\csrc/u8g2_input_value.c ****       u8g2_DrawUTF8(u8g2, xx, yy, post);
 852              		.loc 1 109 0 discriminator 1
 853 00ea 2800     		movs	r0, r5
 854 00ec FFF7FEFF 		bl	u8x8_u8toa
 855              	.LVL38:
 856 00f0 3200     		movs	r2, r6
 857 00f2 0300     		movs	r3, r0
 858 00f4 3900     		movs	r1, r7
 859 00f6 2000     		movs	r0, r4
 860 00f8 FFF7FEFF 		bl	u8g2_DrawUTF8
 861              	.LVL39:
 110:..\u8g2\csrc/u8g2_input_value.c ****     } while( u8g2_NextPage(u8g2) );
 862              		.loc 1 110 0 discriminator 1
 863 00fc 3F18     		adds	r7, r7, r0
 864              	.LVL40:
 865 00fe 3200     		movs	r2, r6
 866 0100 F9B2     		uxtb	r1, r7
 867 0102 159B     		ldr	r3, [sp, #84]
 868 0104 2000     		movs	r0, r4
 869 0106 FFF7FEFF 		bl	u8g2_DrawUTF8
 870              	.LVL41:
 111:..\u8g2\csrc/u8g2_input_value.c ****     
 871              		.loc 1 111 0 discriminator 1
 872 010a 2000     		movs	r0, r4
 873 010c FFF7FEFF 		bl	u8g2_NextPage
 874              	.LVL42:
 875 0110 061E     		subs	r6, r0, #0
 876              	.LVL43:
 877 0112 D1D1     		bne	.L5
 878              	.L12:
 119:..\u8g2\csrc/u8g2_input_value.c ****       if ( event == U8X8_MSG_GPIO_MENU_SELECT )
 879              		.loc 1 119 0
 880 0114 2000     		movs	r0, r4
 881 0116 FFF7FEFF 		bl	u8x8_GetMenuEvent
 882              	.LVL44:
 120:..\u8g2\csrc/u8g2_input_value.c ****       {
 883              		.loc 1 120 0
 884 011a 5028     		cmp	r0, #80
 885 011c C1D1     		bne	.L6
 122:..\u8g2\csrc/u8g2_input_value.c **** 	return 1;
 886              		.loc 1 122 0
 887 011e 089B     		ldr	r3, [sp, #32]
 123:..\u8g2\csrc/u8g2_input_value.c ****       }
 888              		.loc 1 123 0
 889 0120 0126     		movs	r6, #1
 122:..\u8g2\csrc/u8g2_input_value.c **** 	return 1;
 890              		.loc 1 122 0
ARM GAS  C:\Users\gjl\AppData\Local\Temp\ccd4oeHb.s 			page 55


 891 0122 1D70     		strb	r5, [r3]
 123:..\u8g2\csrc/u8g2_input_value.c ****       }
 892              		.loc 1 123 0
 893 0124 10E0     		b	.L7
 894              	.L30:
 129:..\u8g2\csrc/u8g2_input_value.c ****       {
 895              		.loc 1 129 0 discriminator 1
 896 0126 5428     		cmp	r0, #84
 897 0128 02D1     		bne	.L9
 898 012a BEE7     		b	.L8
 899              	.L31:
 132:..\u8g2\csrc/u8g2_input_value.c **** 	  local_value = lo;
 133:..\u8g2\csrc/u8g2_input_value.c **** 	else
 134:..\u8g2\csrc/u8g2_input_value.c **** 	  local_value++;
 900              		.loc 1 134 0
 901 012c 0135     		adds	r5, r5, #1
 902              	.LVL45:
 903 012e 09E0     		b	.L28
 904              	.LVL46:
 905              	.L9:
 135:..\u8g2\csrc/u8g2_input_value.c **** 	break;
 136:..\u8g2\csrc/u8g2_input_value.c ****       }
 137:..\u8g2\csrc/u8g2_input_value.c ****       else if ( event == U8X8_MSG_GPIO_MENU_PREV || event == U8X8_MSG_GPIO_MENU_DOWN )
 906              		.loc 1 137 0
 907 0130 5228     		cmp	r0, #82
 908 0132 01D0     		beq	.L11
 909              		.loc 1 137 0 is_stmt 0 discriminator 1
 910 0134 5528     		cmp	r0, #85
 911 0136 EDD1     		bne	.L12
 912              	.L11:
 138:..\u8g2\csrc/u8g2_input_value.c ****       {
 139:..\u8g2\csrc/u8g2_input_value.c **** 	if ( local_value <= lo )
 913              		.loc 1 139 0 is_stmt 1
 914 0138 099B     		ldr	r3, [sp, #36]
 915 013a 9D42     		cmp	r5, r3
 916 013c 01D8     		bhi	.L32
 917 013e 0A9D     		ldr	r5, [sp, #40]
 918              	.LVL47:
 919 0140 B7E7     		b	.L4
 920              	.LVL48:
 921              	.L32:
 140:..\u8g2\csrc/u8g2_input_value.c **** 	  local_value = hi;
 141:..\u8g2\csrc/u8g2_input_value.c **** 	else
 142:..\u8g2\csrc/u8g2_input_value.c **** 	  local_value--;
 922              		.loc 1 142 0
 923 0142 013D     		subs	r5, r5, #1
 924              	.LVL49:
 925              	.L28:
 926 0144 EDB2     		uxtb	r5, r5
 927              	.LVL50:
 928 0146 B4E7     		b	.L4
 929              	.L7:
 143:..\u8g2\csrc/u8g2_input_value.c **** 	break;
 144:..\u8g2\csrc/u8g2_input_value.c ****       }        
 145:..\u8g2\csrc/u8g2_input_value.c ****     }
 146:..\u8g2\csrc/u8g2_input_value.c ****   }
 147:..\u8g2\csrc/u8g2_input_value.c ****   
ARM GAS  C:\Users\gjl\AppData\Local\Temp\ccd4oeHb.s 			page 56


 148:..\u8g2\csrc/u8g2_input_value.c ****   /* never reached */
 149:..\u8g2\csrc/u8g2_input_value.c ****   //return r;  
 150:..\u8g2\csrc/u8g2_input_value.c **** }
 930              		.loc 1 150 0
 931 0148 3000     		movs	r0, r6
 932              	.LVL51:
 933 014a 0DB0     		add	sp, sp, #52
 934              		@ sp needed
 935              	.LVL52:
 936              	.LVL53:
 937 014c F0BD     		pop	{r4, r5, r6, r7, pc}
 938              	.L34:
 939 014e C046     		.align	2
 940              	.L33:
 941 0150 00000000 		.word	.LC0
 942              		.cfi_endproc
 943              	.LFE0:
 944              		.size	u8g2_UserInterfaceInputValue, .-u8g2_UserInterfaceInputValue
 945              		.section	.rodata.str1.1,"aMS",%progbits,1
 946              	.LC0:
 947 0000 3000     		.ascii	"0\000"
 948              		.text
 949              	.Letext0:
 950              		.file 2 "c:\\program files (x86)\\cypress\\psoc creator\\4.1\\psoc creator\\import\\gnu\\arm\\5.4.
 951              		.file 3 "c:\\program files (x86)\\cypress\\psoc creator\\4.1\\psoc creator\\import\\gnu\\arm\\5.4.
 952              		.file 4 "..\\u8g2\\csrc\\u8x8.h"
 953              		.file 5 "..\\u8g2\\csrc\\u8g2.h"