ARM GAS  C:\Users\gjl\AppData\Local\Temp\ccD3AtNj.s 			page 1


   1              		.syntax unified
   2              		.cpu cortex-m0
   3              		.fpu softvfp
   4              		.eabi_attribute 20, 1
   5              		.eabi_attribute 21, 1
   6              		.eabi_attribute 23, 3
   7              		.eabi_attribute 24, 1
   8              		.eabi_attribute 25, 1
   9              		.eabi_attribute 26, 1
  10              		.eabi_attribute 30, 4
  11              		.eabi_attribute 34, 0
  12              		.eabi_attribute 18, 4
  13              		.thumb
  14              		.syntax unified
  15              		.file	"u8g2_kerning.c"
  16              		.text
  17              	.Ltext0:
  18              		.section	.gnu.lto_.profile.1a3a617,"",%progbits
  19 0000 789C6361 		.ascii	"x\234ca`d`a`\000\222\266\326\000\001\037\000\203"
  19      60646061 
  19      600092B6 
  19      D600011F 
  19      0083
  20              		.text
  21              		.section	.gnu.lto_.icf.1a3a617,"",%progbits
  22 0000 789C6361 		.ascii	"x\234ca`d\000\001>\006\004`b\230ys\305=f\306\205\353"
  22      60640001 
  22      3E060460 
  22      62987973 
  22      C53D66C6 
  23 0016 1F2FE365 		.ascii	"\037/\343e\000\000.\027\005\370"
  23      00002E17 
  23      05F8
  24              		.text
  25              		.section	.gnu.lto_.jmpfuncs.1a3a617,"",%progbits
  26 0000 789C6361 		.ascii	"x\234ca`d\000\001\011\006\004`b`a\004\002>\206\372\372"
  26      60640001 
  26      09060460 
  26      62606104 
  26      023E86FA 
  27 0015 7A460493 		.ascii	"zF\004\223\001\000 %\003G"
  27      01002025 
  27      0347
  28              		.text
  29              		.section	.gnu.lto_.inline.1a3a617,"",%progbits
  30 0000 789C6361 		.ascii	"x\234ca`d\000\201w\014\010\300\304\300\2401\207\221"
  30      60640081 
  30      770C08C0 
  30      C4C0A031 
  30      8791
  31 0012 91835121 		.ascii	"\221\203Q!\353/\023\343\264\326C\347\331\2770\2652\003"
  31      EB2F13E3 
  31      B4D643E7 
  31      D9BF30B5 
  31      3203
  32 0024 55322E67 		.ascii	"U2.g\224a`T\310\206\322@\255\214\002\214\014\314`&\263"
  32      94616054 
ARM GAS  C:\Users\gjl\AppData\Local\Temp\ccD3AtNj.s 			page 2


  32      C886D240 
  32      AD8C028C 
  32      0CCC6026 
  33 0039 02987400 		.ascii	"\002\230t\000\223\011`\262\201\221\017h\034\333\002"
  33      930960B2 
  33      81910F68 
  33      1CDB02
  34 0048 79260696 		.ascii	"y&\006\226\005\362\002\014\214M\354\012\034L\014\314"
  34      05F2020C 
  34      8C4DEC0A 
  34      1C4C0CCC 
  35 0058 6DA20A1C 		.ascii	"m\242\012\034\014V'V\011p00\316\362q\000\012\201)\006"
  35      0C562756 
  35      09703030 
  35      CEF27100 
  35      0A812906 
  36 006c C6252C0D 		.ascii	"\306%,\015\214 \036\230f`\334\253\327\300\004\342\202"
  36      8C201E98 
  36      6660DCAB 
  36      D7C004E2 
  36      82
  37 007d 6906C673 		.ascii	"i\006\306sL\015, .\230f\000\032\001\264\236A|\026##"
  37      4C0D2C20 
  37      2E986600 
  37      1A01B49E 
  37      417C1623 
  38 0092 339A4B19 		.ascii	"3\232K\031\201.]\001u\351\012\230KYP\234\242\362f\221"
  38      812E5D01 
  38      75E90A98 
  38      4B59509C 
  38      A2F26691 
  39 00a6 1007D8B7 		.ascii	"\020\007\330\267\000\217%':"
  39      008F2527 
  39      3A
  40              		.text
  41              		.section	.gnu.lto_.pureconst.1a3a617,"",%progbits
  42 0000 789C6361 		.ascii	"x\234ca`d`e```b`e4\005\000\000\311\000H"
  42      60646065 
  42      60606062 
  42      60653405 
  42      0000C900 
  43              		.text
  44              		.section	.gnu.lto_u8g2_GetKerning.1a3a617,"",%progbits
  45 0000 789C8D56 		.ascii	"x\234\215V]lTE\024\2363s\367\376\354\336\335-\277\345"
  45      5D6C5445 
  45      149E3373 
  45      F7FEECDE 
  45      DD2DBFE5 
  46 0014 A7948221 		.ascii	"\247\224\202!\2441\264B\023\321\204\007\036L\210o\352"
  46      A431B442 
  46      13D18407 
  46      1E4C886F 
  46      EA
  47 0025 3389C652 		.ascii	"3\211\306R\221\030\373\000\362\344\003\267]\332\032"
  47      9118FB00 
  47      F2E403B7 
  47      5DDA1A
ARM GAS  C:\Users\gjl\AppData\Local\Temp\ccD3AtNj.s 			page 3


  48 0034 83A11429 		.ascii	"\203\241\024)P h\204\000\"?\025\241@[\335R\330\326\322"
  48      50206884 
  48      00223F15 
  48      A1405BDD 
  48      52D8D6D2 
  49 0048 160BE54F 		.ascii	"\026\013\345O1\221\277\232\230\230\260D\255A\350z\316"
  49      3191BF9A 
  49      9898B044 
  49      AD41E87A 
  49      CE
  50 0059 99D9B05B 		.ascii	"\231\331\260[k\302\246w\356\2353\347\373\316\231\357"
  50      6BC2A677 
  50      EE9D33E7 
  50      FBCE99EF 
  51 0069 9C99D412 		.ascii	"\234\231\324\022 \350\267\302\023\342U|_\307\007\342"
  51      20E8B7C2 
  51      13E2557C 
  51      5FC707E2 
  52 0079 0264E3A0 		.ascii	"\002d\343\240\0205\256\224\261\277\034\021\204UKJ\210"
  52      1035AE94 
  52      B1BF1C11 
  52      84554B4A 
  52      88
  53 008a C057606B 		.ascii	"\300W`k\273%\235s\012\355\241\301>\262\207\264\275\313"
  53      BB259D73 
  53      0AEDA1C1 
  53      3EB287B4 
  53      BDCB
  54 009c B5A5C596 		.ascii	"\265\245\305\2260/\373\216\214u\024\343\314\035.\307"
  54      302FFB8E 
  54      8C7514E3 
  54      CC1D2EC7 
  55 00ac 990B118D 		.ascii	"\231\013\021\215\366\244\317\350\260F\207\265\275\313"
  55      F6A4CFE8 
  55      B04687B5 
  55      BDCB
  56 00ba 8D484FA3 		.ascii	"\215HO\243y\331\367\015:\312\350(\3044:\006@\037\201"
  56      79D9F70D 
  56      3ACAE828 
  56      C4343A06 
  56      401F81
  57 00cd 0B628354 		.ascii	"\013b\203TV\310v\\/\034\361\2431\330\240l\001I\0132"
  57      56C8765C 
  57      2F1CF1A3 
  57      31D8A06C 
  57      01490B32 
  58 00e1 19C59B8A 		.ascii	"\031\305\233\212\344\315\376\224O$\\\034\355\335\024"
  58      E4CDFE94 
  58      4F245C1C 
  58      EDDD14
  59 00f0 2E3D1004 		.ascii	".=\020\004\265\301/\367\257\373\333\017&\241\016\227"
  59      B5C12FF7 
  59      AFFBDB0F 
  59      26A10E97 
  60 0100 33524045 		.ascii	"3R@E\021\274PD\333?\000\245\350\331\3339\360\241\232"
  60      11BC5044 
  60      DB3F00A5 
ARM GAS  C:\Users\gjl\AppData\Local\Temp\ccD3AtNj.s 			page 4


  60      E8D9DB39 
  60      F0A19A
  61 0113 0F023FFB 		.ascii	"\017\002?\373\356\216\234\266-t9\010D\205\226\241\215"
  61      EE8E9CB6 
  61      2D743908 
  61      448596A1 
  61      8D
  62 0124 C777AB3F 		.ascii	"\307w\253?d\235\002\260p\232\036h\271\033\243\251\204"
  62      649D02B0 
  62      709A1E68 
  62      B91BA3A9 
  62      84
  63 0135 129CD6A4 		.ascii	"\022\234\326\244~\255\211\253R\3066\337\336w\331^\270"
  63      7EAD89AB 
  63      52C636DF 
  63      DE77D95E 
  63      B8
  64 0146 9F0206ED 		.ascii	"\237\002\006\355U\201W\247\024|\005\212\002\036\206"
  64      558157A7 
  64      147C058A 
  64      021E86
  65 0155 22F8129F 		.ascii	"\"\370\022\237C`\241U\300\021X\210\200[G\216<Q\252\214"
  65      4360A155 
  65      C0115888 
  65      805B478E 
  65      3C51AA8C 
  66 0169 C19F0F8C 		.ascii	"\301\237\017\214tK\003\336\236\362\203FL\326\202\243"
  66      744B03DE 
  66      9EF28346 
  66      4CD682A3 
  67 0179 79708126 		.ascii	"yp\201&\001\307\030{!3\232\214\353\264h\263\227\037"
  67      01C7187B 
  67      21339A8C 
  67      EBB468B3 
  67      971F
  68 018b F4EF89E8 		.ascii	"\364\357\211\350\264\012(\255\372\261\006P/2\363\343"
  68      B40A28AD 
  68      FAB10650 
  68      2F32F3E3 
  69 019b 5DB5D7B3 		.ascii	"]\265\327\263\314?\325\373\301ku*\004_k\342V$>\316\304"
  69      CC3FD5FB 
  69      C16B752A 
  69      045F6BE2 
  69      56243ECE 
  70 01b0 21012798 		.ascii	"!\001'\230\270\346X\363\260T/3\364P\343\326\246\220"
  70      B8E658F3 
  70      B0542F33 
  70      F450E3D6 
  70      A690
  71 01c2 816E6B30 		.ascii	"\201nk0\320o&\200\236\204\205\344\377{\343\346nO-c\354"
  71      D06F2680 
  71      9E8485E4 
  71      FF7BE3E6 
  71      6E4F2D63 
  72 01d7 E6CC3FF5 		.ascii	"\346\314?\365\321\005_\0206y\345>\354\010\222\265%\004"
  72      D1055F10 
  72      3679E53E 
ARM GAS  C:\Users\gjl\AppData\Local\Temp\ccD3AtNj.s 			page 5


  72      EC0892B5 
  72      2504
  73 01e9 3F950F17 		.ascii	"?\225\017\027Z\345\266\226\261\244\245\2263\362\357"
  73      5AE5B696 
  73      B1A4A596 
  73      33F2EF
  74 01f8 EECD4D9E 		.ascii	"\356\315M\236F\0067\337\012\352\226\023\354\364\204"
  74      460637DF 
  74      0AEA9613 
  74      ECF484
  75 0207 B0F6C4F6 		.ascii	"\260\366\304\366B\365\012\243\366\035\3144\271\0065"
  75      42F50AA3 
  75      F61DCC34 
  75      B90635
  76 0216 94459D9D 		.ascii	"\224E\235\235\020\265g\313\276\224\253V0l\347\256\237"
  76      10B567CB 
  76      BE94AB56 
  76      306CE7AE 
  76      9F
  77 0227 9BC0C0CE 		.ascii	"\233\300\300\316da\035\023\302\356\264\216m\213\332"
  77      64611D13 
  77      C2EEB48E 
  77      6D8BDA
  78 0236 1B03FC95 		.ascii	"\033\003\374\225@',\200v|\316\340\323\006\013\250\255"
  78      40272C80 
  78      767CCEE0 
  78      D3060BA8 
  78      AD
  79 0247 B09FBE05 		.ascii	"\260\237\276\005\033\017\2315~\365\330\033\311 \223"
  79      1B0F9935 
  79      7EF5D81B 
  79      C92093
  80 0256 4904C9A1 		.ascii	"I\004\311\241P\332\177\016\004\255#?z(\324\017\375\251"
  80      50DA7F0E 
  80      04AD233F 
  80      7A28D40F 
  80      FDA9
  81 0268 A8D8D0E8 		.ascii	"\250\330\320\350\356\360\350\242\331\366pp\3024Dh\352"
  81      EEF0E8A2 
  81      D9F67070 
  81      C2344468 
  81      EA
  82 0279 E3E04681 		.ascii	"\343\340F\201\312\024c\2068Y\013p\200I4L\246a\012\331"
  82      CA146386 
  82      38590B70 
  82      8049344C 
  82      A6610AD9 
  83 028d A60A0A3A 		.ascii	"\246\012\012:\215\220\323i^\310\241f\320\347L2\316\242"
  83      8D90D369 
  83      5EC8A166 
  83      D0E74C32 
  83      CEA2
  84 029f 61364DA9 		.ascii	"a6M\251|\356\034\240\372\025\263\323\\4x%\3044\217\276"
  84      7CEE1CA0 
  84      FA15B3D3 
  84      5C347825 
  84      C4348FBE 
ARM GAS  C:\Users\gjl\AppData\Local\Temp\ccD3AtNj.s 			page 6


  85 02b3 E6537A42 		.ascii	"\346SzB<\300\315]qDZJ|\251\333\260\361\307\304\341\012"
  85      3CC0CD5D 
  85      71445A4A 
  85      7CA9DBB0 
  85      F1C7C4E1 
  86 02c8 DA6C42D1 		.ascii	"\332lB\321\231h\256;w\311\241\346\263pk\337\031\301"
  86      9968AE3B 
  86      77C9A1E6 
  86      B3706BDF 
  86      19C1
  87 02da D2528907 		.ascii	"\322R\211\007\266\032\201\332\263\255m\216v\266\321"
  87      B61A81DA 
  87      B3AD6D8E 
  87      76B6D1
  88 02e9 79B4A7EF 		.ascii	"y\264\247\357#\177/\354\251!\035_G\3760\222h\024\256"
  88      237F2FEC 
  88      A9211D5F 
  88      47FE3092 
  88      6814AE
  89 02fc EEBF577B 		.ascii	"\356\277W{\324)_DEH\302^\030#U\005tA\271\270\003\265"
  89      D4295F44 
  89      4548C25E 
  89      18235505 
  89      7441B9B8 
  90 0312 419C0546 		.ascii	"A\234\005F}\220J\214@\242\271~\354\035\315\354h\362"
  90      7D904A8C 
  90      40A2B97E 
  90      EC1DCDEC 
  90      68F2
  91 0324 B337AE2E 		.ascii	"\2637\256.\245DBt\025\3009$\275\003\362)\310!\226d\372"
  91      A5444274 
  91      15C03924 
  91      BD03F229 
  91      C8219664 
  92 0339 7DB6A082 		.ascii	"}\266\240\202\271\271\2070\367n\316=--\201\227\223N"
  92      B9B98730 
  92      F76ECE3D 
  92      2D2D8197 
  92      934E
  93 034b BDB35407 		.ascii	"\275\263T\007psR\207\377K\332\206\363\2344]\264p\001"
  93      70735287 
  93      FF4BDA86 
  93      F39C345D 
  93      B47001
  94 035e 93468A87 		.ascii	"\223F\212\207\015\217-M\341%\024P\326-\266\236#\207"
  94      0D8F2D4D 
  94      E1251450 
  94      D62DB69E 
  94      2387
  95 0370 977B921D 		.ascii	"\227{\222\035L5\205\224\350\262\333\270D00:\022\317"
  95      4C358594 
  95      E8B2DBB8 
  95      4430303A 
  95      12CF
  96 0382 A3B036F9 		.ascii	"\243\2606\371\271I\333\334\3039y! \002=\224\027\364"
  96      B949DBDC 
  96      C3397921 
ARM GAS  C:\Users\gjl\AppData\Local\Temp\ccD3AtNj.s 			page 7


  96      20023D94 
  96      17F4
  97 0394 622A826B 		.ascii	"b*\202k\365\266A&T\324\224&$>\353\241\015\242\202\251"
  97      F5B64126 
  97      54D49426 
  97      243EEBA1 
  97      0DA282A9 
  98 03a8 1E539C18 		.ascii	"\036S\234\030\246\207d'\033\372[\303Z\020\200\357s\024"
  98      A6876427 
  98      1BFA5BC3 
  98      5A1080EF 
  98      7314
  99 03ba EC240563 		.ascii	"\354$\005c\014\267\005^\313\012\265,\020\332\314\201"
  99      0CB7055E 
  99      CB0AB52C 
  99      10DACC81 
 100 03ca 061331CD 		.ascii	"\006\0231\315\004\2444\376\036\"\003J\252N+\004\206"
 100      04A434FE 
 100      1E22034A 
 100      AA4E2B04 
 100      86
 101 03db 7AA9811C 		.ascii	"z\251\201\034\352\011\364\275\231\030\255\310w\306E"
 101      EA09F4BD 
 101      9918ADC8 
 101      77C645
 102 03ea 57ECB458 		.ascii	"W\354\264X\365\364\371\232\220^\215?\233\354},;\037"
 102      F5F4F99A 
 102      905E8D3F 
 102      9BEC7D2C 
 102      3B1F
 103 03fc C18BE365 		.ascii	"\301\213\343e/0\2627\033M'\241\211\256\377\234JLF+\237"
 103      2F30B237 
 103      1B4D27A1 
 103      89AEFF9C 
 103      4A4C462B 
 104 0411 F41CE9A7 		.ascii	"\364\034\351\247`p\\a\351?^\246mS\307\367/*\314\232"
 104      60705C61 
 104      E93F5EA6 
 104      6D53C7F7 
 104      2F2ACC9A 
 105 0425 4F319AF7 		.ascii	"O1\232\367\223\346O;\265\215\264\231\312\221\352\257"
 105      93E64F3B 
 105      B58DB499 
 105      CA91EAAF 
 106 0435 ED38059A 		.ascii	"\3558\005\232e\032%0\256\320\3239\3324\035\355\226q"
 106      651A2530 
 106      AED0D339 
 106      DA341DED 
 106      9671
 107 0447 2C1C1FAE 		.ascii	",\034\037\256\315\204\233n\302\015d\303-\345p\355\024"
 107      CD849B6E 
 107      C20D64C3 
 107      2DE570ED 
 107      14
 108 0458 AE90A5F4 		.ascii	"\256\220\245\364D\327\"\335\300\251-F\312\031\317&\345"
 108      44D722DD 
 108      C0A92D46 
ARM GAS  C:\Users\gjl\AppData\Local\Temp\ccD3AtNj.s 			page 8


 108      CA19CF26 
 108      E5
 109 0469 204B49A7 		.ascii	" KI\247\036.e\245<o(f&\224\314\325m\026\232\306\357"
 109      1E2E65A5 
 109      3C6F2866 
 109      2694CCD5 
 109      6D169AC6 
 110 047e 643646C2 		.ascii	"d6F\302\225\334\226-\372O\217\3166\033\370a|\217\026"
 110      95DC962D 
 110      FA4F8FCE 
 110      361BF861 
 110      7C8F16
 111 0491 25D41CD3 		.ascii	"%\324\034\323\015a\321\376\274n\321k;\036\031E\2121"
 111      0D61D1FE 
 111      BC6ED16B 
 111      3B1E1945 
 111      8A31
 112 04a3 81BCA6E4 		.ascii	"\201\274\246\344-\027\263\177D\014\227\233\236d\253"
 112      2D17B37F 
 112      440C979B 
 112      9E64AB
 113 04b2 CCEB4949 		.ascii	"\314\353II\205\340\236\304\257B\227Z\2628|#\2168\237"
 113      85E09EC4 
 113      AF42975A 
 113      B2387C23 
 113      8E389F
 114 04c5 BA8E5BF2 		.ascii	"\272\216[\362\356&;\337\031W\243\242G\352\236\034\310"
 114      EE263BDF 
 114      1957A3A2 
 114      47EA9E1C 
 114      C8
 115 04d6 0A39F759 		.ascii	"\0129\367Y\204\364`\210\205\264H\310\313Y!\373MO\226"
 115      84F46088 
 115      85B448C8 
 115      CB5921FB 
 115      4D4F96
 116 04e9 1821B3A2 		.ascii	"\030!\263\242\315CV\264\352\362\017\233\315\316\317"
 116      CD4356B4 
 116      EAF20F9B 
 116      CDCECF
 117 04f8 3DE95EDE 		.ascii	"=\351^\336I\347n\330J\335\200\207z\036\\a1\207IL\312"
 117      49E76ED8 
 117      4ADD8087 
 117      7A1E5C61 
 117      3187494C 
 118 050d 3946B7F4 		.ascii	"9F\267\364o\244DB)\336\263\312\245\302\377\003\341*"
 118      6FA44442 
 118      29DEB3CA 
 118      A5C2FF03 
 118      E12A
 119 051f 14C98E4F 		.ascii	"\024\311\216O\034z;\367\342\364\362?\255\300\220\321"
 119      1C7A3BF7 
 119      E2F4F23F 
 119      ADC090D1 
 120 052f 8E13EFE2 		.ascii	"\216\023\357\342u\017\310\200\247inY\331J\374[\377\322"
 120      750FC880 
 120      A7696E59 
ARM GAS  C:\Users\gjl\AppData\Local\Temp\ccD3AtNj.s 			page 9


 120      D94AFC5B 
 120      FFD2
 121 0541 EA252B2B 		.ascii	"\352%++\327\255\255\344\2577\337\253Z[\275\246zuY\245"
 121      D7ADADE4 
 121      AF37DFAB 
 121      5A5BBDA6 
 121      7A7559A5 
 122 0555 B0D757AF 		.ascii	"\260\327W\257_W\265\312\"\263c\314\262j\261\254Z\242"
 122      5F57B5CA 
 122      22B363CC 
 122      B26AB1AC 
 122      5AA2
 123 0567 AAAA57A9 		.ascii	"\252\252W\251\312\352\017\344\232%r\315\342\177\001"
 123      CAEA0FE4 
 123      9A2572CD 
 123      E27F01
 124 0576 88EBEFAF 		.ascii	"\210\353\357\257"
 125              		.text
 126              		.section	.gnu.lto_u8g2_GetKerningByTable.1a3a617,"",%progbits
 127 0000 789C6D54 		.ascii	"x\234mT\335kTG\024?g\316\375\334l6\337\222\207\200\241"
 127      DD6B5447 
 127      143F67CE 
 127      FDDC6C36 
 127      DF928780 
 128 0015 20212FC1 		.ascii	" !/\301\250`\376\004\037\245\317B\241q\261\"\204\242"
 128      A860FE04 
 128      1FA5CF42 
 128      A171B122 
 128      84A2
 129 0027 060A7DC8 		.ascii	"\006\012}\310\315\336lR\301@P\0145Y\253\320\006\215"
 129      CDDE6C52 
 129      C140500C 
 129      3559ABD0 
 129      068D
 130 0039 491B6D1B 		.ascii	"I\033m\033c\343\327\306b\252QW\222\226\210\022\332\232"
 130      63E3D7C6 
 130      62AA5157 
 130      92968812 
 130      DA9A
 131 004b 80822F26 		.ascii	"\200\202/&\361#%i]\317\231\271\352Z\275\354\235;\363"
 131      F1232569 
 131      5DCF99B9 
 131      EA5ABDEC 
 131      9D3BF3
 132 005e 9BDFEFCC 		.ascii	"\233\337\357\314\357\314\234Y\013\020\344\251\265\001"
 132      EFCC9C59 
 132      0B10E4A9 
 132      B501
 133 006c 9AF8DBC6 		.ascii	"\232\370\333\306/\306\000UO\016\240\335S\312{\341B\020"
 133      2FC60055 
 133      4F0EA0DD 
 133      53CA7BE1 
 133      4210
 134 007e A3BE4980 		.ascii	"\243\276I\200 N\350\013\216\276\362\256\022\303VnJ`"
 134      204EE80B 
 134      8EBEF2AE 
 134      12C3566E 
ARM GAS  C:\Users\gjl\AppData\Local\Temp\ccD3AtNj.s 			page 10


 134      4A60
 135 0090 4BD98B55 		.ascii	"K\331\213U<tO4\361\310V\216\236t\315\244\203\236\211"
 135      3C744F34 
 135      F1C8568E 
 135      9E74CDA4 
 135      839E89
 136 00a3 E51AF184 		.ascii	"\345\032\361\204\347!J'\360\020\332\024\371\226\355"
 136      E7214A27 
 136      F010DA14 
 136      F996ED
 137 00b2 B81EB629 		.ascii	"\270\036\266)\037\314\363\\\375\247\360\346\312\365"
 137      1FCCF35C 
 137      FDA7F0E6 
 137      CAF5
 138 00c0 83B1FA93 		.ascii	"\203\261\372\223A\220\012\376\276\366h\333R*]\235&\200"
 138      41900AFE 
 138      BEF668DB 
 138      522A5D9D 
 138      2680
 139 00d2 BC02DC5C 		.ascii	"\274\002\334\\\203\033k\304\346I\254g\346\365K\267\277"
 139      831B6BC4 
 139      E649AC67 
 139      E6F54BB7 
 139      BF
 140 00e3 A48F10B8 		.ascii	"\244\217\020\270;\265\360\360\274c1\345\0242W\220\351"
 140      3BB5F0F0 
 140      BC6331E5 
 140      14325790 
 140      E9
 141 00f4 8E33197A 		.ascii	"\2163\031z\246\322\204h\361p\351v\337BB\206\012ky\330"
 141      A6D28468 
 141      F170E976 
 141      DF424286 
 141      0A6B79D8 
 142 0108 3EF9A8BD 		.ascii	">\371\250\275\204\352\265\266\367\301w3N\335\200,\030"
 142      84EAB5B6 
 142      F7C17733 
 142      4EDD802C 
 142      18
 143 0119 DC4B067E 		.ascii	"\334K\006~\232\010\207\221d\301!\254\301\323\374\016"
 143      9A088791 
 143      64C121AC 
 143      C1D3FC0E 
 144 0129 A2C528E0 		.ascii	"\242\305(\340\367X\307\202\334\314\\55h\355\323\\\367"
 144      F758C782 
 144      DCCC5C35 
 144      3568EDD3 
 144      5CF7
 145 013b 9FAFB5A3 		.ascii	"\237\257\265\243\223\361\240\007\323d\341\017\357\250"
 145      93F1A007 
 145      D364E10F 
 145      EFA8
 146 0149 8121C011 		.ascii	"\201!\300\021-\275\226_\311\226\030W\222\353\314\342"
 146      2DBD965F 
 146      C9961857 
 146      92EBCCE2 
 147 0159 AD6345C6 		.ascii	"\255cE\306U\251\270\352|\331\205\324\250#\377\333\237"
ARM GAS  C:\Users\gjl\AppData\Local\Temp\ccD3AtNj.s 			page 11


 147      55A9B8EA 
 147      7CD985D4 
 147      A823FFDB 
 147      9F
 148 016a BAABA2C8 		.ascii	"\272\253\242\310\177u\306\203\355i\262\361G\023\370"
 148      7F75C683 
 148      ED69B2F1 
 148      4713F8
 149 0179 2C073EA3 		.ascii	",\007>\243\003\333\200?\351\300\355#\275\177(\332\242"
 149      03DB803F 
 149      E9C0ED23 
 149      BD7F28DA 
 149      A2
 150 018a A5833D87 		.ascii	"\245\203=\207\017\331\221\364hW$\375\371\003\322Q\254"
 150      0FD991F4 
 150      685724FD 
 150      F903D251 
 150      AC
 151 019b 13FEC0CD 		.ascii	"\023\376\300\315_/'h\253\326\256|\363d5\276\341[\321"
 151      5F2F2768 
 151      ABD6AE7C 
 151      F36435BE 
 151      E15BD1
 152 01ae 66A73B13 		.ascii	"f\247;\023_\007\331T\255\310\317\275+\007\263\311\363"
 152      5F07D954 
 152      ADC8CFBD 
 152      2B07B3C9 
 152      F3
 153 01bf 675F1E29 		.ascii	"g_\036)v:\002~jq\0147\310)\361\361\234G\207k\013\005"
 153      763A027E 
 153      6A710C37 
 153      C829F1F1 
 153      9C47876B 
 154 01d5 19F9381B 		.ascii	"\031\3718\033\344\363a\220\275\342L\254:\353\020\004"
 154      E4F36190 
 154      BDE24CAC 
 154      3AEB1004 
 155 01e5 54BC3CF0 		.ascii	"T\274<\360\026\360\236X\334uli\034\331'\217\033\327"
 155      16F09E58 
 155      DC756C69 
 155      1CD9278F 
 155      1BD7
 156 01f7 D7A4184A 		.ascii	"\327\244\030JjE\272\037g\030\213\245I\010\253DX\245"
 156      6A45BA1F 
 156      67188BA5 
 156      4908AB44 
 156      58A5
 157 0209 28FECB04 		.ascii	"(\376\313\004,\227\246Bf*e\246J\302\003,\262\2275\013"
 157      2C97A642 
 157      662A65A6 
 157      4AC2032C 
 157      B297350B 
 158 021d 9694E20F 		.ascii	"\226\224\342\017\315c*\373\373\244\322\3368\242\234"
 158      CD632AFB 
 158      FBA4D2DE 
 158      38A29C
 159 022c 7BFAEA1D 		.ascii	"{\372\352\035W6\337fW\277pR\017\260\343~8\324\355\010"
ARM GAS  C:\Users\gjl\AppData\Local\Temp\ccD3AtNj.s 			page 12


 159      5736DF66 
 159      57BF7052 
 159      0FB0E37E 
 159      38D4ED08 
 160 0240 27242AA4 		.ascii	"'$*\244XL\031\217\362^R\004\343\026\3012\372\"S\231"
 160      584C198F 
 160      F25E5204 
 160      E316C132 
 160      FA225399 
 161 0254 D14AC67C 		.ascii	"\321J\306|\340\312F^\245T;\016\011\341!\246\226\273"
 161      E0CA465E 
 161      A5543B0E 
 161      09E121A6 
 161      96BB
 162 0266 5EF43599 		.ascii	"^\3645\231x\226\201\302\276(\276\315PaE8\250\360\002"
 162      789681C2 
 162      BE28BECD 
 162      50614538 
 162      A8F002
 163 0279 2FC1944C 		.ascii	"/\301\224LD\021\027L\224@\2531\003yrF\277M}\025?\216"
 163      4411174C 
 163      9440AB31 
 163      03797246 
 163      BF4D7D15 
 164 028f C7B8D63C 		.ascii	"\307\270\326<&\031cx\021\217\243I\341\323\267\324\201"
 164      26196378 
 164      118FA349 
 164      E1D3B7D4 
 164      81
 165 02a0 D5B5457D 		.ascii	"\325\265E}\013\\\314\347\011/\231\024\226\021C\362\211"
 165      0B5CCCE7 
 165      092F9914 
 165      961143F2 
 165      89
 166 02b1 9B227778 		.ascii	"\233\"wx\254\232\335[\300W\226\264z\241\273:\322\207"
 166      AC9ADD5B 
 166      C05796B4 
 166      7AA1BB3A 
 166      D287
 167 02c3 148B12B6 		.ascii	"\024\213\022\266a\271\222\330Xo\347\034\231\3118\273"
 167      61B992D8 
 167      586FE71C 
 167      99C938BB 
 168 02d3 97CB5890 		.ascii	"\227\313X\220P1\243\2728\0122H\350\014\212\0133(y/\203"
 168      5031A3BA 
 168      380A3248 
 168      E80C8A0B 
 168      3328792F 
 169 02e8 4494C1E5 		.ascii	"D\224\301\3457\031\214c\304\015\2514\262\340\300?`,"
 169      37198C63 
 169      C40DA934 
 169      B2E0C03F 
 169      602C
 170 02fa E4FAB79B 		.ascii	"\344\372\267\233\3312\361\020-\370\332D9\303\3777Q\241"
 170      D932F110 
 170      2DF8DA44 
 170      39C3FF37 
ARM GAS  C:\Users\gjl\AppData\Local\Temp\ccD3AtNj.s 			page 13


 170      51A1
 171 030c 4D94179A 		.ascii	"M\224\027\232\250|\317DEd\342\212\230\320'\367,2Q\305"
 171      A87CCF44 
 171      4564E28A 
 171      98D027F7 
 171      2C3251C5 
 172 0320 746DC185 		.ascii	"tm\301\205\331\033\221\207\331\376\270\231,\342S\345"
 172      D91B9187 
 172      D9FEB899 
 172      2CE253E5 
 173 0330 58073247 		.ascii	"X\0072G\207\242Z\"\314r\240y|SjL\322rO\312\360\261\024"
 173      87A25A22 
 173      CC72A079 
 173      7C536A4C 
 173      D2724FCA 
 174 0347 48484A9F 		.ascii	"HHJ\237\202*,1\376;\306\011.\247\213\243\237\363\232"
 174      822A2C31 
 174      FE3BC609 
 174      2EA78BA3 
 174      9FF39A
 175 035a 4E66EC0B 		.ascii	"Nf\354\013\031\372\267\306>\343JF\326\262f}C\303\016"
 175      19FAB7C6 
 175      3EE34A46 
 175      D6B2667D 
 175      43C30E
 176 036d FEB536ED 		.ascii	"\376\2656\355\332\264\243y\337\336f\335\373dOro\313"
 176      DAB4A379 
 176      DFDE66DD 
 176      FB644F72 
 176      6FCB
 177 037f EE965D0D 		.ascii	"\356\226]\015\315\340\264\266\264\356K\356\264\004V"
 177      CDE0B4B6 
 177      B4EE4BEE 
 177      B40456
 178 038e 7BF6AB64 		.ascii	"{\366\253d\243Jn\302\335\257\000D\277\245\340"
 178      A34A6EC2 
 178      DDAF0044 
 178      BFA5E0
 179              		.text
 180              		.section	.gnu.lto_.symbol_nodes.1a3a617,"",%progbits
 181 0000 789C6361 		.ascii	"x\234ca`dPa\000\002&\206z\006\206\011\347\030@\324\256"
 181      60645061 
 181      00022686 
 181      7A068609 
 181      E71840D4 
 182 0015 0645A000 		.ascii	"\006E\240\000c=#\212\000\003\000\217\325\007\236"
 182      633D238A 
 182      0003008F 
 182      D5079E
 183              		.text
 184              		.section	.gnu.lto_.refs.1a3a617,"",%progbits
 185 0000 789C6361 		.ascii	"x\234ca`\004B \000\000\0009\000\007"
 185      60044220 
 185      00000039 
 185      0007
 186              		.text
 187              		.section	.gnu.lto_.decls.1a3a617,"",%progbits
ARM GAS  C:\Users\gjl\AppData\Local\Temp\ccD3AtNj.s 			page 14


 188 0000 789CC55A 		.ascii	"x\234\305ZkPT[v\356\323\273\201\246\273\001/p\325\244"
 188      6B50545B 
 188      76EED3BB 
 188      81A6BB01 
 188      2F70D5A4 
 189 0014 CCDC9B5B 		.ascii	"\314\334\233[\316\035R5\343\325\271\223\211\223_\271"
 189      CE1D5235 
 189      E3D5B993 
 189      89935FB9 
 190 0024 49552695 		.ascii	"IU&\225Te~$3\277H\3654M\243\235\213\015\325\335xa\376"
 190      54657E24 
 190      33BF48F5 
 190      344DA39D 
 190      8B0DD5DD 
 191 003b A44144C5 		.ascii	"\244AD\305\007\017\025\005\024\025\021PT\220\207\010"
 191      070F1505 
 191      14151150 
 191      54908708 
 192 004b F2BA3E10 		.ascii	"\362\272>\020T\344\321\202\" \370\002_\010\010\212\274"
 192      54E4D182 
 192      2220F802 
 192      5F08088A 
 192      BC
 193 005c 246BEF75 		.ascii	"$k\357u\272\317\356\34603U\311$]\254>g\355\363\355\275"
 193      BACFEEE6 
 193      303355C9 
 193      245DAC3E 
 193      67EDF3ED 
 194 0071 D76BAFBD 		.ascii	"\327k\257\275\366iT\012AA?Y_)\024{\325\012\305s\270"
 194      F669540A 
 194      41413F59 
 194      5F29147B 
 194      D50AC573 
 195 0086 5F840F81 		.ascii	"_\204\017\201\353o\200\224@=@\227\024\370\241\374\017"
 195      EB6F8094 
 195      403D4097 
 195      14F8A1FC 
 195      0F
 196 0097 E0EB874A 		.ascii	"\340\353\207J\305\222\017m\017\200k\013P0P(\320[\001"
 196      C5920F6D 
 196      0F806B0B 
 196      50305028 
 196      D05B01
 197 00aa FB578963 		.ascii	"\373W\211c\374\012\350K\240\233@\335@\325@\255@>@\267"
 197      FC0AE84B 
 197      A09B40DD 
 197      40D540AD 
 197      403E40B7 
 198 00be 81BA80DA 		.ascii	"\201\272\200\332\200:\201n\001\011\342\270\336\037:"
 198      803A816E 
 198      0109E2B8 
 198      DE1F3A
 199 00cd BFBFCC5C 		.ascii	"\277\277\314\\\227\304\271\\\363T\213xA!/\363\202R\350"
 199      97C4B95C 
 199      F3548B78 
 199      41212FF3 
 199      8252E8
ARM GAS  C:\Users\gjl\AppData\Local\Temp\ccD3AtNj.s 			page 15


 200 00e0 4C2E3B42 		.ascii	"L.;B\246\224B\260FP\001;\321\226\363$\020\330P\215\360"
 200      A69442B0 
 200      4650013B 
 200      D196F324 
 200      10D8508D 
 201 00f5 39B05DE3 		.ascii	"9\260]\343\267\217j\361\351\012`s.O\335\364AV\015\354"
 201      B78F6AF1 
 201      E90A6073 
 201      2E4FDDF4 
 201      41560DEC 
 202 0109 C96DB9F9 		.ascii	"\311m\271\371\376D)\320qN\315\316\215\323q\276\324\010"
 202      FE4429D0 
 202      714ECDCE 
 202      8DD371BE 
 202      D408
 203 011b 603F6828 		.ascii	"`?h(}]3\023\200\015\364\371\340L\361?\256;\353\200O"
 203      7D5D3313 
 203      800DF4F9 
 203      E04CF13F 
 203      AE3BEB80 
 204 0130 BAC3A1DC 		.ascii	"\272\303\241\334(\011\320x\253\265PG\376\222\201\256"
 204      2809D078 
 204      ABB55047 
 204      FE9281AE 
 205 0140 2F4E3705 		.ascii	"/N7\005\341\370Jn\366P6\273\262\240)i\273 h\302v:\034"
 205      E1F84A6E 
 205      F65036BB 
 205      B2A02969 
 205      BB2068C2 
 206 0157 490EC736 		.ascii	"I\016\3076\207\2468P!\\\020\326\010e\302\032\205P!\204"
 206      87A63850 
 206      215C10D6 
 206      0865C21A 
 206      85502184 
 207 016b D1B9CE0B 		.ascii	"\321\271\316\013\353\024\3029h<\013\215\205t\276\241"
 207      EB14C239 
 207      683C0B8D 
 207      8574BEA1 
 208 017b 9AD17FDE 		.ascii	"\232\321\177\336\346p\010B\271\240\021J\005\302 `\223"
 208      E6700842 
 208      B9A0114A 
 208      05C22060 
 208      93
 209 018c 2F352840 		.ascii	"/5(@CF\337\260\206\224\012T\002\345\351\361\333g\203"
 209      4346DFB0 
 209      86940A54 
 209      02E5E9F1 
 209      DB6783
 210 019f 969DE3E2 		.ascii	"\226\235\343\342\262sL\354\376\022\224[!T\301\034\225"
 210      B2734CEC 
 210      FE12945B 
 210      2154C11C 
 210      95
 211 01b0 D21C3025 		.ascii	"\322\0340%N\322\227\363\375\271@\2158j\372\037\036\025"
 211      4ED297F3 
 211      FDB9408D 
 211      386AFA1F 
ARM GAS  C:\Users\gjl\AppData\Local\Temp\ccD3AtNj.s 			page 16


 211      1E15
 212 01c2 BAF4EF4F 		.ascii	"\272\364\357O,\326\352Ri\227\364m\216\340\226@\241\032"
 212      2CD6EA52 
 212      6997F46D 
 212      8EE09640 
 212      A11A
 213 01d4 062F0640 		.ascii	"\006/\006@\021\000\024\302%A\3472aO\375%\201\224\242"
 213      110014C2 
 213      2541E732 
 213      614FFD25 
 213      8194A2
 214 01e7 23E6669B 		.ascii	"#\346f\233\026|\311ud\372\012+\273\325\344\0012]\023"
 214      167CC975 
 214      64FA0A2B 
 214      BBD5E401 
 214      325D13
 215 01fa CD7703C8 		.ascii	"\315w\003\310+d\236\3455|K\346\360~b\376h\265?\232="
 215      2B649EE5 
 215      357C4BE6 
 215      F07E62FE 
 215      68B53F9A 
 216 020f 14D885C1 		.ascii	"\024\330\205\301\364t?4\373q\201\272\271\267\377\265"
 216      F4743F34 
 216      FB7181BA 
 216      B9B7FFB5 
 217 021f 92EC260C 		.ascii	"\222\354&\014[\272\375\351i5<\\\003~\02687\257A7W6M"
 217      5BBAFDE9 
 217      69353C5C 
 217      037E1638 
 217      37AF4137 
 218 0236 9E53911C 		.ascii	"\236S\221\034\206UvV\364^\367\027\3024\242\033\336}"
 218      86557656 
 218      F45EF717 
 218      C234A21B 
 218      DE7D
 219 0248 C3DC701D 		.ascii	"\303\334p\035\264\270*\231h\015\265\0203\314x\276\303"
 219      B4B82A99 
 219      680DB510 
 219      33CC78BE 
 219      C3
 220 0259 77B542F8 		.ascii	"w\265B\370z\215\260\036\254r\015\254\262F\264\312\025"
 220      7A8DB01E 
 220      AC720DAC 
 220      B246B4CA 
 220      15
 221 026a 50FA7BB4 		.ascii	"P\372{\264\312\351c\305\327\002H\001N0z\340\325N\342"
 221      CAE963C5 
 221      D7024801 
 221      4E307AE0 
 221      D54EE2
 222 027d 9E6062F7 		.ascii	"\236`b\367\232\022\352\203\026\230\240Y\232\340\272"
 222      9A12EA83 
 222      1698A059 
 222      9AE0BA
 223 028c B0CC0C37 		.ascii	"\260\314\0147\344g8\332\3758\335_#\342\323\3770\376"
 223      E46738DA 
 223      FD38DD5F 
ARM GAS  C:\Users\gjl\AppData\Local\Temp\ccD3AtNj.s 			page 17


 223      23E2D3FF 
 223      30FE
 224 029e 457FF5BC 		.ascii	"E\177\365\274\316\303O\255\036~\272\351\362\223\372"
 224      CEC34FAD 
 224      1E7EBAE9 
 224      F293FA
 225 02ad 45D9C5EB 		.ascii	"E\331\305\353A\302Z\370\204\204\255]\233O{\014\325\344"
 225      41C25AF8 
 225      8484AD5D 
 225      9B4F7B0C 
 225      D5E4
 226 02bf FEAAE054 		.ascii	"\376\252\340T\212#\335@qB\023\210\335.\204\270{\013"
 226      8A23DD40 
 226      71421388 
 226      DD2E84B8 
 226      7B0B
 227 02d1 A7D9101B 		.ascii	"\247\331\020\033\340K\301\360M\025\231\201\207\035M"
 227      E04BC1F0 
 227      4D159981 
 227      871D4D
 228 02e0 4984455A 		.ascii	"I\204EZ\235\010w\207\322W^\350\232\256O\263\035M\311"
 228      9D087787 
 228      D2575EE8 
 228      9AAE4FB3 
 228      1D4DC9
 229 02f3 84068B50 		.ascii	"\204\006\213P\343=\370\031\357\301\253\370\301/\313"
 229      E33DF819 
 229      EFC1ABF8 
 229      C12FCB
 230 0302 0E7E81F6 		.ascii	"\016~\201\366Qd\210\013\331!\330\025B#\000\032(\240"
 230      5164880B 
 230      D921D815 
 230      4223001A 
 230      28A0
 231 0314 5EEC0116 		.ascii	"^\354\001\026\022:\300X\267\205\265\302\035\240.\240"
 231      123AC058 
 231      B785B5C2 
 231      1DA02EA0 
 232 0324 36A04EA0 		.ascii	"6\240N\240[\302Z\266\362\231\313\232\216e\352\034\016"
 232      5BC25AB6 
 232      F299CB9A 
 232      8E65EA1C 
 232      0E
 233 0335 35EDA410 		.ascii	"5\355\244\020\335\245p\013s\231\227\275D^\366bA\022"
 233      DDA5700B 
 233      739997BD 
 233      445EF662 
 233      4112
 234 0347 FE62978E 		.ascii	"\376b\227\216\232\221\242k\275\321_I`\272*\016\335\330"
 234      9A91A26B 
 234      BDD15F49 
 234      60BA2A0E 
 234      DDD8
 235 0359 1148AE61 		.ascii	"\021H\256a\014=\256m\275\0121\024\202\002uf\256\245"
 235      0C3DAE6D 
 235      BD0A3114 
 235      82027566 
ARM GAS  C:\Users\gjl\AppData\Local\Temp\ccD3AtNj.s 			page 18


 235      AEA5
 236 036b 02754367 		.ascii	"\002uCg\247\024BT\276\345\224\276\013\212\376\261J\303"
 236      A7144254 
 236      BEE594BE 
 236      0B8AFEB1 
 236      4AC3
 237 037d DC85FD1D 		.ascii	"\334\205\375\035\305~\036\321\322\315\011\252\020z0"
 237      C57E1ED1 
 237      D2CD09AA 
 237      107A30
 238 038c 5AE815D0 		.ascii	"Z\350\025\320\035\311\315\325\352>\241W\200\205*\210"
 238      1DC9CDD5 
 238      EA3EA157 
 238      80852A88 
 239 039c B95CC06F 		.ascii	"\271\\\300o\201\221\002\211\261p\243d\337\012w\223\373"
 239      81910289 
 239      B170A364 
 239      DF0A7793 
 239      FB
 240 03ad A2A0DF0A 		.ascii	"\242\240\337\012\304\2636i0\366\347\272.\272>l\020i"
 240      C4B33669 
 240      30F6E7BA 
 240      2EBA3E6C 
 240      1069
 241 03bf 7441EC24 		.ascii	"tA\354$\270%\300^\370\\\351\032\025/J\251\0037\036\212"
 241      B825C05E 
 241      F85CE91A 
 241      152F4AA9 
 241      03371E8A 
 242 03d3 CBC92478 		.ascii	"\313\311$x\352$\270L4p\252\300\341O\234\230o\306\372"
 242      EA24B84C 
 242      3470AAC0 
 242      E14F9C98 
 242      6FC6FA
 243 03e6 52E6342A 		.ascii	"R\3464*\330\273XLF\250X\016\272:\271\213\270\333z\005"
 243      D8BB584C 
 243      46A8580E 
 243      BA3AB98B 
 243      B8DB7A05 
 244 03fa D678B2B0 		.ascii	"\326x\262\260\247/\2005\202\351\204\007\330\230;9\360"
 244      A72F8035 
 244      82E98407 
 244      D8983B39 
 244      F0
 245 040b C21F5359 		.ascii	"\302\037SY\030\260;\037\355pj0\321}\240\217k\307\333"
 245      18B03B1F 
 245      ED706A30 
 245      D17DA08F 
 245      6BC7DB
 246 041e F76AC913 		.ascii	"\367j\311\023\234\351M\362\263!q\267Y\015\354\236\332"
 246      9CE94DF2 
 246      B32171B7 
 246      590DEC9E 
 246      DA
 247 042f 0BE702C8 		.ascii	"\013\347\002\310\033|v\346\344P\036\035g\025d=\226q"
 247      1B7C76E6 
 247      E4501E1D 
ARM GAS  C:\Users\gjl\AppData\Local\Temp\ccD3AtNj.s 			page 19


 247      6715643D 
 247      9671
 248 0441 9D434734 		.ascii	"\235CG4\310;\376\013\370\203w\216\334U\223\005\214\250"
 248      C83BFE0B 
 248      F883778E 
 248      DC559305 
 248      8CA8
 249 0453 6B395792 		.ascii	"k9W\222|\244\2647\232\220D\323\3363\020\365\211\024"
 249      7CA4B437 
 249      9A9044D3 
 249      DE3310F5 
 249      8914
 250 0465 52ABC4A4 		.ascii	"R\253\304\244\344\360JJO!\204V\211I\3461D\305#L2\316"
 250      E4F04A4A 
 250      4F218456 
 250      8949E631 
 250      44C5234C 
 251 047b FED92635 		.ascii	"\376\331&5IQ\261\011\212Zg/\371\342&\345\335\375\271"
 251      4951B109 
 251      8A5A672F 
 251      F9E226E5 
 251      DDFDB9
 252 048e 4C775776 		.ascii	"LwWv\\y\206f\307\021\220cX\222\343\231k\207\332\336"
 252      5C798666 
 252      C7119063 
 252      5892E399 
 252      6B87DADE 
 253 04a2 917A5E4B 		.ascii	"\221z^K\366\262\031\204\227;\007{\265$\017\231\226\253"
 253      F6B21984 
 253      973B077B 
 253      B5240F99 
 253      96AB
 254 04b4 03FF46CE 		.ascii	"\003\377F\316\343}\322\345\336\014q\207\036\342\215"
 254      E37DD2E5 
 254      DE0C7187 
 254      1EE28D
 255 04c3 168C462B 		.ascii	"\026\214F+\253K\036\025\313\207&\272;$e;\367\023\322"
 255      AB4B1E15 
 255      CB8726BA 
 255      3B24653B 
 255      F713D2
 256 04d6 887D2F57 		.ascii	"\210}/W\3275\373\340\303\365\300\316\017\276iS\221V"
 256      D735FBE0 
 256      C3F5C0CE 
 256      0FBE6953 
 256      9156
 257 04e8 7CF634B5 		.ascii	"|\3664\265\364z\000\351C\346E\236s{ \031E\246x\370\310"
 257      F47A00E9 
 257      43E6459E 
 257      737B2019 
 257      45A678F8 
 258 04fd 3E1DF6DA 		.ascii	">\035\366\332\010\354\261G\331\213~d\026\237\245\215"
 258      08ECB147 
 258      D98B7E64 
 258      169FA58D 
 259 050d E71D00AB 		.ascii	"\347\035\000\253\3700&c&\273\305\227\244#S{c[\241\037"
 259      F8302663 
ARM GAS  C:\Users\gjl\AppData\Local\Temp\ccD3AtNj.s 			page 20


 259      26BBC597 
 259      A423537B 
 259      635BA11F 
 260 0521 C94626B1 		.ascii	"\311F&\261\376jE\000\311G\346MK\271\206\224\340}\375"
 260      FE6A4500 
 260      C947E64D 
 260      4BB98694 
 260      E07DFD
 261 0534 48FA6542 		.ascii	"H\372eB.#s\362\324\255i\025\271\211\314\214#\347\205"
 261      2E2373F2 
 261      D4AD6915 
 261      B989CC8C 
 261      23E785
 262 0547 9AF421F3 		.ascii	"\232\364!\363\272z\354\220\222\274B\246\177l|\316\237"
 262      BA7AEC90 
 262      92BC42A6 
 262      7F6C7CCE 
 262      9F
 263 0558 CC21D398 		.ascii	"\314!\323\230\337\363\321\237\244\3732f\337\2353\255"
 263      DFF3D19F 
 263      A4FB3266 
 263      DF9D33AD 
 264 0568 5A52804C 		.ascii	"ZR\200LESK;T\025\310\224\024\316\236\327\220ZdF\006"
 264      45534B3B 
 264      5415C894 
 264      14CE9ED7 
 264      905A6446 
 265 057d 47E683C8 		.ascii	"G\346\203\310UdN\025%\345\253I\0332\371%{Z\002\311 "
 265      55644E15 
 265      25E5AB49 
 265      1B32F925 
 265      7B5A02C9 
 266 0592 6356DE7C 		.ascii	"cV\336|\331\351\324\262\315\202\373\204\261\357\220"
 266      D9E9D4B2 
 266      CD82FB84 
 266      B1EF90
 267 05a1 7C8CACDC 		.ascii	"|\214\254\334\3778\371d\273\243\354\267\314\247s\340"
 267      FF38F964 
 267      BBA3ECB7 
 267      CCA773E0 
 268 05b1 D323CA10 		.ascii	"\323#\312\020W `~\374ZJ\217\203w\002\0169\232\022\011"
 268      5720607E 
 268      FC5A4A8F 
 268      8377020E 
 268      399A1209 
 269 05c5 DB1EE7E5 		.ascii	"\333\036\347\345\300\256\215\000\322\340\364>\021LG"
 269      C0AE8D00 
 269      D2E0F43E 
 269      114C47
 270 05d4 9E95035F 		.ascii	"\236\225\003_\3402\357=~h\207\322\003\375\225w\232~"
 270      E032EF3D 
 270      7E6887D2 
 270      03FD9577 
 270      9A7E
 271 05e6 70474B45 		.ascii	"pGKE\246\320\217\302R\350\270 I\221\331\256ui\367^N"
 271      A6D08FC2 
 271      52E8B820 
ARM GAS  C:\Users\gjl\AppData\Local\Temp\ccD3AtNj.s 			page 21


 271      4991D9AE 
 271      7569F75E 
 272 05fb 061E9B2E 		.ascii	"\006\036\233.a\247\345\260\375\034v\216\327\356\203"
 272      61A7E5B0 
 272      FD1C768E 
 272      D7EE83
 273 060a 1C9A17B8 		.ascii	"\034\232\027\270\223\327.QF\273An\350\031~\350\031\271"
 273      93D72E51 
 273      46BB416E 
 273      E8197EE8 
 273      19B9
 274 061c A107B9A1 		.ascii	"\241\007\271\241\253\323\270\3756E\034\332\275\337\236"
 274      ABD3B8FD 
 274      36451CDA 
 274      BDDF9E
 275 062b F65412F0 		.ascii	"\366T\022\360G\322t\216\216\3372\364[A\026\315\273\245"
 275      47D2748E 
 275      8EDF32F4 
 275      5B4116CD 
 275      BBA5
 276 063d 9E177C9B 		.ascii	"\236\027|\233\214\340_Kr\037\220\314\367NN\352)n\334"
 276      8CE05F4B 
 276      721F90CC 
 276      F74E4EEA 
 276      296EDC
 277 0650 FB920717 		.ascii	"\373\222\007\027e<\210\226\306\355\264j\037\333\337"
 277      653C8896 
 277      C6EDB46A 
 277      1FDBDF
 278 065f 0122B3BF 		.ascii	"\001\"\263\277\363\342%\313\210\307\025&\015\322\224"
 278      F3E225CB 
 278      88C71526 
 278      0DD294
 279 066e 4932485E 		.ascii	"I2H^\353c\274M'\344\255\304\273w\200\027cAF\237)\316"
 279      EB63BC4D 
 279      27E4ADC4 
 279      BB778017 
 279      6341469F 
 280 0684 BD599299 		.ascii	"\275Y\222\231&=\241\\\241&\325\011V\205\360\006f\036"
 280      263DA15C 
 280      A126D509 
 280      5685F006 
 280      661E
 281 0696 A5336F17 		.ascii	"\2453o\027\345\246uB\2262L8\244\\+\354\007:\014\224"
 281      E5A67542 
 281      96324C38 
 281      A45C2BEC 
 281      073A0C94 
 282 06aa 06940A74 		.ascii	"\006\224\012t\020h7P\016\320N\240\035@\273\200\322\201"
 282      10683750 
 282      0ED04EA0 
 282      1D40BB80 
 282      D281
 283 06bc F601ED05 		.ascii	"\366\001\355\005\332\003t\000(\027(\023(\033(C\351\256"
 283      DA037400 
 283      28172813 
 283      281B2843 
ARM GAS  C:\Users\gjl\AppData\Local\Temp\ccD3AtNj.s 			page 22


 283      E9AE
 284 06ce 2FDE398E 		.ascii	"/\3369\216\334$d\302\027k\233\206z\247\237\020\022&"
 284      DC2464C2 
 284      176B9B86 
 284      7AA79F10 
 284      1226
 285 06e0 2FD13190 		.ascii	"/\3211\220\342O-\021\206A}\332\017i\030\344\301dG\225"
 285      E24F2D11 
 285      86417DDA 
 285      0F6918E4 
 285      C1644795 
 286 06f4 EEAD8746 		.ascii	"\356\255\207F\005\223\3319|\"Y\207\233H\007\345/\016"
 286      0593D939 
 286      7C225987 
 286      9B4807E5 
 286      2F0E
 287 0706 B7366B30 		.ascii	"\2676k0\345;\350.Ry\374n\243\037I\362cI\262\306\261"
 287      E53BE82E 
 287      5279FC6E 
 287      A31F49F2 
 287      6349B2C6 
 288 071b 23434DF6 		.ascii	"#CM\366!\323\366j\274JM\016!3=\220\275OK\216#\2638\267"
 288      21D3F66A 
 288      BC4A4D0E 
 288      21333D90 
 288      BD4F4B8E 
 289 0733 733329C5 		.ascii	"s3)\305\373\267m\325S\2044 3\33406\255#\267\220\251"
 289      FBB76DD5 
 289      53843420 
 289      33DC3036 
 289      AD23B790 
 290 0748 4BBD35AF 		.ascii	"K\2755\257&\367\220\311\251\335\221\244!\275\310\354"
 290      26F790C9 
 290      A9DD91A4 
 290      21BDC8EC 
 291 0758 A8AA2FF4 		.ascii	"\250\252/\364%}\310\274\2733\261OG\2362Fy}~\341\245"
 291      257DC8BC 
 291      BB33B14F 
 291      479E3246 
 291      797D7EE1 
 292 076d D2B5BD37 		.ascii	"\322\265\2757M\336\012\245\252\235Wj\204\263\222j-\313"
 292      4DDE0AA5 
 292      AA9D576A 
 292      84B3926A 
 292      2DCB
 293 077f 9D39CE29 		.ascii	"\2359\316)e\317\0205OS[\325d\034g\233y\323\234\352C"
 293      65CF1035 
 293      4F535BD5 
 293      641C679B 
 293      79D39CEA 
 294 0794 6690696D 		.ascii	"f\220imo\375\033\222\254F\325\217\346M\007\220\303\214"
 294      6FFD1B92 
 294      AC46D58F 
 294      E64D0790 
 294      C38C
 295 07a6 09AC4C3B 		.ascii	"\011\254L;]\351/\356\017!\342\306 &\3574.\007\025\201"
 295      5DE92FEE 
ARM GAS  C:\Users\gjl\AppData\Local\Temp\ccD3AtNj.s 			page 23


 295      0F21E2C6 
 295      2026EF34 
 295      2E071581 
 296 07ba 5035BF67 		.ascii	"P5\277g[\310\350\342\302\377\244\034\270\237_,\355A"
 296      5BC8E8E2 
 296      C2FFA41C 
 296      B89F5F2C 
 296      ED41
 297 07cc 88A6FA96 		.ascii	"\210\246\372\226"
 298 07d0 78A2BFF2 		.ascii	"x\242\277\362N\263\223\274\034\247e\300|R9\310\313Q"
 298      4EB393BC 
 298      1CA765C0 
 298      7C5239C8 
 298      CB51
 299 07e2 2E27079F 		.ascii	".'\007\237\010g\333\335\371\240P\016+sJ9\241\\\303\026"
 299      0867DBDD 
 299      F9A0500E 
 299      2B734A39 
 299      A15CC316 
 300 07f6 A97041EC 		.ascii	"\251pA\354@\303\3762\270\243\001\302\265\021\250\012"
 300      40C3FE32 
 300      B8A301C2 
 300      B511A80A 
 301 0806 A816E822 		.ascii	"\250\026\350\"P\035P\005\320%\240z\240&\240J\240j1\254"
 301      501D5005 
 301      D025A07A 
 301      A026A04A 
 301      A06A31AC 
 302 081a 51C1095E 		.ascii	"Q\301\011^\30132\012\216s\251\320\231\306Ra\315\222"
 302      C133320A 
 302      8E73A9D0 
 302      99C65261 
 302      CD92
 303 082c 5408CFDE 		.ascii	"T\010\317\336\361\003\025\313)\304\345\302\205v\316"
 303      F10315CB 
 303      29C4E5C2 
 303      8576CE
 304 083b 52A7E4C0 		.ascii	"R\247\344\300\374\026s/M<E\321\343e\231\210\366<\027"
 304      FC16732F 
 304      4D3C45D1 
 304      E3659988 
 304      F63C17
 305 084e 7163F7F1 		.ascii	"qc\367\361\376-\225\321\210\317\234\213\274 \005r\202"
 305      FE2D95D1 
 305      88CF9C8B 
 305      BC200572 
 305      82
 306 085f B84F5C37 		.ascii	"\270O\\7+\332?#GX\340*_\316\354\312\364u\037\270r3\277"
 306      2BDA3F23 
 306      4758E02A 
 306      5FCEECCA 
 306      F4751FB8 
 307 0876 A466B90A 		.ascii	"\244f\271\012]\277\227\326O\215r\311\201\313\355\277"
 307      5DBF97D6 
 307      4F8D72C9 
 307      81CBEDBF 
 308 0886 2BE0B3FF 		.ascii	"+\340\263\377\251\377@\244\335\327\253\232\305\027_"
ARM GAS  C:\Users\gjl\AppData\Local\Temp\ccD3AtNj.s 			page 24


 308      A9FF40A4 
 308      DDD7AB9A 
 308      C5175F
 309 0895 2D6CC10F 		.ascii	"-l\301\017\337\200\372\267\024W\332\324\342\256\313"
 309      DF80FAB7 
 309      1457DAD4 
 309      E2AECB
 310 08a4 6AD280CC 		.ascii	"j\322\200\314p\352\351\011\035\271\217L\365\233\222"
 310      70EAE909 
 310      1DB98F4C 
 310      F59B92
 311 08b3 EA00ECD6 		.ascii	"\352\000\354\326D\371\357+\346 7\015\340\303\253\211"
 311      44F9EF2B 
 311      E620370D 
 311      E0C3AB89 
 312 08c3 23508F3E 		.ascii	"#P\217>C\246<\265\256LEF\221)|\266{\233\206\274C\246"
 312      43A63CB5 
 312      AE4C4546 
 312      91297CB6 
 312      7B9B86BC 
 313 08d9 A5E86DAA 		.ascii	"\245\350m\252@\026\324\036\365m0\326\267g\017\217\235"
 313      4016D41E 
 313      F56D30D6 
 313      B7670F8F 
 313      9D
 314 08ea 1748B23F 		.ascii	"\027H\262?{6\324T\321\255\"\251\310\264\215\334s\252"
 314      7B36D454 
 314      D1AD22A9 
 314      C8B48DDC 
 314      73AA
 315 08fc 48063247 		.ascii	"H\0062GF\026\246\224\34402\3073\247\236\022R\204L\346"
 315      4616A694 
 315      E43032C7 
 315      33A79E12 
 315      52844CE6 
 316 0910 420144F8 		.ascii	"B\001D\370%dn\234I\036R\222\026d\036\326\024\264\370"
 316      25646E9C 
 316      491E5292 
 316      16641ED6 
 316      14B4F8
 317 0923 911E7F8F 		.ascii	"\221\036\177\217b<\030\213\361\332\274\273\235*2\214"
 317      623C188B 
 317      F1DABCBB 
 317      9D2A328C 
 318 0933 CF0E3CBF 		.ascii	"\317\016<\277\341\357qDm\361x\241\321\253t\275x\272"
 318      E1EF7144 
 318      6DF178A1 
 318      D1AB74BD 
 318      78BA
 319 0945 D2B12B2B 		.ascii	"\322\261++\210Lb\257\227w\232\337\007\222\367\310<N"
 319      884C62AF 
 319      97779ADF 
 319      0792F7C8 
 319      3C4E
 320 0957 3C3CA224 		.ascii	"<<\242$\013\310\354}]z\310\237di<\014\030*\032\260\370"
 320      0BC8EC7D 
 320      5D7AC89F 
ARM GAS  C:\Users\gjl\AppData\Local\Temp\ccD3AtNj.s 			page 25


 320      64693C0C 
 320      182A1AB0 
 321 096c 61F9050D 		.ascii	"a\371\005\0159\205\017\037\215\325g\373\261C\\\213\373"
 321      39850F1F 
 321      8DD567FB 
 321      B1435C8B 
 321      FB
 322 097d B477BEB0 		.ascii	"\264w\276\260=M\305\332hP\016)Y\343\320bU\215\217\273"
 322      3D4DC5DA 
 322      68500E29 
 322      59E3D062 
 322      558D8FBB 
 323 0991 F1113696 		.ascii	"\361\0216\226\026-\316\370\273\033\037c\343T\371\236"
 323      162DCEF8 
 323      BB1B1F63 
 323      E354F99E 
 324 09a1 53BEE4BC 		.ascii	"S\276\344\274F\254\275\373\312\005\322\210\214\353p"
 324      46ACBDFB 
 324      CA05D288 
 324      8CEB70
 325 09b0 188C87C3 		.ascii	"\030\214\207\303\003o;\363\375H+>k\316\031\311T\022"
 325      036F3BF3 
 325      FD482B3E 
 325      6BCE19C9 
 325      5412
 326 09c2 2732C947 		.ascii	"'2\311G\323\333\225\010\3741\260Y\273\216\014\251P\203"
 326      D3DB9508 
 326      FC31B059 
 326      BB8E0CA9 
 326      5083
 327 09d4 21FA9AF2 		.ascii	"!\372\232\362\370\335\223\375\276\344%b]/P\203\361\005"
 327      F8DD93FD 
 327      BEE42562 
 327      5D2F5083 
 327      F105
 328 09e6 AAE379F2 		.ascii	"\252\343y\3621%\031\303g\215\3173\032\325\344#2\035"
 328      312519C3 
 328      678DCF33 
 328      1AD5E423 
 328      321D
 329 09f8 45A3F702 		.ascii	"E\243\367\002I\226\2261\317\2177\226\253\311\005d\016"
 329      49969631 
 329      CF8F3796 
 329      ABC90564 
 329      0E
 330 0a09 3665CE6B 		.ascii	"6e\316kH=2\2555\217\327\223\026\274\177\177\353\356"
 330      483D32AD 
 330      358FD793 
 330      16BC7F7F 
 330      EBEE
 331 0a1b 0021F790 		.ascii	"\000!\367\220I\273R\177UM\236 \323\334\377\000\002e"
 331      49BB527F 
 331      554D9E20 
 331      D3DCFF00 
 331      0265
 332 0a2d 0C99858A 		.ascii	"\014\231\205\212\212\253\020B:t\304\205\351\327j\262"
 332      8AAB1042 
ARM GAS  C:\Users\gjl\AppData\Local\Temp\ccD3AtNj.s 			page 26


 332      3A74C485 
 332      E9D76AB2 
 333 0a3d 1799F367 		.ascii	"\027\231\363g\347\312\3600\375k\235h\335\276\224\242"
 333      E7CAF030 
 333      FD6B9D68 
 333      DDBE94A2 
 334 0a4d 5B5AB7C5 		.ascii	"[Z\267\305?\240\315\272\357?\354\366w7\316`\343\216"
 334      3FA0CDBA 
 334      EF3FECF6 
 334      7737CE60 
 334      E38E
 335 0a5f C5816B6A 		.ascii	"\305\201kjr\014GJ.\332\233\033@J\220\331\227\375\366"
 335      720C474A 
 335      2EDA9B1B 
 335      404A90D9 
 335      97FDF6
 336 0a72 B21FA940 		.ascii	"\262\037\251@\306\331t<\327\237\324\"\363\244r\272 "
 336      C6D9743C 
 336      D79FD422 
 336      F3A472BA 
 336      20
 337 0a83 805CD72D 		.ascii	"\200\\\327-\353\334\252\256c\203~\244\015\001\263\355"
 337      EBDCAAAE 
 337      63837EA4 
 337      0D01B3ED 
 338 0a93 73B50279 		.ascii	"s\265\002y\200\314\036\347\305\257\311\010\336\237\355"
 338      80CC1EE7 
 338      C5AFC908 
 338      DE9FED
 339 0aa2 BE0F95D9 		.ascii	"\276\017\225\331$2m\037\307\033\010\331\036\300\230"
 339      24326D1F 
 339      C71B08D9 
 339      1EC098
 340 0ab1 7343294E 		.ascii	"sC)N\037\222\205L\341\374\211J\035\311G\246y\272\376"
 340      1F92854C 
 340      E1FC894A 
 340      1DC947A6 
 340      79BAFE
 341 0ac4 A40F3987 		.ascii	"\244\0179\207L\352\3563'\002\311\025d\266\357)\251#"
 341      4CEAEE33 
 341      2702C915 
 341      64B6EF29 
 341      A923
 342 0ad6 A41B998E 		.ascii	"\244\033\231\216\301\362w\340<d\006\037f\374'\231\304"
 342      C1F277E0 
 342      3C64061F 
 342      66FC2799 
 342      C4
 343 0ae7 FB8196D3 		.ascii	"\373\201\226\323%4?\374\210\276\320^\\\014Z\220\336"
 343      25343FFC 
 343      88BED05E 
 343      5C0C5A90 
 343      DE
 344 0af8 75FE083D 		.ascii	"u\376\010=\330\225\366\266\300\2178\002YVk\336[Q\256"
 344      D895F6B6 
 344      C08F3802 
 344      59566BDE 
ARM GAS  C:\Users\gjl\AppData\Local\Temp\ccD3AtNj.s 			page 27


 344      5B51AE
 345 0b0b 950EFDA7 		.ascii	"\225\016\375\247t5\364\260\235A4B\032q\247\265\037\271"
 345      7435F4B0 
 345      9D413442 
 345      1A71A7B5 
 345      1FB9
 346 0b1d AB025C58 		.ascii	"\253\002\\X\012)\023\247\2230:.+\014\366\2215\302^\202"
 346      0A2913A7 
 346      93303A2E 
 346      2B0CF691 
 346      35C25E82 
 347 0b31 AF3B0B32 		.ascii	"\257;\0132\362}\311n\234#\273\362\314\264\206{\335\371"
 347      F27DC96E 
 347      9C23BBF2 
 347      CCB4867B 
 347      DDF9
 348 0b43 33F6CAF9 		.ascii	"3\366\312\371\000\314\221)\315\001S.;\311~\371I^\335"
 348      00CC9129 
 348      CD01532E 
 348      3BC97EF9 
 348      495EDD
 349 0b56 EDCAF021 		.ascii	"\355\312\360!\007\0021z\312w\\V\221\"dFZf\246\264\244"
 349      0702317A 
 349      CA775C56 
 349      91226446 
 349      5A66A6B4 
 350 0b6b 0699D92B 		.ascii	"\006\231\331+I5\002\271\215\314\305+3\267}\310#d\336"
 350      493502B9 
 350      8DCCC52B 
 350      33B77DC8 
 350      2364DE
 351 0b7e 24951408 		.ascii	"$\225\024\010d\026\231\216\203\243YJ\262?\2101\363s"
 351      6416998E 
 351      83A3594A 
 351      B23F8831 
 351      F373
 352 0b90 FB137D48 		.ascii	"\373\023}H!2\215\375\317\317j\311%d\212\367\216_\325"
 352      21328DFD 
 352      CFCF6AC9 
 352      25648AF7 
 352      8E5FD5
 353 0ba3 904EC67C 		.ascii	"\220N\306|\232\330\330v\303O\020k\031\317\343.\276&"
 353      9AD8D876 
 353      C34F106B 
 353      19CFE32E 
 353      BE26
 354 0bb5 5DF8F84D 		.ascii	"]\370\370M\335\305~\207#E\307\202'\013\364- \313\234"
 354      DDC57E87 
 354      2345C782 
 354      270BF42D 
 354      20CB9C
 355 0bc8 1C616B4A 		.ascii	"\034akJ\357r\327\007)\236\320\323\336\005P\277t\264"
 355      EF72D707 
 355      299ED0D3 
 355      DE0550BF 
 355      74B4
 356 0bda C8911995 		.ascii	"\310\221\031\225?Z\034\226\252\216\2032\320e\316H\271"
ARM GAS  C:\Users\gjl\AppData\Local\Temp\ccD3AtNj.s 			page 28


 356      3F5A1C96 
 356      AA8E8332 
 356      D065CE48 
 356      B9
 357 0beb 32D0AF97 		.ascii	"2\320\257\227\224'\356\252\374\250\010\247\333[\031"
 357      9427EEAA 
 357      FCA808A7 
 357      DB5B19
 358 0bfa F8AB90AC 		.ascii	"\370\253\220\254\025N\002\235\000*\002*\006\272\000"
 358      154E029D 
 358      002A022A 
 358      06BA00
 359 0c09 740C281F 		.ascii	"t\014(\037\250\004\350<\320Y\240\323@\245@\025@\307"
 359      A804E83C 
 359      D059A0D3 
 359      40A54015 
 359      40C7
 360 0c1b 81CE009D 		.ascii	"\201\316\000\235\002:\007TN\334\245\013\310\227%\031"
 360      023A0754 
 360      4EDCA50B 
 360      C8972519 
 361 0c2b 2859CE40 		.ascii	"(Y\316@|\011\321#\351rDF\027\256|x(!\263e\220\374\240"
 361      7C09D123 
 361      E9724446 
 361      17AE7C78 
 361      2821B365 
 362 0c42 E312F4B0 		.ascii	"\343\022\364\260\014\224\2573\246$\263\357\362\204."
 362      0C94AF33 
 362      A624B3EF 
 362      F2842E
 363 0c51 2D0C0F48 		.ascii	"-\014\017Hzm\227\323\313\353\244\210\245\021]A{D\364"
 363      7A6D97D3 
 363      CBEBA488 
 363      A5115D41 
 363      7B44F4
 364 0c64 F22FC77B 		.ascii	"\362/\307{\371r'UN\020\276R\256\346_\245o\023\321\277"
 364      F9722755 
 364      4E10BE52 
 364      AEE65FA5 
 364      6F13D1BF 
 365 0c78 E718EAE4 		.ascii	"\347\030\352\344G\337-7:\217\376 \231d\247\034v\212"
 365      47DF2D37 
 365      3A8FFE20 
 365      9964A71C 
 365      768A
 366 0c8a 2B3C1BF1 		.ascii	"+<\033\361\014\016\230\245g\360I\376\360{H\306\017\274"
 366      0C0E98A5 
 366      67F049FE 
 366      F07B48C6 
 366      0FBC
 367 0c9c 4A35BC4A 		.ascii	"J5\274Jy\362*\361\276\360\250\017w\310yc\203X\036\366"
 367      79F22AF1 
 367      BEF0A80F 
 367      77C87963 
 367      83581EF6 
 368 0cb0 A6E56607 		.ascii	"\246\345f\007\221\367,\027(\333\236\3464\006z\034Z\371"
 368      91F72C17 
ARM GAS  C:\Users\gjl\AppData\Local\Temp\ccD3AtNj.s 			page 29


 368      28DB9EE6 
 368      34067A1C 
 368      5AF9
 369 0cc2 E5711196 		.ascii	"\345q\021\226\304\237ry\240\315\006n\375\230\332\254"
 369      C49F7279 
 369      A0CD066E 
 369      FD98DAAC 
 370 0cd2 0A26AA94 		.ascii	"\012&\252\224R+5!\223\367Dq\321^!D\024\260iY\001\025"
 370      522B3521 
 370      93F74471 
 370      D15E2144 
 370      14B06959 
 371 0ce8 FFEBD2C1 		.ascii	"\377\353\322\301\334)\251\223\211\202\347\317\202\204"
 371      DC29A993 
 371      8982E7CF 
 371      8284
 372 0cf6 FF01E112 		.ascii	"\377\001\341\022qUg\323\347F\372}H\352\012\2540\236"
 372      715567D3 
 372      E746FA7D 
 372      48EA0AAC 
 372      309E
 373 0d08 E5366B48 		.ascii	"\3456kH\0262\215\316\322\333A\344\014c\276\350\177]"
 373      16328DCE 
 373      D2DB41E4 
 373      0C63BEE8 
 373      7F5D
 374 0d1a 5E132078 		.ascii	"^\023 x\344\335\265ku\272\325*]\210\353.lmXX\030:\365"
 374      E4DDB56B 
 374      75BAD52A 
 374      5D88EB2E 
 374      6C6D5858 
 375 0d31 500FE7D4 		.ascii	"P\017\347\324wP\261\327KN\035\345b\317\303{/\241v\177"
 375      7750B1D7 
 375      4B4E1DE5 
 375      62CFC37B 
 375      2FA1767F 
 376 0d45 A104440D 		.ascii	"\241\004D\015\301\016\324{}`\250\007\240\333] 'P\027"
 376      C10ED47B 
 376      7D60A807 
 376      A0DB5D20 
 376      275017
 377 0d58 5027D04D 		.ascii	"P'\320M\240V\240\026\240\033@u@\315@\327\201\256\001"
 377      A056A016 
 377      A01B4075 
 377      40CD40D7 
 377      81AE01
 378 0d6b 5D05BA02 		.ascii	"]\005\272\002\364=P\023P#P\203Gr\253\353q\257\216Z\342"
 378      F43D5013 
 378      50235083 
 378      4772ABEB 
 378      71AF8E5A 
 379 0d80 21E1B0D2 		.ascii	"!\341\260\322kQ\327J\320QOe^+\275s\372%\011\373F\016"
 379      6B51D74A 
 379      D0514F65 
 379      5E2BBD73 
 379      FA2509FB 
 380 0d96 CBC7FE45 		.ascii	"\313\307\376E\011;&\207\345\327U\245\204\035\227\303"
ARM GAS  C:\Users\gjl\AppData\Local\Temp\ccD3AtNj.s 			page 30


 380      093B2687 
 380      E5D755A5 
 380      841D97C3 
 381 0da6 F20BBF5C 		.ascii	"\362\013\277\\\302N\310a\371\024[&a\337\312a\371\\\230"
 381      C24EC861 
 381      F9145B26 
 381      61DFCA61 
 381      F95C98
 382 0db9 276127E5 		.ascii	"'a'\345\260\334\206yX\202N\311A9\353\036\220\240\364"
 382      B0DC8679 
 382      58824EC9 
 382      4139EB1E 
 382      90A0F4
 383 0dcc 5DE89250 		.ascii	"]\350\222P\341-\266?\213\313.\357\305\201\335\331et"
 383      E12DB63F 
 383      8BCB2EEF 
 383      C581DDD9 
 383      6574
 384 0dde 490ACCC8 		.ascii	"I\012\314\310\342\016\2667D\274;{\217zg\357Eg\020\302"
 384      E20EB637 
 384      44BC3B7B 
 384      8F7A67EF 
 384      456710C2 
 385 0df2 6F119D30 		.ascii	"o\021\2350\355\015\347\3631\277\264\332\310j\0114\000"
 385      ED0DE7F3 
 385      31BFB4DA 
 385      C86A0934 
 385      00
 386 0e03 017B1B7A 		.ascii	"\001{\033zc6X\016\246\3400Yt\0218\2669>W2\033\270\264"
 386      6336580E 
 386      A6E03059 
 386      741138B6 
 386      393E5732 
 387 0e1a 51D00EF0 		.ascii	"Q\320\016\360}\207\250\024\354\237J\204v\3502\013e6"
 387      7D87A814 
 387      EC9F4A84 
 387      76E8320B 
 387      6536
 388 0e2c 3F6887C7 		.ascii	"?h\207\307\262n\307e-\277\254\372A\262?\375\262\232"
 388      B26EC765 
 388      2DBFACFA 
 388      41B23FFD 
 388      B29A
 389 0e3e 77B21F58 		.ascii	"w\262\037X\251\001\347\345\015\310\331{V\002/x\203e"
 389      A901E7E5 
 389      0DC8D97B 
 389      56022F78 
 389      8365
 390 0e50 F63309FD 		.ascii	"\3663\011\375Q\036\315\015=\275?\024]\331\015\360Eo"
 390      511ECD0D 
 390      3DBD3F14 
 390      5DD90DF0 
 390      456F
 391 0e62 F857F29E 		.ascii	"\370W\362\236\274\307{\262\027l\324#\353\311{\036\236"
 391      BCC77BB2 
 391      176CD423 
 391      EBC97B1E 
ARM GAS  C:\Users\gjl\AppData\Local\Temp\ccD3AtNj.s 			page 31


 391      9E
 392 0e73 EC91F364 		.ascii	"\354\221\363d\225\207'\3571O\336\367\360\244\0038\334"
 392      958727EF 
 392      314FDEF7 
 392      F0A40338 
 392      DC
 393 0e84 47DEED5E 		.ascii	"G\336\355^\311~N\206\306Di\037\351a\276De\336\355\377"
 393      C97E4E86 
 393      C644691F 
 393      E961BE44 
 393      65DEEDFF 
 394 0e98 4CFC951B 		.ascii	"L\374\225\0330IDN\231\015\322^>\261\237\355\345\365"
 394      3049444E 
 394      990DD25E 
 394      3EB19FED 
 394      E5F5
 395 0eaa 9E7B393E 		.ascii	"\236{9>\353\333\375\003\372\214\206\315ei\256z\266g"
 395      EBDBFD03 
 395      FA8C86CD 
 395      6569AE7A 
 395      B667
 396 0ebc B9DE557E 		.ascii	"\271\336U~J\021\324\312s\322\273\226\333L\032\330\025"
 396      4A11D4CA 
 396      73D2BB96 
 396      DB4C1AD8 
 396      15
 397 0ecd CA3AAA92 		.ascii	"\312:\252\222\002\310\005\334\"\\\357`\203\305w\260"
 397      02C805DC 
 397      225CEF60 
 397      83C577B0 
 398 0edd 0B3DAFAE 		.ascii	"\013=\257\256\011\342;Y\372\277?\017\273\363\206\003"
 398      09E23B59 
 398      FABF3F0F 
 398      BBF38603 
 399 0eed 493D823B 		.ascii	"I=\202;?<O\021H\007c~Qv\266\374\266\206\337O\244\275"
 399      3F3C4F11 
 399      4807637E 
 399      5176B6FC 
 399      B686DF4F 
 400 0f03 84DF6042 		.ascii	"\204\337`B\000\301\366\2260\374\006N\332f\206jr\267"
 400      00C1F696 
 400      30FC064E 
 400      DA66866A 
 400      72B7
 401 0f15 4CE16F5B 		.ascii	"L\341o[\364(\337\005\322>\225\222\307\035.-z,\210!8"
 401      F428DF05 
 401      D23E9592 
 401      C71D2E2D 
 401      7A2C8821 
 402 0f2a D30CC299 		.ascii	"\323\014\302\231FxH\260\003]\020\331\2520\341\260j\255"
 402      467848B0 
 402      035D10D9 
 402      AA30E1B0 
 402      6AAD
 403 0f3c 70102809 		.ascii	"p\020(\011(\021\310\001\264\010\001\376\021h\001\350"
 403      2811C801 
 403      B40801FE 
ARM GAS  C:\Users\gjl\AppData\Local\Temp\ccD3AtNj.s 			page 32


 403      116801E8 
 404 0f4c 09D03CD0 		.ascii	"\011\320<\320\034\320,\320\014\320\007\240i\240\367"
 404      1CD02CD0 
 404      0CD007A0 
 404      69A0F7
 405 0f5b 40EF80A6 		.ascii	"@\357\200\246\200F\201^\003\275\002z\011\364\002\350"
 405      8046815E 
 405      03BD027A 
 405      09F402E8 
 406 0f6b 39D008D0 		.ascii	"9\320\010\3200\3203\217\005\323\315\357\225\217\210"
 406      30D0338F 
 406      05D3CDEF 
 406      958F88
 407 0f7a 870E034B 		.ascii	"\207\016\003K*\306\006)Y>\024d\260\356\365\002\236\254"
 407      2AC60629 
 407      593E1464 
 407      B0EEF502 
 407      9EAC
 408 0f8c C9E25E18 		.ascii	"\311\342^\030\016\311\241\371\037\245\304\015\206b_"
 408      0EC9A1F9 
 408      1FA5C40D 
 408      86625F
 409 0f9b C8612F70 		.ascii	"\310a/p\330"
 409      D8
 410 0fa0 7209FB52 		.ascii	"r\011\373R\016\313m\004\027x\365^\311\201\271_\024\217"
 410      0ECB6D04 
 410      1778F55E 
 410      C981B95F 
 410      148F
 411 0fb2 66AD4C64 		.ascii	"f\255Ld\351\235\376\0100&\202\335E\323koxn\326\252D"
 411      E99DFE08 
 411      302682DD 
 411      45D36B6F 
 411      786ED6AA 
 412 0fc7 B62CE88B 		.ascii	"\266,\350\213\301|\321\375\356W\200\307\2757\232\354"
 412      C17CD1FD 
 412      EE5780C7 
 412      BD379AEC 
 413 0fd7 9E1FE02A 		.ascii	"\236\037\340*z\003\261}]\204\273W\3215\245|N\030\347"
 413      7A03B17D 
 413      5D84BB57 
 413      D135A57C 
 413      4E18E7
 414 0fea 73422E84 		.ascii	"sB.\204\311\230lN\030\367\310\011cr9\201\006\251\224"
 414      C9986C4E 
 414      18F7C809 
 414      63723981 
 414      06A994
 415 0ffd 13C659   		.ascii	"\023\306Y"
 416 1000 4E9870E7 		.ascii	"N\230p\347\204\267\204\275m\341\307\234\364H\356oe\222"
 416      84B784BD 
 416      6DE1C79C 
 416      F448EE6F 
 416      6592
 417 1012 BB3B9673 		.ascii	"\273;\226s@\260\377\377X^\262\335\312X\230s\310\234"
 417      40B0FFFF 
 417      585EB2DD 
ARM GAS  C:\Users\gjl\AppData\Local\Temp\ccD3AtNj.s 			page 33


 417      CA589873 
 417      C89C
 418 1024 937B91DC 		.ascii	"\223{\221\334\352\271|[\226T5\037\234Z\327R\277)\207"
 418      EAB97C5B 
 418      9654351F 
 418      9C5AD752 
 418      BF2987
 419 1037 E5AB9AF7 		.ascii	"\345\253\232\367\022\366\226\034\226\257j\246$\354m"
 419      12F6961C 
 419      96AF6AA6 
 419      24EC6D
 420 1046 392C17CC 		.ascii	"9,\027\314\017$h\233\034\224\323\355\276\004m\227KL"
 420      0F24689B 
 420      1C94D3ED 
 420      BE046D97 
 420      4B4C
 421 1058 7CCDD825 		.ascii	"|\315\330%a;\344\260|\005\324!a;\345\260|\262(\227\260"
 421      613BE4B0 
 421      7C05D421 
 421      613BE5B0 
 421      7CB22897 
 422 106d 4E39AC47 		.ascii	"N9\254G\035(a\357\312ay\213\345:\2715\335-\207\346+"
 422      1D2861EF 
 422      CA61798B 
 422      E53AB935 
 422      DD2D87E6 
 423 1082 41A73B63 		.ascii	"A\247;c\365\310A9\233\035\332/\236\265{\225:\341\276"
 423      F5C84139 
 423      9B1DDA2F 
 423      9EB57B95 
 423      3AE1BE
 424 1095 77F8DC5B 		.ascii	"w\370\334[\022\021\031\373W\"~\233J'<\220\307o\360^"
 424      121119FB 
 424      57227E9B 
 424      4A273C90 
 424      C76FF05E 
 425 10a9 CFC92A7E 		.ascii	"\317\311*~QAOnQ\341)\355!d\2203\354M\030,\244\024\225"
 425      51414F6E 
 425      51E129ED 
 425      21649033 
 425      EC4D182C 
 426 10c0 784ADB01 		.ascii	"xJ\333\001+h\273\212\217\366~\374_\262}0\371 L\236\242"
 426      2B68BB8A 
 426      8FF67EFC 
 426      5FB27D30 
 426      F9204C9E 
 427 10d5 922F3070 		.ascii	"\222/0p\354&\207\347\330\003b\017\272`\367\302<K\207"
 427      EC2687E7 
 427      D803620F 
 427      BA60F7C2 
 427      3C4B87
 428 10e8 EFCB14D3 		.ascii	"\357\313\024\323\325N\230\240Ov\202%\312\245\252\270"
 428      D54E98A0 
 428      4F768225 
 428      CAA5AAB8 
 429 10f8 64B50786 		.ascii	"d\265\007\206\335\245\222KV<L\301a\270d\365\233\225"
 429      DDA5924B 
ARM GAS  C:\Users\gjl\AppData\Local\Temp\ccD3AtNj.s 			page 34


 429      563C4CC1 
 429      61B864F5 
 429      9B95
 430 110a 5CAE023C 		.ascii	"\\\256\002<|\357Vy\345*,\030\016\356c?nR)\373\245\202"
 430      7CEF5679 
 430      E52A2C18 
 430      0EEE633F 
 430      6E5229FB 
 431 1120 6117332C 		.ascii	"a\0273,\"\356\341?\360\201\374|A\302\013\224\316\313"
 431      22EEE13F 
 431      F081FC7C 
 431      41C20B94 
 431      CECB
 432 1132 9D0972A7 		.ascii	"\235\011r\247\311\312\235\356!w\332\037\224;\235\311"
 432      C9CA9DEE 
 432      2177DA1F 
 432      943B9DC9 
 433 1142 9DE121F7 		.ascii	"\235\341!\367\023\245K\360C(8\365\337SI\3604N\360\214"
 433      13A54BF0 
 433      432838F5 
 433      DF5349F0 
 433      344EF08C 
 434 1156 3B9F51C4 		.ascii	";\237Q\304\0010\3743\011A\365\360\312\303r!\263\214"
 434      0130FC33 
 434      0941F5F0 
 434      CAC37221 
 434      B38C
 435 1168 5B1733FF 		.ascii	"[\0273\377\002\335\232\005\363\216x\007\355\3602\273"
 435      02DD9A05 
 435      F38E7807 
 435      EDF032BB 
 436 1178 9087810E 		.ascii	"\220\207\201\016y\030\010E\315Fe\350\240\317\275\225"
 436      79180845 
 436      CD4665E8 
 436      A0CFBD95 
 437 1188 C1DD7221 		.ascii	"\301\335r!3\000wKZ\374\275\022'v\237\016\274\213\310"
 437      3300774B 
 437      5AFCBD12 
 437      27769F0E 
 437      BC8BC8
 438 119b 19F4D953 		.ascii	"\031\364\331S\271\"r\021\213H\272==\226\212\310\247"
 438      B9227211 
 438      8B48BA3D 
 438      3D968AC8 
 438      A7
 439 11ac 7C11D9B5 		.ascii	"|\021\331\265\212\"\350F\333,I3\346*\"{\363z\252\360"
 439      8A22E846 
 439      DB2C4933 
 439      E62A227B 
 439      F37AAAF0 
 440 11c0 2706EA91 		.ascii	"'\006\352\221>\3747\274\312\372\222;\272\325\313\236"
 440      3EFC37BC 
 440      CAFA923B 
 440      BAD5CB9E 
 441 11d0 868E325F 		.ascii	"\206\2162_\036a\276\244?Z\325=l\320}q\334q\274\3141"
 441      1E61BEA4 
 441      3F5AD53D 
ARM GAS  C:\Users\gjl\AppData\Local\Temp\ccD3AtNj.s 			page 35


 441      6CD07D71 
 441      DC71BCCC 
 442 11e5 3458F8BB 		.ascii	"4X\370\273\203'S\034\035\320\361\357\224\024(\334\227"
 442      8327531C 
 442      1DD0F1EF 
 442      941428DC 
 442      97
 443 11f6 FE770D6E 		.ascii	"\376w\015n\351\345\036L\243\020\362T_\320w\362\211\013"
 443      E9E51E4C 
 443      A310F254 
 443      5FD077F2 
 443      890B
 444 1208 57D4647A 		.ascii	"W\324dz\305\037\371\277\203\307U\254\361a]\331A\201"
 444      C51FF9BF 
 444      83C755AC 
 444      F1615DD9 
 444      4181
 445 121a 35D2FF1E 		.ascii	"5\322\377\036=\201\215s9\333\262\002\334\232\344\213"
 445      3D818D73 
 445      39DBB202 
 445      DC9AE48B 
 446 122a C8C7CF9F 		.ascii	"\310\307\317\237\252\227\327\244\200ir\322\245\311\201"
 446      AA97D7A4 
 446      806972D2 
 446      A5C981
 447 1239 C593A705 		.ascii	"\305\223\247\005\324\244\251\256Y\307\324h\322Q\224"
 447      D4A4A9AE 
 447      59C7D468 
 447      D25194
 448 1248 704CE556 		.ascii	"pL\345V\003n%5N\251\276P|j3\031c,\221z\223\305\030\023"
 448      036E2535 
 448      4EA9BE50 
 448      7C6A3319 
 448      632C917A 
 449 1260 69B66CD2 		.ascii	"i\266l\322\333\015\021\321&\365/\377\365\327\237\377"
 449      DB0D11D1 
 449      26F52FFF 
 449      F5D79FFF 
 450 1270 C3860D0A 		.ascii	"\303\206\015\012\215^\037g\266\3307\374\\oO\024\214"
 450      8D5E1F67 
 450      B6D837FC 
 450      5C6F4F14 
 450      8C
 451 1281 7F1B1E6B 		.ascii	"\177\033\036k\215\331d5l\371<\312\034m\262}\036\026"
 451      8DD96435 
 451      6CF93CCA 
 451      1C6DB27D 
 451      1E16
 452 1293 BFF1E77F 		.ascii	"\277\361\347\177\025nL\210\265\232l\266\360X[\214\361"
 452      156E4C88 
 452      B59A6CB6 
 452      F0585B8C 
 452      F1
 453 12a4 73A3D564 		.ascii	"s\243\325d\260\307X\303\177\266n\203g\203yKl\214\325"
 453      B0C758C3 
 453      7FB66E83 
 453      6783794B 
ARM GAS  C:\Users\gjl\AppData\Local\Temp\ccD3AtNj.s 			page 36


 453      6C8CD5
 454 12b7 1EBEC912 		.ascii	"\036\276\311\022\027n\260n\011\377\353u\024\001w?\261"
 454      176EB06E 
 454      09FFEB75 
 454      1401773F 
 454      B1
 455 12c8 C4584C3F 		.ascii	"\304XL?1\031\"\314\341f\2131:.\322\024\276\305`\334"
 455      311922CC 
 455      E1668B31 
 455      3A2ED214 
 455      BEC560DC 
 456 12dc 6CB698C2 		.ascii	"l\266\230\302\365\221\246(C\\\264]oO\2105\331\326mV"
 456      F591A628 
 456      435CB45D 
 456      6F4F8835 
 456      D9D66D56 
 457 12f0 A85DB26C 		.ascii	"\250]\262l\375\277\022\305\226`\013\327\333\354`\031"
 457      FDBF12C5 
 457      96600BD7 
 457      DBEC6019 
 458 1300 3BCCFFA9 		.ascii	";\314\377\251\331\022i\212\327\333c\364\242\325\230"
 458      D912698A 
 458      D7DB63F4 
 458      A2D598
 459 130f B142A3CC 		.ascii	"\261B\243\314V\233\335\313\202+x\204\336h\261\007!J"
 459      569BDDCB 
 459      822B7884 
 459      DE68B107 
 459      214A
 460 1321 E2F5711B 		.ascii	"\342\365q\0337\375T\377\255\311ja\235\002]w[\015\321"
 460      37FD54FF 
 460      ADC96A61 
 460      9D025D77 
 460      5B0DD1
 461 1334 71269B3F 		.ascii	"q&\233?\032~\243\336\356'^W\255[\027\016\177\264W\270"
 461      1A7EA3DE 
 461      EE275E57 
 461      AD5B170E 
 461      7FB457B8 
 462 1348 D16635B2 		.ascii	"\321f5\262;\020*\320s\234 \306\376\322d\377\027l\321"
 462      3B102AD0 
 462      739C20C6 
 462      FED264FF 
 462      176CD1
 463 135b 445A0DDF 		.ascii	"DZ\015\337\351\2151\3211\326\300M\321\011\261\233\365"
 463      E98D31D1 
 463      31D6C04D 
 463      D109B19B 
 463      F5
 464 136c F1FA98A8 		.ascii	"\361\372\230\250(\233\311\256\326\353qd_\274\254\210"
 464      289BC9AE 
 464      D6EB7164 
 464      5FBCAC88 
 465 137c 8AB1D8F5 		.ascii	"\212\261\330\365VS\024\330\335f4Q\221]\015\006\306#"
 465      565314D8 
 465      DD663451 
 465      915D0D06 
ARM GAS  C:\Users\gjl\AppData\Local\Temp\ccD3AtNj.s 			page 37


 465      C623
 466 138e 60B3C9BC 		.ascii	"`\263\311\274i\263]\277%&\322\344\317\032\314\226\250"
 466      69B35DBF 
 466      2526D2E4 
 466      CF1ACC96 
 466      A8
 467 139f 984F6C76 		.ascii	"\230Olv\203\325\256\217\215\261\351\243c\2763Y\365\006"
 467      83D5AE8F 
 467      8DB1E9A3 
 467      63BE3359 
 467      F506
 468 13b1 AE252E36 		.ascii	"\256%.6\026Z\276\321\211\303\352c\015V\203\326 \335"
 468      165ABED1 
 468      89C3EA63 
 468      0D5683D6 
 468      20DD
 469 13c3 FBBB1E6C 		.ascii	"\373\273\036lR\213\255\337\250\023\\B\272\244\015\332"
 469      528BADDF 
 469      A8135C42 
 469      BAA40DDA 
 470 13d3 6288D71B 		.ascii	"b\210\327\0337\033\254\242\000\201n\376;s\244}\363\212"
 470      371BACA2 
 470      00816EFE 
 470      3B73A47D 
 470      F38A
 471 13e5 08B3DDA6 		.ascii	"\010\263\335\246\247\363D\232\242\355\006}|\220\273"
 471      A7F3449A 
 471      A2ED067D 
 471      7C90BB
 472 13f4 818112BC 		.ascii	"\201\201\022\274\370\370PO\036\007\015\361ld#k\334m"
 472      F8F8504F 
 472      1E070DF1 
 472      6C64236B 
 472      DC6D
 473 1406 1BA4DBF5 		.ascii	"\033\244\333\365\352\210\210x\264\001\032\025<\372\011"
 473      EA888878 
 473      B4011A15 
 473      3CFA09
 474 1415 7AD46D13 		.ascii	"z\324m\023\275\235\267\201\305\014\341aZ\341\015\321"
 474      BD9DB781 
 474      C50CE161 
 474      5AE10DD1 
 475 1425 B2FB4813 		.ascii	"\262\373H\023}\250\216\330\204\216RG\2117\201f\233\336"
 475      7DA88ED8 
 475      848E5247 
 475      89378166 
 475      9BDE
 476 1437 6E35586C 		.ascii	"n5Xl`&\260K \342\364 \006\035T\207S\243\350Zd\230\310"
 476      6026B04B 
 476      20E2F420 
 476      061D5487 
 476      53A3E85A 
 477 144e 428210AF 		.ascii	"B\202\020\257\206\2517\231\354\372\004-\233\222\006"
 477      86A93799 
 477      ECFA042D 
 477      9B9206
 478 145d 91DEEE6A 		.ascii	"\221\336\356j\214\327\210#\305\332\255!\234\330b\253"
ARM GAS  C:\Users\gjl\AppData\Local\Temp\ccD3AtNj.s 			page 38


 478      8CD78823 
 478      C5DAAD21 
 478      9CD862AB 
 479 146d 9D449AAD 		.ascii	"\235D\232\255\301K\233\003\031g4D\033\365[!,\376LB\270"
 479      C14B9B03 
 479      19673444 
 479      1BF55B21 
 479      2CFE4C42 
 480 1482 DBF45116 		.ascii	"\333\364Q\026\030SE\033\375\342l`\251\204\015\342u="
 480      1853451B 
 480      FDE26C60 
 480      A9840DE2 
 480      753D
 481 1494 5EE3453E 		.ascii	"^\343E>~\275/\012\356\303D\366\215\210\213\002,^\326"
 481      7EBD2F0A 
 481      EEC344F6 
 481      8D888B02 
 481      2C5ED6
 482 14a7 07C69AE3 		.ascii	"\007\306\232\343M\321zc\234\325\252\267\306|\267\002"
 482      4DD17A63 
 482      9CD5AAB7 
 482      C67CB702 
 483 14b7 59FA0CFB 		.ascii	"Y\372\014\373\004I\015\254w\200\335LW\225\010\017b\234"
 483      04490DAC 
 483      7780DD4C 
 483      5795080F 
 483      629C
 484 14c9 84D6B979 		.ascii	"\204\326\271y\020Mi\214\360\215\213\2154\330M\253\321"
 484      104D698C 
 484      F08D8B8D 
 484      34D84DAB 
 484      D1
 485 14da 30EC5E1F 		.ascii	"0\354^\037i\336b\262\330\3141\026\2751\002W\2241\002"
 485      69DE62B2 
 485      D8CC3116 
 485      BD310257 
 485      943102
 486 14ed 16BE35CE 		.ascii	"\026\2765\316hW\263\025\024\375\213\365\350<\027\007"
 486      6857B315 
 486      14FD8BF5 
 486      E83C1707 
 487 14fd 007F17D0 		.ascii	"\000\177\027\320\356\037\035\255\337\2745\032\262\326"
 487      EE1F1DAD 
 487      DFBC351A 
 487      B2D6
 488 150b 4A0EE46A 		.ascii	"J\016\344j\003\210*nc\374F\360_DL\234\305h\202\221a"
 488      03882A6E 
 488      63FC46F0 
 488      5F444C9C 
 488      C5688291 
 489 1520 D2556E36 		.ascii	"\322Un6\332\000\251!\326l\301\366?w\267\273\022\240"
 489      DA00A921 
 489      D66CC1F6 
 489      3F77B7BB 
 489      12A0
 490 1532 FB917653 		.ascii	"\373\221vS\2549\006\226\244\015Z5q\366\250\215\330\014"
 490      AC390696 
ARM GAS  C:\Users\gjl\AppData\Local\Temp\ccD3AtNj.s 			page 39


 490      A40D5A35 
 490      71F6A88D 
 490      D80C
 491 1544 036F3503 		.ascii	"\003o5\003\336\020\031I\363\237\326\374S\243\236\305"
 491      DE101949 
 491      F39FD6FC 
 491      53A39EC5 
 492 1554 9E2992DD 		.ascii	"\236)\222\335\213\355\241\020Nb\354m5Ym&\026\300jW\342"
 492      8BEDA110 
 492      4E62EC6D 
 492      35596D26 
 492      16C06A57 
 493 1569 FA848D6D 		.ascii	"\372\204\215m\200\244\005K\310\220\000Bk\251\320\372"
 493      80A4054B 
 493      C8900042 
 493      6BA9D0FA 
 494 1579 2D3688C6 		.ascii	"-6\210\306\010\277\210\004;U\304\327h\210\204\213&\322"
 494      08BF8804 
 494      3B55C4D7 
 494      6888848B 
 494      26D2
 495 158b 6C8B4594 		.ascii	"l\213E\224\237\305\024\017\021\020\241ch\266p\200q="
 495      9FC5140F 
 495      1110A163 
 495      68B67080 
 495      713D
 496 159d A761AE45 		.ascii	"\247a\256Ew1W}\022\025m\216\245\363\272\363\320\012"
 496      7731577D 
 496      12156D8E 
 496      A5F3BAF3 
 496      D00A
 497 15af 9796AE06 		.ascii	"\227\226\256\006-\363\027\372N\303\356Y\317\320\357"
 497      2DF317FA 
 497      4EC3EE59 
 497      CFD0EF
 498 15be AC661021 		.ascii	"\254f\020!6.\332&\266\350-\266`\360\236\001\322\261"
 498      362EDA26 
 498      B6E82DB6 
 498      60F09E01 
 498      D2B1
 499 15d0 3D2E566F 		.ascii	"=.Vo\007\037BS(\3258\"\316\2467F\307\030\277\325oX\277"
 499      071F4253 
 499      28D53822 
 499      CEA63746 
 499      C718BFD5 
 500 15e7 FEDB7FFA 		.ascii	"\376\333\177\372\235\332\026kf\352\352l\320\206O6\377"
 500      9DDA166B 
 500      66EAEA6C 
 500      D0864F36 
 500      FF
 501 15f8 4EDCDEBE 		.ascii	"N\334\336\276\376),\015\327M0\005xN\362\211-\322k\216"
 501      FE292C0D 
 501      D74D3005 
 501      784EF289 
 501      2DD26B8E 
 502 160c 60587E34 		.ascii	"`X~45B\243\376;\003,\307-\266P\344\370\236[l\253a?\002"
 502      3542A3FE 
ARM GAS  C:\Users\gjl\AppData\Local\Temp\ccD3AtNj.s 			page 40


 502      3B032CC7 
 502      2DB650E4 
 502      F89E5B6C 
 503 1624 93986321 		.ascii	"\223\230c!\300l,\3653\264\005\036\320\001\330\023\223"
 503      C06C2CF5 
 503      33B4051E 
 503      D001D813 
 503      93
 504 1635 857F10EC 		.ascii	"\205\177\020\354\201\2166m5E\177\302\303X\313jfj\336"
 504      818E366D 
 504      35457FC2 
 504      C358CB6A 
 504      666ADE
 505 1648 C462ACEA 		.ascii	"\304b\254\352\320\322h;\231\035#~#\354\030!K{\333\321"
 505      D0D2683B 
 505      991D237E 
 505      23EC1821 
 505      4B7BDBD1 
 506 165c D5384888 		.ascii	"\3258H\210;\3760\320h\004\370\262\347vL&\010\013\206"
 506      3BFE30D0 
 506      6804F8B2 
 506      E7764C26 
 506      080B86
 507 166f 6832C4C1 		.ascii	"h2\304\301f\030k\330\004JF\233\014V_\366\330\376\231"
 507      66186BD8 
 507      044A469B 
 507      0C565FF6 
 507      D8FE99
 508 1682 DC56E5DA 		.ascii	"\334V\345\332\242\326\031\025+\275\366\250\277O\370"
 508      A2D61915 
 508      2BBDF6A8 
 508      BF4FF8
 509 1691 77AADB7F 		.ascii	"w\252\333\177\003\333\354j\002"
 509      03DBEC6A 
 509      02
 510              		.text
 511              		.section	.gnu.lto_.symtab.1a3a617,"",%progbits
 512 0000 75386732 		.ascii	"u8g2_GetKerning\000"
 512      5F476574 
 512      4B65726E 
 512      696E6700 
 513 0010 00       		.ascii	"\000"
 514 0011 00       		.ascii	"\000"
 515 0012 00       		.ascii	"\000"
 516 0013 00000000 		.ascii	"\000\000\000\000\000\000\000\000"
 516      00000000 
 517 001b 1E020000 		.ascii	"\036\002\000\000"
 518 001f 75386732 		.ascii	"u8g2_GetKerningByTable\000"
 518      5F476574 
 518      4B65726E 
 518      696E6742 
 518      79546162 
 519 0036 00       		.ascii	"\000"
 520 0037 00       		.ascii	"\000"
 521 0038 00       		.ascii	"\000"
 522 0039 00000000 		.ascii	"\000\000\000\000\000\000\000\000"
 522      00000000 
ARM GAS  C:\Users\gjl\AppData\Local\Temp\ccD3AtNj.s 			page 41


 523 0041 25020000 		.ascii	"%\002\000\000"
 524              		.text
 525              		.section	.gnu.lto_.opts,"",%progbits
 526 0000 272D666D 		.ascii	"'-fmath-errno' '-fsigned-zeros' '-ftrapping-math' '"
 526      6174682D 
 526      6572726E 
 526      6F272027 
 526      2D667369 
 527 0033 2D666E6F 		.ascii	"-fno-trapv' '-fno-openmp' '-fno-openacc' '-mcpu=cor"
 527      2D747261 
 527      70762720 
 527      272D666E 
 527      6F2D6F70 
 528 0066 7465782D 		.ascii	"tex-m0' '-mthumb' '-g' '-Os' '-ffunction-sections' "
 528      6D302720 
 528      272D6D74 
 528      68756D62 
 528      2720272D 
 529 0099 272D6666 		.ascii	"'-ffat-lto-objects' '-flto'\000"
 529      61742D6C 
 529      746F2D6F 
 529      626A6563 
 529      74732720 
 530              		.text
 531              		.cfi_sections	.debug_frame
 532              		.section	.text.u8g2_GetKerning,"ax",%progbits
 533              		.align	1
 534              		.global	u8g2_GetKerning
 535              		.code	16
 536              		.thumb_func
 537              		.type	u8g2_GetKerning, %function
 538              	u8g2_GetKerning:
 539              	.LFB0:
 540              		.file 1 "..\\..\\u8g2\\csrc\\u8g2_kerning.c"
   1:..\..\u8g2\csrc/u8g2_kerning.c **** /*
   2:..\..\u8g2\csrc/u8g2_kerning.c **** 
   3:..\..\u8g2\csrc/u8g2_kerning.c ****   u8g2_kerning.c
   4:..\..\u8g2\csrc/u8g2_kerning.c **** 
   5:..\..\u8g2\csrc/u8g2_kerning.c ****   Universal 8bit Graphics Library (https://github.com/olikraus/u8g2/)
   6:..\..\u8g2\csrc/u8g2_kerning.c **** 
   7:..\..\u8g2\csrc/u8g2_kerning.c ****   Copyright (c) 2016, olikraus@gmail.com
   8:..\..\u8g2\csrc/u8g2_kerning.c ****   All rights reserved.
   9:..\..\u8g2\csrc/u8g2_kerning.c **** 
  10:..\..\u8g2\csrc/u8g2_kerning.c ****   Redistribution and use in source and binary forms, with or without modification, 
  11:..\..\u8g2\csrc/u8g2_kerning.c ****   are permitted provided that the following conditions are met:
  12:..\..\u8g2\csrc/u8g2_kerning.c **** 
  13:..\..\u8g2\csrc/u8g2_kerning.c ****   * Redistributions of source code must retain the above copyright notice, this list 
  14:..\..\u8g2\csrc/u8g2_kerning.c ****     of conditions and the following disclaimer.
  15:..\..\u8g2\csrc/u8g2_kerning.c ****     
  16:..\..\u8g2\csrc/u8g2_kerning.c ****   * Redistributions in binary form must reproduce the above copyright notice, this 
  17:..\..\u8g2\csrc/u8g2_kerning.c ****     list of conditions and the following disclaimer in the documentation and/or other 
  18:..\..\u8g2\csrc/u8g2_kerning.c ****     materials provided with the distribution.
  19:..\..\u8g2\csrc/u8g2_kerning.c **** 
  20:..\..\u8g2\csrc/u8g2_kerning.c ****   THIS SOFTWARE IS PROVIDED BY THE COPYRIGHT HOLDERS AND 
  21:..\..\u8g2\csrc/u8g2_kerning.c ****   CONTRIBUTORS "AS IS" AND ANY EXPRESS OR IMPLIED WARRANTIES, 
  22:..\..\u8g2\csrc/u8g2_kerning.c ****   INCLUDING, BUT NOT LIMITED TO, THE IMPLIED WARRANTIES OF 
  23:..\..\u8g2\csrc/u8g2_kerning.c ****   MERCHANTABILITY AND FITNESS FOR A PARTICULAR PURPOSE ARE 
ARM GAS  C:\Users\gjl\AppData\Local\Temp\ccD3AtNj.s 			page 42


  24:..\..\u8g2\csrc/u8g2_kerning.c ****   DISCLAIMED. IN NO EVENT SHALL THE COPYRIGHT HOLDER OR 
  25:..\..\u8g2\csrc/u8g2_kerning.c ****   CONTRIBUTORS BE LIABLE FOR ANY DIRECT, INDIRECT, INCIDENTAL, 
  26:..\..\u8g2\csrc/u8g2_kerning.c ****   SPECIAL, EXEMPLARY, OR CONSEQUENTIAL DAMAGES (INCLUDING, BUT 
  27:..\..\u8g2\csrc/u8g2_kerning.c ****   NOT LIMITED TO, PROCUREMENT OF SUBSTITUTE GOODS OR SERVICES; 
  28:..\..\u8g2\csrc/u8g2_kerning.c ****   LOSS OF USE, DATA, OR PROFITS; OR BUSINESS INTERRUPTION) HOWEVER 
  29:..\..\u8g2\csrc/u8g2_kerning.c ****   CAUSED AND ON ANY THEORY OF LIABILITY, WHETHER IN CONTRACT, 
  30:..\..\u8g2\csrc/u8g2_kerning.c ****   STRICT LIABILITY, OR TORT (INCLUDING NEGLIGENCE OR OTHERWISE) 
  31:..\..\u8g2\csrc/u8g2_kerning.c ****   ARISING IN ANY WAY OUT OF THE USE OF THIS SOFTWARE, EVEN IF 
  32:..\..\u8g2\csrc/u8g2_kerning.c ****   ADVISED OF THE POSSIBILITY OF SUCH DAMAGE.  
  33:..\..\u8g2\csrc/u8g2_kerning.c **** 
  34:..\..\u8g2\csrc/u8g2_kerning.c **** */
  35:..\..\u8g2\csrc/u8g2_kerning.c **** 
  36:..\..\u8g2\csrc/u8g2_kerning.c **** #include "u8g2.h"
  37:..\..\u8g2\csrc/u8g2_kerning.c **** 
  38:..\..\u8g2\csrc/u8g2_kerning.c **** /* this function is used as "u8g2_get_kerning_cb" */
  39:..\..\u8g2\csrc/u8g2_kerning.c **** /*
  40:..\..\u8g2\csrc/u8g2_kerning.c **** uint8_t u8g2_GetNullKerning(u8g2_t *u8g2, uint16_t e1, uint16_t e2)
  41:..\..\u8g2\csrc/u8g2_kerning.c **** {
  42:..\..\u8g2\csrc/u8g2_kerning.c ****   return 0;
  43:..\..\u8g2\csrc/u8g2_kerning.c **** }
  44:..\..\u8g2\csrc/u8g2_kerning.c **** */
  45:..\..\u8g2\csrc/u8g2_kerning.c **** 
  46:..\..\u8g2\csrc/u8g2_kerning.c **** /* this function is used as "u8g2_get_kerning_cb" */
  47:..\..\u8g2\csrc/u8g2_kerning.c **** uint8_t u8g2_GetKerning(U8X8_UNUSED u8g2_t *u8g2, u8g2_kerning_t *kerning, uint16_t e1, uint16_t e2
  48:..\..\u8g2\csrc/u8g2_kerning.c **** {
 541              		.loc 1 48 0
 542              		.cfi_startproc
 543              		@ args = 0, pretend = 0, frame = 0
 544              		@ frame_needed = 0, uses_anonymous_args = 0
 545              	.LVL0:
 546 0000 F0B5     		push	{r4, r5, r6, r7, lr}
 547              		.cfi_def_cfa_offset 20
 548              		.cfi_offset 4, -20
 549              		.cfi_offset 5, -16
 550              		.cfi_offset 6, -12
 551              		.cfi_offset 7, -8
 552              		.cfi_offset 14, -4
  49:..\..\u8g2\csrc/u8g2_kerning.c ****   uint16_t i1, i2, cnt, end;
  50:..\..\u8g2\csrc/u8g2_kerning.c ****   if ( kerning == NULL )
  51:..\..\u8g2\csrc/u8g2_kerning.c ****     return 0;
 553              		.loc 1 51 0
 554 0002 0800     		movs	r0, r1
 555              	.LVL1:
  48:..\..\u8g2\csrc/u8g2_kerning.c ****   uint16_t i1, i2, cnt, end;
 556              		.loc 1 48 0
 557 0004 1500     		movs	r5, r2
  50:..\..\u8g2\csrc/u8g2_kerning.c ****     return 0;
 558              		.loc 1 50 0
 559 0006 0029     		cmp	r1, #0
 560 0008 20D0     		beq	.L2
  52:..\..\u8g2\csrc/u8g2_kerning.c ****   
  53:..\..\u8g2\csrc/u8g2_kerning.c ****   /* search for the encoding in the first table */
  54:..\..\u8g2\csrc/u8g2_kerning.c ****   cnt = kerning->first_table_cnt;
  55:..\..\u8g2\csrc/u8g2_kerning.c ****   cnt--;	/* ignore the last element of the table, which is 0x0ffff */
  56:..\..\u8g2\csrc/u8g2_kerning.c ****   for( i1 = 0; i1 < cnt; i1++ )
 561              		.loc 1 56 0
 562 000a 0024     		movs	r4, #0
ARM GAS  C:\Users\gjl\AppData\Local\Temp\ccD3AtNj.s 			page 43


  54:..\..\u8g2\csrc/u8g2_kerning.c ****   cnt--;	/* ignore the last element of the table, which is 0x0ffff */
 563              		.loc 1 54 0
 564 000c 0888     		ldrh	r0, [r1]
 565              	.LVL2:
  55:..\..\u8g2\csrc/u8g2_kerning.c ****   for( i1 = 0; i1 < cnt; i1++ )
 566              		.loc 1 55 0
 567 000e 0138     		subs	r0, r0, #1
 568              	.LVL3:
 569 0010 80B2     		uxth	r0, r0
 570              	.LVL4:
 571              	.L3:
 572              		.loc 1 56 0 discriminator 1
 573 0012 A2B2     		uxth	r2, r4
 574 0014 9042     		cmp	r0, r2
 575 0016 15D9     		bls	.L10
  57:..\..\u8g2\csrc/u8g2_kerning.c ****   {
  58:..\..\u8g2\csrc/u8g2_kerning.c ****     if ( kerning->first_encoding_table[i1] == e1 )
 576              		.loc 1 58 0
 577 0018 4F68     		ldr	r7, [r1, #4]
 578 001a 6600     		lsls	r6, r4, #1
 579 001c BF5B     		ldrh	r7, [r7, r6]
 580 001e 2200     		movs	r2, r4
 581 0020 0134     		adds	r4, r4, #1
 582              	.LVL5:
 583 0022 AF42     		cmp	r7, r5
 584 0024 F5D1     		bne	.L3
  59:..\..\u8g2\csrc/u8g2_kerning.c ****       break;
  60:..\..\u8g2\csrc/u8g2_kerning.c ****   }
  61:..\..\u8g2\csrc/u8g2_kerning.c ****   if ( i1 >= cnt )
  62:..\..\u8g2\csrc/u8g2_kerning.c ****     return 0;	/* e1 not part of the kerning table, return 0 */
  63:..\..\u8g2\csrc/u8g2_kerning.c **** 
  64:..\..\u8g2\csrc/u8g2_kerning.c ****   /* get the upper index for i2 */
  65:..\..\u8g2\csrc/u8g2_kerning.c ****   end = kerning->index_to_second_table[i1+1];
 585              		.loc 1 65 0
 586 0026 8868     		ldr	r0, [r1, #8]
 587              	.LVL6:
 588 0028 0132     		adds	r2, r2, #1
 589 002a 5200     		lsls	r2, r2, #1
 590 002c 145A     		ldrh	r4, [r2, r0]
 591              	.LVL7:
  66:..\..\u8g2\csrc/u8g2_kerning.c ****   for( i2 = kerning->index_to_second_table[i1]; i2 < end; i2++ )
 592              		.loc 1 66 0
 593 002e 825B     		ldrh	r2, [r0, r6]
 594              	.LVL8:
 595              	.L6:
 596              		.loc 1 66 0 is_stmt 0 discriminator 1
 597 0030 A242     		cmp	r2, r4
 598 0032 07D2     		bcs	.L10
  67:..\..\u8g2\csrc/u8g2_kerning.c ****   {
  68:..\..\u8g2\csrc/u8g2_kerning.c ****     if ( kerning->second_encoding_table[i2] == e2 )
 599              		.loc 1 68 0 is_stmt 1
 600 0034 CD68     		ldr	r5, [r1, #12]
 601 0036 5000     		lsls	r0, r2, #1
 602 0038 405B     		ldrh	r0, [r0, r5]
 603 003a 9842     		cmp	r0, r3
 604 003c 04D0     		beq	.L7
  66:..\..\u8g2\csrc/u8g2_kerning.c ****   for( i2 = kerning->index_to_second_table[i1]; i2 < end; i2++ )
ARM GAS  C:\Users\gjl\AppData\Local\Temp\ccD3AtNj.s 			page 44


 605              		.loc 1 66 0 discriminator 2
 606 003e 0132     		adds	r2, r2, #1
 607              	.LVL9:
 608 0040 92B2     		uxth	r2, r2
 609              	.LVL10:
 610 0042 F5E7     		b	.L6
 611              	.LVL11:
 612              	.L10:
  51:..\..\u8g2\csrc/u8g2_kerning.c ****   
 613              		.loc 1 51 0
 614 0044 0020     		movs	r0, #0
 615 0046 01E0     		b	.L2
 616              	.LVL12:
 617              	.L7:
  69:..\..\u8g2\csrc/u8g2_kerning.c ****       break;
  70:..\..\u8g2\csrc/u8g2_kerning.c ****   }
  71:..\..\u8g2\csrc/u8g2_kerning.c ****   
  72:..\..\u8g2\csrc/u8g2_kerning.c ****   if ( i2 >= end )
  73:..\..\u8g2\csrc/u8g2_kerning.c ****     return 0;	/* e2 not part of any pair with e1, return 0 */
  74:..\..\u8g2\csrc/u8g2_kerning.c ****   
  75:..\..\u8g2\csrc/u8g2_kerning.c ****   return kerning->kerning_values[i2];
 618              		.loc 1 75 0
 619 0048 0B69     		ldr	r3, [r1, #16]
 620              	.LVL13:
 621 004a 985C     		ldrb	r0, [r3, r2]
 622              	.LVL14:
 623              	.L2:
  76:..\..\u8g2\csrc/u8g2_kerning.c **** }
 624              		.loc 1 76 0
 625              		@ sp needed
 626 004c F0BD     		pop	{r4, r5, r6, r7, pc}
 627              		.cfi_endproc
 628              	.LFE0:
 629              		.size	u8g2_GetKerning, .-u8g2_GetKerning
 630              		.section	.text.u8g2_GetKerningByTable,"ax",%progbits
 631              		.align	1
 632              		.global	u8g2_GetKerningByTable
 633              		.code	16
 634              		.thumb_func
 635              		.type	u8g2_GetKerningByTable, %function
 636              	u8g2_GetKerningByTable:
 637              	.LFB1:
  77:..\..\u8g2\csrc/u8g2_kerning.c **** 
  78:..\..\u8g2\csrc/u8g2_kerning.c **** uint8_t u8g2_GetKerningByTable(U8X8_UNUSED u8g2_t *u8g2, const uint16_t *kt, uint16_t e1, uint16_t 
  79:..\..\u8g2\csrc/u8g2_kerning.c **** {
 638              		.loc 1 79 0
 639              		.cfi_startproc
 640              		@ args = 0, pretend = 0, frame = 0
 641              		@ frame_needed = 0, uses_anonymous_args = 0
 642              	.LVL15:
 643 0000 70B5     		push	{r4, r5, r6, lr}
 644              		.cfi_def_cfa_offset 16
 645              		.cfi_offset 4, -16
 646              		.cfi_offset 5, -12
 647              		.cfi_offset 6, -8
 648              		.cfi_offset 14, -4
  80:..\..\u8g2\csrc/u8g2_kerning.c ****   uint16_t i;
ARM GAS  C:\Users\gjl\AppData\Local\Temp\ccD3AtNj.s 			page 45


  81:..\..\u8g2\csrc/u8g2_kerning.c ****   i = 0;
  82:..\..\u8g2\csrc/u8g2_kerning.c ****   if ( kt == NULL )
  83:..\..\u8g2\csrc/u8g2_kerning.c ****     return 0;
 649              		.loc 1 83 0
 650 0002 081E     		subs	r0, r1, #0
 651              	.LVL16:
  82:..\..\u8g2\csrc/u8g2_kerning.c ****     return 0;
 652              		.loc 1 82 0
 653 0004 13D0     		beq	.L13
 654 0006 0020     		movs	r0, #0
  84:..\..\u8g2\csrc/u8g2_kerning.c ****   for(;;)
  85:..\..\u8g2\csrc/u8g2_kerning.c ****   {
  86:..\..\u8g2\csrc/u8g2_kerning.c ****     if ( kt[i] == 0x0ffff )
 655              		.loc 1 86 0
 656 0008 094E     		ldr	r6, .L18
 657              	.LVL17:
 658              	.L15:
 659 000a 4400     		lsls	r4, r0, #1
 660 000c 0D5B     		ldrh	r5, [r1, r4]
 661 000e B542     		cmp	r5, r6
 662 0010 0CD0     		beq	.L17
  87:..\..\u8g2\csrc/u8g2_kerning.c ****       break;
  88:..\..\u8g2\csrc/u8g2_kerning.c ****     if ( kt[i] == e1 && kt[i+1] == e2 )
 663              		.loc 1 88 0
 664 0012 9542     		cmp	r5, r2
 665 0014 07D1     		bne	.L14
 666              		.loc 1 88 0 is_stmt 0 discriminator 1
 667 0016 0C19     		adds	r4, r1, r4
 668 0018 6488     		ldrh	r4, [r4, #2]
 669 001a 9C42     		cmp	r4, r3
 670 001c 03D1     		bne	.L14
  89:..\..\u8g2\csrc/u8g2_kerning.c ****       return kt[i+2];
 671              		.loc 1 89 0 is_stmt 1
 672 001e 0230     		adds	r0, r0, #2
 673              	.LVL18:
 674 0020 4000     		lsls	r0, r0, #1
 675 0022 085C     		ldrb	r0, [r1, r0]
 676 0024 03E0     		b	.L13
 677              	.LVL19:
 678              	.L14:
  90:..\..\u8g2\csrc/u8g2_kerning.c ****     i+=3;
 679              		.loc 1 90 0
 680 0026 0330     		adds	r0, r0, #3
 681              	.LVL20:
 682 0028 80B2     		uxth	r0, r0
 683              	.LVL21:
  91:..\..\u8g2\csrc/u8g2_kerning.c ****   }
 684              		.loc 1 91 0
 685 002a EEE7     		b	.L15
 686              	.L17:
  83:..\..\u8g2\csrc/u8g2_kerning.c ****   for(;;)
 687              		.loc 1 83 0
 688 002c 0020     		movs	r0, #0
 689              	.LVL22:
 690              	.L13:
  92:..\..\u8g2\csrc/u8g2_kerning.c ****   return 0;
  93:..\..\u8g2\csrc/u8g2_kerning.c **** }
ARM GAS  C:\Users\gjl\AppData\Local\Temp\ccD3AtNj.s 			page 46


 691              		.loc 1 93 0
 692              		@ sp needed
 693 002e 70BD     		pop	{r4, r5, r6, pc}
 694              	.L19:
 695              		.align	2
 696              	.L18:
 697 0030 FFFF0000 		.word	65535
 698              		.cfi_endproc
 699              	.LFE1:
 700              		.size	u8g2_GetKerningByTable, .-u8g2_GetKerningByTable
 701              		.text
 702              	.Letext0:
 703              		.file 2 "c:\\program files (x86)\\cypress\\psoc creator\\4.1\\psoc creator\\import\\gnu\\arm\\5.4.
 704              		.file 3 "c:\\program files (x86)\\cypress\\psoc creator\\4.1\\psoc creator\\import\\gnu\\arm\\5.4.
 705              		.file 4 "..\\..\\u8g2\\csrc\\u8x8.h"
 706              		.file 5 "..\\..\\u8g2\\csrc\\u8g2.h"