ARM GAS  C:\Users\gjl\AppData\Local\Temp\cccugTJj.s 			page 1


   1              		.syntax unified
   2              		.cpu cortex-m0
   3              		.fpu softvfp
   4              		.eabi_attribute 20, 1
   5              		.eabi_attribute 21, 1
   6              		.eabi_attribute 23, 3
   7              		.eabi_attribute 24, 1
   8              		.eabi_attribute 25, 1
   9              		.eabi_attribute 26, 1
  10              		.eabi_attribute 30, 4
  11              		.eabi_attribute 34, 0
  12              		.eabi_attribute 18, 4
  13              		.thumb
  14              		.syntax unified
  15              		.file	"u8g2_ll_hvline.c"
  16              		.text
  17              	.Ltext0:
  18              		.section	.gnu.lto_.profile.ba9e467,"",%progbits
  19 0000 789C6361 		.ascii	"x\234ca`d`a`\000\222\011q\000\001\210\000\311"
  19      60646061 
  19      60009209 
  19      71000188 
  19      00C9
  20              		.text
  21              		.section	.gnu.lto_.icf.ba9e467,"",%progbits
  22 0000 789C6361 		.ascii	"x\234ca`d\000\001>\006\004`bX\326~\246\231\221\361\367"
  22      60640001 
  22      3E060460 
  22      6258D67E 
  22      A69991F1 
  23 0015 DA0DFF59 		.ascii	"\332\015\377Y\030\000+\221\005\357"
  23      18002B91 
  23      05EF
  24              		.text
  25              		.section	.gnu.lto_.jmpfuncs.ba9e467,"",%progbits
  26 0000 789C6361 		.ascii	"x\234ca`d\000\001\031\006\004`b`e\004\001\371z\020`"
  26      60640001 
  26      19060460 
  26      62606504 
  26      01F97A10 
  27 0015 44E63000 		.ascii	"D\3460\000\000>\210\005m"
  27      003E8805 
  27      6D
  28              		.text
  29              		.section	.gnu.lto_.inline.ba9e467,"",%progbits
  30 0000 789C5590 		.ascii	"x\234U\2201J\004A\020E\377\257)vk\305\201\301xq70\020"
  30      314A0441 
  30      1045FFAF 
  30      29766BC5 
  30      81C17871 
  31 0017 04612F20 		.ascii	"\004a/ \023y\004o \312z\211J4\323\320x2\027\014\004"
  31      1379046F 
  31      20CA7A89 
  31      4A34D3D0 
  31      7832170C 
  32 002c 31313310 		.ascii	"113\020\274\202\241\221\032l``\"\250\330\325-#V\360"
  32      BC82A191 
ARM GAS  C:\Users\gjl\AppData\Local\Temp\cccugTJj.s 			page 2


  32      1A6C6060 
  32      22A8D8D5 
  32      2D2356F0 
  33 0040 EB577717 		.ascii	"\353Ww\027\377\321\012\"j\277\264\\\002\314:\262\206"
  33      FFD10A22 
  33      6ABFB45C 
  33      02CC3AB2 
  33      86
  34 0051 1D7C096F 		.ascii	"\035|\011o\356\037N\354]\216+\220\274\340\270z\032\302"
  34      EE1F4EEC 
  34      5D8E2B90 
  34      BCE0B87A 
  34      1AC2
  35 0063 0E7B77D4 		.ascii	"\016{w\324\273\371\257S\233\247\265\253\345\355G]\326"
  35      BBF9AF53 
  35      9BA7B5AB 
  35      E5ED475D 
  35      D6
  36 0074 C005C7D0 		.ascii	"\300\005\307\320\3644\272XD%\211\245ij\310\332U\214"
  36      F434BA58 
  36      442589A5 
  36      696AC8DA 
  36      558C
  37 0086 0B0DA942 		.ascii	"\013\015\251Bj\273\333\301\240\233\010\006o\333.\340"
  37      6ABBDBC1 
  37      A09B0806 
  37      6FDB2EE0 
  38 0096 EBD05530 		.ascii	"\353\320U0Z\354\272\346\301\312\231em\312\320@\273\211"
  38      5AECBAE6 
  38      C1CA9965 
  38      6DCAD040 
  38      BB89
  39 00a8 B7D87C5C 		.ascii	"\267\330|\\\2568!\327[N\301\332\371\351\240\205;\235"
  39      AE3821D7 
  39      5B4EC1DA 
  39      F9E9A085 
  39      3B9D
  40 00ba 6DCA2666 		.ascii	"m\312&f\227\244%\316\177`\005&S\024\306\202\365G\264"
  40      97A425CE 
  40      7F600526 
  40      5314C682 
  40      F547B4
  41 00cd DA13A5A8 		.ascii	"\332\023\245\250\022\330\004\3344G\263\0200\023\010"
  41      12D804DC 
  41      3447B310 
  41      301308
  42 00dc E4792F01 		.ascii	"\344y/\001\256\177\237\231\205O\344\033\237/#\205\253"
  42      AE7F9F99 
  42      854FE41B 
  42      9F2F2385 
  42      AB
  43 00ed 697CF20F 		.ascii	"i|\362\017\253\364C\""
  43      ABF44322 
  44              		.text
  45              		.section	.gnu.lto_.pureconst.ba9e467,"",%progbits
  46 0000 789C6361 		.ascii	"x\234ca`d`e```b\220b\224\002\000\000\355\000B"
  46      60646065 
ARM GAS  C:\Users\gjl\AppData\Local\Temp\cccugTJj.s 			page 3


  46      60606062 
  46      90629402 
  46      0000ED00 
  47              		.text
  48              		.section	.gnu.lto_u8g2_ll_hvline_vertical_top_lsb.ba9e467,"",%progbits
  49 0000 789C8D56 		.ascii	"x\234\215V\177L\325\327\025\277\347{\277\357\373~\277"
  49      7F4CD5D7 
  49      15BFE77B 
  49      BFEFFB7E 
  49      BF
  50 0011 073CD414 		.ascii	"\007<\324\024\237\024\265\210\350DD\342/P\304%\215\311"
  50      9F14B588 
  50      E84444E2 
  50      2F50C425 
  50      8DC9
  51 0023 FE699A25 		.ascii	"\376i\232%M\026\023\2639\273\232\261\352\224-.Y\322"
  51      4D1613B3 
  51      39BB9AB1 
  51      EA942D2E 
  51      59D2
  52 0035 2F7CE181 		.ascii	"/|\341\201\304U\315:]\255\332nKW\353\217\"U\207(\314"
  52      C455CD3A 
  52      5DADDA6E 
  52      4B57EB8F 
  52      22558728 
  53 004a 27B3D0AA 		.ascii	"'\263\320\252\305\212\2776T\360\307B\023\323%\360V\213"
  53      C58ABF36 
  53      54F0C742 
  53      13D325F0 
  53      568B
  54 005c 530A3BE7 		.ascii	"S\012;\347\334\357+_\300n\276\344\335\357\275\347\236"
  54      DCEF2B5F 
  54      C06EBEE4 
  54      DDEFBDE7 
  54      9E
  55 006d CFE7DC7B 		.ascii	"\317\347\334{\316\271\347^]\200\240_EH\210\037\340\327"
  55      CEB9E75E 
  55      5D80A05F 
  55      4548881F 
  55      E0D7
  56 007f 85434817 		.ascii	"\205CH\027\240m\357@\241G\323\344\326\011\302\364\351"
  56      A06DEF40 
  56      A147D3E4 
  56      D609C2F4 
  56      E9
  57 0090 558B8519 		.ascii	"U\213\205\031\220\240+\261\256\271\336Y\204b\243\017"
  57      90A02BB1 
  57      AEB9DE59 
  57      8462A30F 
  58 00a0 27032E30 		.ascii	"'\003.0\224\330\320\334\2659(\366R\033p\203\207\304"
  58      94D8D0DC 
  58      B53928F6 
  58      521B7083 
  58      87C4
  59 00b2 E0D1D2B6 		.ascii	"\340\321\322\266\266\013\024\247V\271Q\234\246\304\245"
  59      B60B14A7 
  59      56B9519C 
ARM GAS  C:\Users\gjl\AppData\Local\Temp\cccugTJj.s 			page 4


  59      A6C4A5
  60 00c1 5EF0F1B4 		.ascii	"^\360\361\264O\3633(\314 \277\026`\203A6\030\200\240"
  60      4FF33328 
  60      CC20BF16 
  60      60834136 
  60      1880A0
  61 00d4 620E6A21 		.ascii	"b\016j!6\230\302\006C\220\242\304\341d'E\2138mD\024"
  61      3698C206 
  61      4390A2C4 
  61      E1642745 
  61      8B386D44 
  62 00e9 77692A00 		.ascii	"wi*\000}M\017\210\3274\251\273\014\267'\315\353\363"
  62      7D4D0F88 
  62      D734A9BB 
  62      0CB727CD 
  62      EBF3
  63 00fb 0782A170 		.ascii	"\007\202\241pJ$\025^\223>\001q\035\206\225\017<\316"
  63      4A24155E 
  63      933E0171 
  63      1D86950F 
  63      3CCE
  64 010d C103ED6B 		.ascii	"\301\003\355k\015Zkz\233\264\334\367L\374\335\256\356"
  64      0D5A6B7A 
  64      9BB4DCF7 
  64      4CFCDDAE 
  64      EE
  65 011e CD37F7C7 		.ascii	"\3157\367\307\241Z\0121\254\261\212\200\367 \027\265"
  65      A15A0A31 
  65      ACB18A80 
  65      F72017B5 
  66 012e 2E551DD9 		.ascii	".U\035\331#\277\324\252%\200\216\303\376Ow\337\013\321"
  66      23BFD4AA 
  66      25808EC3 
  66      FE4F77DF 
  66      0BD1
  67 0140 50832C1C 		.ascii	"P\203,\034V\264}^\021\226SA`\377x\333\361}\241\234w"
  67      56B47D5E 
  67      11965341 
  67      60FF78DB 
  67      F17DA19C 
  68 0155 4DB3D234 		.ascii	"M\263\3224[\326\232\336j)\341\000H\344\203\367!\012"
  68      5BD69ADE 
  68      6A29E100 
  68      48E483F7 
  68      210A
  69 0167 FB212A50 		.ascii	"\373!*P$\340 \344\240\366\356\2235\225>9\203\221o\034"
  69      24E020E4 
  69      A0F6EE93 
  69      35953E39 
  69      83916F1C 
  70 017b 7CF896C7 		.ascii	"|\370\226\307F\356h\363\233\371\325R\207C\012:?\012"
  70      46EE68F3 
  70      9BF9D552 
  70      87430A3A 
  70      3F0A
  71 018d F904D405 		.ascii	"\371\004\324\005\034f`s\335\371A\217\234\311\300-]m"
  71      1C666073 
ARM GAS  C:\Users\gjl\AppData\Local\Temp\cccugTJj.s 			page 5


  71      DDF9418F 
  71      9CC9C02D 
  71      5D6D
  72 019f 7D860D3C 		.ascii	"}\206\015<\235\004~0\016X\317\300\307f\305U\220\263"
  72      9D047E30 
  72      0E58CFC0 
  72      C766C555 
  72      90B3
  73 01b1 18F860F7 		.ascii	"\030\370`\367\365\313`\003\277N\002\217\214\00360\260"
  73      F5CB6003 
  73      BF4E028F 
  73      8C033630 
  73      B0
  74 01c2 69EFBE81 		.ascii	"i\357\276\201\240\314c\340[W?\276\221\\jc;\003]\360"
  74      A0CC63E0 
  74      5B573FBE 
  74      915C6A63 
  74      3B035DF0 
  75 01d6 E168A04B 		.ascii	"\341h\240K\300Q\310!\355\363u\333.\205e\001#\377x\346"
  75      C051C821 
  75      EDF375DB 
  75      2E856501 
  75      23FF78E6 
  76 01ea DE7E4FF6 		.ascii	"\336~O\366\237\010\031?\025\233\270\313\214Wd\021\370"
  76      9F08193F 
  76      159BB8CB 
  76      8C576411 
  76      F8
  77 01fb 98134C3F 		.ascii	"\230\023L?\324\255\251\210o\225\262\210q=\326\321k\001"
  77      D4ADA988 
  77      6F95B288 
  77      713DD6D1 
  77      6B01
  78 020d 85331B57 		.ascii	"\2053\033W\231\326r\002\375\345\011\240\341?\037\331"
  78      99D67202 
  78      FDE509A0 
  78      E13F1FD9 
  79 021d E291DF65 		.ascii	"\342\221\337eP\353W\267w\350\266\261&\207\261\023O\300"
  79      50EB57B7 
  79      77E8B6B1 
  79      2687B113 
  79      4FC0
  80 022f 35DC3E78 		.ascii	"5\334>x\332\220+\031\367n\307\275\373r\254\261\223O"
  80      DA902B19 
  80      F76EC7BD 
  80      FB72ACB1 
  80      934F
  81 0241 00BD7EA5 		.ascii	"\000\275~\245\356\256\224/(\220y\244\316k\033k\214\205"
  81      EEAE942F 
  81      289079A4 
  81      CE6B1B6B 
  81      8C85
  82 0253 DE34E355 		.ascii	"\3364\343Uh\314\200\346\321\301\267\221\037\015\017"
  82      68CC80E6 
  82      D1C1B791 
  82      1F0D0F
  83 0262 C4C32AA1 		.ascii	"\304\303*\241(\013;\373.\354\365\253\204J\301\341\227"
ARM GAS  C:\Users\gjl\AppData\Local\Temp\cccugTJj.s 			page 6


  83      280B3BFB 
  83      2EECF5AB 
  83      844AC1E1 
  83      97
  84 0273 BFEDEA09 		.ascii	"\277\355\352\011\311\3573\357\300\3417\267\0316\357"
  84      C9EF33EF 
  84      C0E137B7 
  84      1936EF
  85 0282 B158C0FC 		.ascii	"\261X\300\374\314\364TK7\304\025\355i\244\375\353\010"
  85      CCF4544B 
  85      37C415ED 
  85      69A4FDEB 
  85      08
  86 0293 EDDD86A1 		.ascii	"\355\335\206\241\337\005\215*\312\346,8\003\331\320"
  86      DF058D2A 
  86      CAE62C38 
  86      03D9D0
  87 02a2 82FF53F8 		.ascii	"\202\377S\370o\302\177#\376\217C\266\312mh\005\003\217"
  87      6FC27F23 
  87      FE8F43B6 
  87      CA6D6805 
  87      038F
  88 02b4 813E4A0B 		.ascii	"\201>J\0135\352_\214\233\303\303\226\031?j\234\031\362"
  88      35EA5F8C 
  88      9BC3C396 
  88      193F6A9C 
  88      19F2
  89 02c6 A31F29FC 		.ascii	"\243\037)\374\032\267\230\265\250\250s\353\342\326\020"
  89      1AB798B5 
  89      A8A873EB 
  89      E2D610
  90 02d5 04730B02 		.ascii	"\004s\013\002z\270\365r\353\343\326\317m\200\333 \267"
  90      7AB8F572 
  90      EBE3D6CF 
  90      6D80DB20 
  90      B7
  91 02e6 7858310B 		.ascii	"xX1\013\323\230-\302\330t\314\024\230\200\215g\"5\223"
  91      D3982DC2 
  91      D874CC14 
  91      98808D67 
  91      223593
  92 02f9 58ED19A0 		.ascii	"X\355\031\240\343\221\201\002\357d\266\023e\304\024"
  92      E3918102 
  92      EF64B613 
  92      65C414
  93 0308 418BCDE4 		.ascii	"A\213\315\344\366Y\234\364e\221\306Tl\374\323X8\235"
  93      F6599CF4 
  93      6591C654 
  93      6CFCD358 
  93      389D
  94 031a 959F23CA 		.ascii	"\225\237#\312l\240\2032\203\2729,\235\011\224\216\271"
  94      6CA08332 
  94      83BA392C 
  94      9D09948E 
  94      B9
  95 032b 4044B308 		.ascii	"@D\263\0107\233\2329<\227G\335|\356\316\343U\025\260"
  95      379B9A39 
ARM GAS  C:\Users\gjl\AppData\Local\Temp\cccugTJj.s 			page 7


  95      3C9747DD 
  95      7CEECEE3 
  95      5515B0
  96 033e BDF9242E 		.ascii	"\275\371$.\244f\001/k!u\027sw\011\253\025q[\314\312"
  96      A466012F 
  96      6B217517 
  96      737709AB 
  96      15715BCC 
  97 0353 4B697219 		.ascii	"Kir\031\331+a\242\3454.e\345\025\334\012\321\207~\257"
  97      D92B61A2 
  97      E5342E65 
  97      E515DC0A 
  97      D1877EAF 
  98 0367 0D897E4D 		.ascii	"\015\211~M\303\217\274\013\225\361\033mA\216\003\262"
  98      C38FBC0B 
  98      95F11B6D 
  98      418E03B2 
  99 0377 583255F4 		.ascii	"X2U\364\2025\030Kd\220\310\222\021\224`D?9\267k\177"
  99      8235184B 
  99      6490C892 
  99      11946044 
  99      3F39B76B 
 100 038c 8032C305 		.ascii	"\2002\303\005n\370\033F\372.h#\230\210 \232\236X\200"
 100      6EF81B46 
 100      FA2E6823 
 100      9888209A 
 100      9E5880
 101 039f 451864AA 		.ascii	"E\030d\252@5\027\032|\012\001p\026\021\275P\231\250"
 101      4035171A 
 101      7C0A0170 
 101      1611BD50 
 101      99A8
 102 03b1 699DAC68 		.ascii	"i\235\254h'\020\010\015\365\031j<\021fGQ\312Jn%\232"
 102      2710080D 
 102      F5196A3C 
 102      11664751 
 102      CA4A6E25 
 103 03c6 84D26FCC 		.ascii	"\204\322o\3144\221\231Il\346\201\275\332F6\263\263\272"
 103      34919949 
 103      6CE681BD 
 103      DA4636B3 
 103      B3BA
 104 03d8 F5A25B99 		.ascii	"\365\242[\231\021\360\021/\2542>\020\013\261\012\246"
 104      11F0112F 
 104      AC323E10 
 104      0BB10AA6 
 105 03e8 19CB90F5 		.ascii	"\031\313\220\365\344\216nP\274\031N\224T\311\335~\256"
 105      E48E6E50 
 105      BC194E94 
 105      54C9DD7E 
 105      AE
 106 03f9 36F036EC 		.ascii	"6\3606\354\305\232\033\260\3443\320F\251L\207\351\237"
 106      C59A1BB0 
 106      E433D046 
 106      A94C87E9 
 106      9F
 107 040a 951FB8E7 		.ascii	"\225\037\270\347\316!\362vx\033\206\270\032\303\307"
ARM GAS  C:\Users\gjl\AppData\Local\Temp\cccugTJj.s 			page 8


 107      CE21F276 
 107      781B86B8 
 107      1AC3C7
 108 0419 3057DC81 		.ascii	"0W\334\201\252\213V\306\010\341\261\263\3551\017\021"
 108      AA8B56C6 
 108      08E1B1B3 
 108      ED310F11 
 109 0429 7A71B79F 		.ascii	"zq\267\237\330'\241_\223\242W\262\213\037\307\302\311"
 109      D827A15F 
 109      93A257B2 
 109      8B1FC7C2 
 109      C9
 110 043a 45D33E68 		.ascii	"E\323>hN\267\335\237\"\224\324M\2447\254\307\277\261"
 110      4EB7DD9F 
 110      2294D44D 
 110      A437ACC7 
 110      BFB1
 111 044c 5D9291E4 		.ascii	"]\222\221\344I\240\313q\027\332\241\3062\304\312\233"
 111      49A0CB71 
 111      17DAA1C6 
 111      32C4CA9B 
 112 045c 8D9B11ED 		.ascii	"\215\233\021\355\022\333}\314<d$\267\232$6F\210Y\352"
 112      12DB7DCC 
 112      3C6424B7 
 112      9A243646 
 112      8859EA
 113 046f 57AEBFB6 		.ascii	"W\256\277\266\247P\021O\241 '\035{\2064\246\250\230"
 113      A750114F 
 113      A120271D 
 113      7B8634A6 
 113      A898
 114 0481 77459542 		.ascii	"wE\225B&J\250\270o\371\303)\256\006nx8,\341\234#\352"
 114      264AA8B8 
 114      6FF9C329 
 114      AE066E78 
 114      382CE19C 
 115 0497 8CCA64BF 		.ascii	"\214\312d\2776\364\366\333\001{\326\351\330\340X\307"
 115      36F4F6DB 
 115      017BD6E9 
 115      D8E058C7 
 116 04a7 86C8B1E7 		.ascii	"\206\310\261\347\307:\326\007\027\330\261t\025\302\247"
 116      C73AD607 
 116      17D8B174 
 116      15C2A7
 117 04b6 E858A2BC 		.ascii	"\350X\242\274\223\247\010\263\234\204\276\261\204a\264"
 117      93A708B3 
 117      9C84BEB1 
 117      8461B4
 118 04c5 081D36E1 		.ascii	"\010\0356\341\276\337\237\370wh\356a3\245Z\246\300E"
 118      BEDF9FF8 
 118      7768EE61 
 118      33A55AA6 
 118      C045
 119 04d7 A6E4F2F2 		.ascii	"\246\344\362\362\231\242L\324\\\261\243?\025ii\267\273"
 119      99A24CD4 
 119      5CB1A33F 
 119      156969B7 
ARM GAS  C:\Users\gjl\AppData\Local\Temp\cccugTJj.s 			page 9


 119      BB
 120 04e8 6D2F4FE3 		.ascii	"m/O\343\355N\035\275\263i\274\214\376\336\237+\235\351"
 120      ED4E1DBD 
 120      B369BC8C 
 120      FEDE9F2B 
 120      9DE9
 121 04fa 0EC31554 		.ascii	"\016\303\025T\324\212\304\267%\212\001\227\330\270$"
 121      D48AC4B7 
 121      258A0197 
 121      D8B824
 122 0509 E39D681C 		.ascii	"\343\235h\034\343`\252\320\267\020\363t\265\232\204"
 122      E360AAD0 
 122      B710F374 
 122      B59A84
 123 0518 EDE9E7C8 		.ascii	"\355\351\347\310V\322t\013't\333\211\356N\357\312\347"
 123      56D2740B 
 123      2774DB89 
 123      EE4EEFCA 
 123      E7
 124 0529 910AB551 		.ascii	"\221\012\265Q\203\246\004\\\206\225\012\371\310F\316"
 124      83A6045C 
 124      86950AF9 
 124      C846CE
 125 0538 B06436ED 		.ascii	"\260d6\355c\347\363\302\222\351\3144\203\306{\354}\345"
 125      63E7F3C2 
 125      92E9CC34 
 125      83C67BEC 
 125      7DE5
 126 054a 303ADD49 		.ascii	"0:\335I\216BJ\261.\353\363\327m\245\231h\257\376\213"
 126      8E424AB1 
 126      2EEBF3D7 
 126      6DA59968 
 126      AFFE8B
 127 055d A6FF0455 		.ascii	"\246\377\004U\346\012\270\222\3148?e\234\336\334\270"
 127      E60AB892 
 127      CC383F65 
 127      9CDEDCB8 
 128 056d 0193CA35 		.ascii	"\001\223\3125\310\031\347\026Un\211Si\226\3145 \001"
 128      C819E716 
 128      556E8953 
 128      6996CC35 
 128      2001
 129 057f 9391CF18 		.ascii	"\223\221\317\030l\212\342\224G\340\343\007T\312\261"
 129      6C8AE294 
 129      47E0E307 
 129      54CAB1
 130 058e 2129D400 		.ascii	"!)\324\000+\222\205G\014W\376\250\2563S\031\235\345"
 130      2B928547 
 130      0C57FEA8 
 130      AE335319 
 130      9DE5
 131 05a0 8CAA3136 		.ascii	"\214\25216\252.\004\303UZ\006\\CO\322\226\036\332\253"
 131      AA2E04C3 
 131      555A065C 
 131      434FD296 
 131      1EDAAB
 132 05b3 9D8D6704 		.ascii	"\235\215g\004\341\304\266\223\243\371\255\310\353\210"
ARM GAS  C:\Users\gjl\AppData\Local\Temp\cccugTJj.s 			page 10


 132      E1C4B693 
 132      A3F9ADC8 
 132      EB88
 133 05c1 447D023F 		.ascii	"D}\002?\212u\331v\363\360$(\341\377\203\377\235\341"
 133      8A75D976 
 133      F3F02428 
 133      E1FF83FF 
 133      9DE1
 134 05d3 79ECCE58 		.ascii	"y\354\316X\357>\237\302\347\223B~t\264G\3639\006\261"
 134      EF3E9FC2 
 134      E793427E 
 134      74B447F3 
 134      3906B1
 135 05e6 FBB68D02 		.ascii	"\373\266\215\002\334-\322^\266\316^\344w\032=\362\340"
 135      DC2DD25E 
 135      B6CE5EE4 
 135      771A3DF2 
 135      E0
 136 05f7 1F8E83C3 		.ascii	"\037\216\203\303\016)P'\375\3246\373\340\024\214\370"
 136      0E295027 
 136      FDD436FB 
 136      E0148CF8 
 137 0607 1DEDA6B9 		.ascii	"\035\355\246\271\261)H\273\331\222\236\000i\311\311"
 137      B12948BB 
 137      D9929E00 
 137      69C9C9
 138 0616 34CC4F3B 		.ascii	"4\314O;\273\024\013w\232\300\267'\364k^;\024Q;\024s"
 138      BB140B77 
 138      9AC0B727 
 138      F46B5E3B 
 138      14513B14 
 139 062b EC502460 		.ascii	"\354P$`\036\326U\343\213\343e\011X\200\336\242\271\305"
 139      1ED655E3 
 139      8BE36509 
 139      5880DEA2 
 139      B9C5
 140 063d B86DF472 		.ascii	"\270m\364r\277\346s\004\211\353B@8\252\217\307\036p"
 140      BFE67304 
 140      89EB4240 
 140      38AA8FC7 
 140      1E70
 141 064f 3D378423 		.ascii	"=7\204#\226\2723\226\232\212e\307\373\213\324\322\347"
 141      96BA3396 
 141      9A8A65C7 
 141      FB8BD4D2 
 141      E7
 142 0660 8F73A26E 		.ascii	"\217s\242n;\261kL\364\012\321\006\352\377\017\367'\221"
 142      3BB16B4C 
 142      F40AD106 
 142      EAFF0FF7 
 142      2791
 143 0672 37D8FD85 		.ascii	"7\330\375\205*z\235\271\012\276\320\242\023W\370\024"
 143      2A7A9DB9 
 143      0ABED0A2 
 143      1357F814 
 144 0682 F09B0C5F 		.ascii	"\360\233\014_\250\002\363\325\201b\205_\202\273\342"
 144      A802F3D5 
ARM GAS  C:\Users\gjl\AppData\Local\Temp\cccugTJj.s 			page 11


 144      8162855F 
 144      82BBE2
 145 0691 6B68D4C5 		.ascii	"kh\324\305\265D\025\276\241\003\313\224V\021\212\306"
 145      B54415BE 
 145      A103CB94 
 145      56118AC6 
 146 06a1 5F6F458A 		.ascii	"_oE\212\253\343\240]@\213\321\017\343\243Z\254\016\327"
 146      ABE3A05D 
 146      408BD10F 
 146      E3A35AAC 
 146      0ED7
 147 06b3 BF26D854 		.ascii	"\277&\330T#A\325,\031\365\342\232\212#o\274\224\000"
 147      2341D52C 
 147      19F5E29A 
 147      8A236FBC 
 147      9400
 148 06c5 DD927368 		.ascii	"\335\222sh\344\212`tPq\036\015\212\"\203W\177\235\000"
 148      E48A6074 
 148      50711E0D 
 148      8A228357 
 148      7F9D00
 149 06d8 F4D0021A 		.ascii	"\364\320\002\032\372h\016\367\273\230\006\301\010\205"
 149      FA680EF7 
 149      BB9806C1 
 149      0885
 150 06e6 CF2F6A73 		.ascii	"\317/js$\227\245\356\017\2452\261\364i\256.\035nqE\322"
 150      2497A5EE 
 150      0FA532B1 
 150      F469AE2E 
 150      1D6E7145 
 151 06fb A9227527 		.ascii	"\251\"u'\313\341w\024\3032$qV\215\022t#JG\347x\211\252"
 151      CBE17714 
 151      C3322471 
 151      568D1274 
 151      234A47E7 
 152 0712 F30F9266 		.ascii	"\363\017\222f\227?\335\215\3313rc\336N\336\230\023m"
 152      973FDD8D 
 152      D9337263 
 152      DE4EDE98 
 152      136D
 153 0724 06C71519 		.ascii	"\006\307\025\031\020m\352\"\273~>\224\274\"9P4\031\244"
 153      106DEA22 
 153      BB7E3E94 
 153      BC223950 
 153      3419A4
 154 0737 4D3BB2D4 		.ascii	"M;\262\324\253N\316\321]\2561D\011\360b~\371\371\245"
 154      AB4ECED1 
 154      5DAE3144 
 154      09F0627E 
 154      F9F9A5
 155 074a 1168BE55 		.ascii	"\021h\276U\216\330\220\330\036e\342.\3777\217\201$o"
 155      8ED890D8 
 155      1E65E22E 
 155      FF378F81 
 155      246F
 156 075c 5839D3EA 		.ascii	"X9\323\352\213]\253\267\203Z\212x\347E\216\217D\270"
 156      8B5DABB7 
ARM GAS  C:\Users\gjl\AppData\Local\Temp\cccugTJj.s 			page 12


 156      835A8A78 
 156      E7458E8F 
 156      44B8
 157 076e E38831DB 		.ascii	"\343\2101\333/\3457K\254\273~\201\002\255\300\254\034"
 157      2FE5374B 
 157      ACBB7E81 
 157      02ADC0AC 
 157      1C
 158 077f A5C5076B 		.ascii	"\245\305\007k\005\333H\241\363\346\274\207\203\316\363"
 158      05DB48A1 
 158      F3E6BC87 
 158      83CEF3
 159 078e E6731E31 		.ascii	"\346s\0361\227\332\326@r[\305#\271\203\211]\022\272"
 159      97DAD640 
 159      725BC523 
 159      B983895D 
 159      12BA
 160 07a0 F212C625 		.ascii	"\362\022\306%\214\251P\022D\221\017\375\020\302Ai\370"
 160      8CA95012 
 160      44910FFD 
 160      10C24169 
 160      F8
 161 07b1 50CF2BD8 		.ascii	"P\317+\330\017b\256\004ik\241\233\267\312\321z\270\271"
 161      0F62AE04 
 161      696BA19B 
 161      B7CAD17A 
 161      B8B9
 162 07c3 071F0A01 		.ascii	"\007\037\012\001\274\201\373\264\210]1R\351"
 162      BC81FBB4 
 162      885D3152 
 162      E9
 163 07d0 4D701F9D 		.ascii	"Mp\037\2351\374=\276P\350\327\207\267nm\010#\224\231"
 163      31FC3DBE 
 163      50E8D787 
 163      B76E6D08 
 163      239499
 164 07e3 97B7EA17 		.ascii	"\227\267\352\027\213~R\260j\315\246\215k\270\267\272"
 164      8B7E52B0 
 164      6ACDA68D 
 164      6BB8B7BA 
 165 07f3 AC6CF52B 		.ascii	"\254l\365+\277,[\367\352\332\2745B'\011l\206_\311\262"
 165      BF2C5BF7 
 165      EADABC35 
 165      4227096C 
 165      865FC9B2 
 166 0807 B5AFCA1F 		.ascii	"\265\257\312\037\257\333\350\331\274~\343\352\237\375"
 166      AFDBE8D9 
 166      BC7EE3EA 
 166      9FFD
 167 0815 70D34FDD 		.ascii	"p\323O\335\366W\347\301\217\326\225\257\336\260~\223"
 167      F657E7C1 
 167      8FD695AF 
 167      DEB07E93 
 168 0825 DC50BED1 		.ascii	"\334P\276\321X\377\362\313\233\326\226\377\027)\320"
 168      58FFF2CB 
 168      9BD696FF 
 168      1729D0
ARM GAS  C:\Users\gjl\AppData\Local\Temp\cccugTJj.s 			page 13


 169 0834 6EA9     		.ascii	"n\251"
 170              		.text
 171              		.section	.gnu.lto_u8g2_ll_hvline_horizontal_right_lsb.ba9e467,"",%progbits
 172 0000 789C8D56 		.ascii	"x\234\215VmP\224U\024\276\347\275\273\357\276\373\311"
 172      6D509455 
 172      14BEE7BD 
 172      BBEFBEFB 
 172      C9
 173 0011 B22B96BA 		.ascii	"\262+\226\272(\246\210\251\001\242&\216JS?\233\251\037"
 173      28A688A9 
 173      01A2268E 
 173      4A533F9B 
 173      A91F
 174 0023 4DD3AF66 		.ascii	"M\323\257f\2342*\212\276\224\276~\365\302\002\232\343"
 174      9C322A8A 
 174      BE94BE7E 
 174      F5C2029A 
 174      E3
 175 0034 F43196A6 		.ascii	"\3641\226\246\211\325\224i\251\311&j\330\007\033\031"
 175      89D59469 
 175      A9C9266A 
 175      D8071B19 
 176 0044 A4155484 		.ascii	"\244\025T\204\032\226\03166S\326\300\252iE\3209\347"
 176      1A961936 
 176      3653D6C0 
 176      AA6945D0 
 176      39E7
 177 0056 DE657741 		.ascii	"\336ewA\033vf\317\276\367\354y\316\347s\356\256C\200"
 177      1B7666CF 
 177      BEF7EC79 
 177      CEE773EE 
 177      AE4380
 178 0069 A057BF4F 		.ascii	"\240W\277O\210[\361\323\211G\030'\300x\256C\210j\313"
 178      885BF1D3 
 178      89471827 
 178      C078AE43 
 178      886ACB
 179 007c 30E4EA02 		.ascii	"0\344\352\002a{\274$}\022\034\244\006\207\341\\\233"
 179      617BBC24 
 179      7D121CA4 
 179      0687E15C 
 179      9B
 180 008d 835AB376 		.ascii	"\203Z\263v\021j\235`*c\323p\275Z\212j\253\017\277\364"
 180      116A9D60 
 180      2A63D370 
 180      BD5A8A6A 
 180      AB0FBFF4 
 181 00a1 B9C0526A 		.ascii	"\271\300Rj\313p\263\017\017\373p\203G\251=Fhm\273@}"
 181      CB70B30F 
 181      0FFB7083 
 181      47A93D46 
 181      686DBB40 
 182 00b6 76AD0BF5 		.ascii	"v\255\013\365!\345\373z/\3708\206\317\360s\214\000\307"
 182      21E5FB7A 
 182      2FF83886 
 182      CFF0738C 
 182      00C7
ARM GAS  C:\Users\gjl\AppData\Local\Temp\cccugTJj.s 			page 14


 183 00c8 F04340A1 		.ascii	"\360C@\241\002F\026\307\010r\214,\010*u\320\010\247"
 183      024616C7 
 183      08728C2C 
 183      082A75D0 
 183      08A7
 184 00da 3B0B2B27 		.ascii	";\013+'\327g\003\320\247m\201x\312\220\016\247\351\262"
 184      D76703D0 
 184      A76D8178 
 184      CA900EA7 
 184      E9B2
 185 00ec DC9E90D7 		.ascii	"\334\236\220\327\347\017d\005\303\331\360\224\364\011"
 185      E70F6405 
 185      C3D9F094 
 185      F409
 186 00fa 883B6048 		.ascii	"\210;`H\365\300\221~8o\374k@\353\252\323\315\306\325"
 186      F5C0917E 
 186      386FFC6B 
 186      40EBAAD3 
 186      CDC6D5
 187 010d DB6C7C9D 		.ascii	"\333l|\235\334\272\247\304\336\036\207:)\304\220\301"
 187      DCBAA7C4 
 187      DE1E873A 
 187      29C490C1 
 188 011d 2602B6C1 		.ascii	"&\002\266\301\325h\365um\343fy\316\250\223\000\016<"
 188      D568F575 
 188      6DE36679 
 188      CEA89300 
 188      0E3C
 189 012f F67FB9E9 		.ascii	"\366\177\271\351T\200\216\006\344\341\261\272\355\227"
 189      54808E06 
 189      E4E1B1BA 
 189      ED97
 190 013d EA2C3915 		.ascii	"\352,9\025\004>\357m\333\273%P\260\325\266kl\273\273"
 190      043EEF6D 
 190      DBBB2550 
 190      B0D5B66B 
 190      6CBBBB
 191 0150 DC76D749 		.ascii	"\334v\327I\011o\203D\177\360\026D`;D\004\252\004\354"
 191      096F8344 
 191      7FF01644 
 191      603B4404 
 191      AA04EC
 192 0163 8002B4DE 		.ascii	"\200\002\264\336t`U\215G\316`\344\013;.\276li\344\306"
 192      7460558D 
 192      47CE60E4 
 192      0B3B2EBE 
 192      6C69E4C6 
 193 0177 36AF5D5C 		.ascii	"6\257]\\'\035\260SA\347E\240\230\200\230\377.\006~\260"
 193      271DB053 
 193      41E745A0 
 193      988098FF 
 193      2E067EB0 
 194 018b E6F3014B 		.ascii	"\346\363\001K\316d\340\323=m}\246\006\036M\002\337\031"
 194      CE64E0D3 
 194      3D6D7DA6 
 194      061E4D02 
 194      DF19
ARM GAS  C:\Users\gjl\AppData\Local\Temp\cccugTJj.s 			page 15


 195 019d 05DCCDC0 		.ascii	"\005\334\315\300\177\354\352n\220\263\030x~\323\321"
 195      7FECEA6E 
 195      90B31878 
 195      7ED3D1
 196 01ac 2ED0C017 		.ascii	".\320\300\027\3335\260q\0240\306\300\346\206-\027\374"
 196      DB35B071 
 196      1430C6C0 
 196      E6862D17 
 196      FC
 197 01bd B290812F 		.ascii	"\262\220\201/w\177v<\231j\213\002:\341\335L\240S\300"
 197      777F763C 
 197      996A8B02 
 197      3AE1DD4C 
 197      A053C0
 198 01d0 1E2820EB 		.ascii	"\036( \3537\007^k\362\311\022F\376R\267\241Z\346\277"
 198      37075E6B 
 198      F2C91246 
 198      FE52B7A1 
 198      5AE6BF
 199 01e3 4EC8F8FE 		.ascii	"N\310\370\376.\377\006;^\235G\340\246t0\275\320v\350"
 199      2EFF063B 
 199      5E9D47E0 
 199      A67430BD 
 199      D076E8
 200 01f6 CDC6A72D 		.ascii	"\315\306\247-\271\224q\255\177\236|\336\241qM]^\273"
 200      B99471AD 
 200      7F9E7CDE 
 200      A1714D5D 
 200      5EBB
 201 0208 D1B608B6 		.ascii	"\321\266\010\266\357\022\260\330\311\035-\246\274\201"
 201      EF12B0D8 
 201      C91D2DA6 
 201      BC81
 202 0216 615B3B4E 		.ascii	"a[;N\375\232\014\367n\012\366\336%`\317|\273\246W\312"
 202      FD9A0CF7 
 202      6E0AF6DE 
 202      2560CF7C 
 202      BBA657CA 
 203 022a 1B15CC6E 		.ascii	"\033\025\314n\\\343\326\260\330\272\300F;^\213Y\232"
 203      5CE3D6B0 
 203      D8BAC046 
 203      3B5E8B59 
 203      9A
 204 023b 70207390 		.ascii	"p s\220\032\371\351\320\205x\226\"\0071\352\233\276"
 204      1AF9E9D0 
 204      85789622 
 204      0731EA9B 
 204      BE
 205 024c 2F1ABC8A 		.ascii	"/\032\274\212\034A<\236[\327\363c@\336\314~/\354\332"
 205      1C413C9E 
 205      5BD7F363 
 205      40DECC7E 
 205      2FECDA
 206 025f F8ACA9FD 		.ascii	"\370\254\251\375nY\347\263\277\242t\\\360\221r\373!"
 206      6E59E7B3 
 206      BFA2745C 
 206      F09172FB 
ARM GAS  C:\Users\gjl\AppData\Local\Temp\cccugTJj.s 			page 16


 206      21
 207 0270 BAFD20E5 		.ascii	"\272\375 \345\26676\370\242\337\254%f\346A\013\344\303"
 207      B63736F8 
 207      A2DFAC25 
 207      66E6410B 
 207      E4C3
 208 0282 FBF86EC6 		.ascii	"\373\370n\306\367~|\357\205|\305Q\210\203\011\264\324"
 208      F77E7CEF 
 208      857CC551 
 208      888309B4 
 208      D4
 209 0293 97B0D87D 		.ascii	"\227\260\330}K\334\036\032\212\332\361\206\360\307\027"
 209      4BDC1E1A 
 209      8ADAF186 
 209      F0C717
 210 02a2 C75F073C 		.ascii	"\307_\007<J\203%2\020\215\035,\235,MA0\027\313 \020"
 210      4A832532 
 210      108D1D2C 
 210      9D2C4D41 
 210      3017CB20 
 211 02b7 3FB3718A 		.ascii	"?\263q\212VH\220\2470\020\357\30614GP\214\361\374|\005"
 211      564890A7 
 211      3010EFC6 
 211      31344750 
 211      8CF1FC7C 
 212 02cc 9AB8AF24 		.ascii	"\232\270\257$1\201\201\023\201h6IP6D\002O.?N\306G\357"
 212      31818113 
 212      81683649 
 212      50364402 
 212      4F2E3F4E 
 213 02e3 143AE7F1 		.ascii	"\024:\347\361y*G\274\012\0250\215\037\247\003\221%\037"
 213      792A47BC 
 213      0A15308D 
 213      1FA70391 
 213      251F
 214 02f5 C8E70C32 		.ascii	"\310\347\0142. 1\223\304,\022\263I\314!Q\310q\212\030"
 214      2E203193 
 214      C42C12B3 
 214      49CC2151 
 214      C8718A18 
 215 0309 55CC722E 		.ascii	"U\314r.\313\022\316g\036\231\314'\261\200\304B\022\245"
 215      CB12CE67 
 215      1E99CC27 
 215      B180C442 
 215      12A5
 216 031b 24169158 		.ascii	"$\026\221XL\001\227\260\371RvS\306 !\372\260\223\253"
 216      4C0197B0 
 216      F9527653 
 216      C62021FA 
 216      B093AB
 217 032e 03A2DF30 		.ascii	"\003\242\3370\360C\236\206\232\003\375\277\277\341\245"
 217      F0439E86 
 217      9A03FDBF 
 217      BFE1A5
 218 033d D6466536 		.ascii	"\326Fe6\216b}]k\247\213F\352Scl?\274\332\367\0124\340"
 218      8E627D5D 
 218      6BA78B46 
ARM GAS  C:\Users\gjl\AppData\Local\Temp\cccugTJj.s 			page 17


 218      EA53636C 
 218      3FBCDAF7 
 219 0354 4DE18FCA 		.ascii	"M\341\217\312 |LC#\332\374\\\363\216\253\350\032\354"
 219      207C4C43 
 219      23DAFC5C 
 219      F38EABE8 
 219      1AEC
 220 0366 1AB4C22B 		.ascii	"\032\264\302+0\310w\010|\002E\202\\\376\344W\016C\351"
 220      30C87708 
 220      7C024582 
 220      5CFEE457 
 220      0E43E9
 221 0379 0EAD0C87 		.ascii	"\016\255\014\207\3254\354~\3004\003\030\030\016j\277"
 221      D534EC7E 
 221      C0340318 
 221      180E6ABF 
 222 0389 5B5E7AEF 		.ascii	"[^z\357l\240h\227\035\254\223Y\360){\246\033\014\332"
 222      6CA06897 
 222      1DAC9359 
 222      F0297BA6 
 222      1B0CDA
 223 039c D0732FD4 		.ascii	"\320s/\324\330\013\231\0048&tN\212\370\2010k\232I\023"
 223      D80B9904 
 223      3826744E 
 223      8AF88130 
 223      6B9A4913 
 224 03b0 C6E0D181 		.ascii	"\306\340\321\201\372\304M*z\016j\320\345\241\303\033"
 224      FAC44D2A 
 224      7A0E6AD0 
 224      E5A1C31B 
 225 03c0 B6FB2801 		.ascii	"\266\373(\001'\270\240\035\343\364\202\221\302\344\260"
 225      27B8A01D 
 225      E3F48291 
 225      C2E4B0
 226 03cf 9796753E 		.ascii	"\227\226u>Va\243\020qv\353\346\015\226B\330\000\237"
 226      5661A310 
 226      7176EBE6 
 226      0D9642D8 
 226      009F
 227 03e1 21048B4A 		.ascii	"!\004\213J\254j\275Y\371\275\202P\030)a\252\363\225"
 227      AC6ABD59 
 227      F9BD8250 
 227      182961AA 
 227      F395
 228 03f3 08D977FA 		.ascii	"\010\331w\372P\233\207 n\202\034\202\010\2321\312\245"
 228      509B8720 
 228      6E821C82 
 228      089A31CA 
 228      A5
 229 0404 6C26A0D9 		.ascii	"l&\240\331p\340\375\024x\202rz\244c\276\262\230\024"
 229      70E0FD14 
 229      7882727A 
 229      A463BEB2 
 229      9814
 230 0416 9513872D 		.ascii	"\225\023\207-Z\310b\222\262\350\321a#T2\206\335\244"
 230      5AC86292 
 230      B2E8D161 
ARM GAS  C:\Users\gjl\AppData\Local\Temp\cccugTJj.s 			page 18


 230      23543286 
 230      DDA4
 231 0428 C3E63226 		.ascii	"\303\3462&\222\211\311\345\304\352{5f2\266\000\346D"
 231      9289C9E5 
 231      C4EA7B35 
 231      6632B600 
 231      E644
 232 043a D2339982 		.ascii	"\3223\231\202Z2Z\257\335\344\261\247)\231n\362x\214"
 232      5A325AAF 
 232      DDE4B1A7 
 232      29996EF2 
 232      788C
 233 044c FD7F5629 		.ascii	"\375\177V)\233\251\351s\224\243\347Hl\013\022=\016\217"
 233      9BA9E973 
 233      94A3E748 
 233      6C0B123D 
 233      0E8F
 234 045e A487099F 		.ascii	"\244\207\011\237\363\020y\177\277\320C\314\342@\357"
 234      F310797F 
 234      BFD043CC 
 234      E240EF
 235 046d 53A0A9AA 		.ascii	"S\240\251\252\306\204\316\367*\025:\272Y'7\015-P;\234"
 235      C684CEF7 
 235      2A153ABA 
 235      5927370D 
 235      2D503B9C 
 236 0481 1C63A689 		.ascii	"\034c\246\211\237\240\266'zj\2336\232\216\001w\237i"
 236      9FA0B627 
 236      7A6A9B36 
 236      9A8E0177 
 236      9F69
 237 0493 FECB4FD9 		.ascii	"\376\313O\331yq\365\277\3247K\277!E\255K\212\004\214"
 237      7971F5BF 
 237      D4374BBF 
 237      2145AD4B 
 237      8A048C
 238 04a6 8BCA7C03 		.ascii	"\213\312|\003\0220\027\321\306\231\206\334\004,\305"
 238      123017D1 
 238      C69986DC 
 238      042CC5
 239 04b5 09186B1B 		.ascii	"\011\030k\033\356@#\207\300\237U\300\304\202B\215\306"
 239      EE402387 
 239      C09F55C0 
 239      C482428D 
 239      C6
 240 04c6 14EAC0D1 		.ascii	"\024\352\300\321\244>\340\366D\261t\352Kl\250\326\251"
 240      A43EE0F6 
 240      44B174EA 
 240      4B6CA8D6 
 240      A9
 241 04d7 42CFC85C 		.ascii	"B\317\310\\\221K\367\300\011\035\334\003I=\350\304\036"
 241      914BF7C0 
 241      091DDC03 
 241      493DE8C4 
 241      1E
 242 04e8 60FA9DD1 		.ascii	"`\372\235\321\373R\036\232\016\266\327[*y\200\257T\362"
 242      FB521E9A 
ARM GAS  C:\Users\gjl\AppData\Local\Temp\cccugTJj.s 			page 19


 242      0EB6D75B 
 242      2A7980AF 
 242      54F2
 243 04fa 0980A81C 		.ascii	"\011\200\250\034'Q\224\204\232\366`\3522*\347\322\321"
 243      27519484 
 243      9AF660EA 
 243      322AE7D2 
 243      D1
 244 050b 11C20302 		.ascii	"\021\302\003\002\227\322\301\025\002,\300)\326\346\320"
 244      97D2C115 
 244      022CC029 
 244      D6E6D0
 245 051a 2AFFBD66 		.ascii	"*\377\275f\2603\240\334\026\244O\314\034\271\312N,\013"
 245      B033A0DC 
 245      16A44FCC 
 245      1CB9CA4E 
 245      2C0B
 246 052c BEA640F0 		.ascii	"\276\246@\360\015\246F\035\277\250\2339\023\313G8\325"
 246      0DA6461D 
 246      BFA89B39 
 246      13CB4738 
 246      D5
 247 053d B91E4875 		.ascii	"\271\036HuYd\027\"\321\236\373lR\013\3716\211\035\254"
 247      59641722 
 247      D19EFB6C 
 247      520BF936 
 247      891DAC
 248 0550 D3BD9935 		.ascii	"\323\275\2315\266\336|\233\352M\267\352\315\361dof%"
 248      B6DE7C9B 
 248      EA4DB7EA 
 248      CDF1646F 
 248      6625
 249 0562 9B81115C 		.ascii	"\233\201\021\\\342\325RUc\3071]\343\354\313\246vD\027"
 249      E2D55255 
 249      63C7315D 
 249      E3ECCBA6 
 249      764417
 250 0575 F5B72E6A 		.ascii	"\365\267.j\016\0275{\014E\035\345\242\346pHK\027\205"
 250      0E17357B 
 250      0C451DE5 
 250      A2E67048 
 250      4B1785
 251 0588 FB74E258 		.ascii	"\373t\342X\251\362T\210\236`v$s\225\013\025!\367\354"
 251      A9F25488 
 251      9E607624 
 251      73950B15 
 251      21F7EC
 252 059b 9CA88DD2 		.ascii	"\234\250\215\322\030\350\026\253\013$]1\015Gd\022\241"
 252      18E816AB 
 252      0B245D31 
 252      0D476412 
 252      A1
 253 05ac AF94E8E6 		.ascii	"\257\224\350\346\372\301\244\337bJ\2418\222I\364b\366"
 253      FAC1A4DF 
 253      624AA138 
 253      9249F462 
 253      F6
ARM GAS  C:\Users\gjl\AppData\Local\Temp\cccugTJj.s 			page 20


 254 05bd E0E134D2 		.ascii	"\340\3414\322\350\351J\247\247\203w\271\376\304w\372"
 254      E8E94AA7 
 254      A78377B9 
 254      FEC477FA 
 255 05cd 1A294192 		.ascii	"\032)A\222bu]\321\203\235\374/\216\376\002\302\261\264"
 255      62755DD1 
 255      839DFC2F 
 255      8EFE02C2 
 255      B1B4
 256 05df 5B8F795C 		.ascii	"[\217y\\\242\372|v\247\236UI2\343\00480\023\013{P\354"
 256      A2FA7C76 
 256      A79E5549 
 256      32E30438 
 256      30130B7B 
 257 05f5 1E883D92 		.ascii	"\036\210=\222\000\027\226c5\305\370\032t\237\211\345"
 257      00179663 
 257      35C5F81A 
 257      749F89E5 
 258 0605 E20F4848 		.ascii	"\342\017HH\340\277S\3507\274z\271\306\353\345*\242\345"
 258      E0BF53E8 
 258      37BC7AB9 
 258      C6EBE52A 
 258      A2E5
 259 0617 FAB98118 		.ascii	"\372\271\201\030\351K[)N\323\231\276E\206\332\242\356"
 259      E94B5B29 
 259      4ED399BE 
 259      4586DAA2 
 259      EE
 260 0628 2453E68D 		.ascii	"$S\346\215\215)\337\245\230\3223b\213\346\245\326\306"
 260      8D29DFA5 
 260      98D23362 
 260      8BE6A5D6 
 260      C6
 261 0639 88CAF15E 		.ascii	"\210\312\361^\314\277,\374\302~L\012g[D\307%\341\201"
 261      CCBF2CFC 
 261      C27E4C0A 
 261      675B44C7 
 261      25E181
 262 064c BD0F6066 		.ascii	"\275\017`f\376\341]9\321\243y4\177\024\033\234\232\015"
 262      FEE15D39 
 262      D1A37934 
 262      7F141B9C 
 262      9A0D
 263 065e C7472CC7 		.ascii	"\307G,\307\002\276\310\347\377\017\217\222\310\357\231"
 263      02BEC8E7 
 263      FF0F8F92 
 263      C8EF99
 264 066d 470B7880 		.ascii	"G\013x\200\201\324r\034I\226\274pl%\377\220*\371\304"
 264      81D4721C 
 264      4996BC70 
 264      6C25FF90 
 264      2AF9C4
 265 0680 88E55898 		.ascii	"\210\345X\230\266\034Y\303\313\361G\262\250\322\313"
 265      B61C59C3 
 265      CBF147B2 
 265      A8D2CB
 266 068f A6F6E388 		.ascii	"\246\366\343\210\345X\304E\225\216\241\250\223\\\324"
ARM GAS  C:\Users\gjl\AppData\Local\Temp\cccugTJj.s 			page 21


 266      E558C445 
 266      958EA1A8 
 266      935CD4
 267 069e 220E194C 		.ascii	"\"\016\031L\026\225X5\330s\255\362\264X\377B%o\357%"
 267      16955835 
 267      D873ADF2 
 267      B458FF42 
 267      256FEF25 
 268 06b2 51422FCE 		.ascii	"QB/\316$\365\022E\330\216\343\232\260e\310\207\321\004"
 268      24F51245 
 268      D88EE39A 
 268      B065C887 
 268      D104
 269 06c4 2D53B5FE 		.ascii	"-S\265\376\266K\367\253lx\245\372\214\260\346_6\375"
 269      B64BF7AB 
 269      6C78A5FA 
 269      8CB0E65F 
 269      36FD
 270 06d6 83F91557 		.ascii	"\203\371\025W\353\257\333\310H\177\013\250\305_\233"
 270      EBAFDBC8 
 270      487F0BA8 
 270      C55F9B
 271 06e5 C98585B7 		.ascii	"\311\205\205\267?ZzO\311\355\313W\256X\316O\313*+\227"
 271      3F5A7A4F 
 271      C9EDCB57 
 271      AE58CE4F 
 271      CB2A2B97 
 272 06f9 DDFB5865 		.ascii	"\335\373Xe\305\203\345\205\313\205\2034\360\004<)+\313"
 272      C583E585 
 272      CB858334 
 272      F0043C29 
 272      2BCB
 273 070b 1F947755 		.ascii	"\037\224wU\254\360TUT\226/{\274\342\256\252{\035\017"
 273      ACF05455 
 273      54962F7B 
 273      BCE2AEAA 
 273      7B1D0F
 274 071e DCB1F27E 		.ascii	"\334\261\362~\327\235\025U\313\036~h\245|\270j\205\371"
 274      D79D1555 
 274      CB1E7E68 
 274      A57CB86A 
 274      85F9
 275 0730 D0DD77AF 		.ascii	"\320\335w\257,\257\372\017GP\007\213"
 275      2CAFFA0F 
 275      4750078B 
 276              		.text
 277              		.section	.gnu.lto_.symbol_nodes.ba9e467,"",%progbits
 278 0000 789C6361 		.ascii	"x\234ca`dPa\000\002&\206z\006\206\011\347\030@\324\256"
 278      60645061 
 278      00022686 
 278      7A068609 
 278      E71840D4 
 279 0015 0645A000 		.ascii	"\006E\240\000c=#\212\000\003\000\217\325\007\236"
 279      633D238A 
 279      0003008F 
 279      D5079E
 280              		.text
ARM GAS  C:\Users\gjl\AppData\Local\Temp\cccugTJj.s 			page 22


 281              		.section	.gnu.lto_.refs.ba9e467,"",%progbits
 282 0000 789C6361 		.ascii	"x\234ca`\004B \000\000\0009\000\007"
 282      60044220 
 282      00000039 
 282      0007
 283              		.text
 284              		.section	.gnu.lto_.decls.ba9e467,"",%progbits
 285 0000 789CC55A 		.ascii	"x\234\305ZkPT[v\356\323\233G\323\335\200\202W\235\224"
 285      6B50545B 
 285      76EED39B 
 285      47D3DD80 
 285      82579D94 
 286 0014 B9D7BA31 		.ascii	"\271\327\2721^R3\343\225{'\023'\277rk\252\222\324\374"
 286      5E5233E3 
 286      957B2713 
 286      27BF726B 
 286      AA92D4FC 
 287 0028 4852959A 		.ascii	"HR\225\232\371E\252\247i\032\355\014\002\325\335(\334"
 287      F945AAA7 
 287      691AED0C 
 287      02D5DD28 
 287      DC
 288 0039 4A551AC4 		.ascii	"JU\032\304\027*OEQ|!\212\012*\362\020\021\020\256\017"
 288      172A4F45 
 288      517C218A 
 288      0A2AF210 
 288      1110AE0F 
 289 004d 040579B4 		.ascii	"\004\005y\264\340\003\004T\024\037\250\250 \362\222"
 289      E0030454 
 289      141FA8A8 
 289      20F292
 290 005c ACBDD7E9 		.ascii	"\254\275\327\351s\366i\2163\251JnB\2718{\355\363\355"
 290      73F6698E 
 290      33A94A6E 
 290      42B9387B 
 290      EDF3ED
 291 006f B5D65E6B 		.ascii	"\265\326^k\257\265\367>\350\243\0214\364g\307O5\232"
 291      AFB5F73E 
 291      E8A31134 
 291      F467C74F 
 291      359A
 292 0081 509D4613 		.ascii	"P\235F\023\006\354,\374\020\350\373\035\020}\273D\203"
 292      06EC2CFC 
 292      10E8FB1D 
 292      107DBB44 
 292      83
 293 0092 3F5A4AF0 		.ascii	"?ZJ\360\313G\253\231\363C\373C\3041\364\271\000\350"
 293      CB47AB99 
 293      F343FB43 
 293      C431F4B9 
 293      00E8
 294 00a4 0E0CAE84 		.ascii	"\016\014\256\204\347Y\240_C\373\036<\377E\224w\000\370"
 294      E759A05F 
 294      43FB1E3C 
 294      FF459477 
 294      00F8
 295 00b6 E5F0BC4B 		.ascii	"\345\360\274K1@\347\200\366\003\375\004\350\237\241"
ARM GAS  C:\Users\gjl\AppData\Local\Temp\cccugTJj.s 			page 23


 295      3140E780 
 295      F603FD04 
 295      E89FA1
 296 00c5 DF17A805 		.ascii	"\337\027\250\005\332\015@y@C@\203\002\332\243U\321O"
 296      DA0D4079 
 296      40434083 
 296      02DAA355 
 296      D14F
 297 00d7 6D9AFFDF 		.ascii	"m\232\377\337\320O\365R\033\226\213vx\353\246\366\370"
 297      D04FF552 
 297      1B968B76 
 297      78EBA6F6 
 297      F8
 298 00e8 68947A5B 		.ascii	"h\224z[D\275j\363\236\321\012\355\251\215U\272\036\341"
 298      44BD6AF3 
 298      9ED10AED 
 298      A98D55BA 
 298      1EE1
 299 00fa AEA01544 		.ascii	"\256\240\025Dgj\004\001\177\013\2144H\214\205\206V#"
 299      676A0401 
 299      7F0B8C34 
 299      488C8586 
 299      5623
 300 010c CA13BBA4 		.ascii	"\312\023\273\244\207\206\376\326 \236\365\311\302\330"
 300      8786FED6 
 300      209EF5C9 
 300      C2D8
 301 011a 3FCF73D6 		.ascii	"?\317s\326\363\303\204\310\322\005q\220 Y\200\243\360"
 301      F3C384C8 
 301      D2057190 
 301      205980A3 
 301      F0
 302 012b BDD62315 		.ascii	"\275\326#\025\037Zy\000'\017\315\345l\022\224s\022<"
 302      1F5A7900 
 302      270FCDE5 
 302      6C129473 
 302      123C
 303 013d 936E7E53 		.ascii	"\223n~S\226\351K`\306\320\356\2378\376\367+J\\\360\223"
 303      96E94B60 
 303      C6D0EE9F 
 303      38FEF72B 
 303      4A5CF093 
 304 0151 E972697F 		.ascii	"\351ri\177#{\346\314\306\301\023\272Q\255\260D/\314"
 304      237BE6CC 
 304      C6C113BA 
 304      51ADB044 
 304      2FCC
 305 0163 0A941FAE 		.ascii	"\012\224\037\256\236\010D\236\276\256hxw\312\207\374"
 305      9E08449E 
 305      BEAE6878 
 305      77CA87FC 
 306 0173 94B6B51D 		.ascii	"\224\266\265\035\345w\257\006\010a\372cT\314@\317\330"
 306      E577AF06 
 306      0861FA63 
 306      54CC40CF 
 306      D8
 307 0184 771B5C2E 		.ascii	"w\033\\.A8-\350\205\022\201\010'\204\025T\371\022=\374"
ARM GAS  C:\Users\gjl\AppData\Local\Temp\cccugTJj.s 			page 24


 307      41382DE8 
 307      85128108 
 307      27841554 
 307      F9123DFC 
 308 0198 DEE272A5 		.ascii	"\336\342r\245\270F\012\\~\2135\302\267K\204\225K4\302"
 308      B8460A5C 
 308      7E8B35C2 
 308      B74B8495 
 308      4B34C2
 309 01ab 29218CCA 		.ascii	")!\214\312\244(\241XX\"\234\024\226P\371'\016\036\277"
 309      A428A158 
 309      58229C14 
 309      9650F927 
 309      0E1EBF
 310 01be 1248CE0B 		.ascii	"\022H\316\013L\301\313\235/\266\020IAV\372\222b\227"
 310      4CC1CB9D 
 310      2FB61049 
 310      4156FA92 
 310      6297
 311 01d0 6B9E7016 		.ascii	"k\236p\026\024\234\221\025\200>u\015\245\352\032\036"
 311      149C9115 
 311      803E750D 
 311      A5EA1A1E 
 312 01e0 BCAECBF3 		.ascii	"\274\256\313\363\247\313\202\011\212\364\241}c7\337"
 312      A7CB8209 
 312      8AF4A17D 
 312      6337DF
 313 01ef A41B4915 		.ascii	"\244\033I\025s\215\366\352\364\314s\255\244uw\367\177"
 313      738DF6EA 
 313      F4CC73AD 
 313      A47577F7 
 313      7F
 314 0200 646F0417 		.ascii	"do\004\027\011\225\200.\227\325\236\375\224\332\012"
 314      0995802E 
 314      97D59EFD 
 314      94DA0A
 315 020f 75B5A78F 		.ascii	"u\265\247\217\265e\3700\265TP\231\300\364\016\314VV"
 315      B565F830 
 315      B5545099 
 315      C0F40ECC 
 315      5656
 316 0221 FB4A9DE7 		.ascii	"\373J\235\347\260\363L\321\354D\200\324Y\205\235\035"
 316      B0F34CD1 
 316      EC4480D4 
 316      59859D1D 
 317 0231 A9A5F904 		.ascii	"\251\245\371\004\302\020\242\027|\200}\323\272\367Q"
 317      C210A217 
 317      7C807DD3 
 317      BAF751
 318 0240 10B00BF4 		.ascii	"\020\260\013\364\302R`\367\275\273\377,\000\3310`\267"
 318      C25260F7 
 318      BDBBFF2C 
 318      00D93060 
 318      B7
 319 0251 3CD8ECD6 		.ascii	"<\330\354\326#\370\003\035|a\244m\207\201\334\301\310"
 319      23F8031D 
 319      7C61A46D 
ARM GAS  C:\Users\gjl\AppData\Local\Temp\cccugTJj.s 			page 25


 319      8781DCC1 
 319      C8
 320 0262 BF4A7D3C 		.ascii	"\277J}<`@\354b`\267_8{*\220<\302w'\217\014\034\240r"
 320      6040EC62 
 320      60B75F38 
 320      7B2A903C 
 320      C277278F 
 321 027a 1641F029 		.ascii	"\026A\360)_\357\036\310\327#\357\372O\340w\335\314\277"
 321      5FEF1EC8 
 321      D723EFFA 
 321      4FE077DD 
 321      CCBF
 322 028c A5236FD1 		.ascii	"\245#o\321OW\366^J\361\225\303\3772)\205\206\377\012"
 322      4F57F65E 
 322      4AF195C3 
 322      FF322985 
 322      86FF0A
 323 029f D87C4976 		.ascii	"\330|Iv\323\"\321K.//]\006/-\022\275\364\003x\251\001"
 323      D322D14B 
 323      2E2F2F5D 
 323      062F2D12 
 323      BDF40378 
 324 02b5 BDE4EE9D 		.ascii	"\275\344\356\235l\320\221)TP\324<y\336O\320\207\251"
 324      6CD09129 
 324      5450D43C 
 324      79DE4FD0 
 324      87A9
 325 02c7 0CBFA632 		.ascii	"\014\277\2462\334\263J\026\236\244\253\244\021\354\270"
 325      DCB34A16 
 325      9EA4ABA4 
 325      11ECB8
 326 02d6 2ADB7185 		.ascii	"*\333q\205\205\0134t\216\264\354\027\247?\017\330\215"
 326      850B3474 
 326      8EB4EC17 
 326      A73F0FD8 
 326      8D
 327 02e7 ED69A70D 		.ascii	"\355i\247\015$\205\260\351?\337\322\177\327@r\220i\272"
 327      2485B0E9 
 327      3FDFD27F 
 327      D7407290 
 327      69BA
 328 02f9 7CFF5FC9 		.ascii	"|\377_\311\021l\247\324\334\315\012F\207\016\360>\014"
 328      116CA7D4 
 328      DCCD0A46 
 328      870EF03E 
 328      0C
 329 030a 411F96D6 		.ascii	"A\037\226\326\246\276\024\243\321@s&%\317\235CH\005"
 329      A6BE14A3 
 329      D1407326 
 329      25CF9D43 
 329      4805
 330 031c 8EADA9AA 		.ascii	"\216\255\251\252m\364\305\227+9\375!\250\377\352\354"
 330      6DF4C597 
 330      2B39FD21 
 330      A8FFEAEC 
 331 032c 78832859 		.ascii	"x\203(Y\013\354t\377\253V\037r\021G\036\235\234\032"
 331      0BEC74FF 
ARM GAS  C:\Users\gjl\AppData\Local\Temp\cccugTJj.s 			page 26


 331      AB561F72 
 331      11471E9D 
 331      9C1A
 332 033e A1315F0E 		.ascii	"\2411_\016\321\230%\\..\307\\\254\277\321|\314H\332"
 332      D198255C 
 332      2E2EC75C 
 332      ACBFD17C 
 332      CC48DA
 333 0351 19585BD8 		.ascii	"\031X[\330\220\262Q@gA\0346\270\364\307\2034B\023\270"
 333      90B25140 
 333      67411C36 
 333      B8F4C783 
 333      344213B8 
 334 0365 A6135C23 		.ascii	"\246\023\\#\334\001\177-\027\375\325\005\235\267$\177"
 334      DC017F2D 
 334      17FDD505 
 334      9DB7247F 
 335 0375 F5BCFC0D 		.ascii	"\365\274\374\015K\333\333\340\257n\331_\313Ew]\314\352"
 335      4BDBDBE0 
 335      AF6ED95F 
 335      CB45775D 
 335      CCEA
 336 0387 79A2273D 		.ascii	"y\242'=\250\343\304HKI\360'u\364|RGV\372\362\022\032"
 336      A8E3C448 
 336      4B49F027 
 336      75F47C52 
 336      4756FAF2 
 337 039d 937BA0E3 		.ascii	"\223{\240\343\256\254\343\266'&\203ig\256\006\222A\234"
 337      AEACE3B6 
 337      27268369 
 337      67AE0692 
 337      419C
 338 03af F5B303EE 		.ascii	"\365\263\003\356\215A\344=2\307\237\344\247\033\321"
 338      8D41E43D 
 338      32C79FE4 
 338      A71BD1
 339 03be 79AB80DD 		.ascii	"y\253\200\335[3z\335\027\275\245\003\366\340\203\274"
 339      5B337ADD 
 339      17BDA503 
 339      F6E083BC 
 340 03ce 597FB2C1 		.ascii	"Y\177\262\301\207A3F\016\354\324\221\014d\262&\362\232"
 340      87413346 
 340      0EECD491 
 340      0C64B226 
 340      F29A
 341 03e0 FC481E32 		.ascii	"\374H\0362\027\256m8\346O\012\220I\256\273\\\036H\212"
 341      17AE6D38 
 341      E64F0A90 
 341      49AEBB5C 
 341      1E488A
 342 03f3 9179D554 		.ascii	"\221y\325T\246'\025\330\256\033\312\254!\344\0122G\216"
 342      A62715D8 
 342      AE1BCAAC 
 342      21E40A32 
 342      478E
 343 0405 DE18F721 		.ascii	"\336\030\367!nd&\\{\237\351\310 2\303U\257wk\311(2\275"
 343      6E64265C 
ARM GAS  C:\Users\gjl\AppData\Local\Temp\cccugTJj.s 			page 27


 343      7B9FE9C8 
 343      2032C355 
 343      AF776BC9 
 344 041c AF47A602 		.ascii	"\257G\246\002H\252/\206\243\240\373c\000\311C&\375\346"
 344      48AA2F86 
 344      A3A0FB63 
 344      00C94326 
 344      FDE6
 345 042e C9660339 		.ascii	"\311f\0039\205LyCS\233\236\234G\246\370\330\344i=\271"
 345      854C7943 
 345      539B9E9C 
 345      47A6F8D8 
 345      E4693DB9 
 346 0442 8CCC50FF 		.ascii	"\214\314P\377\320t0iA\346hQJ\201\216t#SP\274\275)\210"
 346      D0743069 
 346      41E66851 
 346      4A818E74 
 346      235350BC 
 347 0459 3C65CCC2 		.ascii	"<e\314\302\353\317;\334\006a\231\362'\214\375\016-\300"
 347      EBCF3BDC 
 347      066199F2 
 347      278CFD0E 
 347      2DC0
 348 046b 3295FB6F 		.ascii	"2\225\373oG\036mt\225\376\236-\374'\340\344\315\332"
 348      471E6D74 
 348      95FE9E2D 
 348      FC27E0E4 
 348      CDDA
 349 047d 504FB6F4 		.ascii	"PO\266\364C$h\352\200\267\013h\350\032\372o\006\356"
 349      432468EA 
 349      80B70B68 
 349      E81AFA6F 
 349      06EE
 350 048f 76352413 		.ascii	"v5$\023V\002\207\324\300\341\"\330\345j\030O\027\301"
 350      560287D4 
 350      C0E122D8 
 350      E56A184F 
 350      17C1
 351 04a1 54F26335 		.ascii	"T\362c5p\223 \213\276\315\213~\241D\177M\301\0278\360"
 351      7093208B 
 351      BECD8B7E 
 351      A1447F4D 
 351      C11738F0 
 352 04b5 BD9B066A 		.ascii	"\275\233\006j2\205>S\201\266\013\262\025\331m\006\317"
 352      32853E53 
 352      81B60BB2 
 352      15D96D06 
 352      CF
 353 04c6 EC1EA8D9 		.ascii	"\354\036\250\331\300c3e\354C5l\015\207\235\342g\367"
 353      C0633365 
 353      EC43356C 
 353      0D879DE2 
 353      67F7
 354 04d8 480DCD1B 		.ascii	"H\015\315\033\334\301\317nX\305\344\213\234\350\011"
 354      DCC1CF6E 
 354      58C5E48B 
 354      9CE809
ARM GAS  C:\Users\gjl\AppData\Local\Temp\cccugTJj.s 			page 28


 355 04e7 5EF4A09A 		.ascii	"^\364\240\232\350\213\234\350\252\214\240=\256\006\250"
 355      E88B9CE8 
 355      AA8CA03D 
 355      AE06A8
 356 04f6 44344BDE 		.ascii	"D4K\336\210h)\271:\224\223\004|~\206\321\325\376{\206"
 356      886829B9 
 356      3A949304 
 356      7C7E86D1 
 356      D5FE7B86 
 357 050a EE5547F3 		.ascii	"\356UG\363a\251\343\015\177\245b\370\267\262\335;e\367"
 357      61A9E30D 
 357      7FA562F8 
 357      B7B2DD3B 
 357      65F7
 358 051c 0DA859DD 		.ascii	"\015\250Y\335\307\311\275#G\360\271\212T\3644\253\002"
 358      C7C9BD23 
 358      47F0B98A 
 358      54F434AB 
 358      02
 359 052d 0D95E946 		.ascii	"\015\225\351F\227KG!\032\261\002h$15\274y\257U\004\205"
 359      974B4721 
 359      1AB10268 
 359      243135BC 
 359      79AF5504 
 360 0542 CB2A2FCA 		.ascii	"\313*/\312*_\252 \371Y\037\344}\352V\367\022\037\336"
 360      2A5FAA20 
 360      F9591FE4 
 360      7DEA56F7 
 360      121FDE
 361 0555 FBBC194F 		.ascii	"\373\274\031OU\204\367q\341\315\225\335t_\011\355\220"
 361      5584F771 
 361      E1CD95DD 
 361      745F09ED 
 361      90
 362 0566 53284B3C 		.ascii	"S(K<b\271\004\273F\270\011\232[\251\346\021\021\017"
 362      62B904BB 
 362      46B8099A 
 362      5BA9E611 
 362      110F
 363 0578 6E1092B5 		.ascii	"n\020\222\265aB\212v\231\360QX&l\200\347$<\307\200\\"
 363      61428A76 
 363      99F05158 
 363      266C80E7 
 363      243CC780 
 364 058d D07E0FCF 		.ascii	"\320~\017\317\215\360|\007\317\267@\243@S@\023@\037"
 364      8DF07C07 
 364      CFB740A3 
 364      40534013 
 364      401F
 365 059f 80C68166 		.ascii	"\200\306\201f\2016\001f\006\236\251\360\234\026\226"
 365      81360166 
 365      069EA9F0 
 365      9C1696
 366 05ae 79CE7263 		.ascii	"y\316rc\256\374\353\204L\262\032\242}x\261\316\355/"
 366      AEFCEB84 
 366      4CB21AA2 
 366      7D78B1CE 
ARM GAS  C:\Users\gjl\AppData\Local\Temp\cccugTJj.s 			page 29


 366      ED2F
 367 05c0 8486A95B 		.ascii	"\204\206\251[\224\006V\374\330\026\3412\250\313\370"
 367      940656FC 
 367      D816E132 
 367      A8CBF8
 368 05cf 4BBA0CB6 		.ascii	"K\272\014\266\202\262-Zi/\240\253\202\331\354~r8\325"
 368      82B22D5A 
 368      692FA0AB 
 368      82D9EC7E 
 368      7238D5
 369 05e2 8825BE9D 		.ascii	"\210%\276\235\362\347\23647\352q\007p\321\275\265\342"
 369      F2E79E34 
 369      37EA7107 
 369      70D1BDB5 
 369      E2
 370 05f3 D0AD7A7F 		.ascii	"\320\255z\177\262\315\217\025\311j\327\346,\035\331"
 370      B2CD8F15 
 370      C96AD7E6 
 370      2C1DD9
 371 0602 8D4CEB8B 		.ascii	"\215L\353\213\221J\0359\204\314\370\375\274t\0039\201"
 371      914A1D39 
 371      84CCF8FD 
 371      BC740339 
 371      81
 372 0613 CCECD496 		.ascii	"\314\354\324\2265\344<\266\337\266V\215\022r\015\231"
 372      35E43CB6 
 372      DFB6568D 
 372      12720D99 
 373 0623 27175F8F 		.ascii	"'\027_\217\033\311-dj\323nL\353\310\0002{/lN\321\223"
 373      1BC92D64 
 373      6AD36E4C 
 373      EBC80032 
 373      7B2F6C4E 
 374 0639 87C86CAE 		.ascii	"\207\310l\256\254;\346G\006E\235\203i\315:\362\022\231"
 374      AC3BE647 
 374      06459D83 
 374      69CD3AF2 
 374      1299
 375 064b 89578D69 		.ascii	"\211W\215i\276\344=2\373\273\036f\006\350\305#a\346"
 375      BEE43D32 
 375      FBBB1E66 
 375      06E8C523 
 375      61E6
 376 065d 9F3E893E 		.ascii	"\237>\211>\353\255\2326\032\323(>s\203+\244)H\310\323"
 376      EBAD9A36 
 376      1AD3283E 
 376      73832BA4 
 376      2948C8D3 
 377 0671 EAE97A14 		.ascii	"\352\351z\024\252\331\002\332\2535zN\356m\315\177C\222"
 377      AAD902DA 
 377      AB357A4E 
 377      EE6DCD7F 
 377      4392
 378 0683 FD51FFFE 		.ascii	"\375Q\377\376\003\343\201d\027c\202*2NT\004\210\033"
 378      03E38164 
 378      1763822A 
 378      324E5404 
ARM GAS  C:\Users\gjl\AppData\Local\Temp\cccugTJj.s 			page 30


 378      881B
 379 0695 43A8B823 		.ascii	"C\250\270#\210U;\203+>\331\340\350#\177d?\310\352\344"
 379      88553B83 
 379      2B3ED9E0 
 379      E8237F64 
 379      3FC8EAE4 
 380 06a9 D67DBA1A 		.ascii	"\326}\272\032\270\206\317\222\266`D\323\363i\256\022"
 380      B886CF92 
 380      B66044D3 
 380      F369AE12 
 381 06b9 FDF512AF 		.ascii	"\375\365\022\257\372\372\216\267c\247\012\230\257&\273"
 381      FAFA8EB7 
 381      63A70A98 
 381      AF26BB
 382 06c8 783BF2D5 		.ascii	"x;\362\325\354\340+\340d\233T\010\262\324\260X\011\344"
 382      ECE02BE0 
 382      649B5408 
 382      B2D4B058 
 382      09E4
 383 06da F5EED408 		.ascii	"\365\356\324\010\333\265KXv\012\373\304\001t\275\037"
 383      DBB54B58 
 383      760AFBC4 
 383      0174BD1F 
 384 06ea 85F57E1C 		.ascii	"\205\365~\034\326\351\011\240\203@\205@\207\200\216"
 384      D6E909A0 
 384      83408540 
 384      87808E
 385 06f9 01ED072A 		.ascii	"\001\355\007*\000*\002:\011t\000\350\260v\231\247t\301"
 385      002A023A 
 385      097400E8 
 385      B07699A7 
 385      74C1
 386 070b 04DFF013 		.ascii	"\004\337\360\023\334\2452\301v\256\006\2723X\015<2\247"
 386      DCA532C1 
 386      76AE06BA 
 386      33580D3C 
 386      32A7
 387 071d 06C2BB31 		.ascii	"\006\302\2731^P\216\332\204\270\"8\323\306y*S\015\314"
 387      5E508EDA 
 387      84B82238 
 387      D3C6792A 
 387      530DCC
 388 0730 EF2DB733 		.ascii	"\357-\2673>\313s5\244\022\272\244\204=\"\332\263\320"
 388      3ECB7335 
 388      A412BAA4 
 388      843D22DA 
 388      B3D0
 389 0742 E614D81E 		.ascii	"\346\024\330\036>\276\273Uf\304\227\314Y\336\220\014"
 389      3EBEBB55 
 389      66C497CC 
 389      59DE900C 
 390 0752 3543100D 		.ascii	"5C\020\015+\367zy\333\027$\217-\\\355\363\211\255\331"
 390      2BF77A79 
 390      DB17248F 
 390      2D5CEDF3 
 390      89ADD9
 391 0765 7E425828 		.ascii	"~BX(\272e_\366r\352\226S0\264X\256\011GXMP\217_\011"
ARM GAS  C:\Users\gjl\AppData\Local\Temp\cccugTJj.s 			page 31


 391      BA655FF6 
 391      72EA9653 
 391      30B458AE 
 391      0947584D 
 392 077d C4EC7F1A 		.ascii	"\304\354\177\032?0i\333\325\312F\361Z\325\3042\375\311"
 392      3F3069DB 
 392      D5CA46F1 
 392      5AD5C432 
 392      FDC9
 393 078f 35B80E94 		.ascii	"5\270\016\224`\246\215\316n\255\321\221\032d\236\244"
 393      60A68DCE 
 393      6EADD191 
 393      1A649EA4 
 394 079f 9D786324 		.ascii	"\235xc$]\310T\275*\256\012\304a\015\224\377\241|\012"
 394      5DC854BD 
 394      2AAE0AC4 
 394      610D94FF 
 394      A17C0A
 395 07b2 8AD23D7C 		.ascii	"\212\322=|y9y\010\016\242\017\221)K\253-\365!\317\221"
 395      79397908 
 395      0EA20F91 
 395      294BAB2D 
 395      F521CF91 
 396 07c6 39F678DB 		.ascii	"9\366x\333\006=y\213LS"
 396      063D798B 
 396      4C53
 397 07d0 D1DB3481 		.ascii	"\321\3334\201L\372+\316\271!x\316-\331\363\372\264@"
 397      4CFA2BCE 
 397      B92178CE 
 397      2DD9F3FA 
 397      B440
 398 07e2 9275ECDD 		.ascii	"\222u\354\335@Cy\227\017\331\214L\353\320m\267\017I"
 398      40437997 
 398      0FD98C4C 
 398      EBD06DB7 
 398      0F49
 399 07f4 47267F68 		.ascii	"G&\177hfTKv!s({t\220\220Bd\262g\012\317jI%2\327N\246"
 399      66544B76 
 399      2173287B 
 399      74909042 
 399      64B2670A 
 400 0810 0E68C955 		.ascii	"\016h\311Ud\372\252\013\233\374\211[\247\270\233\204"
 400      64FAAA0B 
 400      9BFC895B 
 400      A7B89B84 
 401 0820 E0DDE4C2 		.ascii	"\340\335\344\302\201[\035>\344\021\276\333\371\364Z"
 401      815B1D3E 
 401      E411BEDB 
 401      F9F45A
 402 082f 80A238D1 		.ascii	"\200\2428\321\000\313\305\351\262T\234.\265o\315\015"
 402      00CBC5E9 
 402      B2549C2E 
 402      B56FCD0D 
 403 083f 262338EA 		.ascii	"&#8\352\371\315\306\367A\344\0352\017\223\367\014i\311"
 403      F9CDC6F7 
 403      41E41D32 
 403      0F93F70C 
ARM GAS  C:\Users\gjl\AppData\Local\Temp\cccugTJj.s 			page 32


 403      69C9
 404 0851 24323B86 		.ascii	"$2;\206\317\354\016 9\001\012\007.\020\035x\274\257"
 404      CFEC0E20 
 404      39010A07 
 404      2E101D78 
 404      BCAF
 405 0863 ECAC9E14 		.ascii	"\354\254\236\024\340\313\321\262\355G\375Hq\200xB\356"
 405      E0CBD1B2 
 405      ED47FD48 
 405      71807842 
 405      EE
 406 0874 2913482D 		.ascii	")\023H-2\236{n\010\336sw\276\355(\360'\215\370\256q"
 406      329E7B6E 
 406      08DE7377 
 406      BEED28F0 
 406      278DF8AE 
 407 0889 EF1094B9 		.ascii	"\357\020\224\271vdR\367g\266i\021\3703`s\267\346\017"
 407      766452F7 
 407      67B66911 
 407      F8336073 
 407      B7E60F
 408 089c F8A0BA01 		.ascii	"\370\240\272\001z\315:t\353H\257\037\031B\254\347.\035"
 408      7ACD3A74 
 408      EB48AF1F 
 408      1942ACE7 
 408      2E1D
 409 08ae 827769D7 		.ascii	"\202wi\327\323\324\203Z2\214\357\352\237f\325\303}\024"
 409      D3D4835A 
 409      328CEFEA 
 409      9F66D5C3 
 409      7D14
 410 08c0 99F6A297 		.ascii	"\231\366\242\227\267\203H\016^\276\236\036\252/\323"
 410      B783480E 
 410      5EBE9E1E 
 410      AA2FD3
 411 08cf 91D3C8EC 		.ascii	"\221\323\310\354j\310\236\326\223\013\3104W?\\I\256"
 411      6AC89ED6 
 411      930BC834 
 411      573F5C49 
 411      AE
 412 08e0 62FBFD8D 		.ascii	"b\373\375\215[\367\011\271\205L\306\245\272\313\260"
 412      5BF709B9 
 412      854CC6A5 
 412      BACBB0
 413 08ef C120D3D8 		.ascii	"\301 \323\330{\017\242:\214\314Ly\371e\210\267\001\275"
 413      7B0FA23A 
 413      8CCC4C79 
 413      F96588B7 
 413      01BD
 414 0901 76767C58 		.ascii	"vv|XG\322\2209]2U\252g\037\003~k\024?V\364l*\272a\220"
 414      47D29039 
 414      5D3255AA 
 414      671F037E 
 414      6B143F56 
 415 091b 3E60F469 		.ascii	">`\364iYg\327\235\276\256\000\251\263\037;7\317\336"
 415      5967D79D 
 415      BEAE00A9 
ARM GAS  C:\Users\gjl\AppData\Local\Temp\cccugTJj.s 			page 33


 415      B31F3B37 
 415      CFDE
 416 092d BFA223F9 		.ascii	"\277\242#\371()\265h\307\276@r\034\231\364\274\2675"
 416      2829B568 
 416      C7BE4072 
 416      1C99F4BC 
 416      B735
 417 093f FEA41419 		.ascii	"\376\244\024\031w\303\241}\001\244\012\231G\025\343"
 417      77C3A17D 
 417      01A40A99 
 417      4715E3
 418 094e 8581E412 		.ascii	"\205\201\344\0222j\337J*;\017\366\373\223\353\010\230"
 418      326ADF4A 
 418      2A3B0FF6 
 418      FB93EB08 
 418      98
 419 095f 6C9BBA20 		.ascii	"l\233\272 \220\333\310lw\237\373\226\014b\273\244\353"
 419      90DBC86C 
 419      779FFB96 
 419      0C62BBA4 
 419      EB
 420 0970 CE8C4046 		.ascii	"\316\214@F\220i\3758r\221\220\024#cN\015lr\373\222\034"
 420      9069FD38 
 420      72919014 
 420      23634E0D 
 420      6C72FB92 
 421 0985 648E4D1F 		.ascii	"d\216M\037\2560\222\203\3104\216\327\035\361%'\221I"
 421      AE309283 
 421      C8348ED7 
 421      1DF12527 
 421      9149
 422 0997 DB76F270 		.ascii	"\333v\362p\020\251Gf\343\366\342ZB:\221i\357/\033\203"
 422      10A94766 
 422      E3F6E25A 
 422      423A9169 
 422      EF2F1B83 
 423 09ab E021D3DF 		.ascii	"\340!\323\337\227\365\357d\004\333\367\233N\024\323"
 423      97F5EF64 
 423      04DBF79B 
 423      4E14D3
 424 09ba 64FE8ADE 		.ascii	"d\376\212\336\227gg\203\271\033\363W\350\347\316\214"
 424      97676783 
 424      B91BF357 
 424      E8E7CE8C 
 425 09ca B785FE64 		.ascii	"\267\205\376d\206\301\265\215;\312\313\014\362\367\213"
 425      86C1B58D 
 425      3BCACB0C 
 425      F2F78B
 426 09d9 A3C66A7A 		.ascii	"\243\306jzG\035\207-xL\256A_I_y0\0134r\331|\017e\347"
 426      471D872D 
 426      784CAE41 
 426      5F495F79 
 426      300B3472 
 427 09f2 2B71571F 		.ascii	"+qW\037\205\272\364N\213_\260\012\263\012\374\310\226"
 427      85BAF44E 
 427      8B5FB00A 
 427      B30AFCC8 
ARM GAS  C:\Users\gjl\AppData\Local\Temp\cccugTJj.s 			page 34


 427      96
 428 0a03 40A623AF 		.ascii	"@\246#\257\342\344\270\236\373\202\365\013v\017\236"
 428      E2E4B89E 
 428      FB82F50B 
 428      760F9E
 429 0a12 041D1F64 		.ascii	"\004\035\037d\035\240\362\223J&\324\225\274\270\325"
 429      1DA0F293 
 429      4A26D495 
 429      BCB8D5
 430 0a21 99E54BB2 		.ascii	"\231\345K\262\002q\365\224m\256\361!\205\310\0145M\214"
 430      0271F594 
 430      6DAEF121 
 430      85C80C35 
 430      4D8C
 431 0a33 1AC83964 		.ascii	"\032\3109d&/\245T\013\244\031\231s\227&Z|I\0372\257"
 431      262FA554 
 431      0BA41999 
 431      7397265A 
 431      7C491F32 
 432 0a48 528A0B05 		.ascii	"R\212\013\0052\216L\373\256\227\260\215g\0061fz*'\331"
 432      328E4CFB 
 432      AE97B08D 
 432      67063166 
 432      7A2A27D9 
 433 0a5c 971C41A6 		.ascii	"\227\034A\246\276\367i\211\201T\"s|\307\310e=\271\311"
 433      BEF76989 
 433      81542273 
 433      7CC7C865 
 433      3DB9C9
 434 0a6f 98CF92EB 		.ascii	"\230\317\222\353[\257\371\013\342\301Cy)e\033\303\300"
 434      5BAFF90B 
 434      E2C14379 
 434      29651BC3 
 434      C0
 435 0a80 F8FBEF6A 		.ascii	"\370\373\357j\317\365\272\\\233\214l\361L\303|\323\310"
 435      CFF5BA5C 
 435      9B8C6CF1 
 435      4CC37CD3 
 435      C8
 436 0a91 27EE77B0 		.ascii	"'\356w\260\217dvJ\233\371\260\022\332\341}Z\351\225"
 436      8F64764A 
 436      9BF9B012 
 436      DAE17D5A 
 436      E995
 437 0aa3 2F002E32 		.ascii	"/\000.2W*\177\001\330#\037\021\246T\014\370\304M&YE"
 437      572A7F01 
 437      D8231F11 
 437      A6540CF8 
 437      C44D2659 
 438 0ab8 EAB773CE 		.ascii	"\352\267s\316\022\322\331y\203\010\247{Q.\011\023\266"
 438      12D2D979 
 438      8308A77B 
 438      512E0913 
 438      B6
 439 0ac9 9365C256 		.ascii	"\223e\302V\240\315@;\200\322\201v\003m\004\332\002\224"
 439      A0CD403B 
 439      80D28176 
ARM GAS  C:\Users\gjl\AppData\Local\Temp\cccugTJj.s 			page 35


 439      036D04DA 
 439      0294
 440 0adb 05B41328 		.ascii	"\005\264\023(\033(\003h\027P\036\320&\240L\240m@9@{"
 440      1B280368 
 440      17501ED0 
 440      26A04CA0 
 440      6D403940 
 441 0af0 8874CE00 		.ascii	"\210t\316\000\373re\007=Ws\020\277\337w\313sIQ\231\013"
 441      FB726507 
 441      3D577310 
 441      BFDF77CB 
 441      73495199 
 442 0b05 B7D7F7C9 		.ascii	"\267\327\367\311\310Y\025\007\361BGd\350G\025(\177("
 442      C8591507 
 442      F1424764 
 442      E8471528 
 442      7F28
 443 0b17 1895DDFE 		.ascii	"\030\225\335\376Z\011\235{\212\333)\317\353\205\332"
 443      5A099D7B 
 443      8ADB29CF 
 443      EB85DA
 444 0b26 BCBCEE73 		.ascii	"\274\274\356sx\216\241\031\364VDK\2712\347\220t\227"
 444      788EA119 
 444      F456444B 
 444      B932E790 
 444      7497
 445 0b38 3F9B8CA8 		.ascii	"?\233\214\250\031\302\037k\253\262\271\313\3423\021"
 445      19C21F6B 
 445      ABB2B9CB 
 445      E23311
 446 0b47 FD472E8B 		.ascii	"\375G.\213n^\372\0335\351<\372\203\354\222Wj\330>\356"
 446      6E5EFA1B 
 446      35E93CFA 
 446      83EC9257 
 446      6AD83EEE 
 447 0b5b 94588F37 		.ascii	"\224X\2177e\300\314\275)\277\343\257\2503*q\340\247"
 447      65C0CCBD 
 447      29BFE3AF 
 447      A8332A71 
 447      E0A7
 448 0b6d 54CD4F29 		.ascii	"T\315O)\225\250N\211\217\205\3420\367R-\032\341\342"
 448      95A84E89 
 448      8F85E230 
 448      F7522D1A 
 448      E1E2
 449 0b7f 59EE6EC6 		.ascii	"Y\356n\306\276<\330\364Y-\320\266\016\356\255\017R\\"
 449      BE3CD8F4 
 449      592DD0B6 
 449      0EEEAD0F 
 449      525C
 450 0b91 2DF9F4C8 		.ascii	"-\371\364\310\207\224\3701\323\003}v\377\306\317\250"
 450      8794F831 
 450      D3037D76 
 450      FFC6CFA8 
 451 0ba1 CFF681A2 		.ascii	"\317\366\201\242\275D*\255\324\205\314\336\303\307\213"
 451      BD442AAD 
 451      D485CCDE 
ARM GAS  C:\Users\gjl\AppData\Local\Temp\cccugTJj.s 			page 36


 451      C3C78B
 452 0bb0 7608A1A2 		.ascii	"v\010\241\242\201\015\2374P\363\277n\035\350\336\224"
 452      810D9F34 
 452      50F3BF6E 
 452      1DE8DE94 
 453 0bc0 F62E5950 		.ascii	"\366.YP\034\245\366s\313V#\034 \236\243\324\370\251"
 453      1CA5F673 
 453      CB56231C 
 453      209EA3D4 
 453      F8A9
 454 0bd2 A15E5F92 		.ascii	"\241^_\222\032\214'\214\307\373\032\365$\023\231z\367"
 454      1A8C278C 
 454      C7FB1AF5 
 454      2413997A 
 454      F7
 455 0be3 99966052 		.ascii	"\231\226`R\310\230/{\207\313\252\003\005E\335]\266\314"
 455      C8982F7B 
 455      87CBAA03 
 455      0545DD5D 
 455      B6CC
 456 0bf5 685CEC63 		.ascii	"h\\\354c\014\365\264\302\226\205\205\205aPwwsA\355\241"
 456      0CF5B4C2 
 456      96858585 
 456      61507777 
 456      7341EDA1 
 457 0c09 277439A8 		.ascii	"'t9\250\255\334\332SD\257\035\366\2326\330k\204\203"
 457      ADDCDA53 
 457      44AF1DF6 
 457      9A36D86B 
 457      8483
 458 0c1b 0407D0E8 		.ascii	"\004\007\320\350\375\000\216j\200\271]\000\252\006:"
 458      FD008E6A 
 458      80B95D00 
 458      AA063A
 459 0c2a 0F540554 		.ascii	"\017T\005T\012t\006\3504\320)\240\002\240\022\240b\240"
 459      0A7406E8 
 459      34D029A0 
 459      02A012A0 
 459      62A0
 460 0c3c 93402780 		.ascii	"\223@'\200\216\003\025\001\035\003:\012T\250(n\265\335"
 460      8E031501 
 460      1D033A0A 
 460      54A8286E 
 460      B5DD
 461 0c4e 52761C22 		.ascii	"Rv\034\"\012\013[\264^I}A\206\272\225\223\351\324z\327"
 461      0A0B5BB4 
 461      5E497D41 
 461      86BA9593 
 461      E9D47AD7 
 462 0c62 F4F332F6 		.ascii	"\364\3632\366\226\032\226_\373\347dl\227\032\226\317"
 462      961A965F 
 462      FBE7646C 
 462      971A96CF 
 463 0c72 AB0A19DB 		.ascii	"\253\012\031\333\255\206\345\023\277L\306\336V\303\362"
 463      AD86E513 
 463      BF4CC6DE 
 463      56C3F2
ARM GAS  C:\Users\gjl\AppData\Local\Temp\cccugTJj.s 			page 37


 464 0c81 25B654C6 		.ascii	"%\266T\306\336Q\303\362\265\360\200\214\275\253\206"
 464      DE51C3F2 
 464      B5F0808C 
 464      BDAB86
 465 0c90 E536CC3D 		.ascii	"\3456\314=2\364\236\032\224\363\356N\031J\277X\316Y"
 465      32F49E1A 
 465      94F3EE4E 
 465      194ABF58 
 465      CE59
 466 0ca2 2ABCC772 		.ascii	"*\274\307rr\271\352\322+\012\226\252K\353\234\022\230"
 466      72B9EAD2 
 466      2B0A96AA 
 466      4BEB9C12 
 466      98
 467 0cb3 95CBDD42 		.ascii	"\225\313\335B\317\212x\251z\267zW\357Yw0\302\317\022"
 467      CF8A78A9 
 467      7AB77A57 
 467      EF597730 
 467      C2CF12
 468 0cc6 A370DF1B 		.ascii	"\243p\337\033\316\327c>\265\312\311b\031t\031\026l\031"
 468      CED7633E 
 468      B5CAC962 
 468      19741916 
 468      6C19
 469 0cd8 8CC66AF0 		.ascii	"\214\306j\360)\230\206\303\344\322$pmp-\3252\037xf\243"
 469      299886C3 
 469      E4D22470 
 469      6D702DD5 
 469      321F7866 
 470 0ced A103E077 		.ascii	"\241\003\340w\005\241\177hf\177\233\203!\003p\314\346"
 470      05A17F68 
 470      667F9B83 
 470      210370CC 
 470      E6
 471 0cfe 859E53A4 		.ascii	"\205\236S\244u%\246\265zZ]\002\313~\374\264\232v\033"
 471      7525A6B5 
 471      7A5A5D02 
 471      CB7EFCB4 
 471      9A761B
 472 0d11 5D9966E6 		.ascii	"]\231f\346\300\207\352\016\344\374=)\203\037y\203U\366"
 472      C087EA0E 
 472      E4FC3D29 
 472      831F7983 
 472      55F6
 473 0d23 33193DA8 		.ascii	"3\031=\250\216\346D\217\347,\300P\326\000\374\2617\374"
 473      8EE6448F 
 473      E72CC050 
 473      D600FCB1 
 473      37FC
 474 0d35 6BF548D6 		.ascii	"k\365H\326\361\221\254\007\037\325\252F\262N\021\311"
 474      F191AC07 
 474      1FD5AA46 
 474      B24E11C9 
 475 0d45 5AB548DE 		.ascii	"Z\265H\336SD\262\216E\362\242\"\222O \222\270\217\214"
 475      5344B28E 
 475      45F2A222 
 475      924F2092 
ARM GAS  C:\Users\gjl\AppData\Local\Temp\cccugTJj.s 			page 38


 475      B88F8C
 476 0d58 6D5B48F7 		.ascii	"m[H\367\021j\350\220|D\257e\261\304\311\214\345|\201"
 476      116AE890 
 476      7C44AF65 
 476      B1C4C98C 
 476      E57C81
 477 0d6b 9381BA2D 		.ascii	"\223\201\272-<U\235L\270\274\227\277\311\301/>\312\275"
 477      3C559D4C 
 477      B8BC97BF 
 477      C9C12F3E 
 477      CABD
 478 0d7d 1CDFF56C 		.ascii	"\034\337\365l\373\234\276\243\313\346\260\274g\035a"
 478      FB9CBEA3 
 478      CBE6B0BC 
 478      671D61
 479 0d8c 7B1622DE 		.ascii	"{\026\"\336\335\370\214\"\250\227\037\310\326\2241k"
 479      DDF88C22 
 479      A8971FC8 
 479      D694316B 
 480 0d9c 6057286D 		.ascii	"`W(m\257L\011$\305\270Ex\276\224\206\210_Jg\272_\\\021"
 480      AF4C0924 
 480      C5B84578 
 480      BE948688 
 480      5F4A67BA 
 481 0db3 C42FA7F4 		.ascii	"\304/\247\364\257e}]\007\236\004\221*\004w|x\272I \327"
 481      AF657D5D 
 481      079E0491 
 481      2A04777C 
 481      78BA4920 
 482 0dc8 19F3ABD2 		.ascii	"\031\363\253\322\222\262\026=\277\237\310{\011\277\301"
 482      92B2163D 
 482      BF9FC87B 
 482      09BFC1
 483 0dd7 840282ED 		.ascii	"\204\002\202\355-a\370\0338y\233\031\330\235\273v\024"
 483      2D61F81B 
 483      38799B19 
 483      D89DBB76 
 483      14
 484 0de8 FF02453F 		.ascii	"\377\002E?\033\325\202\265\327\345\342q\236+\213\212"
 484      1BD582B5 
 484      D7E5E271 
 484      9E2B8B8A 
 485 0df8 8468244B 		.ascii	"\204h$K\204\253\004\020W\010\016\240\0111\013\301\376"
 485      84AB0410 
 485      57080EA0 
 485      09310BC1 
 485      FE
 486 0e09 088B790A 		.ascii	"\010\213y\012\350)\320\020\320\023\240\307@\203@\217"
 486      E829D010 
 486      D013A0C7 
 486      4083408F 
 487 0e19 809A811E 		.ascii	"\200\232\201\036\002=\000\032\000\352\007\352\003\272"
 487      023D001A 
 487      00EA07EA 
 487      03BA
 488 0e27 0FD40BD4 		.ascii	"\017\324\013\324\003t\017\310\015\324\011\324\001\324"
 488      03740FC8 
ARM GAS  C:\Users\gjl\AppData\Local\Temp\cccugTJj.s 			page 39


 488      0DD409D4 
 488      01D4
 489 0e35 0ED40674 		.ascii	"\016\324\006t\023\250\025\250\005\350\206\"a\272\370"
 489      13A815A8 
 489      05E88622 
 489      61BAF8
 490 0e44 BDF21A51 		.ascii	"\275\362\032Q\314\241v\316\211\361\242\\,\353\004\025"
 490      CCA176CE 
 490      89F1A25C 
 490      2CEB0415 
 491 0e54 AC942F10 		.ascii	"\254\224/\020\311\352\\\356\353^\275\032\232\377\323"
 491      C9EA5CEE 
 491      EB5EBD1A 
 491      9AFFD3
 492 0e63 91B8C150 		.ascii	"\221\270\301Pl\263\032\266\211\303\226\311\330\353j"
 492      6CB31AB6 
 492      89C396C9 
 492      D8EB6A
 493 0e72 586E2338 		.ascii	"Xn#8\313O\357\206\032\230\373\273\337\376\334\205\311"
 493      CB4FEF86 
 493      1A98FBBB 
 493      DFFEDC85 
 493      C9
 494 0e83 ACBCD34F 		.ascii	"\254\274\323O\365m\"X:4\265x\303\367\345.JfiA\277\342"
 494      F56D2258 
 494      3A34B578 
 494      C3F7E52E 
 494      4A666941 
 495 0e99 ED10C32F 		.ascii	"\355\020\303/}\257\333\346\275\321\344u\177\216Yt\013"
 495      7DAFDBE6 
 495      BDD1E475 
 495      7F8E5974 
 495      0B
 496 0eaa D6F61911 		.ascii	"\326\366\031\021.e\321i\255zM\350\346kB\262O\230\320"
 496      2E65D169 
 496      AD7A4DE8 
 496      E66B42B2 
 496      4F98D0
 497 0ebd A55A13BA 		.ascii	"\245Z\023\272\0255\241K\255&T*jB7\253\011\267\245\232"
 497      1535A14B 
 497      AD26542A 
 497      6A4237AB 
 497      09B7A59A 
 498 0ed1 7087B0AF 		.ascii	"p\207\260\257-\274\314\273\212\342~G\245\270Kk\331\005"
 498      2DBCCCBB 
 498      8AE27E47 
 498      A5B84B6B 
 498      D905
 499 0ee3 86FDFFAF 		.ascii	"\206\375\377\257\3459\333\255\212\207\271\200L\271\271"
 499      E539DBAD 
 499      8A87B980 
 499      4CB9B9
 500 0ef2 AFBEE5CA 		.ascii	"\257\276\345\312\364-\233s\252\371\3406xR\275B\015\313"
 500      F42D9B73 
 500      AAF9E036 
 500      7852BD42 
 500      0DCB
ARM GAS  C:\Users\gjl\AppData\Local\Temp\cccugTJj.s 			page 40


 501 0f04 9F6ADECB 		.ascii	"\237j\336\313\330J5,\177\252\031\225\261\347\324\260"
 501      D84A352C 
 501      7FAA1995 
 501      B1E7D4B0 
 502 0f14 DC62BE27 		.ascii	"\334b\276'C\253\324\240\334\334\356\310\320j\265\302"
 502      43ABD4A0 
 502      DCDCEEC8 
 502      D06AB5C2 
 503 0f24 C49F193B 		.ascii	"\304\237\031;e\354\0055,\177\002j\227\2615jX\276X\224"
 503      65EC0535 
 503      2C7F026A 
 503      97B1356A 
 503      58BE5894 
 504 0f38 C9D83A35 		.ascii	"\311\330:5\254\342\034(c/\252ay\217\355ss9]\257\206"
 504      ACE21C28 
 504      632FAA61 
 504      798FED73 
 504      73395DAF 
 505 0f4d E64F826E 		.ascii	"\346O\202n\251b5\250A9\237\355\316\021\357\332\227a"
 505      A96235A8 
 505      41399FED 
 505      CE11EFDA 
 505      9761
 506 0f5f F95CF25E 		.ascii	"\371\\\362^>?\314Y\021Y9\013\021\377\014r\347\212:>"
 506      3E3FCC59 
 506      1159390B 
 506      11FF0C72 
 506      E78A3A3E 
 507 0f73 DC3B9F9F 		.ascii	"\334;\237\237+\222\352\231\"\251\360\226\326\004\025"
 507      2B92EA99 
 507      22A9F096 
 507      D60415
 508 0f82 A49F7D09 		.ascii	"\244\237}\011\203D\032\366\334\322^\302j\177\241X\355"
 508      83441AF6 
 508      DCD25EC2 
 508      6A7FA158 
 508      ED
 509 0f93 BD9DEC3C 		.ascii	"\275\235\354<2\012\312\233A\371\360'\016"
 509      320ACA9B 
 509      41F9F027 
 509      0E
 510 0fa0 1828BBC1 		.ascii	"\030(\273\301\245\224}M\034A\023\366\035\350\231+\276"
 510      A5947D4D 
 510      1C4113F6 
 510      1DE8992B 
 510      BE
 511 0fb1 275B2C57 		.ascii	"'[,W\257@\301UU\005s&7\302\027\253\267 \366\265j\261"
 511      AF40C155 
 511      55057326 
 511      37C217AB 
 511      B720F6B5 
 512 0fc7 1A5114AB 		.ascii	"\032Q\024\253\327j\305\352w\013\271Z5\302j\325\033\357"
 512      D76AC5EA 
 512      770BB95A 
 512      35C26AD5 
 512      1BEF
 513 0fd9 5A850786 		.ascii	"Z\205\007\206]\351\013\350\201\201Z\331(\037\030^3\307"
ARM GAS  C:\Users\gjl\AppData\Local\Temp\cccugTJj.s 			page 41


 513      5DE90BE8 
 513      81815AD9 
 513      281F185E 
 513      33C7
 514 0feb 22E27636 		.ascii	"\"\342v6;\220\014+\017$\274A\357y\273?\200\335c\252"
 514      3B900C2B 
 514      0F24BC41 
 514      EF79BB3F 
 514      80DD63AA 
 515 0fff 76       		.ascii	"v"
 516 1000 BF57D83D 		.ascii	"\277W\330=\366'\355~\317\354\036W\330}^\360\030\276"
 516      F627ED7E 
 516      CFEC1E57 
 516      D87D5EF0 
 516      18BE
 517 1012 1B0DA7F1 		.ascii	"\033\015\247\361\273.\033>\306\031\236u\363\013\212"
 517      BB2E1B3E 
 517      C6199E75 
 517      F30B8A
 518 1021 9804C7DF 		.ascii	"\230\004\307\337\220\021\303d\316\037\211\324\226\314"
 518      9011C364 
 518      CE1F89D4 
 518      96CC
 519 102f 27C23A9B 		.ascii	"'\302:\233\375\347\030\326i\320\333\352\275h[>\261\013"
 519      FDE718D6 
 519      69D0DBEA 
 519      BD685B3E 
 519      B10B
 520 1041 291C34A3 		.ascii	")\0344\243p\020\232\232\207\223\241BozO\006w\313\231"
 520      70109A9A 
 520      8793A142 
 520      6F7A4F06 
 520      77CB99
 521 1054 EC40DC2D 		.ascii	"\354@\334-\351\341\257CT,\335\016\274\017\221\023\030"
 521      E9E1AF43 
 521      542CDD0E 
 521      BC0F9113 
 521      18
 522 1065 B3EB6A87 		.ascii	"\263\353j\207\310Y<D\322\355\251I>D^\347\017\221\235"
 522      C8593C44 
 522      D2EDA949 
 522      3E445EE7 
 522      0F919D
 523 1078 8B28826E 		.ascii	"\213(\202n\264\245\2625]\236C\344\371;\033v\372}y\310"
 523      B4A5B235 
 523      5D9E43E4 
 523      F93B1B76 
 523      FA7D79C8 
 524 108c 75A8D435 		.ascii	"u\250\3245\340\376\370]^\311&W;\014\373;\0261\341\270"
 524      E0FEF85D 
 524      5EC92657 
 524      3B0CFB3B 
 524      1631E1B8 
 525 10a0 FCFFB5A0 		.ascii	"\374\377\265\240I\037EB\217\240\021R|\276\244\177\356"
 525      491F4542 
 525      8FA01152 
 525      7CBEA47F 
ARM GAS  C:\Users\gjl\AppData\Local\Temp\cccugTJj.s 			page 42


 525      EE
 526 10b1 D9DFB843 		.ascii	"\331\337\270C #x\246,:\363C\205\026\0055\354\205\353"
 526      202378A6 
 526      2C3AF343 
 526      85160535 
 526      EC85EB
 527 10c4 0193C284 		.ascii	"\001\223\302\204l\360\221\204@S\026\222\352\363\245"
 527      6CF09184 
 527      40531692 
 527      EAF3A5
 528 10d3 E68B8455 		.ascii	"\346\213\204U\253\2771\305\304\230\326\254\213\261\305"
 528      ABBF31C5 
 528      C498D6AC 
 528      8BB1C5
 529 10e2 5A4DEBAC 		.ascii	"ZM\353\254v\247\315b\21619\343\342M1\216H\335?\374\323"
 529      76A7CD62 
 529      8E3139E3 
 529      E24D318E 
 529      48DD3FFC 
 530 10f7 6F97FE3A 		.ascii	"o\227\376:<\\\023`2%\330b\235\253L\316d\301\362\267"
 530      3C5C1360 
 530      3225D862 
 530      9DAB4CCE 
 530      64C1F2B7 
 531 110b 11F1F6B8 		.ascii	"\021\361\366\270\325v\363\332\245\321\266\030\253ci"
 531      D576F3DA 
 531      A5D1B618 
 531      AB6369
 532 111a 58E2AA5F 		.ascii	"X\342\252_\376U\204%)\336nu8\"\342\035q\226\245\026"
 532      FE558425 
 532      29DE6E75 
 532      3822E21D 
 532      7196A516 
 533 112e BBD5EC8C 		.ascii	"\273\325\354\214\263G\374bE\270\262\303\2666>\316\356"
 533      B347FC62 
 533      45B8B2C3 
 533      B6363ECE 
 533      EE
 534 113f 8C581D9B 		.ascii	"\214X\035\233\020a\266\257\215\370\353\025\024\001\255"
 534      1061B6AF 
 534      8DF8EB15 
 534      1401AD
 535 114e 9FC7C6C5 		.ascii	"\237\307\306\305Z\177n5G\332\"l\261\226\230\204(k\304"
 535      5A7F6E35 
 535      47DA226C 
 535      B1969884 
 535      286BC4
 536 1161 5AB3650D 		.ascii	"Z\263e\015\030\025a\212\262F\233\023b\234&gR\274\325"
 536      1815618A 
 536      B2469B13 
 536      629C2667 
 536      52BCD5
 537 1174 B1628DC6 		.ascii	"\261b\215\306_4e\335\377\225%\216$G\204\311\341\214"
 537      5F3465DD 
 537      FF95258E 
 537      244784C9 
 537      E18C
ARM GAS  C:\Users\gjl\AppData\Local\Temp\cccugTJj.s 			page 43


 538 1186 02B5A0DE 		.ascii	"\002\265\240\336\300\234Fm09\027\254X\021A\331\010\213"
 538      C09C466D 
 538      303917AC 
 538      581141D9 
 538      088B
 539 1198 C36E612D 		.ascii	"\303na-\000\350\243\354\346\365&K\\L\234=huLR\374\032"
 539      00E8A3EC 
 539      E6F5264B 
 539      5C4C9C3D 
 539      68754C52 
 540 11ae 53A2292E 		.ascii	"S\242).:\332au\352L&4\335\017\037\363\242\343@\212\335"
 540      3ADA6175 
 540      EA4C2634 
 540      DD0F1FF3 
 540      A2E3408A 
 541 11c3 1A0D7374 		.ascii	"\032\015stX\254\261\316`\251\303\314x\004\254\261\332"
 541      58ACB1CE 
 541      60A9C3CC 
 541      7804ACB1 
 541      DA
 542 11d4 56AF719A 		.ascii	"V\257q\232\326\306EY\003X\207-6:n\276\303i\266;M\361"
 542      D6C64559 
 542      0358872D 
 542      363A6EBE 
 542      C369B63B 
 543 11ea 710E534C 		.ascii	"q\016SL\334z\253\335d\326c\220\302\177ir\352<\015\016"
 543      DC7AABDD 
 543      64D66390 
 543      C27F6972 
 543      EA3C0D0E 
 544 11fe 95101F0F 		.ascii	"\225\020\037\017\250\357\214\242*S\274\331n6\230\345"
 544      A8EF8CA2 
 544      2A53BCD9 
 544      6E3698E5 
 545 120e 7680E7C5 		.ascii	"v\200\347\305j\235\330\373\235.\311c\270g\006\301k\315"
 545      6A9DD8FB 
 545      9D2EC963 
 545      B86706C1 
 545      6BCD
 546 1220 8926CB1A 		.ascii	"\211&\313\032\263]4*H\342\327\333\242\234k\346E\332"
 546      B35D342A 
 546      48E2D7DB 
 546      A29C6BE6 
 546      45DA
 547 1232 9C0E13D5 		.ascii	"\234\016\023\325\023e\215q\232M\211\301R\007\003%y\361"
 547      13658D71 
 547      9A4D89C1 
 547      52070325 
 547      79F1
 548 1244 890B943C 		.ascii	"\211\013\224<\012\015Uv2\311z\251/\\n\256\324EF&\242"
 548      0A0D5576 
 548      32C97AA9 
 548      2F5C6EAE 
 548      D4454626 
 549 1259 5FD0D196 		.ascii	"_\320\321\226X\347|\023\213\217\344'\245\017bm\026@"
 549      58E77C13 
 549      8B8FE427 
ARM GAS  C:\Users\gjl\AppData\Local\Temp\cccugTJj.s 			page 44


 549      A50F626D 
 549      1640
 550 126b CFF38618 		.ascii	"\317\363\206\030X;\312J_\352\"Wc\360t\321b#\310\346"
 550      583BCA4A 
 550      5FEA2257 
 550      63F074D1 
 550      6223C8E6 
 551 127f 3039EDE6 		.ascii	"09\355\346X\007\270\011\374\022\2048\023\230A\205\032"
 551      5807B809 
 551      FC128438 
 551      13984185 
 551      1A
 552 1290 51359A6E 		.ascii	"Q5\232n@\206\231,$\011\211:P\275\332\3524%y\032\211"
 552      4086992C 
 552      2409893A 
 552      50BDDAEA 
 552      3425791A 
 553 12a5 7A7174BC 		.ascii	"zqt\274\323\036\312\231*\366:I\224\315\0362\267;\210"
 553      D31ECA99 
 553      2AF63A49 
 553      94CD1E32 
 553      B73B88
 554 12b8 71909A16 		.ascii	"q\220\232\026\323:X\036?\221\021R\237):\026d\372\320"
 554      D33A581E 
 554      3F911152 
 554      9F293A16 
 554      64FAD0
 555 12cb 4EFF0407 		.ascii	"N\377\004\007x')\\|\256\304g\242\310'\256\364Cc}\231"
 555      7827295C 
 555      7CAEC467 
 555      A2C827AE 
 555      F443637D 
 556 12e0 997E9109 		.ascii	"\231~\221\011\321\200\305\307\312\240x[\2425\306dI\260"
 556      D180C5C7 
 556      CAA0785B 
 556      A235C664 
 556      49B0
 557 12f2 DB4DF6B8 		.ascii	"\333M\366\270\365\363\220\245\357pL\260\334\301F\007"
 557      F5F390A5 
 557      EF704CB0 
 557      DCC14607 
 558 1302 3A21F324 		.ascii	":!\363$x0\343d\264Q\342\3014\255%\322/!>\312\354\264"
 558      7830E364 
 558      B451E2C1 
 558      34AD25D2 
 558      2F213ECA 
 559 1318 2EC61462 		.ascii	".\306\024bmS\224m\2555\326a\213\2135Y\"\203\330\013"
 559      6D53946D 
 559      AD35D661 
 559      8B8B3559 
 559      2283D80B 
 560 132c 4B24649B 		.ascii	"K$d\233=\301\342\324\261L\212\371\325J\014\230\207\003"
 560      3DC1E2D4 
 560      B14C8AF9 
 560      D54A0C98 
 560      8703
 561 133e 408007E8 		.ascii	"@\200\007\350\014\220\312\327B\016$\2254K\244O\302\252"
ARM GAS  C:\Users\gjl\AppData\Local\Temp\cccugTJj.s 			page 45


 561      0C90CAD7 
 561      420E2495 
 561      344BA44F 
 561      C2AA
 562 1350 C45510B3 		.ascii	"\304U\020\263\310\270\204X\213\025$\203\322E\022\033"
 562      C8B88458 
 562      8B152483 
 562      D245121B 
 563 1360 63764014 		.ascii	"cv@\024m\261\330\377gR\277\247\350H\257\014\253\343"
 563      6DB1D8FF 
 563      6752BFA7 
 563      E848AF0C 
 563      ABE3
 564 1372 6D71909A 		.ascii	"mq\220\232\016\350\325'8\243Wa7\010^g\003\2749*\212"
 564      0EE8D527 
 564      38A35761 
 564      37085E67 
 564      03BC392A 
 565 1387 161D83ED 		.ascii	"\026\035\203\355\033\213\211\2557k\024k\213\375\013"
 565      1B8B89AD 
 565      376B146B 
 565      8BFD0B
 566 1396 600989EB 		.ascii	"`\011\211\353\015\212\254\303\312\026\255\316\032\013"
 566      0D8AACC3 
 566      CA16ADCE 
 566      1A0B
 567 13a4 D1B5C5AE 		.ascii	"\321\265\305\256\236\317d\233c\243h\332\230\223\300"
 567      9ECF649B 
 567      63A368DA 
 567      9893C0
 568 13b3 680335DA 		.ascii	"h\0035\332\264\326\001+0\322?2\311I'\342g1G\301C\037"
 568      B4D6012B 
 568      30D23F32 
 568      C94927E2 
 568      673147C1 
 569 13c9 6573C423 		.ascii	"es\304#\312?\326\232\010+ \322\310\320,Y\200\361\274"
 569      CA3FD69A 
 569      082B20D2 
 569      C8D02C59 
 569      80F1BC
 570 13dc A74BDB80 		.ascii	"\247K\333\200\341b\241\232\037\035c\213\247z\245z4\317"
 570      E162A19A 
 570      1F1D638B 
 570      A77AA57A 
 570      34CF
 571 13ee 334B4F87 		.ascii	"3KO\207\201\305\013c\247gm6r\301z\273\015L\210O\210"
 571      81C50B63 
 571      A7676D36 
 571      72C17ABB 
 571      0D4C884F 
 572 1403 71883DA6 		.ascii	"q\210=\246XG\010D\317l\202A\011\361&'\304\020\272\026"
 572      58470844 
 572      CF6C8241 
 572      09F12627 
 572      C410BA16 
 573 1417 D0194726 		.ascii	"\320\031G&8L\226\2308\313\037L\341+W\376\341\037\277"
 573      384C9698 
ARM GAS  C:\Users\gjl\AppData\Local\Temp\cccugTJj.s 			page 46


 573      38CB1F4C 
 573      E12B57FE 
 573      E11FBF
 574 142a D739E26D 		.ascii	"\3279\342ml\272F\007\364\341\2335\337\213\305\352\333"
 574      6CBA4607 
 574      F4E19B35 
 574      DF8BC5EA 
 574      DB
 575 143b 6FC46245 		.ascii	"o\304bE\033!\024\240T2\337\021\345\245#\004R\216\226"
 575      1B2114A0 
 575      5432DF11 
 575      E5A52304 
 575      528E96
 576 144e 48E834AD 		.ascii	"H\3504\2557C\012\256u,@\216\037\271\326\261\0306\001"
 576      37430AAE 
 576      752C408E 
 576      1FB9D6B1 
 576      183601
 577 1461 70892D1E 		.ascii	"p\211-\036\026\230\303\034I\247B\321\261\360\202\012"
 577      1698C31C 
 577      49A742D1 
 577      B1F0820A 
 578 1471 606FACB1 		.ascii	"`o\254\261\374\213\020\005:\306\272\316\0323\237\207"
 578      FC8B1005 
 578      3AC6BACE 
 578      1A339F87 
 579 1481 B19EC5CC 		.ascii	"\261\236\305\314\325\274\213\305\265jDO\243\357\274"
 579      D5BC8BC5 
 579      B56A444F 
 579      A3EFBC
 580 1490 F785C455 		.ascii	"\367\205\304U\260/\204\316\035\352\3048\243\204Pi\361"
 580      B02F84CE 
 580      1DEAC438 
 580      A3845069 
 580      F1
 581 14a1 E12AA3E1 		.ascii	"\341*\243\341\367c\357\235\270\347 ,\004\226\2229\301"
 581      F763EF9D 
 581      B8E7202C 
 581      04969239 
 581      C1
 582 14b2 1907457B 		.ascii	"\031\007E{5\3140\306j\266\373\261\327\316\317\347\354"
 582      35CC30C6 
 582      6AB6FBB1 
 582      D7CECFE7 
 582      EC
 583 14c3 467222AC 		.ascii	"Fr\"\254\260h\376\302k\267_\023g\267}\017k\022\366{"
 583      B068FEC2 
 583      6BB75F13 
 583      67B77D0F 
 583      6B12F67B 
 584 14d7 3BDB6060 		.ascii	";\333``\307\377/\365\013\036w"
 584      C7FF2FF5 
 584      0B1E77
 585              		.text
 586              		.section	.gnu.lto_.symtab.ba9e467,"",%progbits
 587 0000 75386732 		.ascii	"u8g2_ll_hvline_vertical_top_lsb\000"
 587      5F6C6C5F 
ARM GAS  C:\Users\gjl\AppData\Local\Temp\cccugTJj.s 			page 47


 587      68766C69 
 587      6E655F76 
 587      65727469 
 588 0020 00       		.ascii	"\000"
 589 0021 00       		.ascii	"\000"
 590 0022 00       		.ascii	"\000"
 591 0023 00000000 		.ascii	"\000\000\000\000\000\000\000\000"
 591      00000000 
 592 002b 02020000 		.ascii	"\002\002\000\000"
 593 002f 75386732 		.ascii	"u8g2_ll_hvline_horizontal_right_lsb\000"
 593      5F6C6C5F 
 593      68766C69 
 593      6E655F68 
 593      6F72697A 
 594 0053 00       		.ascii	"\000"
 595 0054 00       		.ascii	"\000"
 596 0055 00       		.ascii	"\000"
 597 0056 00000000 		.ascii	"\000\000\000\000\000\000\000\000"
 597      00000000 
 598 005e 04020000 		.ascii	"\004\002\000\000"
 599              		.text
 600              		.section	.gnu.lto_.opts,"",%progbits
 601 0000 272D666D 		.ascii	"'-fmath-errno' '-fsigned-zeros' '-ftrapping-math' '"
 601      6174682D 
 601      6572726E 
 601      6F272027 
 601      2D667369 
 602 0033 2D666E6F 		.ascii	"-fno-trapv' '-fno-openmp' '-fno-openacc' '-mcpu=cor"
 602      2D747261 
 602      70762720 
 602      272D666E 
 602      6F2D6F70 
 603 0066 7465782D 		.ascii	"tex-m0' '-mthumb' '-g' '-Os' '-ffunction-sections' "
 603      6D302720 
 603      272D6D74 
 603      68756D62 
 603      2720272D 
 604 0099 272D6666 		.ascii	"'-ffat-lto-objects' '-flto'\000"
 604      61742D6C 
 604      746F2D6F 
 604      626A6563 
 604      74732720 
 605              		.text
 606              		.cfi_sections	.debug_frame
 607              		.section	.text.u8g2_ll_hvline_vertical_top_lsb,"ax",%progbits
 608              		.align	1
 609              		.global	u8g2_ll_hvline_vertical_top_lsb
 610              		.code	16
 611              		.thumb_func
 612              		.type	u8g2_ll_hvline_vertical_top_lsb, %function
 613              	u8g2_ll_hvline_vertical_top_lsb:
 614              	.LFB0:
 615              		.file 1 "..\\u8g2\\csrc\\u8g2_ll_hvline.c"
   1:..\u8g2\csrc/u8g2_ll_hvline.c **** /*
   2:..\u8g2\csrc/u8g2_ll_hvline.c **** 
   3:..\u8g2\csrc/u8g2_ll_hvline.c ****   u8g2_ll_hvline.c
   4:..\u8g2\csrc/u8g2_ll_hvline.c ****   
ARM GAS  C:\Users\gjl\AppData\Local\Temp\cccugTJj.s 			page 48


   5:..\u8g2\csrc/u8g2_ll_hvline.c ****   low level hvline
   6:..\u8g2\csrc/u8g2_ll_hvline.c **** 
   7:..\u8g2\csrc/u8g2_ll_hvline.c ****   Universal 8bit Graphics Library (https://github.com/olikraus/u8g2/)
   8:..\u8g2\csrc/u8g2_ll_hvline.c **** 
   9:..\u8g2\csrc/u8g2_ll_hvline.c ****   Copyright (c) 2016, olikraus@gmail.com
  10:..\u8g2\csrc/u8g2_ll_hvline.c ****   All rights reserved.
  11:..\u8g2\csrc/u8g2_ll_hvline.c **** 
  12:..\u8g2\csrc/u8g2_ll_hvline.c ****   Redistribution and use in source and binary forms, with or without modification, 
  13:..\u8g2\csrc/u8g2_ll_hvline.c ****   are permitted provided that the following conditions are met:
  14:..\u8g2\csrc/u8g2_ll_hvline.c **** 
  15:..\u8g2\csrc/u8g2_ll_hvline.c ****   * Redistributions of source code must retain the above copyright notice, this list 
  16:..\u8g2\csrc/u8g2_ll_hvline.c ****     of conditions and the following disclaimer.
  17:..\u8g2\csrc/u8g2_ll_hvline.c ****     
  18:..\u8g2\csrc/u8g2_ll_hvline.c ****   * Redistributions in binary form must reproduce the above copyright notice, this 
  19:..\u8g2\csrc/u8g2_ll_hvline.c ****     list of conditions and the following disclaimer in the documentation and/or other 
  20:..\u8g2\csrc/u8g2_ll_hvline.c ****     materials provided with the distribution.
  21:..\u8g2\csrc/u8g2_ll_hvline.c **** 
  22:..\u8g2\csrc/u8g2_ll_hvline.c ****   THIS SOFTWARE IS PROVIDED BY THE COPYRIGHT HOLDERS AND 
  23:..\u8g2\csrc/u8g2_ll_hvline.c ****   CONTRIBUTORS "AS IS" AND ANY EXPRESS OR IMPLIED WARRANTIES, 
  24:..\u8g2\csrc/u8g2_ll_hvline.c ****   INCLUDING, BUT NOT LIMITED TO, THE IMPLIED WARRANTIES OF 
  25:..\u8g2\csrc/u8g2_ll_hvline.c ****   MERCHANTABILITY AND FITNESS FOR A PARTICULAR PURPOSE ARE 
  26:..\u8g2\csrc/u8g2_ll_hvline.c ****   DISCLAIMED. IN NO EVENT SHALL THE COPYRIGHT HOLDER OR 
  27:..\u8g2\csrc/u8g2_ll_hvline.c ****   CONTRIBUTORS BE LIABLE FOR ANY DIRECT, INDIRECT, INCIDENTAL, 
  28:..\u8g2\csrc/u8g2_ll_hvline.c ****   SPECIAL, EXEMPLARY, OR CONSEQUENTIAL DAMAGES (INCLUDING, BUT 
  29:..\u8g2\csrc/u8g2_ll_hvline.c ****   NOT LIMITED TO, PROCUREMENT OF SUBSTITUTE GOODS OR SERVICES; 
  30:..\u8g2\csrc/u8g2_ll_hvline.c ****   LOSS OF USE, DATA, OR PROFITS; OR BUSINESS INTERRUPTION) HOWEVER 
  31:..\u8g2\csrc/u8g2_ll_hvline.c ****   CAUSED AND ON ANY THEORY OF LIABILITY, WHETHER IN CONTRACT, 
  32:..\u8g2\csrc/u8g2_ll_hvline.c ****   STRICT LIABILITY, OR TORT (INCLUDING NEGLIGENCE OR OTHERWISE) 
  33:..\u8g2\csrc/u8g2_ll_hvline.c ****   ARISING IN ANY WAY OUT OF THE USE OF THIS SOFTWARE, EVEN IF 
  34:..\u8g2\csrc/u8g2_ll_hvline.c ****   ADVISED OF THE POSSIBILITY OF SUCH DAMAGE.  
  35:..\u8g2\csrc/u8g2_ll_hvline.c **** 
  36:..\u8g2\csrc/u8g2_ll_hvline.c **** 
  37:..\u8g2\csrc/u8g2_ll_hvline.c ****   *ptr |= or_mask
  38:..\u8g2\csrc/u8g2_ll_hvline.c ****   *ptr ^= xor_mask
  39:..\u8g2\csrc/u8g2_ll_hvline.c ****   
  40:..\u8g2\csrc/u8g2_ll_hvline.c ****   color = 0:   or_mask = 1, xor_mask = 1
  41:..\u8g2\csrc/u8g2_ll_hvline.c ****   color = 1:   or_mask = 1, xor_mask = 0
  42:..\u8g2\csrc/u8g2_ll_hvline.c ****   color = 2:   or_mask = 0, xor_mask = 1
  43:..\u8g2\csrc/u8g2_ll_hvline.c **** 
  44:..\u8g2\csrc/u8g2_ll_hvline.c ****   if ( color <= 1 )
  45:..\u8g2\csrc/u8g2_ll_hvline.c ****     or_mask  = mask;
  46:..\u8g2\csrc/u8g2_ll_hvline.c ****   if ( color != 1 )
  47:..\u8g2\csrc/u8g2_ll_hvline.c ****     xor_mask = mask;
  48:..\u8g2\csrc/u8g2_ll_hvline.c ****     
  49:..\u8g2\csrc/u8g2_ll_hvline.c **** */
  50:..\u8g2\csrc/u8g2_ll_hvline.c **** 
  51:..\u8g2\csrc/u8g2_ll_hvline.c **** #include "u8g2.h"
  52:..\u8g2\csrc/u8g2_ll_hvline.c **** #include <assert.h>
  53:..\u8g2\csrc/u8g2_ll_hvline.c **** 
  54:..\u8g2\csrc/u8g2_ll_hvline.c **** /*=================================================*/
  55:..\u8g2\csrc/u8g2_ll_hvline.c **** /*
  56:..\u8g2\csrc/u8g2_ll_hvline.c ****   u8g2_ll_hvline_vertical_top_lsb
  57:..\u8g2\csrc/u8g2_ll_hvline.c ****     SSD13xx
  58:..\u8g2\csrc/u8g2_ll_hvline.c ****     UC1701    
  59:..\u8g2\csrc/u8g2_ll_hvline.c **** */
  60:..\u8g2\csrc/u8g2_ll_hvline.c **** 
  61:..\u8g2\csrc/u8g2_ll_hvline.c **** 
ARM GAS  C:\Users\gjl\AppData\Local\Temp\cccugTJj.s 			page 49


  62:..\u8g2\csrc/u8g2_ll_hvline.c **** #ifdef U8G2_HVLINE_SPEED_OPTIMIZATION
  63:..\u8g2\csrc/u8g2_ll_hvline.c **** 
  64:..\u8g2\csrc/u8g2_ll_hvline.c **** /*
  65:..\u8g2\csrc/u8g2_ll_hvline.c ****   x,y		Upper left position of the line within the local buffer (not the display!)
  66:..\u8g2\csrc/u8g2_ll_hvline.c ****   len		length of the line in pixel, len must not be 0
  67:..\u8g2\csrc/u8g2_ll_hvline.c ****   dir		0: horizontal line (left to right)
  68:..\u8g2\csrc/u8g2_ll_hvline.c **** 		1: vertical line (top to bottom)
  69:..\u8g2\csrc/u8g2_ll_hvline.c ****   asumption: 
  70:..\u8g2\csrc/u8g2_ll_hvline.c ****     all clipping done
  71:..\u8g2\csrc/u8g2_ll_hvline.c **** */
  72:..\u8g2\csrc/u8g2_ll_hvline.c **** void u8g2_ll_hvline_vertical_top_lsb(u8g2_t *u8g2, u8g2_uint_t x, u8g2_uint_t y, u8g2_uint_t len, u
  73:..\u8g2\csrc/u8g2_ll_hvline.c **** {
 616              		.loc 1 73 0
 617              		.cfi_startproc
 618              		@ args = 4, pretend = 0, frame = 8
 619              		@ frame_needed = 0, uses_anonymous_args = 0
 620              	.LVL0:
 621 0000 F7B5     		push	{r0, r1, r2, r4, r5, r6, r7, lr}
 622              		.cfi_def_cfa_offset 32
 623              		.cfi_offset 0, -32
 624              		.cfi_offset 1, -28
 625              		.cfi_offset 2, -24
 626              		.cfi_offset 4, -20
 627              		.cfi_offset 5, -16
 628              		.cfi_offset 6, -12
 629              		.cfi_offset 7, -8
 630              		.cfi_offset 14, -4
 631              		.loc 1 73 0
 632 0002 08AC     		add	r4, sp, #32
 633              	.LVL1:
 634 0004 2478     		ldrb	r4, [r4]
 635              	.LVL2:
  74:..\u8g2\csrc/u8g2_ll_hvline.c ****   uint16_t offset;
  75:..\u8g2\csrc/u8g2_ll_hvline.c ****   uint8_t *ptr;
  76:..\u8g2\csrc/u8g2_ll_hvline.c ****   uint8_t bit_pos, mask;
  77:..\u8g2\csrc/u8g2_ll_hvline.c ****   uint8_t or_mask, xor_mask;
  78:..\u8g2\csrc/u8g2_ll_hvline.c **** 
  79:..\u8g2\csrc/u8g2_ll_hvline.c ****   //assert(x >= u8g2->buf_x0);
  80:..\u8g2\csrc/u8g2_ll_hvline.c ****   //assert(x < u8g2_GetU8x8(u8g2)->display_info->tile_width*8);
  81:..\u8g2\csrc/u8g2_ll_hvline.c ****   //assert(y >= u8g2->buf_y0);
  82:..\u8g2\csrc/u8g2_ll_hvline.c ****   //assert(y < u8g2_GetU8x8(u8g2)->display_info->tile_height*8);
  83:..\u8g2\csrc/u8g2_ll_hvline.c ****   
  84:..\u8g2\csrc/u8g2_ll_hvline.c ****   /* bytes are vertical, lsb on top (y=0), msb at bottom (y=7) */
  85:..\u8g2\csrc/u8g2_ll_hvline.c ****   bit_pos = y;		/* overflow truncate is ok here... */
  86:..\u8g2\csrc/u8g2_ll_hvline.c ****   bit_pos &= 7; 	/* ... because only the lowest 3 bits are needed */
 636              		.loc 1 86 0
 637 0006 0726     		movs	r6, #7
  73:..\u8g2\csrc/u8g2_ll_hvline.c ****   uint16_t offset;
 638              		.loc 1 73 0
 639 0008 0194     		str	r4, [sp, #4]
  87:..\u8g2\csrc/u8g2_ll_hvline.c ****   mask = 1;
  88:..\u8g2\csrc/u8g2_ll_hvline.c ****   mask <<= bit_pos;
 640              		.loc 1 88 0
 641 000a 0124     		movs	r4, #1
  89:..\u8g2\csrc/u8g2_ll_hvline.c **** 
  90:..\u8g2\csrc/u8g2_ll_hvline.c ****   or_mask = 0;
  91:..\u8g2\csrc/u8g2_ll_hvline.c ****   xor_mask = 0;
ARM GAS  C:\Users\gjl\AppData\Local\Temp\cccugTJj.s 			page 50


  92:..\u8g2\csrc/u8g2_ll_hvline.c ****   if ( u8g2->draw_color <= 1 )
 642              		.loc 1 92 0
 643 000c 0500     		movs	r5, r0
  86:..\u8g2\csrc/u8g2_ll_hvline.c ****   mask = 1;
 644              		.loc 1 86 0
 645 000e 1640     		ands	r6, r2
 646              	.LVL3:
  88:..\u8g2\csrc/u8g2_ll_hvline.c **** 
 647              		.loc 1 88 0
 648 0010 B440     		lsls	r4, r4, r6
 649              		.loc 1 92 0
 650 0012 7C35     		adds	r5, r5, #124
  73:..\u8g2\csrc/u8g2_ll_hvline.c ****   uint16_t offset;
 651              		.loc 1 73 0
 652 0014 0091     		str	r1, [sp]
 653              		.loc 1 92 0
 654 0016 2F78     		ldrb	r7, [r5]
  88:..\u8g2\csrc/u8g2_ll_hvline.c **** 
 655              		.loc 1 88 0
 656 0018 E4B2     		uxtb	r4, r4
 657              	.LVL4:
  90:..\u8g2\csrc/u8g2_ll_hvline.c ****   xor_mask = 0;
 658              		.loc 1 90 0
 659 001a 0025     		movs	r5, #0
 660              		.loc 1 92 0
 661 001c 012F     		cmp	r7, #1
 662 001e 03D8     		bhi	.L2
 663              	.LVL5:
  93:..\u8g2\csrc/u8g2_ll_hvline.c ****     or_mask  = mask;
 664              		.loc 1 93 0
 665 0020 2500     		movs	r5, r4
  94:..\u8g2\csrc/u8g2_ll_hvline.c ****   if ( u8g2->draw_color != 1 )
 666              		.loc 1 94 0
 667 0022 012F     		cmp	r7, #1
 668 0024 00D1     		bne	.L2
  91:..\u8g2\csrc/u8g2_ll_hvline.c ****   if ( u8g2->draw_color <= 1 )
 669              		.loc 1 91 0
 670 0026 0024     		movs	r4, #0
 671              	.LVL6:
 672              	.L2:
  95:..\u8g2\csrc/u8g2_ll_hvline.c ****     xor_mask = mask;
  96:..\u8g2\csrc/u8g2_ll_hvline.c **** 
  97:..\u8g2\csrc/u8g2_ll_hvline.c **** 
  98:..\u8g2\csrc/u8g2_ll_hvline.c ****   offset = y;		/* y might be 8 or 16 bit, but we need 16 bit, so use a 16 bit variable */
  99:..\u8g2\csrc/u8g2_ll_hvline.c ****   offset &= ~7;
 673              		.loc 1 99 0
 674 0028 0727     		movs	r7, #7
 675 002a BA43     		bics	r2, r7
 676              	.LVL7:
 677 002c 1100     		movs	r1, r2
 678              	.LVL8:
 100:..\u8g2\csrc/u8g2_ll_hvline.c ****   offset *= u8g2_GetU8x8(u8g2)->display_info->tile_width;
 101:..\u8g2\csrc/u8g2_ll_hvline.c ****   ptr = u8g2->tile_buf_ptr;
 102:..\u8g2\csrc/u8g2_ll_hvline.c ****   ptr += offset;
 103:..\u8g2\csrc/u8g2_ll_hvline.c ****   ptr += x;
 679              		.loc 1 103 0
 680 002e 0268     		ldr	r2, [r0]
ARM GAS  C:\Users\gjl\AppData\Local\Temp\cccugTJj.s 			page 51


 681 0030 127C     		ldrb	r2, [r2, #16]
 682 0032 4A43     		muls	r2, r1
 683 0034 0099     		ldr	r1, [sp]
 684              	.LVL9:
 685 0036 5118     		adds	r1, r2, r1
 686 0038 426B     		ldr	r2, [r0, #52]
 687 003a 5118     		adds	r1, r2, r1
 688              	.LVL10:
 104:..\u8g2\csrc/u8g2_ll_hvline.c ****   
 105:..\u8g2\csrc/u8g2_ll_hvline.c ****   if ( dir == 0 )
 689              		.loc 1 105 0
 690 003c 019A     		ldr	r2, [sp, #4]
 691 003e 002A     		cmp	r2, #0
 692 0040 09D1     		bne	.L3
 693              	.L4:
 106:..\u8g2\csrc/u8g2_ll_hvline.c ****   {
 107:..\u8g2\csrc/u8g2_ll_hvline.c ****   /*
 108:..\u8g2\csrc/u8g2_ll_hvline.c ****     if ( u8g2->draw_color != 0 )
 109:..\u8g2\csrc/u8g2_ll_hvline.c ****     {
 110:..\u8g2\csrc/u8g2_ll_hvline.c ****     */
 111:..\u8g2\csrc/u8g2_ll_hvline.c ****       do
 112:..\u8g2\csrc/u8g2_ll_hvline.c ****       {
 113:..\u8g2\csrc/u8g2_ll_hvline.c **** 	//*ptr |= mask;
 114:..\u8g2\csrc/u8g2_ll_hvline.c **** 	*ptr |= or_mask;
 115:..\u8g2\csrc/u8g2_ll_hvline.c **** 	*ptr ^= xor_mask;
 694              		.loc 1 115 0 discriminator 1
 695 0042 0A78     		ldrb	r2, [r1]
 116:..\u8g2\csrc/u8g2_ll_hvline.c **** 	ptr++;
 117:..\u8g2\csrc/u8g2_ll_hvline.c **** 	len--;
 696              		.loc 1 117 0 discriminator 1
 697 0044 013B     		subs	r3, r3, #1
 698              	.LVL11:
 115:..\u8g2\csrc/u8g2_ll_hvline.c **** 	ptr++;
 699              		.loc 1 115 0 discriminator 1
 700 0046 2A43     		orrs	r2, r5
 701 0048 6240     		eors	r2, r4
 702              		.loc 1 117 0 discriminator 1
 703 004a DBB2     		uxtb	r3, r3
 115:..\u8g2\csrc/u8g2_ll_hvline.c **** 	ptr++;
 704              		.loc 1 115 0 discriminator 1
 705 004c 0A70     		strb	r2, [r1]
 116:..\u8g2\csrc/u8g2_ll_hvline.c **** 	ptr++;
 706              		.loc 1 116 0 discriminator 1
 707 004e 0131     		adds	r1, r1, #1
 708              	.LVL12:
 118:..\u8g2\csrc/u8g2_ll_hvline.c ****       } while( len != 0 );
 709              		.loc 1 118 0 discriminator 1
 710 0050 002B     		cmp	r3, #0
 711 0052 F6D1     		bne	.L4
 712 0054 21E0     		b	.L1
 713              	.L3:
 119:..\u8g2\csrc/u8g2_ll_hvline.c ****       /*
 120:..\u8g2\csrc/u8g2_ll_hvline.c ****     }
 121:..\u8g2\csrc/u8g2_ll_hvline.c ****     else
 122:..\u8g2\csrc/u8g2_ll_hvline.c ****     {
 123:..\u8g2\csrc/u8g2_ll_hvline.c ****       mask = ~mask;
 124:..\u8g2\csrc/u8g2_ll_hvline.c ****       do
ARM GAS  C:\Users\gjl\AppData\Local\Temp\cccugTJj.s 			page 52


 125:..\u8g2\csrc/u8g2_ll_hvline.c ****       {
 126:..\u8g2\csrc/u8g2_ll_hvline.c **** 	*ptr &= mask;
 127:..\u8g2\csrc/u8g2_ll_hvline.c **** 	ptr++;
 128:..\u8g2\csrc/u8g2_ll_hvline.c **** 	len--;
 129:..\u8g2\csrc/u8g2_ll_hvline.c ****       } while( len != 0 );
 130:..\u8g2\csrc/u8g2_ll_hvline.c ****     }  
 131:..\u8g2\csrc/u8g2_ll_hvline.c ****     */
 132:..\u8g2\csrc/u8g2_ll_hvline.c ****   }
 133:..\u8g2\csrc/u8g2_ll_hvline.c ****   else
 134:..\u8g2\csrc/u8g2_ll_hvline.c ****   {    
 135:..\u8g2\csrc/u8g2_ll_hvline.c ****     do
 136:..\u8g2\csrc/u8g2_ll_hvline.c ****     {
 137:..\u8g2\csrc/u8g2_ll_hvline.c ****       *ptr |= or_mask;
 138:..\u8g2\csrc/u8g2_ll_hvline.c ****       *ptr ^= xor_mask;
 139:..\u8g2\csrc/u8g2_ll_hvline.c ****       /*
 140:..\u8g2\csrc/u8g2_ll_hvline.c ****       if ( u8g2->draw_color != 0 )
 141:..\u8g2\csrc/u8g2_ll_hvline.c ****       {
 142:..\u8g2\csrc/u8g2_ll_hvline.c **** 	*ptr |= mask;
 143:..\u8g2\csrc/u8g2_ll_hvline.c ****       }
 144:..\u8g2\csrc/u8g2_ll_hvline.c ****       else
 145:..\u8g2\csrc/u8g2_ll_hvline.c ****       {
 146:..\u8g2\csrc/u8g2_ll_hvline.c **** 	*ptr &= ~mask;
 147:..\u8g2\csrc/u8g2_ll_hvline.c ****       }
 148:..\u8g2\csrc/u8g2_ll_hvline.c ****       */
 149:..\u8g2\csrc/u8g2_ll_hvline.c ****       
 150:..\u8g2\csrc/u8g2_ll_hvline.c ****       bit_pos++;
 151:..\u8g2\csrc/u8g2_ll_hvline.c ****       bit_pos &= 7;
 152:..\u8g2\csrc/u8g2_ll_hvline.c **** 
 153:..\u8g2\csrc/u8g2_ll_hvline.c ****       len--;
 154:..\u8g2\csrc/u8g2_ll_hvline.c **** 
 155:..\u8g2\csrc/u8g2_ll_hvline.c ****       if ( bit_pos == 0 )
 156:..\u8g2\csrc/u8g2_ll_hvline.c ****       {
 157:..\u8g2\csrc/u8g2_ll_hvline.c **** 	ptr+=u8g2->pixel_buf_width;	/* 6 Jan 17: Changed u8g2->width to u8g2->pixel_buf_width, issue #148 
 714              		.loc 1 157 0
 715 0056 3A22     		movs	r2, #58
 716 0058 9446     		mov	ip, r2
 717 005a 8444     		add	ip, ip, r0
 718              	.LVL13:
 719              	.L7:
 138:..\u8g2\csrc/u8g2_ll_hvline.c ****       /*
 720              		.loc 1 138 0
 721 005c 0A78     		ldrb	r2, [r1]
 150:..\u8g2\csrc/u8g2_ll_hvline.c ****       bit_pos &= 7;
 722              		.loc 1 150 0
 723 005e 0136     		adds	r6, r6, #1
 724              	.LVL14:
 138:..\u8g2\csrc/u8g2_ll_hvline.c ****       /*
 725              		.loc 1 138 0
 726 0060 2A43     		orrs	r2, r5
 727 0062 6240     		eors	r2, r4
 153:..\u8g2\csrc/u8g2_ll_hvline.c **** 
 728              		.loc 1 153 0
 729 0064 013B     		subs	r3, r3, #1
 730              	.LVL15:
 138:..\u8g2\csrc/u8g2_ll_hvline.c ****       /*
 731              		.loc 1 138 0
 732 0066 0A70     		strb	r2, [r1]
ARM GAS  C:\Users\gjl\AppData\Local\Temp\cccugTJj.s 			page 53


 151:..\u8g2\csrc/u8g2_ll_hvline.c **** 
 733              		.loc 1 151 0
 734 0068 3E40     		ands	r6, r7
 735              	.LVL16:
 153:..\u8g2\csrc/u8g2_ll_hvline.c **** 
 736              		.loc 1 153 0
 737 006a DBB2     		uxtb	r3, r3
 738              	.LVL17:
 155:..\u8g2\csrc/u8g2_ll_hvline.c ****       {
 739              		.loc 1 155 0
 740 006c 002E     		cmp	r6, #0
 741 006e 0CD1     		bne	.L5
 742              		.loc 1 157 0
 743 0070 6246     		mov	r2, ip
 744 0072 1278     		ldrb	r2, [r2]
 745 0074 8918     		adds	r1, r1, r2
 746              	.LVL18:
 158:..\u8g2\csrc/u8g2_ll_hvline.c **** 	
 159:..\u8g2\csrc/u8g2_ll_hvline.c **** 	/* another speed optimization, but requires about 60 bytes on AVR */
 160:..\u8g2\csrc/u8g2_ll_hvline.c **** 	/*
 161:..\u8g2\csrc/u8g2_ll_hvline.c **** 	while( len >= 8 )
 162:..\u8g2\csrc/u8g2_ll_hvline.c **** 	{
 163:..\u8g2\csrc/u8g2_ll_hvline.c **** 	  if ( u8g2->draw_color != 0 )
 164:..\u8g2\csrc/u8g2_ll_hvline.c **** 	  {
 165:..\u8g2\csrc/u8g2_ll_hvline.c **** 	    *ptr = 255;
 166:..\u8g2\csrc/u8g2_ll_hvline.c **** 	  }
 167:..\u8g2\csrc/u8g2_ll_hvline.c **** 	  else
 168:..\u8g2\csrc/u8g2_ll_hvline.c **** 	  {
 169:..\u8g2\csrc/u8g2_ll_hvline.c **** 	    *ptr = 0;
 170:..\u8g2\csrc/u8g2_ll_hvline.c **** 	  }
 171:..\u8g2\csrc/u8g2_ll_hvline.c **** 	  len -= 8;
 172:..\u8g2\csrc/u8g2_ll_hvline.c **** 	  ptr+=u8g2->width;
 173:..\u8g2\csrc/u8g2_ll_hvline.c **** 	}
 174:..\u8g2\csrc/u8g2_ll_hvline.c **** 	*/
 175:..\u8g2\csrc/u8g2_ll_hvline.c **** 	
 176:..\u8g2\csrc/u8g2_ll_hvline.c **** 	//mask = 1;
 177:..\u8g2\csrc/u8g2_ll_hvline.c **** 	
 178:..\u8g2\csrc/u8g2_ll_hvline.c **** 	if ( u8g2->draw_color <= 1 )
 747              		.loc 1 178 0
 748 0076 0200     		movs	r2, r0
 749 0078 7C32     		adds	r2, r2, #124
 750 007a 1278     		ldrb	r2, [r2]
 751 007c 012A     		cmp	r2, #1
 752 007e 09D8     		bhi	.L11
 753              	.LVL19:
 179:..\u8g2\csrc/u8g2_ll_hvline.c **** 	  or_mask  = 1;
 754              		.loc 1 179 0
 755 0080 0125     		movs	r5, #1
 180:..\u8g2\csrc/u8g2_ll_hvline.c **** 	if ( u8g2->draw_color != 1 )
 756              		.loc 1 180 0
 757 0082 AA42     		cmp	r2, r5
 758 0084 07D0     		beq	.L6
 181:..\u8g2\csrc/u8g2_ll_hvline.c **** 	  xor_mask = 1;
 759              		.loc 1 181 0
 760 0086 2C00     		movs	r4, r5
 761              	.LVL20:
 762 0088 05E0     		b	.L6
ARM GAS  C:\Users\gjl\AppData\Local\Temp\cccugTJj.s 			page 54


 763              	.LVL21:
 764              	.L5:
 182:..\u8g2\csrc/u8g2_ll_hvline.c ****       }
 183:..\u8g2\csrc/u8g2_ll_hvline.c ****       else
 184:..\u8g2\csrc/u8g2_ll_hvline.c ****       {
 185:..\u8g2\csrc/u8g2_ll_hvline.c **** 	//mask <<= 1;
 186:..\u8g2\csrc/u8g2_ll_hvline.c **** 	or_mask <<= 1;
 765              		.loc 1 186 0
 766 008a 6D00     		lsls	r5, r5, #1
 767              	.LVL22:
 187:..\u8g2\csrc/u8g2_ll_hvline.c **** 	xor_mask <<= 1;
 768              		.loc 1 187 0
 769 008c 6400     		lsls	r4, r4, #1
 770              	.LVL23:
 186:..\u8g2\csrc/u8g2_ll_hvline.c **** 	xor_mask <<= 1;
 771              		.loc 1 186 0
 772 008e EDB2     		uxtb	r5, r5
 773              	.LVL24:
 774              		.loc 1 187 0
 775 0090 E4B2     		uxtb	r4, r4
 776              	.LVL25:
 777 0092 00E0     		b	.L6
 778              	.L11:
 181:..\u8g2\csrc/u8g2_ll_hvline.c ****       }
 779              		.loc 1 181 0
 780 0094 0124     		movs	r4, #1
 781              	.LVL26:
 782              	.L6:
 188:..\u8g2\csrc/u8g2_ll_hvline.c ****       }
 189:..\u8g2\csrc/u8g2_ll_hvline.c ****     } while( len != 0 );
 783              		.loc 1 189 0
 784 0096 002B     		cmp	r3, #0
 785 0098 E0D1     		bne	.L7
 786              	.LVL27:
 787              	.L1:
 190:..\u8g2\csrc/u8g2_ll_hvline.c ****   }
 191:..\u8g2\csrc/u8g2_ll_hvline.c **** }
 788              		.loc 1 191 0
 789              		@ sp needed
 790              	.LVL28:
 791              	.LVL29:
 792 009a F7BD     		pop	{r0, r1, r2, r4, r5, r6, r7, pc}
 793              		.cfi_endproc
 794              	.LFE0:
 795              		.size	u8g2_ll_hvline_vertical_top_lsb, .-u8g2_ll_hvline_vertical_top_lsb
 796              		.section	.text.u8g2_ll_hvline_horizontal_right_lsb,"ax",%progbits
 797              		.align	1
 798              		.global	u8g2_ll_hvline_horizontal_right_lsb
 799              		.code	16
 800              		.thumb_func
 801              		.type	u8g2_ll_hvline_horizontal_right_lsb, %function
 802              	u8g2_ll_hvline_horizontal_right_lsb:
 803              	.LFB1:
 192:..\u8g2\csrc/u8g2_ll_hvline.c **** 
 193:..\u8g2\csrc/u8g2_ll_hvline.c **** 
 194:..\u8g2\csrc/u8g2_ll_hvline.c **** 
 195:..\u8g2\csrc/u8g2_ll_hvline.c **** #else /* U8G2_HVLINE_SPEED_OPTIMIZATION */
ARM GAS  C:\Users\gjl\AppData\Local\Temp\cccugTJj.s 			page 55


 196:..\u8g2\csrc/u8g2_ll_hvline.c **** 
 197:..\u8g2\csrc/u8g2_ll_hvline.c **** /*
 198:..\u8g2\csrc/u8g2_ll_hvline.c ****   x,y position within the buffer
 199:..\u8g2\csrc/u8g2_ll_hvline.c **** */
 200:..\u8g2\csrc/u8g2_ll_hvline.c **** static void u8g2_draw_pixel_vertical_top_lsb(u8g2_t *u8g2, u8g2_uint_t x, u8g2_uint_t y)
 201:..\u8g2\csrc/u8g2_ll_hvline.c **** {
 202:..\u8g2\csrc/u8g2_ll_hvline.c ****   uint16_t offset;
 203:..\u8g2\csrc/u8g2_ll_hvline.c ****   uint8_t *ptr;
 204:..\u8g2\csrc/u8g2_ll_hvline.c ****   uint8_t bit_pos, mask;
 205:..\u8g2\csrc/u8g2_ll_hvline.c ****   
 206:..\u8g2\csrc/u8g2_ll_hvline.c ****   //assert(x >= u8g2->buf_x0);
 207:..\u8g2\csrc/u8g2_ll_hvline.c ****   //assert(x < u8g2_GetU8x8(u8g2)->display_info->tile_width*8);
 208:..\u8g2\csrc/u8g2_ll_hvline.c ****   //assert(y >= u8g2->buf_y0);
 209:..\u8g2\csrc/u8g2_ll_hvline.c ****   //assert(y < u8g2_GetU8x8(u8g2)->display_info->tile_height*8);
 210:..\u8g2\csrc/u8g2_ll_hvline.c ****   
 211:..\u8g2\csrc/u8g2_ll_hvline.c ****   /* bytes are vertical, lsb on top (y=0), msb at bottom (y=7) */
 212:..\u8g2\csrc/u8g2_ll_hvline.c ****   bit_pos = y;		/* overflow truncate is ok here... */
 213:..\u8g2\csrc/u8g2_ll_hvline.c ****   bit_pos &= 7; 	/* ... because only the lowest 3 bits are needed */
 214:..\u8g2\csrc/u8g2_ll_hvline.c ****   mask = 1;
 215:..\u8g2\csrc/u8g2_ll_hvline.c ****   mask <<= bit_pos;
 216:..\u8g2\csrc/u8g2_ll_hvline.c **** 
 217:..\u8g2\csrc/u8g2_ll_hvline.c ****   offset = y;		/* y might be 8 or 16 bit, but we need 16 bit, so use a 16 bit variable */
 218:..\u8g2\csrc/u8g2_ll_hvline.c ****   offset &= ~7;
 219:..\u8g2\csrc/u8g2_ll_hvline.c ****   offset *= u8g2_GetU8x8(u8g2)->display_info->tile_width;
 220:..\u8g2\csrc/u8g2_ll_hvline.c ****   ptr = u8g2->tile_buf_ptr;
 221:..\u8g2\csrc/u8g2_ll_hvline.c ****   ptr += offset;
 222:..\u8g2\csrc/u8g2_ll_hvline.c ****   ptr += x;
 223:..\u8g2\csrc/u8g2_ll_hvline.c **** 
 224:..\u8g2\csrc/u8g2_ll_hvline.c **** 
 225:..\u8g2\csrc/u8g2_ll_hvline.c ****   if ( u8g2->draw_color <= 1 )
 226:..\u8g2\csrc/u8g2_ll_hvline.c ****     *ptr |= mask;
 227:..\u8g2\csrc/u8g2_ll_hvline.c ****   if ( u8g2->draw_color != 1 )
 228:..\u8g2\csrc/u8g2_ll_hvline.c ****     *ptr ^= mask;
 229:..\u8g2\csrc/u8g2_ll_hvline.c **** 
 230:..\u8g2\csrc/u8g2_ll_hvline.c **** /*  
 231:..\u8g2\csrc/u8g2_ll_hvline.c ****   if ( u8g2->draw_color != 0 )
 232:..\u8g2\csrc/u8g2_ll_hvline.c ****   {
 233:..\u8g2\csrc/u8g2_ll_hvline.c ****     *ptr |= mask;
 234:..\u8g2\csrc/u8g2_ll_hvline.c ****   }
 235:..\u8g2\csrc/u8g2_ll_hvline.c ****   else
 236:..\u8g2\csrc/u8g2_ll_hvline.c ****   {
 237:..\u8g2\csrc/u8g2_ll_hvline.c ****     mask ^= 255;
 238:..\u8g2\csrc/u8g2_ll_hvline.c ****     *ptr &= mask;
 239:..\u8g2\csrc/u8g2_ll_hvline.c ****   }
 240:..\u8g2\csrc/u8g2_ll_hvline.c **** */  
 241:..\u8g2\csrc/u8g2_ll_hvline.c **** }
 242:..\u8g2\csrc/u8g2_ll_hvline.c **** 
 243:..\u8g2\csrc/u8g2_ll_hvline.c **** /*
 244:..\u8g2\csrc/u8g2_ll_hvline.c ****   x,y		Upper left position of the line within the local buffer (not the display!)
 245:..\u8g2\csrc/u8g2_ll_hvline.c ****   len		length of the line in pixel, len must not be 0
 246:..\u8g2\csrc/u8g2_ll_hvline.c ****   dir		0: horizontal line (left to right)
 247:..\u8g2\csrc/u8g2_ll_hvline.c **** 		1: vertical line (top to bottom)
 248:..\u8g2\csrc/u8g2_ll_hvline.c ****   asumption: 
 249:..\u8g2\csrc/u8g2_ll_hvline.c ****     all clipping done
 250:..\u8g2\csrc/u8g2_ll_hvline.c **** */
 251:..\u8g2\csrc/u8g2_ll_hvline.c **** void u8g2_ll_hvline_vertical_top_lsb(u8g2_t *u8g2, u8g2_uint_t x, u8g2_uint_t y, u8g2_uint_t len, u
 252:..\u8g2\csrc/u8g2_ll_hvline.c **** {
ARM GAS  C:\Users\gjl\AppData\Local\Temp\cccugTJj.s 			page 56


 253:..\u8g2\csrc/u8g2_ll_hvline.c ****   if ( dir == 0 )
 254:..\u8g2\csrc/u8g2_ll_hvline.c ****   {
 255:..\u8g2\csrc/u8g2_ll_hvline.c ****     do
 256:..\u8g2\csrc/u8g2_ll_hvline.c ****     {
 257:..\u8g2\csrc/u8g2_ll_hvline.c ****       u8g2_draw_pixel_vertical_top_lsb(u8g2, x, y);
 258:..\u8g2\csrc/u8g2_ll_hvline.c ****       x++;
 259:..\u8g2\csrc/u8g2_ll_hvline.c ****       len--;
 260:..\u8g2\csrc/u8g2_ll_hvline.c ****     } while( len != 0 );
 261:..\u8g2\csrc/u8g2_ll_hvline.c ****   }
 262:..\u8g2\csrc/u8g2_ll_hvline.c ****   else
 263:..\u8g2\csrc/u8g2_ll_hvline.c ****   {
 264:..\u8g2\csrc/u8g2_ll_hvline.c ****     do
 265:..\u8g2\csrc/u8g2_ll_hvline.c ****     {
 266:..\u8g2\csrc/u8g2_ll_hvline.c ****       u8g2_draw_pixel_vertical_top_lsb(u8g2, x, y);
 267:..\u8g2\csrc/u8g2_ll_hvline.c ****       y++;
 268:..\u8g2\csrc/u8g2_ll_hvline.c ****       len--;
 269:..\u8g2\csrc/u8g2_ll_hvline.c ****     } while( len != 0 );
 270:..\u8g2\csrc/u8g2_ll_hvline.c ****   }
 271:..\u8g2\csrc/u8g2_ll_hvline.c **** }
 272:..\u8g2\csrc/u8g2_ll_hvline.c **** 
 273:..\u8g2\csrc/u8g2_ll_hvline.c **** 
 274:..\u8g2\csrc/u8g2_ll_hvline.c **** #endif /* U8G2_HVLINE_SPEED_OPTIMIZATION */
 275:..\u8g2\csrc/u8g2_ll_hvline.c **** 
 276:..\u8g2\csrc/u8g2_ll_hvline.c **** /*=================================================*/
 277:..\u8g2\csrc/u8g2_ll_hvline.c **** /*
 278:..\u8g2\csrc/u8g2_ll_hvline.c ****   u8g2_ll_hvline_horizontal_right_lsb
 279:..\u8g2\csrc/u8g2_ll_hvline.c ****     ST7920
 280:..\u8g2\csrc/u8g2_ll_hvline.c **** */
 281:..\u8g2\csrc/u8g2_ll_hvline.c **** 
 282:..\u8g2\csrc/u8g2_ll_hvline.c **** #ifdef U8G2_HVLINE_SPEED_OPTIMIZATION
 283:..\u8g2\csrc/u8g2_ll_hvline.c **** 
 284:..\u8g2\csrc/u8g2_ll_hvline.c **** /*
 285:..\u8g2\csrc/u8g2_ll_hvline.c ****   x,y		Upper left position of the line within the local buffer (not the display!)
 286:..\u8g2\csrc/u8g2_ll_hvline.c ****   len		length of the line in pixel, len must not be 0
 287:..\u8g2\csrc/u8g2_ll_hvline.c ****   dir		0: horizontal line (left to right)
 288:..\u8g2\csrc/u8g2_ll_hvline.c **** 		1: vertical line (top to bottom)
 289:..\u8g2\csrc/u8g2_ll_hvline.c ****   asumption: 
 290:..\u8g2\csrc/u8g2_ll_hvline.c ****     all clipping done
 291:..\u8g2\csrc/u8g2_ll_hvline.c **** */
 292:..\u8g2\csrc/u8g2_ll_hvline.c **** 
 293:..\u8g2\csrc/u8g2_ll_hvline.c **** void u8g2_ll_hvline_horizontal_right_lsb(u8g2_t *u8g2, u8g2_uint_t x, u8g2_uint_t y, u8g2_uint_t le
 294:..\u8g2\csrc/u8g2_ll_hvline.c **** {
 804              		.loc 1 294 0
 805              		.cfi_startproc
 806              		@ args = 4, pretend = 0, frame = 0
 807              		@ frame_needed = 0, uses_anonymous_args = 0
 808              	.LVL30:
 809 0000 F0B5     		push	{r4, r5, r6, r7, lr}
 810              		.cfi_def_cfa_offset 20
 811              		.cfi_offset 4, -20
 812              		.cfi_offset 5, -16
 813              		.cfi_offset 6, -12
 814              		.cfi_offset 7, -8
 815              		.cfi_offset 14, -4
 816              		.loc 1 294 0
 817 0002 05AC     		add	r4, sp, #20
 818              	.LVL31:
ARM GAS  C:\Users\gjl\AppData\Local\Temp\cccugTJj.s 			page 57


 819 0004 2678     		ldrb	r6, [r4]
 295:..\u8g2\csrc/u8g2_ll_hvline.c ****   uint16_t offset;
 296:..\u8g2\csrc/u8g2_ll_hvline.c ****   uint8_t *ptr;
 297:..\u8g2\csrc/u8g2_ll_hvline.c ****   uint8_t bit_pos;
 298:..\u8g2\csrc/u8g2_ll_hvline.c ****   uint8_t mask;
 299:..\u8g2\csrc/u8g2_ll_hvline.c ****   uint8_t tile_width = u8g2_GetU8x8(u8g2)->display_info->tile_width;
 820              		.loc 1 299 0
 821 0006 0468     		ldr	r4, [r0]
 822              	.LVL32:
 300:..\u8g2\csrc/u8g2_ll_hvline.c **** 
 301:..\u8g2\csrc/u8g2_ll_hvline.c ****   bit_pos = x;		/* overflow truncate is ok here... */
 302:..\u8g2\csrc/u8g2_ll_hvline.c ****   bit_pos &= 7; 	/* ... because only the lowest 3 bits are needed */
 303:..\u8g2\csrc/u8g2_ll_hvline.c ****   mask = 128;
 304:..\u8g2\csrc/u8g2_ll_hvline.c ****   mask >>= bit_pos;
 823              		.loc 1 304 0
 824 0008 0727     		movs	r7, #7
 299:..\u8g2\csrc/u8g2_ll_hvline.c **** 
 825              		.loc 1 299 0
 826 000a 257C     		ldrb	r5, [r4, #16]
 827              	.LVL33:
 828              		.loc 1 304 0
 829 000c 8024     		movs	r4, #128
 830 000e 0F40     		ands	r7, r1
 831 0010 3C41     		asrs	r4, r4, r7
 305:..\u8g2\csrc/u8g2_ll_hvline.c **** 
 306:..\u8g2\csrc/u8g2_ll_hvline.c ****   offset = y;		/* y might be 8 or 16 bit, but we need 16 bit, so use a 16 bit variable */
 307:..\u8g2\csrc/u8g2_ll_hvline.c ****   offset *= tile_width;
 832              		.loc 1 307 0
 833 0012 6A43     		muls	r2, r5
 834              	.LVL34:
 308:..\u8g2\csrc/u8g2_ll_hvline.c ****   offset += x>>3;
 309:..\u8g2\csrc/u8g2_ll_hvline.c ****   ptr = u8g2->tile_buf_ptr;
 310:..\u8g2\csrc/u8g2_ll_hvline.c ****   ptr += offset;
 835              		.loc 1 310 0
 836 0014 C908     		lsrs	r1, r1, #3
 837              	.LVL35:
 838 0016 5218     		adds	r2, r2, r1
 839 0018 416B     		ldr	r1, [r0, #52]
 840 001a 92B2     		uxth	r2, r2
 304:..\u8g2\csrc/u8g2_ll_hvline.c **** 
 841              		.loc 1 304 0
 842 001c E4B2     		uxtb	r4, r4
 843              	.LVL36:
 844              		.loc 1 310 0
 845 001e 8A18     		adds	r2, r1, r2
 846              	.LVL37:
 847 0020 7C30     		adds	r0, r0, #124
 848              	.LVL38:
 311:..\u8g2\csrc/u8g2_ll_hvline.c ****   
 312:..\u8g2\csrc/u8g2_ll_hvline.c ****   if ( dir == 0 )
 849              		.loc 1 312 0
 850 0022 002E     		cmp	r6, #0
 851 0024 1FD1     		bne	.L25
 852              	.L22:
 313:..\u8g2\csrc/u8g2_ll_hvline.c ****   {
 314:..\u8g2\csrc/u8g2_ll_hvline.c ****       
 315:..\u8g2\csrc/u8g2_ll_hvline.c ****     do
ARM GAS  C:\Users\gjl\AppData\Local\Temp\cccugTJj.s 			page 58


 316:..\u8g2\csrc/u8g2_ll_hvline.c ****     {
 317:..\u8g2\csrc/u8g2_ll_hvline.c **** 
 318:..\u8g2\csrc/u8g2_ll_hvline.c ****       if ( u8g2->draw_color <= 1 )
 853              		.loc 1 318 0
 854 0026 0178     		ldrb	r1, [r0]
 855 0028 0129     		cmp	r1, #1
 856 002a 02D8     		bhi	.L19
 319:..\u8g2\csrc/u8g2_ll_hvline.c **** 	*ptr |= mask;
 857              		.loc 1 319 0
 858 002c 1178     		ldrb	r1, [r2]
 859 002e 2143     		orrs	r1, r4
 860 0030 1170     		strb	r1, [r2]
 861              	.L19:
 320:..\u8g2\csrc/u8g2_ll_hvline.c ****       if ( u8g2->draw_color != 1 )
 862              		.loc 1 320 0
 863 0032 0178     		ldrb	r1, [r0]
 864 0034 0129     		cmp	r1, #1
 865 0036 02D0     		beq	.L20
 321:..\u8g2\csrc/u8g2_ll_hvline.c **** 	*ptr ^= mask;
 866              		.loc 1 321 0
 867 0038 1178     		ldrb	r1, [r2]
 868 003a 6140     		eors	r1, r4
 869 003c 1170     		strb	r1, [r2]
 870              	.L20:
 322:..\u8g2\csrc/u8g2_ll_hvline.c ****       
 323:..\u8g2\csrc/u8g2_ll_hvline.c ****       mask >>= 1;
 871              		.loc 1 323 0
 872 003e 6408     		lsrs	r4, r4, #1
 873              	.LVL39:
 324:..\u8g2\csrc/u8g2_ll_hvline.c ****       if ( mask == 0 )
 874              		.loc 1 324 0
 875 0040 01D1     		bne	.L21
 876              	.LVL40:
 325:..\u8g2\csrc/u8g2_ll_hvline.c ****       {
 326:..\u8g2\csrc/u8g2_ll_hvline.c **** 	mask = 128;
 327:..\u8g2\csrc/u8g2_ll_hvline.c ****         ptr++;
 877              		.loc 1 327 0
 878 0042 0132     		adds	r2, r2, #1
 879              	.LVL41:
 326:..\u8g2\csrc/u8g2_ll_hvline.c ****         ptr++;
 880              		.loc 1 326 0
 881 0044 8034     		adds	r4, r4, #128
 882              	.LVL42:
 883              	.L21:
 328:..\u8g2\csrc/u8g2_ll_hvline.c ****       }
 329:..\u8g2\csrc/u8g2_ll_hvline.c ****       
 330:..\u8g2\csrc/u8g2_ll_hvline.c ****       //x++;
 331:..\u8g2\csrc/u8g2_ll_hvline.c ****       len--;
 884              		.loc 1 331 0
 885 0046 013B     		subs	r3, r3, #1
 886              	.LVL43:
 887 0048 DBB2     		uxtb	r3, r3
 888              	.LVL44:
 332:..\u8g2\csrc/u8g2_ll_hvline.c ****     } while( len != 0 );
 889              		.loc 1 332 0
 890 004a 002B     		cmp	r3, #0
 891 004c EBD1     		bne	.L22
ARM GAS  C:\Users\gjl\AppData\Local\Temp\cccugTJj.s 			page 59


 892 004e 11E0     		b	.L17
 893              	.L23:
 333:..\u8g2\csrc/u8g2_ll_hvline.c ****   }
 334:..\u8g2\csrc/u8g2_ll_hvline.c ****   else
 335:..\u8g2\csrc/u8g2_ll_hvline.c ****   {
 336:..\u8g2\csrc/u8g2_ll_hvline.c ****     do
 337:..\u8g2\csrc/u8g2_ll_hvline.c ****     {
 338:..\u8g2\csrc/u8g2_ll_hvline.c ****       if ( u8g2->draw_color <= 1 )
 339:..\u8g2\csrc/u8g2_ll_hvline.c **** 	*ptr |= mask;
 340:..\u8g2\csrc/u8g2_ll_hvline.c ****       if ( u8g2->draw_color != 1 )
 894              		.loc 1 340 0
 895 0050 0178     		ldrb	r1, [r0]
 896 0052 0129     		cmp	r1, #1
 897 0054 02D0     		beq	.L24
 341:..\u8g2\csrc/u8g2_ll_hvline.c **** 	*ptr ^= mask;
 898              		.loc 1 341 0
 899 0056 1178     		ldrb	r1, [r2]
 900 0058 6140     		eors	r1, r4
 901 005a 1170     		strb	r1, [r2]
 902              	.L24:
 342:..\u8g2\csrc/u8g2_ll_hvline.c ****       
 343:..\u8g2\csrc/u8g2_ll_hvline.c ****       ptr += tile_width;
 344:..\u8g2\csrc/u8g2_ll_hvline.c ****       //y++;
 345:..\u8g2\csrc/u8g2_ll_hvline.c ****       len--;
 903              		.loc 1 345 0
 904 005c 013B     		subs	r3, r3, #1
 905              	.LVL45:
 906 005e DBB2     		uxtb	r3, r3
 907 0060 5219     		adds	r2, r2, r5
 908              	.LVL46:
 346:..\u8g2\csrc/u8g2_ll_hvline.c ****     } while( len != 0 );
 909              		.loc 1 346 0
 910 0062 002B     		cmp	r3, #0
 911 0064 06D0     		beq	.L17
 912              	.L25:
 338:..\u8g2\csrc/u8g2_ll_hvline.c **** 	*ptr |= mask;
 913              		.loc 1 338 0
 914 0066 0178     		ldrb	r1, [r0]
 915 0068 0129     		cmp	r1, #1
 916 006a F1D8     		bhi	.L23
 339:..\u8g2\csrc/u8g2_ll_hvline.c ****       if ( u8g2->draw_color != 1 )
 917              		.loc 1 339 0
 918 006c 1178     		ldrb	r1, [r2]
 919 006e 2143     		orrs	r1, r4
 920 0070 1170     		strb	r1, [r2]
 921 0072 EDE7     		b	.L23
 922              	.L17:
 347:..\u8g2\csrc/u8g2_ll_hvline.c ****   }
 348:..\u8g2\csrc/u8g2_ll_hvline.c **** }
 923              		.loc 1 348 0
 924              		@ sp needed
 925              	.LVL47:
 926              	.LVL48:
 927 0074 F0BD     		pop	{r4, r5, r6, r7, pc}
 928              		.cfi_endproc
 929              	.LFE1:
 930              		.size	u8g2_ll_hvline_horizontal_right_lsb, .-u8g2_ll_hvline_horizontal_right_lsb
ARM GAS  C:\Users\gjl\AppData\Local\Temp\cccugTJj.s 			page 60


 931              		.text
 932              	.Letext0:
 933              		.file 2 "c:\\program files (x86)\\cypress\\psoc creator\\4.1\\psoc creator\\import\\gnu\\arm\\5.4.
 934              		.file 3 "c:\\program files (x86)\\cypress\\psoc creator\\4.1\\psoc creator\\import\\gnu\\arm\\5.4.
 935              		.file 4 "..\\u8g2\\csrc\\u8x8.h"
 936              		.file 5 "..\\u8g2\\csrc\\u8g2.h"