ARM GAS  C:\Users\gjl\AppData\Local\Temp\ccksrccj.s 			page 1


   1              		.syntax unified
   2              		.cpu cortex-m0
   3              		.fpu softvfp
   4              		.eabi_attribute 20, 1
   5              		.eabi_attribute 21, 1
   6              		.eabi_attribute 23, 3
   7              		.eabi_attribute 24, 1
   8              		.eabi_attribute 25, 1
   9              		.eabi_attribute 26, 1
  10              		.eabi_attribute 30, 4
  11              		.eabi_attribute 34, 0
  12              		.eabi_attribute 18, 4
  13              		.thumb
  14              		.syntax unified
  15              		.file	"u8x8_debounce.c"
  16              		.text
  17              	.Ltext0:
  18              		.section	.gnu.lto_.profile.50a24282,"",%progbits
  19 0000 789C6361 		.ascii	"x\234ca`d`a`\000\222\241\326\000\001O\000\233"
  19      60646061 
  19      600092A1 
  19      D600014F 
  19      009B
  20              		.text
  21              		.section	.gnu.lto_.icf.50a24282,"",%progbits
  22 0000 789C6361 		.ascii	"x\234ca`d\000\001a\006\004`f\270\330tk\013\017\343\233"
  22      60640001 
  22      61060460 
  22      66B8D874 
  22      6B0B0FE3 
  23 0015 BDB726F3 		.ascii	"\275\267&\3632\255\331\366\336\234\001\000XS\010\267"
  23      32ADD9F6 
  23      DE9C0100 
  23      585308B7 
  24              		.text
  25              		.section	.gnu.lto_.jmpfuncs.50a24282,"",%progbits
  26 0000 789C6361 		.ascii	"x\234ca`d\000\201p\006\004`f`bdd\256\257g\004\202z6"
  26      60640081 
  26      70060460 
  26      66606264 
  26      64AEAF67 
  27 0018 A64A0606 		.ascii	"\246J\006\006F\306\005L\177\231\030\267\266\237\331"
  27      46C6054C 
  27      7F9918B7 
  27      B69FD9
  28 0027 C8F585A9 		.ascii	"\310\365\205\251\225\031(\300\270\234Q\006\244\230\021"
  28      951928C0 
  28      B89C5106 
  28      A49811
  29 0036 283EADF5 		.ascii	"(>\255\365\320yv\2108\003\343\012\2208\023H+\013\304"
  29      D0797688 
  29      3803E30A 
  29      90381348 
  29      2B0BC4
  30 0049 3826A009 		.ascii	"8&\240\011 K\000(\357\020\024"
  30      204B0028 
  30      EF1014
ARM GAS  C:\Users\gjl\AppData\Local\Temp\ccksrccj.s 			page 2


  31              		.text
  32              		.section	.gnu.lto_.inline.50a24282,"",%progbits
  33 0000 789C6361 		.ascii	"x\234ca`d\000\201t\006\004`f`\340\326ddb\340\000J1\202"
  33      60640081 
  33      74060460 
  33      6660E0D6 
  33      646462E0 
  34 0018 0866BE05 		.ascii	"\010f\276\005\275,\014l\013\344\231\030\230\016\371"
  34      BD2C0C6C 
  34      0BE49918 
  34      980EF9
  35 0027 F080D430 		.ascii	"\360\200\32402\010t0220\011|\350ac\340\370U\303\004"
  35      32087430 
  35      32323009 
  35      7CE86163 
  35      E0F855C3 
  36 003c 1264E165 		.ascii	"\022d\341ed`n\346\235\340\307\300\304\240&\001\224\325"
  36      64606EE6 
  36      9DE0C7C0 
  36      C4A02601 
  36      94D5
  37 004e F953C020 		.ascii	"\371S\300 \264\304\024*\311\300\3004\301o\202\0373\320"
  37      B4C4142A 
  37      C9C0C034 
  37      C16F821F 
  37      33D0
  38 0060 0046A01A 		.ascii	"\000F\240\032\000\265k\016\226"
  38      00B56B0E 
  38      96
  39              		.text
  40              		.section	.gnu.lto_.pureconst.50a24282,"",%progbits
  41 0000 789C6361 		.ascii	"x\234ca`d`g```f``\224b\222\002\000\001*\000G"
  41      60646067 
  41      60606066 
  41      60609462 
  41      92020001 
  42              		.text
  43              		.section	.gnu.lto_u8x8_find_first_diff.50a24282,"",%progbits
  44 0000 789C6D52 		.ascii	"x\234mR\315KTQ\024\277\347\236\367\256oF\307Z\270ha"
  44      CD4B5451 
  44      14BFE79E 
  44      F7AE6F46 
  44      C75AB868 
  45 0015 20D124B6 		.ascii	" \321$\266\220\276\026\256\202\376\205\226b\204N\222"
  45      90BE16AE 
  45      82FE8596 
  45      62844E92 
  46 0025 11152482 		.ascii	"\021\025$\202\273\256\276\351E`\220\221\232 \030\224"
  46      BBAEBEE9 
  46      45609091 
  46      9A201894 
  47 0035 69A68DD3 		.ascii	"i\246\215\323hPA<?\232\"\007#\2026mlbZT\224#}\220\230"
  47      6850413C 
  47      3F9A2207 
  47      2382366D 
  47      6C625A54 
  48 004e D339F7CD 		.ascii	"\3239\367\315\224P\027f\356\327\357\353\234\373,\001"
ARM GAS  C:\Users\gjl\AppData\Local\Temp\ccksrccj.s 			page 3


  48      94501766 
  48      EED7EFEB 
  48      9CFB2C01 
  49 005e 82471485 		.ascii	"\202G\024\205\330Ms#\375\240L\200\274\274$D\227#\001"
  49      D84D7323 
  49      FDA04C80 
  49      BCBC2444 
  49      972301
  50 0071 83054A7B 		.ascii	"\203\005J{\016\205\016[K\317\205\320\025\226T\227fi"
  50      0E850E5B 
  50      4BCF85D0 
  50      15965497 
  50      6669
  51 0083 11B6DD08 		.ascii	"\021\266\335\010mU\000;d\003\360\254\035\020\347$Z\312"
  51      6D55003B 
  51      6403F0AC 
  51      1D10E724 
  51      5ACA
  52 0095 069A04F8 		.ascii	"\006\232\004\370\026\330\306\345\233\374%a\361\307\263"
  52      16D8C6E5 
  52      9BFC2561 
  52      F1C7B3
  53 00a4 9E70DDA8 		.ascii	"\236p\335\250\326\335z97\\50\346\303yr/H\001\373\253"
  53      D6DD7A39 
  53      375C3530 
  53      E6C37972 
  53      2F4801FB 
  54 00b9 614F3527 		.ascii	"aO5'\030\205:B.\367\334\237\214`\015\010Z?\271\036\177"
  54      18853A42 
  54      2EF7DC9F 
  54      8C600D08 
  54      5A3FB91E 
  55 00ce 59593BC2 		.ascii	"YY;\302,\375\350\210F\242\300\030\340_\026k\300m\250"
  55      2CFDE888 
  55      46A2C018 
  55      E05F166B 
  55      C06DA8
  56 00e1 25EC9037 		.ascii	"%\354\2207\236C\334ax\037\275\325\317%^\276\310\033"
  56      9E43DC61 
  56      781FBDD5 
  56      CF255EBE 
  56      C81B
  57 00f3 FF877707 		.ascii	"\377\207w\007j\031<\2628\377\270\022w\032\342\315\354"
  57      6A193CB2 
  57      38FFB812 
  57      771AE2CD 
  57      EC
  58 0104 F0558CDE 		.ascii	"\360U\214\336`\242\337\227\216\014h\277\253\206\311"
  58      60A2DF97 
  58      8E0C68BF 
  58      AB86C9
  59 0113 139BC93C 		.ascii	"\023\233\311<\010[\2705u\321\301]\2067\367}\271\327"
  59      085BB835 
  59      75D1C15D 
  59      8637F77D 
  59      B9D7
  60 0125 2AF2AEA4 		.ascii	"*\362\256\244\313\365\224v\230v\367?\264lr\243/\242"
ARM GAS  C:\Users\gjl\AppData\Local\Temp\ccksrccj.s 			page 4


  60      CBF59476 
  60      9876F73F 
  60      B46C72A3 
  60      2FA2
  61 0137 E29A460D 		.ascii	"\342\232F\015$ \012\223\020\345>P\240)P\3640\262t\232"
  61      24200A93 
  61      10E53E50 
  61      A02950F4 
  61      30B2749A 
  62 014b 38ECEB42 		.ascii	"8\354\353B\301\325~\257\232}\250\312A\360\005\311\321"
  62      C1D57EAF 
  62      9A7DA8CA 
  62      41F005C9 
  62      D1
  63 015c 15720596 		.ascii	"\025r\005\226YR\373\251\001\012\270\2342:\006\207\377"
  63      5952FBA9 
  63      010AB89C 
  63      323A0687 
  63      FF
  64 016d 42062CC4 		.ascii	"B\006,\304\012\011\257m\021y)i\302,t\373\003^\2051\242"
  64      0A09AF6D 
  64      11792969 
  64      C22C74FB 
  64      035E8531 
  65 0182 6B4A3373 		.ascii	"kJ3s!\223\014\177\225\034\026 \011\325\202!\203ii \223"
  65      21930C7F 
  65      951C1620 
  65      09D58221 
  65      83696920 
  66 0197 06921B9B 		.ascii	"\006\222\033\233\177W\204(\270\007\\H\236\036\230\336"
  66      7F578428 
  66      B8075C48 
  66      9E1E98DE 
  67 01a7 9CF5B69A 		.ascii	"\234\365\266\232\020.J\021l\022\274\001\361\036\334"
  67      102E4A11 
  67      6C12BC01 
  67      F11EDC
  68 01b6 7E6FE39A 		.ascii	"~o\343\232\261r\321\242{Rz\345.\274\300@\251\000\220"
  68      B172D1A2 
  68      7B527AE5 
  68      2EBCC040 
  68      A90090
  69 01c9 326E7F9C 		.ascii	"2n\177\234\010\305\2545/=\330\030\260\312\\\264]T|\272"
  69      08C5AC35 
  69      2F3DD818 
  69      B0CA5CB4 
  69      5D547CBA 
  70 01dd AE822387 		.ascii	"\256\202#\207\264\351B\274\205\370\033\267\245xF\312"
  70      B4E942BC 
  70      85F81BB7 
  70      A57846CA 
  71 01ed 894F0F7E 		.ascii	"\211O\017~FX\031\250K\323&\243X\015*\222\323{]\014\251"
  71      465819A8 
  71      4BD326A3 
  71      580D2A92 
  71      D37B5D0C 
  72 0202 8954DB2A 		.ascii	"\211T\333*\231Q~\231IV\221\231ZOn\243B,A\0377\222\305"
ARM GAS  C:\Users\gjl\AppData\Local\Temp\ccksrccj.s 			page 5


  72      99517E99 
  72      49569199 
  72      5A4F6EA3 
  72      422C411F 
  73 0219 8AF77AF0 		.ascii	"\212\367z\360@\240\030\"\027\022\235^x\3529,*IifSZS"
  73      40A01822 
  73      17129D5E 
  73      78EA392C 
  73      2A496966 
  74 0230 632808F1 		.ascii	"c(\010\361\245\007\2135\226|\251\347J\364\037\204\274"
  74      A5078B35 
  74      967CA9E7 
  74      4AF41F84 
  74      BC
  75 0241 B4B9E71F 		.ascii	"\264\271\347\037\270-.\242I\204\204\303\241T'\347\260"
  75      B82D2EA2 
  75      498484C3 
  75      A15427E7 
  75      B0
  76 0252 32A936C2 		.ascii	"2\2516\302\002\201\350\221\266\327\3277u4\034\337\327"
  76      0281E891 
  76      B6D7D737 
  76      75341CDF 
  76      D7
  77 0263 146B3F1B 		.ascii	"\024k?\033\243Ug\303\321c\255-g:N\307Z\353c\002\232"
  77      A35567C3 
  77      D163AD2D 
  77      673A4EC7 
  77      5AEB6302 
  78 0278 A1054E58 		.ascii	"\241\005NX\247\232\333O\376\006\372\216\010{"
  78      A79ADB4F 
  78      FE06FA8E 
  78      087B
  79              		.text
  80              		.section	.gnu.lto_u8x8_read_pin_state.50a24282,"",%progbits
  81 0000 789C7553 		.ascii	"x\234uS\315KTQ\024?\347\336\367\346{\306\011Z\032\270"
  81      CD4B5451 
  81      143FE7DE 
  81      F7E67BC6 
  81      095A1AB8 
  82 0014 11116A46 		.ascii	"\021\021jFr\343\262\377 h\321\312\220\232$f\221E*\264"
  82      72E3B2FF 
  82      2068D1CA 
  82      909A2466 
  82      91452AB4 
  83 0028 F339CF51 		.ascii	"\3639\317Q\027-\\\244B\024\026&Z\346W~5\2321\231dhe"
  83      172D5CA4 
  83      42141626 
  83      5AE6577E 
  83      359A3199 
  84 003f 91AB72A1 		.ascii	"\221\253r\241V\022\331\307\314`\032\244N\347\334\353"
  84      5612D9C7 
  84      CC601AA4 
  84      4EE7DCEB 
  85 004f 90410DCC 		.ascii	"\220A\015\314y\367\236\367;\277\363;\277{\237\001\010"
  85      79F79EF7 
  85      3BBFF33B 
ARM GAS  C:\Users\gjl\AppData\Local\Temp\ccksrccj.s 			page 6


  85      BF7B9F01 
  85      08
  86 0060 FC3B6C00 		.ascii	"\374;l\000\224\320\3638\375\321\001(Z^\002\324\273\004"
  86      94D0F338 
  86      FDD10128 
  86      5A5E02D4 
  86      BB04
  87 0072 1A7A21F5 		.ascii	"\032z!\365\342\261\313\020\362\3274\200\3451[\275`\371"
  87      E2B1CB10 
  87      F2D73480 
  87      E5315BBD 
  87      60F9
  88 0084 4C44CE5B 		.ascii	"LD\316[.\204:!\015\023\353\204\001\2304\320\241\002"
  88      2E843A21 
  88      0D13EB84 
  88      019834D0 
  88      A102
  89 0096 53FF103B 		.ascii	"S\377\020;\002\347\267\236]\361\024w[V\314Z\216\267"
  89      02E7B79E 
  89      5DF11477 
  89      5B56CC5A 
  89      8EB7
  90 00a8 1D6CEF49 		.ascii	"\035l\357Ib\\\002d\005`i>\226\344s\333n,&\344\353\206"
  90      625C0264 
  90      0560693E 
  90      96E473DB 
  90      6E2C26E4 
  91 00be C1EB7243 		.ascii	"\301\353rC\304%\242A\333\364\213k\357\003\274\025X@"
  91      C425A241 
  91      DBF48B6B 
  91      EF03BC15 
  91      5840
  92 00d0 DB9B8B9D 		.ascii	"\333\233\213\235K\016Y\200@\353\266\271\305o\376\242"
  92      4B0E5980 
  92      40EBB6B9 
  92      C56FFEA2 
  93 00e0 2EE6B412 		.ascii	".\346\264\022\225\226;.%\336E\311\234w0\037{0\037(\005"
  93      95963B2E 
  93      25DE45C9 
  93      9C77301F 
  93      7B301F28 
  94 00f5 D88B450C 		.ascii	"\330\213E\014\267\273\373*d\241\252l\271yk\331]\330"
  94      B7BBFB2A 
  94      64A1AA6C 
  94      B9796BD9 
  94      5DD8
  95 0107 C995C9F1 		.ascii	"\311\225\311\361\363\355V\262\276\200\324\340=]\234"
  95      F3ED56B2 
  95      BE80D4E0 
  95      3D5D9C
  96 0116 13040CED 		.ascii	"\023\004\014\355\232\177\362( \303\252\354\366j\307"
  96      9A7FF228 
  96      20C3AAEC 
  96      F66AC7
  97 0125 55B95736 		.ascii	"U\271W6r\312\262\217qQ\377?\212V\207v[\375\216\006\213"
  97      72CAB28F 
  97      7151FF3F 
ARM GAS  C:\Users\gjl\AppData\Local\Temp\ccksrccj.s 			page 7


  97      8A568776 
  97      5BFD8E06 
  98 013a 7E053880 		.ascii	"~\0058\200\205\330\207\205<+\0159H\316\000\210\\v\340"
  98      85D88785 
  98      3C2B0D39 
  98      48CE0088 
  98      5C76E0
  99 014d 44D2CA66 		.ascii	"D\322\312fm+9l~\224\007\0208Ol\364\306T\321\201,\337"
  99      6D2B396C 
  99      7E940710 
  99      384F6CF4 
  99      C654D181 
 100 0163 4583181E 		.ascii	"E\203\030\036\016^\012\246\217\203\237C\200C\236B\006"
 100      0E5E0AA6 
 100      8F839F43 
 100      80439E42 
 100      06
 101 0174 552D408A 		.ascii	"U-@\212\332\320\321\244\205\240\207\\\305Xr\262Vu%\014"
 101      DAD0D1A4 
 101      85A0875C 
 101      C55872B2 
 101      5675250C 
 102 0188 497B63CF 		.ascii	"I{c\317,({\001\263\210C\344\021C\246\242\0122\240 m"
 102      2C287B01 
 102      B38843E4 
 102      1143A6A2 
 102      0A32A020 
 103 019d F1E905A7 		.ascii	"\361\351\005\247\206\000\336G\236*-$\320\261\3135\264"
 103      8600DE47 
 103      9E2A2D24 
 103      D0B1CB35 
 103      B4
 104 01ae 538D4F37 		.ascii	"S\215O7%\243mi\332\222\317vdf\266\321\305x\022\213\303"
 104      25A36D69 
 104      DA92CF76 
 104      6466B6D1 
 104      C578128B 
 105 01c3 8A51E43A 		.ascii	"\212Q\344:\022\010\3260\266\221\032\015sj?\273T\236"
 105      1208D630 
 105      B6911A0D 
 105      736A3FBB 
 105      549E
 106 01d5 6ECDCE35 		.ascii	"n\315\3165\373:\360F=\233UJ\3438m\342\031\341\256\354"
 106      FB3AF046 
 106      3D9B554A 
 106      E3386DE2 
 106      19E1AEEC 
 107 01e9 FE8758BF 		.ascii	"\376\207X\2773|\204\245\214b\007\356\262\205\200c\030"
 107      337C84A5 
 107      8C6207EE 
 107      B2858063 
 107      18
 108 01fa A677A34D 		.ascii	"\246w\243M\317\207<Z&\3428\025\220\270\266\306\265\223"
 108      CF873C5A 
 108      26E23815 
 108      90B8B6C6 
 108      B593
ARM GAS  C:\Users\gjl\AppData\Local\Temp\ccksrccj.s 			page 8


 109 020c 5A9BCB96 		.ascii	"Z\233\313\226H\240\267\333\3373>\015z\005\370\200P\237"
 109      48A0B7DB 
 109      DF333E0D 
 109      7A05F880 
 109      509F
 110 021e 48182198 		.ascii	"H\030!\230=\221\370\362\316Y\267c5[V0.]YA'\203\011\254"
 110      3D91F8F2 
 110      CE59B763 
 110      355B5630 
 110      2E5D5941 
 111 0236 0392400C 		.ascii	"\003\222@\014<{\\\272Y\377Dz,\244y=\3734\343\377\325"
 111      3C7B5CBA 
 111      59FF447A 
 111      2CA4793D 
 111      FB34E3FF 
 112 024b 4EFC513B 		.ascii	"N\374Q;\211a\246\3104m\243\246\360\022\013\213\335v"
 112      8961A6C8 
 112      346DA3A6 
 112      F0120B8B 
 112      DD76
 113 025d E8BD8F52 		.ascii	"\350\275\217R\373\347\241o\012\037\252yb\031\247\206"
 113      FBE7A16F 
 113      0A1FAA79 
 113      6219A786 
 114 026d F8B58FF6 		.ascii	"\370\265\217\366\317\275\222\200\252\362\357\207\344"
 114      CFBD9280 
 114      AAF2EF87 
 114      E4
 115 027a 51F66FE7 		.ascii	"Q\366o\347\363\264#\233q\257F\004\311\022eT\0165\300"
 115      F3B4239B 
 115      71AF4604 
 115      C9126554 
 115      0E35C0
 116 028d A8A03A5E 		.ascii	"\250\240:^\003\3503\346\333\022\004],@o\024\006a\005"
 116      03E833E6 
 116      DB12045D 
 116      2C406F14 
 116      066105
 117 02a0 1B16EC80 		.ascii	"\033\026\354\200\346a_w\327W\326\375\332W\023\247\324"
 117      E6615F77 
 117      D757D6FD 
 117      DA5713A7 
 117      D4
 118 02b1 1D810CE9 		.ascii	"\035\201\014\351&\313D\217$V\331\354\315P\033\272`b"
 118      26CB448F 
 118      2456D9EC 
 118      CD501BBA 
 118      6062
 119 02c3 A9975CCA 		.ascii	"\251\227\\\312\223K_\235\324\310\344[\371\231\256\\"
 119      934B5F9D 
 119      D4C8E45B 
 119      F999AE5C 
 120 02d3 3AAAD994 		.ascii	":\252\331\224I)\262\276\325K\313C\241Pym\331\271\243"
 120      4929B2BE 
 120      D54BCB43 
 120      A150796D 
 120      D9B9A3
ARM GAS  C:\Users\gjl\AppData\Local\Temp\ccksrccj.s 			page 9


 121 02e6 E591EA4B 		.ascii	"\345\221\352K\021Z].\2538[y\346BmU\2442\024\001\203"
 121      115A5D2E 
 121      AB385B79 
 121      E6426D55 
 121      A4321401 
 122 02fb 13EE8BD1 		.ascii	"\023\356\213\321\252\212\352\232\3235\225\030\375\015"
 122      AA8AEA9A 
 122      D3359518 
 122      FD0D
 123 0309 F4CC56DF 		.ascii	"\364\314V\337"
 124              		.text
 125              		.section	.gnu.lto_u8x8_GetMenuEvent.50a24282,"",%progbits
 126 0000 789C9555 		.ascii	"x\234\225U\335o\024U\024\277g\356\354|\356v[\266\032"
 126      DD6F1455 
 126      14BF67EE 
 126      EC7CEE76 
 126      5BB61A
 127 0013 1F6AD297 		.ascii	"\037j\322\227\206\360`\227\350\203\365O\360\325g\222"
 127      86F06097 
 127      E883F54F 
 127      F0D56792 
 128 0023 46EB8668 		.ascii	"F\353\206h\020\015m\215o\275\3731\332\004\023\341\201"
 128      100D6D8D 
 128      6FBDFB31 
 128      DA0413E1 
 128      81
 129 0034 9218486B 		.ascii	"\222\030Hk\020\353W\277\360\243\266PY\260R\334BK?\220"
 129      10EB57BF 
 129      F0A3B650 
 129      59B052DC 
 129      424B3F90 
 130 0048 D056810A 		.ascii	"\320V\201\012X\315\012\333\272\210&\266\3539\367\316"
 130      58CD0ADB 
 130      BA8826B6 
 130      EB39F7CE 
 131 0058 B86D80A4 		.ascii	"\270m\200\244\235d\356\334{\346\374\316\371\235\337"
 131      9D64EEDC 
 131      7BE6FCCE 
 131      F99DDF
 132 0067 3D734767 		.ascii	"=sGg\300\350\2320\031{\016\237\207\360\2060\003\355"
 132      C0E89A30 
 132      197B0E9F 
 132      87F08630 
 132      03ED
 133 0079 C0046349 		.ascii	"\300\004cIK\323\235\321\030\023\026\227cH\216\226\262"
 133      4BD39DD1 
 133      18131697 
 133      63488E96 
 133      B2
 134 008a 687A5703 		.ascii	"hzW\003\023\216[x\214\211\260\016\256\002\2044C\232"
 134      138E5B78 
 134      8C89B00E 
 134      AE028434 
 134      439A
 135 009c 4D693602 		.ascii	"Mi6\002\263\031L,\315\2467\216K^a;0;\301\304\005\240"
 135      B3194C2C 
 135      CDA6378E 
ARM GAS  C:\Users\gjl\AppData\Local\Temp\ccksrccj.s 			page 10


 135      4B5E613B 
 135      303BC1C4 
 136 00b2 89B080B5 		.ascii	"\211\260\200\265i\\\017\031\246e;.\264\301=mU\203\361"
 136      695C0F19 
 136      A6653B2E 
 136      B4C13D6D 
 136      5583F1
 137 00c5 FBE7DF75 		.ascii	"\373\347\337uvt\013\221\022\327o}\364\374r\312{\302"
 137      76740B91 
 137      12D76F7D 
 137      F4FC72CA 
 137      7BC2
 138 00d7 E38C9534 		.ascii	"\343\214\2254\006\317\324\300\316\032\"\337\015;\320"
 138      06CFD4C0 
 138      CE1A22DF 
 138      0D3BD0
 139 00e6 732AD37F 		.ascii	"s*\323\177\204\0275\217\003\350\270\\\276\370\376/\025"
 139      8417358F 
 139      03E8B85C 
 139      BEF8FE2F 
 139      15
 140 00f7 B4D4A016 		.ascii	"\264\324\240\026\227]\263\307\026\014^\013\014\347\035"
 140      975DB3C7 
 140      160C5E0B 
 140      0CE71D
 141 0106 B9D93B91 		.ascii	"\271\331;\221\355\307)\2468\234\020\266\3079|\012\234"
 141      EDC729A6 
 141      389C10B6 
 141      C7397C0A 
 141      9C
 142 0117 627E0235 		.ascii	"b~\0025\3601\324041\370\014\266\223{&w\356\206\313\353"
 142      F031D430 
 142      3431F80C 
 142      B6937B26 
 142      77EE86CB 
 143 012c 2434DDF9 		.ascii	"$4\335\371\347h\270\356\030A\263#\271\310a\221M\326"
 143      E768B8EE 
 143      1841B323 
 143      B9C86191 
 143      4DD6
 144 013e 221FF85C 		.ascii	"\"\037\370\\\301\003JL\372v\3674\362\235\022v\240\353"
 144      C1034A4C 
 144      FA76F734 
 144      F29D1276 
 144      A0EB
 145 0150 83EBB60F 		.ascii	"\203\353\266\017\033\316\271\242_X\204\352}\010jq`\355"
 145      1BCEB9A2 
 145      5F5884EA 
 145      7D086A71 
 145      60ED
 146 0162 50C4C808 		.ascii	"P\304\310\010\274j\241\017\352\240\007\352\250\\\254"
 146      BC6AA10F 
 146      EAA007EA 
 146      A85CAC
 147 0171 B31F0CDC 		.ascii	"\263\037\014\334:-\260\366\275\220\025\245RZd\207\234"
 147      3A2DB0F6 
 147      BD9015A5 
ARM GAS  C:\Users\gjl\AppData\Local\Temp\ccksrccj.s 			page 11


 147      525A6487 
 147      9C
 148 0182 337FB98F 		.ascii	"3\177\271\217\003#\243\016D\333`\344db\031\272E\203"
 148      0323A30E 
 148      44DB60E4 
 148      646219BA 
 148      4583
 149 0194 4B439486 		.ascii	"KC\224\206*\032\266\321\020\223\376\3254e\254\200\011"
 149      2A1AB6D1 
 149      1093FED5 
 149      3465AC80 
 149      09
 150 01a5 68179635 		.ascii	"h\027\2265\215\236|\021RT\237L\211^$\232wv\322$=\261"
 150      8D9E7C11 
 150      52549F4C 
 150      895E249A 
 150      7776D224 
 151 01bb 7D600025 		.ascii	"}`\000%Z\202Lv*WA.in\240\307\320P~\336l[\025\355BTz"
 151      5A824C76 
 151      2A57412E 
 151      696EA0C7 
 151      D0507EDE 
 152 01d6 3C54D290 		.ascii	"<T\322\220,\234\2006\226\346\272\307\015\266\010\232"
 152      2C9C8036 
 152      96E6BAC7 
 152      0DB6089A 
 153 01e6 8C87CC10 		.ascii	"\214\207\314\020\300nCjx\371\362\"W\001\314\365)\270"
 153      C06E436A 
 153      78F9F222 
 153      5701CCF5 
 153      29B8
 154 01f8 14EDFE58 		.ascii	"\024\355\376X\256=\334\011G\301\343&\206\200/0)\331"
 154      AE3DDC09 
 154      47C1E326 
 154      86802F30 
 154      29D9
 155 020a 8FDF4CF5 		.ascii	"\217\337L\365\232\361\247\210\311\227\320\011k\244\015"
 155      9AF1A788 
 155      C997D009 
 155      6BA40D
 156 0219 83AF20CE 		.ascii	"\203\257 \316n\201'\314u\361\256~\270\024:\010\357%"
 156      6E8127CC 
 156      75F1AE7E 
 156      B8143A08 
 156      EF25
 157 022b 51CDEC4F 		.ascii	"Q\315\354O\343\030\330\302>\343\322\375k8\010\350\322"
 157      E318D8C2 
 157      3EE3D2FD 
 157      6B3808E8 
 157      D2
 158 023c 971FFA27 		.ascii	"\227\037\372'B)u\231ru\372\210g\005\2109\007\0010\210"
 158      42297599 
 158      7275FA88 
 158      67058839 
 158      07013088 
 159 0250 5905A74F 		.ascii	"Y\005\247O\006\276Q\230\351\302\205\243\256\302T\342"
 159      06BE5198 
ARM GAS  C:\Users\gjl\AppData\Local\Temp\ccksrccj.s 			page 12


 159      E9C285A3 
 159      AEC254E2 
 160 0260 72B03878 		.ascii	"r\2608x\322\0160\177K\314\220\304\310=\033V\230\377"
 160      D20E307F 
 160      4BCC90C4 
 160      C83D1B56 
 160      98FF
 161 0272 BB5197DD 		.ascii	"\273Q\227\3358\333\331~5\032`N\270\2049)1D\016N!\206"
 161      38DBD97E 
 161      351A604E 
 161      B8843929 
 161      31440E4E 
 162 0288 D15E7036 		.ascii	"\321^p6\032\3437!YI5\021\011\322l\340J*\244j\2646'\322"
 162      1AE33721 
 162      59493511 
 162      09D26CE0 
 162      4A2AA46A 
 163 02a0 88144956 		.ascii	"\210\024IV\360-\212t\0032\363\351W\375mK\223$2\227\316"
 163      F02D8A74 
 163      0332F3E9 
 163      57FD6D4B 
 163      93243297 
 164 02b5 DA2B38C6 		.ascii	"\332+8\306\357\030XH\331\364v]\360$uc\344\321\031N\313"
 164      EF185848 
 164      D9F4765D 
 164      F0247563 
 164      E4D1194E 
 165 02ca 0CB2DE2C 		.ascii	"\014\262\336,\304\375\315-\026\026VB[\014t\246\274\237"
 165      C4FDCD2D 
 165      16165642 
 165      5B0C74A6 
 165      BC9F
 166 02dc 67218EEF 		.ascii	"g!\216\357\206O\217\345\"\252\353\252\340;\002 \325"
 166      864F8FE5 
 166      22AAEBAA 
 166      E03B0220 
 166      D5
 167 02ed D0465934 		.ascii	"\320FY4\325J?\007\262\270\233\223e\264L\372\373\007"
 167      D54A3F07 
 167      B2B89B93 
 167      65B44CFA 
 167      FB07
 168 02ff 65717D59 		.ascii	"eq}Y\014_\226b\341\332\226\2539W\256f\014\342\362\243"
 168      0C5F9662 
 168      E1DA96AB 
 168      3957AE66 
 168      0CE2F2A3 
 169 0313 A190263B 		.ascii	"\241\220&;\025RJ\337\336\262\322\347\313\244\177(+\335"
 169      15524ADF 
 169      DEB2D2E7 
 169      CBA47F28 
 169      2BDD
 170 0325 FFEB96B9 		.ascii	"\377\353\226\271\345\312\334\306\245\322\357\374&Ft"
 170      E5CADCC6 
 170      A5D2EFFC 
 170      264674
 171 0334 A5742D5C 		.ascii	"\245t-\\\360\251Z\033\225\346J\351?\002\245\243\233"
ARM GAS  C:\Users\gjl\AppData\Local\Temp\ccksrccj.s 			page 13


 171      F0A95A1B 
 171      95E64AE9 
 171      3F02A5A3 
 171      9B
 172 0345 53FA62B9 		.ascii	"S\372b\271\001'\224\322s\353\224\216\372J\333\276,\305"
 172      012794D2 
 172      73EB948E 
 172      FA4ADBBE 
 172      2CC5
 173 0357 C29D2D57 		.ascii	"\302\235-W3Y\256\346\222\257\264\374T\356\256\370\307"
 173      3359AEE6 
 173      92AFB4FC 
 173      54EEAEF8 
 173      C7
 174 0368 4BD5E698 		.ascii	"K\325\346\230N\225\345\235F\246K\340\027\272\355\201"
 174      4E95E59D 
 174      46A64BE0 
 174      17BAED81 
 175 0378 E3CD2E91 		.ascii	"\343\315.\221\033\314\310\343-\212\011<\356`\316t\307"
 175      1BCCC8E3 
 175      2D8A093C 
 175      EE60CE74 
 175      C7
 176 0389 DB795098 		.ascii	"\333yP\230\230\202\315\375{w%\254t\275\304`\026s\006"
 176      9882CDFD 
 176      7B7725AC 
 176      74BDC460 
 176      167306
 177 039c E7600F9D 		.ascii	"\347`\017\235\2031Y\273\263Qg\246\"\255\365\276\251"
 177      833159BB 
 177      B35167A6 
 177      22ADF5BE 
 177      A9
 178 03ad 4255ABF3 		.ascii	"BU\253\363l&=:\311U\250\022\300eUd\007<L\253g\331\243"
 178      6C263D3A 
 178      C955A812 
 178      C0655564 
 178      073C4CAB 
 179 03c4 8BFCB12C 		.ascii	"\213\374\261,\326\025\352\241jI\301\015\316\375J\246"
 179      D615EAA1 
 179      6A49C10D 
 179      CEFD4AA6 
 180 03d4 9801FB1D 		.ascii	"\230\001\373\035\177\002\367\366G\024\007\332\276\025"
 180      7F02F7F6 
 180      471407DA 
 180      BE15
 181 03e2 00D256CF 		.ascii	"\000\322V\317\317\354\241\247\211\245\307\354\374|\013"
 181      CFECA1A7 
 181      89A5C7EC 
 181      FC7C0B
 182 03f1 2D1CDFC8 		.ascii	"-\034\337\310\345\337\301\220\243E?\026\240\300\230"
 182      E5DFC190 
 182      A3453F16 
 182      A0C098
 183 0400 EEC9FAFA 		.ascii	"\356\311\372\372]\255\015\273\237\336\325\324\274\257"
 183      5DAD0DBB 
 183      9FDED5D4 
ARM GAS  C:\Users\gjl\AppData\Local\Temp\ccksrccj.s 			page 14


 183      BCAF
 184 040e 09676F35 		.ascii	"\011go54\276\234x\351\365\326\275M\211\372&\246\223"
 184      34BE9C78 
 184      E9F5D6BD 
 184      4D89FA26 
 184      A693
 185 0420 C1D99768 		.ascii	"\301\331\227hn\335\323\322\370Z\363n\373\215W\36666"
 185      6EDDD3D2 
 185      F85AF36E 
 185      FB8D57F6 
 185      3636
 186 0432 B7BCD892 		.ascii	"\267\274\330\222\370\017;N\225\374"
 186      F80F3B4E 
 186      95FC
 187              		.text
 188              		.section	.gnu.lto_.symbol_nodes.50a24282,"",%progbits
 189 0000 789C5DC8 		.ascii	"x\234]\310\241\015\200`\014\005\341{-[``4&i=\206\025"
 189      A10D8060 
 189      0C05E17B 
 189      2D5B6060 
 189      3426693D 
 190 0016 18032406 		.ascii	"\030\003$\006\307\014\0104\016K\370C\202\341\314%_\205"
 190      C70C0834 
 190      0E4BF843 
 190      82E1CC25 
 190      5F85
 191 0028 E8289902 		.ascii	"\350(\231\002\206\015\312\246\034\323\013\021\372\223"
 191      860DCAA6 
 191      1CD30B11 
 191      FA93
 192 0036 857D3467 		.ascii	"\205}4g\013\362\360\027 \263\001\227s\\g\355&\226\375"
 192      0BF2F017 
 192      20B30197 
 192      735C67ED 
 192      2696FD
 193 0049 961B2CFD 		.ascii	"\226\033,\375*\036\2050\030J"
 193      2A1E8530 
 193      184A
 194              		.text
 195              		.section	.gnu.lto_.refs.50a24282,"",%progbits
 196 0000 789C6361 		.ascii	"x\234ca`\004B \000\000\0009\000\007"
 196      60044220 
 196      00000039 
 196      0007
 197              		.text
 198              		.section	.gnu.lto_.decls.50a24282,"",%progbits
 199 0000 789CBD58 		.ascii	"x\234\275X}PT\327\025\177\367\335E\226\335\005\025H"
 199      7D5054D7 
 199      157FF7DD 
 199      4596DD05 
 199      1548
 200 0012 CA7468EB 		.ascii	"\312th\353\030\253t&!\032\223\214\323?\232v:\371\230"
 200      18AB7426 
 200      211A938C 
 200      D33F9A76 
 200      3AF998
 201 0025 CEF463A6 		.ascii	"\316\364c\246M\232vvf\273\354>d\233ewg\367\341G\376"
ARM GAS  C:\Users\gjl\AppData\Local\Temp\ccksrccj.s 			page 15


 201      4D9A7676 
 201      66BBEC3E 
 201      649B6577 
 201      67F7E147 
 202 003a 7A021A95 		.ascii	"z\002\032\225\250 \212(\250\250DQQ\011 \210\202\273"
 202      A8208A28 
 202      A8A84451 
 202      51092088 
 202      82BB
 203 004c 11252228 		.ascii	"\021%\"(\010BT>$F\215\251\232 \240\250`\350\271\367"
 203      0842543E 
 203      24468DA9 
 203      9A20A0A8 
 203      60E8B9F7 
 204 0060 BEDDF716 		.ascii	"\276\335\367\026\037\323\376\321\364\315\236}\367\334"
 204      1FD3FED1 
 204      F4CD9E7D 
 204      F7DC
 205 006e FBBBE7DC 		.ascii	"\373\273\347\334\363u\357{O\307!\216\\\305\317s\\\232"
 205      F375EF7B 
 205      4FC7218E 
 205      5CC5CF73 
 205      5C9A
 206 0080 8EE3E603 		.ascii	"\216\343\346\003;\001\0274\271\367\200\310\350\021\216"
 206      3B011734 
 206      B9F780C8 
 206      E8118E
 207 008f 5DA4AF16 		.ascii	"]\244\257\026\350-\350|\007\350O\210{\346\"\343X\236"
 207      E82DE87C 
 207      07E84F88 
 207      7BE622E3 
 207      589E
 208 00a1 9308F447 		.ascii	"\223\010\364G\271\037\311c\223/\"\313 \343c\201\342"
 208      B91FC963 
 208      932F22CB 
 208      20E36381 
 208      E2
 209 00b2 815E436C 		.ascii	"\201^Cl\356\237\021\233\377:\334\377B\332\210\311I\202"
 209      EE9F119B 
 209      FF3ADCFF 
 209      42DA88C9 
 209      4982
 210 00c4 3F5E9EAB 		.ascii	"?^\236\253\265\006\2626\343\0242\337\205\373\233\210"
 210      B506B236 
 210      E31432DF 
 210      85FB9B88 
 211 00d4 C924F6BD 		.ascii	"\311$\366\275\007\367\032y\315?\207\366<\240\271\210"
 211      07F71A79 
 211      CD3F87F6 
 211      3CA0B988 
 212 00e4 F1440ED1 		.ascii	"\361D\016\321Q+\333\376Wh\277\017\3647\240\277O\322"
 212      512BDBFE 
 212      5768BF0F 
 212      F437A0BF 
 212      4FD2
 213 00f6 FB944747 		.ascii	"\373\224GGV\336\330\257\037\341Q\242\001M \302\337\255"
 213      56DED8AF 
ARM GAS  C:\Users\gjl\AppData\Local\Temp\ccksrccj.s 			page 16


 213      1FE151A2 
 213      014D20C2 
 213      DFAD
 214 0108 7B1CCD78 		.ascii	"{\034\315x2|\355q\331[\311\345\022\\\271\222\304\363"
 214      327CED71 
 214      D95BC9E5 
 214      125CB992 
 214      C4F3
 215 011a CABCEAC0 		.ascii	"\312\274\352\300\360!\0356\022\020\177\261\352\312\231"
 215      F0211D36 
 215      12107FB1 
 215      EACA99
 216 0129 289464D8 		.ascii	"(\224d\330Kp\003=#\277\311\222$\204\312\221\001\035"
 216      4B70033D 
 216      23BFC992 
 216      2484CA91 
 216      011D
 217 013b 4018ED47 		.ascii	"@\030\355G\311\304\225\211\304a\253%)S\032\334-MK\340"
 217      C9C49589 
 217      C461AB25 
 217      29531ADC 
 217      2D4D4BE0 
 218 014f D0C24434 		.ascii	"\320\302D4?\221C\007Q\022QFP\250\014%\242}(\221\310"
 218      3F914307 
 218      51125146 
 218      50A80C25 
 218      A27D2891 
 219 0164 DFBFB3EC 		.ascii	"\337\277\263\354t4.DT\301\275MwV\343\220\202\274\234"
 219      74342E44 
 219      54C1BD4D 
 219      7756E390 
 219      82BC9C
 220 0177 C4839234 		.ascii	"\304\203\2224\003\035\001\005\207\024\005\240O[\303"
 220      031D0105 
 220      871405A0 
 220      4F5BC3
 221 0186 610D0D64 		.ascii	"a\015\015d2hi\317n\252\325\367\240+\210GrJq\010\261"
 221      326869CF 
 221      6EAAD5F7 
 221      A02B8847 
 221      724A7108 
 222 019b 7F448963 		.ascii	"\177D\211cDYh\360\234\034M\271+t\343\310?\307\360\264"
 222      445968F0 
 222      9C1C4DB9 
 222      2B74E3C8 
 222      3FC7F0B4 
 223 01af 4F11467F 		.ascii	"O\021F\177\301\373D\360\242B\024\351H\236\204B+`\263"
 223      C1FB44F0 
 223      A24214E9 
 223      489E8442 
 223      2B60B3
 224 01c2 D8381F94 		.ascii	"\3308\037\224\312n\2742A%\217-W\265&\024n\023\012\206"
 224      CA6EBC32 
 224      41258F2D 
 224      57B52614 
 224      6E130A86 
 225 01d6 AEF1C1C1 		.ascii	"\256\361\301\301-\010o\341i\200\277\374\256ak\244\016"
ARM GAS  C:\Users\gjl\AppData\Local\Temp\ccksrccj.s 			page 17


 225      2D086FE1 
 225      6980BFFC 
 225      AE616BA4 
 225      0E
 226 01e7 024BDD99 		.ascii	"\002K\335\231\242#}\335O\326l\324\205\372*\021\355<"
 226      A2237DDD 
 226      4FD66CD4 
 226      85FA2A11 
 226      ED3C
 227 01f9 33311A98 		.ascii	"31\032\230\016\211\021k@<\260\035\203\255\333\215\300"
 227      0E89116B 
 227      403CB01D 
 227      83ADDB8D 
 227      C0
 228 020a C61BD00C 		.ascii	"\306\033\320\014`\363\262\352\037\362\011\005$>R\226"
 228      60F3B2EA 
 228      1FF20905 
 228      243E5296 
 229 021a 348BA733 		.ascii	"4\213\2473\217\202\263\253\301\331\034\252A\011\360"
 229      8F82B3AB 
 229      C1D91CAA 
 229      4109F0
 230 0229 5F85746C 		.ascii	"_\205tl\005%\017\267\3572\315.\221\332+\244\201\272"
 230      05250FB7 
 230      EF32CD2E 
 230      91DA2BA4 
 230      81BA
 231 023b CE37CA2A 		.ascii	"\3167\312*%i%L\324\021\034\372T\011)4\311\255\002\365"
 231      2569254C 
 231      D4111CFA 
 231      54092934 
 231      C9AD02F5 
 232 024f 8029B568 		.ascii	"\200)\265h6L\275\361\270E2\340sl\361\027\263+\2121["
 232      364CBDF1 
 232      B84532E0 
 232      736CF117 
 232      B32B8A31 
 233 0264 930ED8FB 		.ascii	"\223\016\330\373\347\267}\025\303\3264\013\330\242\341"
 233      E7B77D15 
 233      C3D6340B 
 233      D8A2E1
 234 0273 BE6FA2D8 		.ascii	"\276o\242\330h\022\260e\267\212\327\233\330\350\"\025"
 234      6812B065 
 234      B78AD79B 
 234      D8E82215 
 235 0283 389681A5 		.ascii	"8\226\201\245\333\331;y\334\317\344\236\250\255o\212"
 235      DBD93B79 
 235      DCCFE49E 
 235      A8AD6F8A 
 236 0293 60D0F9C0 		.ascii	"`\320\371\300\372o\347\371\365\370\036\033\013J\215"
 236      FA6FE7F9 
 236      F5F81E1B 
 236      0B4A8D
 237 02a2 6752DBF7 		.ascii	"gR\333\367\335\373\"\006\257\304t\354v\211\277R\217"
 237      DDFB2206 
 237      AFC474EC 
 237      7689BF52 
ARM GAS  C:\Users\gjl\AppData\Local\Temp\ccksrccj.s 			page 18


 237      8F
 238 02b3 4B18F36D 		.ascii	"K\030\363m\366\315\001\331C\011\300n\016l\0347\340r"
 238      F6CD01D9 
 238      4309C06E 
 238      0E6C1C37 
 238      E072
 239 02c5 36D65C77 		.ascii	"6\326\\w}>\256e\355\207-\227\3720nb\314\206S\015\215"
 239      7D3EAE65 
 239      ED872D97 
 239      FA306E62 
 239      CC86530D 
 240 02da 7ADC112E 		.ascii	"z\334\021.!\226Ih\352\275\332\245\303\375llECcU4\036"
 240      21964968 
 240      EABDDAA5 
 240      C3FD6C6C 
 240      45436355 
 241 02f0 66CCD3AA 		.ascii	"f\314\323\252\252F\204\307\031\363\311\223\261A\342"
 241      AA4684C7 
 241      19F3C993 
 241      B141E2
 242 02ff 94B950D1 		.ascii	"\224\271P\321\023XU\322sYI\373[\232\367\232\360J\035"
 242      135855D2 
 242      735949FB 
 242      5B9AF79A 
 242      F04A1D
 243 0312 ADACD240 		.ascii	"\255\254\322@\346J\204\014I\264l r\206\262\030.\024"
 243      E64A840C 
 243      49B46C20 
 243      7286B218 
 243      2E14
 244 0324 3774112A 		.ascii	"7t\021*g\256\\9\027\240\363<t\312E~\367w\264\310\333"
 244      67AE5C39 
 244      17A0F33C 
 244      74CA457E 
 244      F777B4C8 
 245 0339 21CC6D4A 		.ascii	"!\314mJ\300\346\032X\200O\346\365\3342\340\\\246c\377"
 245      C0E61A58 
 245      804FE6F5 
 245      DC32E05C 
 245      A663FF
 246 034c 606BF9F4 		.ascii	"`k\371\364)u\\\232RG^\316\334rR\347\235\240\243C\321"
 246      29755C9A 
 246      52475ECE 
 246      DC7252E7 
 246      9DA0A343 
 247 0361 D18E6425 		.ascii	"\321\216d%\267\326\356\277o\302[\251\022\264\275\353"
 247      B7D6EEBF 
 247      6FC25BA9 
 247      12B4BDEB 
 248 0371 7A6E9441 		.ascii	"zn\224A\256\376\334\377P\375\200\377\246\267v\334dZ"
 248      AEFEDCFF 
 248      50FD80FF 
 248      A6B776DC 
 248      645A
 249 0383 4BF0B959 		.ascii	"K\360\271YR\354\331\030\324\015j\216\003\240\216f\354"
 249      52ECD918 
 249      D40D6A8E 
ARM GAS  C:\Users\gjl\AppData\Local\Temp\ccksrccj.s 			page 19


 249      03A08E66 
 249      EC
 250 0394 17C82497 		.ascii	"\027\310$\227K0\323cY\246_\377t\364\256\036\357`Z\017"
 250      4B30D363 
 250      59A65FFF 
 250      74F4AE1E 
 250      EF605A0F 
 251 03a8 978F5518 		.ascii	"\227\217U\030h\245\274k\222\213\247g\325\276\026c\250"
 251      68A5BC6B 
 251      928BA767 
 251      D5BE1663 
 251      A8
 252 03b9 78AEB2E2 		.ascii	"x\256\262\342\351\272\334\337\025\025\352\354a\235\037"
 252      E9BADCDF 
 252      1515EAEC 
 252      619D1F
 253 03c8 4DF49DD6 		.ascii	"M\364\235\326\343\012&){\337\272\242h\\\317\230m'F\316"
 253      E30A2629 
 253      7BDFBAA2 
 253      685CCF98 
 253      6D2746CE 
 254 03dc 4530957A 		.ascii	"E0\225z`\327o\035:\021\211O\263\261\316@IQ\024na\314"
 254      60D76F1D 
 254      3A11894F 
 254      B3B1CE40 
 254      4951146E 
 255 03f2 57D5A3A5 		.ascii	"W\325\243\245\321\270[7e)\037\355\330y-\022\3673\300"
 255      D1B85B37 
 255      65291FED 
 255      D8792D12 
 255      F733C0
 256 0405 93B6B1E3 		.ascii	"\223\266\261\343\010\337a\314\307\2355\013\361#\326"
 256      08DF61CC 
 256      C79D350B 
 256      F123D6
 257 0414 2EEFBAFC 		.ascii	".\357\272\374\024\341\354\010\312\234\377~\360$\306"
 257      14E1EC08 
 257      CA9CFF7E 
 257      F024C6
 258 0423 058C3934 		.ascii	"\005\21494\260\2523\002\357c\314\336\361]\325&\\\305"
 258      B0AA3302 
 258      EF63CCDE 
 258      F15DD526 
 258      5CC5
 259 0435 98A6D186 		.ascii	"\230\246\321\206=\021\370$c\326\346\034\330\025\203"
 259      3D11F824 
 259      63D6E61C 
 259      D81583
 260 0444 3B19B3F2 		.ascii	";\031\263\362\343\203\365\030\337bL\373\265\312\007"
 260      E383F518 
 260      DF624CFB 
 260      B5CA07
 261 0453 D3F01863 		.ascii	"\323\360\030c\256\365\347\375\023gO\243\355\276\263"
 261      AEF5E7FD 
 261      13674FA3 
 261      EDBEB3
 262 0462 FB0F9234 		.ascii	"\373\017\2224\235G\322tbb\272*Q\347\261D\355\3300T\032"
ARM GAS  C:\Users\gjl\AppData\Local\Temp\ccksrccj.s 			page 20


 262      9D47D274 
 262      6262BA2A 
 262      51E7B144 
 262      EDD83054 
 263 0477 89F3289C 		.ascii	"\211\363(\234oZWUiT\316\230RS\035I\215\0210tHI\215y"
 263      6F5A5755 
 263      6954CE98 
 263      52531D49 
 263      8D113074 
 264 048f A11380C5 		.ascii	"\241\023\200\305\224\013\005\024\015C\032\314\223\323"
 264      940B0514 
 264      0D431ACC 
 264      93D3
 265 049d E03E740E 		.ascii	"\340>t\016\312\307Li\336\356i\270\230\351\330Z}`\324"
 265      CAC74C69 
 265      DEEE69B8 
 265      98E9D85A 
 265      7D60D4
 266 04b0 A03A665E 		.ascii	"\240:f^\245\3517\012:\036(:F\320\324J\036j+\271s\251"
 266      A5E9370A 
 266      3A1E283A 
 266      46D0D44A 
 266      1E6A2BB9 
 267 04c6 232F027F 		.ascii	"#/\002\177\302\354~Z\371\321\011\035>\306\230\257\317"
 267      C2EC7E5A 
 267      F9D1091D 
 267      3EC698AF 
 267      CF
 268 04d7 3E1E31E2 		.ascii	">\0361\342s\214yr*\263\016\341>\306\324\234z\334\032"
 268      738C7972 
 268      2AB30EE1 
 268      3EC6D49C 
 268      7ADC1A
 269 04ea 818718F3 		.ascii	"\201\207\030\363m\346\301R\204s\"\231G7\337+\340q)c"
 269      6DE6C152 
 269      84732299 
 269      4737DF2B 
 269      E0712963 
 270 04fe C6C7F257 		.ascii	"\306\307\362WD\340Z\306\370{o\227\033q3c*\352\263\357"
 270      44E05AC6 
 270      F87B6F97 
 270      1B713363 
 270      2AEAB3EF 
 271 0512 C99B6180 		.ascii	"\311\233a\200\034\354e\353\006\033\015\370:\035|n\205"
 271      1CEC65EB 
 271      061B0DF8 
 271      3A1D7C6E 
 271      85
 272 0523 FFFCE791 		.ascii	"\377\374\347\221h\016\271\342\346(W\022\320nb\331\200"
 272      680EB9E2 
 272      E6285712 
 272      D06E62D9 
 272      80
 273 0534 7FE2D7F5 		.ascii	"\177\342\327\3655\275\222\264\312D\223\3511\330\277"
 273      35BD92B4 
 273      CA4493E9 
 273      31D8BF
ARM GAS  C:\Users\gjl\AppData\Local\Temp\ccksrccj.s 			page 21


 274 0543 9A8F0BD6 		.ascii	"\232\217\013\326\324\313\244B\374\244N8\012\017\344"
 274      D4CBA442 
 274      FCA44E38 
 274      0A0FE4
 275 0552 7618A58A 		.ascii	"v\030\245\212\177P\3507\341\320\313\264\232\026*\320"
 275      7F50E837 
 275      E1D0CBB4 
 275      9A162AD0 
 276 0562 DE0B21E8 		.ascii	"\336\013!\350S\015\251GUR\013\333B\320G\032\320z\025"
 276      530DA947 
 276      55520BDB 
 276      42D0471A 
 276      D07A15
 277 0575 F4B222F5 		.ascii	"\364\262\"\365{\015(\325\237'?\306HH\344\320\012>\021"
 277      7B0D28D5 
 277      9F273FC6 
 277      4848E4D0 
 277      0A3E11
 278 0588 35939849 		.ascii	"5\223\230I<\203C\320\320&>\011\255\345\347\240\217\200"
 278      3C8343D0 
 278      D0263E09 
 278      ADE5E7A0 
 278      8F80
 279 059a 5602E500 		.ascii	"V\002\345\000}\014\264\031(\013h\025\320\006\240\215"
 279      7D0CB419 
 279      280B6815 
 279      D006A08D 
 280 05aa 40B940EB 		.ascii	"@\271@\353\200\362\201\266\000e\003\255\007Z\003\224"
 280      80F281B6 
 280      006503AD 
 280      075A0394 
 281 05ba 0754C0CF 		.ascii	"\007T\300\317\241\007.[_\201\342\240\257\265\034tZe"
 281      A1072E5B 
 281      5F81E2A0 
 281      AFB51C74 
 281      5A65
 282 05cc 4BB762CB 		.ascii	"K\267b\313\204\206-\013\024d\277\202\034\327@\252\205"
 282      84862D0B 
 282      1464BF82 
 282      1CD740AA 
 282      85
 283 05dd 0E2AD031 		.ascii	"\016*\3201\015\350q\025tDq\373\335p\350549\360\233\024"
 283      0DE87115 
 283      744471FB 
 283      DD70E835 
 283      3439F09B 
 284 05f2 BB6E6BD9 		.ascii	"\273nk\331\245\016\347\316\0151[\245@6\246\025\365\235"
 284      A50EE7CE 
 284      0D315BA5 
 284      4036A615 
 284      F59D
 285 0604 8C0ED50E 		.ascii	"\214\016\325\016\223\2552\356J[\364\026)\260\002S\341"
 285      93AD32EE 
 285      4A5BF416 
 285      29B00253 
 285      E1
 286 0615 F7B416F2 		.ascii	"\367\264\026\362\231Jx\355\306\230B)\220\211\351iqK"
ARM GAS  C:\Users\gjl\AppData\Local\Temp\ccksrccj.s 			page 22


 286      994A78ED 
 286      C6984229 
 286      9089E969 
 286      714B
 287 0627 46870E19 		.ascii	"F\207\016\031\266\030\265\221\235j\351\337jIW\243\037"
 287      B618B591 
 287      9D6AE9DF 
 287      6A4957A3 
 287      1F
 288 0638 292EB9A3 		.ascii	").\271\243\205e\251H\367\215\200\177\275I\222\364\004"
 288      8565A948 
 288      F78D807F 
 288      BD4992F4 
 288      04
 289 0649 C3C97B86 		.ascii	"\303\311{\206\222\006\303\027TZ\237h\304AmR\235\332"
 289      9206C317 
 289      545A9F68 
 289      C4416D52 
 289      9DDA
 290 065b A44C5ED3 		.ascii	"\244L^\323$u,&\324&\375K+\032\324\273\260\027\\\331"
 290      24752C26 
 290      D426FD4B 
 290      2B1AD4BB 
 290      B0175CD9 
 291 066f 50B4753A 		.ascii	"P\264u:\316\326\323]\357\374\215m\376\030\024\227\244"
 291      CED6D35D 
 291      EFFC8D6D 
 291      FE181497 
 291      A4
 292 0680 5D1EDBA0 		.ascii	"]\036\333\240$~\310\362`>\353ky\221\370l+(*\344C[-q"
 292      247EC8F2 
 292      603EEB6B 
 292      7991F86C 
 292      2B282AE4 
 293 0698 215DEFAE 		.ascii	"!]\357\256\262}\353P\234\274\300\300\224\013\344\376"
 293      B27DEB50 
 293      9CBCC0C0 
 293      940BE4FE 
 294 06a8 E7AB03DD 		.ascii	"\347\253\003\335\253\326\016\257@a\017\012E\252\264"
 294      ABD60EAF 
 294      40610F0A 
 294      45AAB4
 295 06b7 E550311F 		.ascii	"\345P1\037|P\030=\364uo\004.\324\263\363|{n\033\317"
 295      7C50183D 
 295      F4756F04 
 295      2ED4B3F3 
 295      7C7B6E1B 
 296 06cc 8EF01781 		.ascii	"\216\360\027\201-XS<\240c\273\361\000y|\276}\263\250"
 296      2D58533C 
 296      A063BBF1 
 296      00797CBE 
 296      7DB3A8
 297 06df C9804B19 		.ascii	"\311\200K\031\326\337y\244u:>F\231\331\275w+\353\242"
 297      D6DF79A4 
 297      753A3E46 
 297      99D9BD77 
 297      2BEBA2
ARM GAS  C:\Users\gjl\AppData\Local\Temp\ccksrccj.s 			page 23


 298 06f2 51D8B63C 		.ascii	"Q\330\266<g\216\311\224\2403\305\005[Is\222\222\222"
 298      678EC994 
 298      A033C505 
 298      5B497392 
 298      9292
 299 0704 58CCB774 		.ascii	"X\314\267t\253b~\016b\276G\211y\263*5\303\202\273\023"
 299      AB627E0E 
 299      62BE4789 
 299      79B32A35 
 299      C382BB13 
 300 0718 7CB78307 		.ascii	"|\267\203\007\304v\236M \301\375\014\374\030\000\323"
 300      C4769E4D 
 300      20C1FD0C 
 300      FC1800D3 
 301 0728 8F03D501 		.ascii	"\217\003\325\001\035\003\252\005\252\000:\002t\030\350"
 301      1D03AA05 
 301      AA003A02 
 301      7418E8
 302 0737 10D06EA0 		.ascii	"\020\320n\240r\240\203@\007\200\366\003\225\001\355"
 302      72A08340 
 302      0780F603 
 302      9501ED
 303 0746 03DA0BF4 		.ascii	"\003\332\013\364\011Pi\330\336W\337\035*\236\022>l\205"
 303      095069D8 
 303      DE57DF1D 
 303      2A9E123E 
 303      6C85
 304 0758 2726D7FC 		.ascii	"'&\327\374q\005z2\334\230\006\2251\014{L\301\006\264"
 304      71057A32 
 304      DC980695 
 304      310C7B4C 
 304      C106B4
 305 076b B0EAD2A8 		.ascii	"\260\352\322\250Q\260\247\264\260\352\262\253V\260\215"
 305      51B0A7B4 
 305      B0EAB2AB 
 305      56B08D
 306 077a 5A58F5BE 		.ascii	"ZX\365\276P\251`\317ha\325;p\205\202m\322\302\252\267"
 306      50A960CF 
 306      6861D53B 
 306      7085826D 
 306      D2C2AAB7 
 307 078e CA1D0AF6 		.ascii	"\312\035\012\366s-\254\352<-T\240g\265\240*\357nR\240"
 307      732DACEA 
 307      3C2D54A0 
 307      67B5A02A 
 307      EF6E52A0 
 308 07a2 2D5AA9A2 		.ascii	"-Z\251\242\366X~\201j\363i\225\321\241\315\247\371\031"
 308      F6587E81 
 308      6AF36995 
 308      D1A1CDA7 
 308      F919
 309 07b4 4FE4153C 		.ascii	"O\344\025<\3076wxpF]2>\264\2717O^\312D\347t\006\377"
 309      C7367778 
 309      70465D32 
 309      3EB4B937 
 309      4F5ECA44 
 310 07cc 9437C1EB 		.ascii	"\2247\301\353"
ARM GAS  C:\Users\gjl\AppData\Local\Temp\ccksrccj.s 			page 24


 311 07d0 F724B87A 		.ascii	"\367$\270z\273VW^\025\237\240\200\032!a+a6\333,\246"
 311      BB56575E 
 311      159FA080 
 311      1A21612B 
 311      6136DB2C 
 312 07e5 82712ACC 		.ascii	"\202q*\314\224\257\2470\001\376\253y\362zJ\236\237\217"
 312      94AFA730 
 312      01FEAB79 
 312      F27A4A9E 
 312      9F8F
 313 07f7 C2945E78 		.ascii	"\302\224^xHW\013\255\011\253\372\243\254\352\265\313"
 313      48570BAD 
 313      09ABFAA3 
 313      ACEAB5CB 
 314 0807 EA14ACEC 		.ascii	"\352\024\254\354\207/\253\361N\223\224k\245\016\354"
 314      872FABF1 
 314      4E93946B 
 314      A50EEC
 315 0816 D776A0CA 		.ascii	"\327v\240\312\337O\024\360\300d\260\306q\247\240\277"
 315      DF4F14F0 
 315      C064B0C6 
 315      71A7A0BF 
 316 0826 D446AB44 		.ascii	"\324F\253D\217\346\307\263P\236\000\370\365\311\360"
 316      8FE6C7B3 
 316      509E00F8 
 316      F5C9F0
 317 0835 97B523D9 		.ascii	"\227\265#\331\240\216\244\037|T\257\031\311\206\260"
 317      A08EA41F 
 317      7C54AF19 
 317      C986B0
 318 0844 48D66B45 		.ascii	"H\326kE\2623,\222\0154\222'\303\"\371\025D\222\0353"
 318      B2332C92 
 318      0D349227 
 318      C322F915 
 318      44921D33 
 319 0858 0F729E27 		.ascii	"\017r\236'\307\014Y\350\015\345\211\276\236\306\222"
 319      C70C59E8 
 319      0DE589BE 
 319      9EC692
 320 0867 19F320FF 		.ascii	"\031\363 \377g\314\030\330\326\321MMc\026(G\375\375"
 320      67CC18D8 
 320      D6D14D4D 
 320      63162847 
 320      FDFD
 321 0879 7C7AD4EF 		.ascii	"|z\324\357\011?\352\331XO\316O\311\030I\233]\312\221"
 321      093FEAD9 
 321      584FCE4F 
 321      C918499B 
 321      5DCA91
 322 088c B6871E69 		.ascii	"\266\207\036i\0141\334\362\034A\020/\367)\253\251\244"
 322      0C31DCF2 
 322      1C41102F 
 322      F729ABA9 
 322      A4
 323 089d AB212F9A 		.ascii	"\253!/\232\2473\207\330;#1\202\275\316\265\371[\213"
 323      A73387D8 
 323      3B233182 
ARM GAS  C:\Users\gjl\AppData\Local\Temp\ccksrccj.s 			page 25


 323      BDCEB5F9 
 323      5B8B
 324 08af 75537F66 		.ascii	"uS\177f9C\255?\315\313\237Y\252\253\033J\"g\227\300"
 324      3943AD3F 
 324      CDCB9F59 
 324      AAAB1B4A 
 324      226797C0 
 325 08c3 D6230DD4 		.ascii	"\326#\015\324\345\277\250|f\001\034:\246\250<\246\376"
 325      E5BFA87C 
 325      66011C3A 
 325      A6A83CA6 
 325      FE
 326 08d4 CCD2C493 		.ascii	"\314\322\304\223\317,\2537\324\355\341\261\237\235O"
 326      CF2CAB37 
 326      D4EDE1B1 
 326      9F9D4F
 327 08e3 572FDFE8 		.ascii	"W/\337\350'rJ*\3409\353\234\011\034\004\357\361\022"
 327      27724A2A 
 327      E039EB9C 
 327      091C04EF 
 327      F112
 328 08f5 4FC57CAE 		.ascii	"O\305|\256\330\006ME\314Y*\246x]\336D4\276\310\304d"
 328      D8064D45 
 328      CC592AA6 
 328      785DDE44 
 328      34BEC8C4 
 329 090a ED1D688F 		.ascii	"\355\035h\217\300\003\214)\360\007\212\247\203u\350"
 329      C0038C29 
 329      F0078AA7 
 329      8375E8
 330 0919 1C9DF55F 		.ascii	"\034\235\365_}\211j\345i\347\226\241\2415\372\220c\316"
 330      7D896AE5 
 330      69E796A1 
 330      A135FA90 
 330      63CE
 331 092b B3CE71E9 		.ascii	"\263\316q\351@'V{\346\275\347U\216i\243\216\271\020"
 331      4027567B 
 331      E6BDE755 
 331      8E69A38E 
 331      B910
 332 093d 744CD6A5 		.ascii	"tL\326\245\246\301(0h@\"o:\357\037n\274)\255\206\264"
 332      A6C12830 
 332      6840226F 
 332      3AEF1F6E 
 332      BC29AD86 
 333 0952 E3291035 		.ascii	"\343)\0205\007MB-\274\216p\354\033Z;\261\010\327w\027"
 333      074D422D 
 333      BC8E70EC 
 333      1B5A3BB1 
 333      08D77717 
 334 0966 1563904B 		.ascii	"\025c\220K~\206m\022\274\007J\027\021\352\344\015\034"
 334      7E866D12 
 334      BC074A17 
 334      11EAE40D 
 334      1C
 335 0977 6506DFA0 		.ascii	"e\006\337\240m\322-\015fJ\323\012c\202\037\"8:\300\241"
 335      6DD22D0D 
ARM GAS  C:\Users\gjl\AppData\Local\Temp\ccksrccj.s 			page 26


 335      664AD30A 
 335      63821F22 
 335      383AC0A1 
 336 098b 8BB04B74 		.ascii	"\213\260Kt\220]\002X\362\245\244\350\350f]\330\343E"
 336      905D0258 
 336      F2A5A4E8 
 336      E8665DD8 
 336      E345
 337 099d 5B58CE5F 		.ascii	"[X\316_b\033\015\271\2237\311\373\215\367\"\302\320"
 337      621B0DB9 
 337      9337C9FB 
 337      8DF722C2 
 337      D0
 338 09ae 67C2D05D 		.ascii	"g\302\320]2\272\213\2423\277,\015D\206\241\311\3675"
 338      32BA8BA2 
 338      33BF2C0D 
 338      4486A1C9 
 338      F735
 339 09c0 05DD2DA3 		.ascii	"\005\335-\243\273)\372D\357\231\0031/\354\242\357\276"
 339      BB29FA44 
 339      EF990331 
 339      2FECA2EF 
 339      BE
 340 09d1 75F94B3B 		.ascii	"u\371K;\244\366\031\340D\032I\346\200/\370\027\0006"
 340      A4F619E0 
 340      441A49E6 
 340      802FF817 
 340      0036
 341 09e3 56BFAE28 		.ascii	"V\277\256(\232\301\002W\015k\371p\314e\212\251\351)"
 341      9AC10257 
 341      0D6BF970 
 341      CC658AA9 
 341      E929
 342 09f5 EC33C898 		.ascii	"\3543\310\230G\317`\256P\314\231\343\353\177%C*\215"
 342      47CF60AE 
 342      50CC99E3 
 342      EB7F2543 
 342      2A8D
 343 0a07 932157F9 		.ascii	"\223!W\371\0278\375\333\177xw\326o\027,\340\242,\226"
 343      1738FDDB 
 343      7F7877D6 
 343      6F172CE0 
 343      A22C96
 344 0a1a 0C874B5C 		.ascii	"\014\207K\\d\021W \333/\315\036\257{\261\327\232>+\325"
 344      64115720 
 344      DB2FCD1E 
 344      AF7BB1D7 
 344      9A3E2BD5 
 345 0a2e E1147CB3 		.ascii	"\341\024|\263\222\226-z\375\027f\333r\217W\360\371\314"
 345      92962D7A 
 345      FD1766DB 
 345      728F57F0 
 345      F9CC
 346 0a40 1E9FDB36 		.ascii	"\036\237\3336\313\346\025\254\242\333k~5yAx\207#\335"
 346      CBE615AC 
 346      A2DB6B7E 
 346      35794178 
ARM GAS  C:\Users\gjl\AppData\Local\Temp\ccksrccj.s 			page 27


 346      8723DD
 347 0a53 E3F68AE6 		.ascii	"\343\366\212\346\305\256\014\263\325\233n~-\231 \240"
 347      C5AE0CB3 
 347      D59B6E7E 
 347      2D9920A0 
 348 0a63 F592CBED 		.ascii	"\365\222\313\355\022^\022\254)\016\263\303esf\330\005"
 348      125E12AC 
 348      290EB3C3 
 348      657366D8 
 348      05
 349 0a74 73BAD596 		.ascii	"s\272\325\226\346p\011f\213]H\265f8E\213\270\334#\370"
 349      E6700966 
 349      8B5D48B5 
 349      6638458B 
 349      B8DC23F8 
 350 0a88 92D3B848 		.ascii	"\222\323\270Hy)K\376_+\361-\367\231->\321\016jA}|\306"
 350      79294BFE 
 350      5F2BF12D 
 350      F7992D3E 
 350      D10E6A41 
 351 0a9f A2658B2C 		.ascii	"\242e\213,\251\016\227\035\376\274>\321bw\244\246\376"
 351      A90E971D 
 351      FEBC3ED1 
 351      6277A4A6 
 351      FE
 352 0ab0 2439D99C 		.ascii	"$9\331\234\261h\361+f\233\317k3S\204]Hqg\270lB\262\215"
 352      B168F12B 
 352      669BCF6B 
 352      3353845D 
 352      487167B8 
 353 0ac8 8BA31DA0 		.ascii	"\213\243\035\240\330n\3618\\ \312*\0121\301q\306\376"
 353      D86EF138 
 353      5C20CA2A 
 353      0A31C171 
 353      C6FE
 354 0ada 28C43AAD 		.ascii	"(\304:\255 3\004\373q\250?\350\206\320\220q\261\307"
 354      203304FB 
 354      71A83FE8 
 354      86D09071 
 354      B1C7
 355 0aec E106A93E 		.ascii	"\341\006\251>\3505d\210\251\213B\202\2278\000o\265\333"
 355      E8356488 
 355      A98B4282 
 355      9738006F 
 355      B5DB
 356 0afe 891B8C8E 		.ascii	"\211\033\214\216Wld\300+\012v\332\226\373\343\035>K"
 356      576C64C0 
 356      2B0A76DA 
 356      96FBE31D 
 356      3E4B
 357 0b10 AADB255A 		.ascii	"\252\333%Z\034\256%\202\327'X\322\335vA\277\314\342"
 357      1CAE2582 
 357      D72758D2 
 357      DD7641BF 
 357      CCE2
 358 0b22 4E4DF509 		.ascii	"NM\365\011\242^p\331\334`\360b\003\213\374\202\327-"
 358      A25E70D9 
ARM GAS  C:\Users\gjl\AppData\Local\Temp\ccksrccj.s 			page 28


 358      DC60F062 
 358      038BFC82 
 358      D72D
 359 0b34 A23ED8D0 		.ascii	"\242>\330\320\221y3\251v+x\301.8\255\313-\266\024#\265"
 359      917933A9 
 359      762B78C1 
 359      2E38ADCB 
 359      2DB61423 
 360 0b49 32DDB718 		.ascii	"2\335\267\030\332\221)\313E\001\356\323l`\263-\305`"
 360      DA9129CB 
 360      4501EED3 
 360      6C60B32D 
 360      C560
 361 0b5b 77F83C0C 		.ascii	"w\370<\014\025\351\022\226\211p7Q\264-\315\352%Lp\334"
 361      15E91296 
 361      89703751 
 361      B42DCDEA 
 361      254C70DC 
 362 0b6f E14A751B 		.ascii	"\341Ju\033=\216e\202\323\262\324a\027\323f\246:\035"
 362      3D8E6582 
 362      D3B2D461 
 362      17D366A6 
 362      3A1D
 363 0b81 1EB2324B 		.ascii	"\036\2622Kpe3\202~\010v\030E\210\275%Mp,N\023\015\264"
 363      70653382 
 363      7E087618 
 363      4588BD25 
 363      4D702C4E 
 364 0b98 4D67C62F 		.ascii	"Mg\306/\365:`\011\236\014\247O\356\261\270|\261v\253"
 364      F53A6009 
 364      9E0CA74F 
 364      EEB1B87C 
 364      B176AB
 365 0bab 68B5C0A4 		.ascii	"h\265\300\244\014\217Et\244\013\320\025O|\222\222\341"
 365      0C8F4574 
 365      A40BD015 
 365      4F7C9292 
 365      E1
 366 0bbc B3D89C6E 		.ascii	"\263\330\234n\333\007\226\005\363\347\177\360\316\207"
 366      DB079605 
 366      F3E77FF0 
 366      CE87
 367 0bca 7A9FC741 		.ascii	"z\237\307A\035b\362A\037\033I\373P\366\305\302Wd_\220"
 367      1D62F241 
 367      1F1B49FB 
 367      50F6C5C2 
 367      57645F90 
 368 0bde 462C0184 		.ascii	"F,\001\204+\231\351\263O\322\021\353qCL\301\353\202"
 368      2B99E9B3 
 368      4FD211EB 
 368      71434CC1 
 368      EB82
 369 0bf0 68596A75 		.ascii	"hYju\210\340\244x\306\251g\246\373\022 q\301%\016\017"
 369      88E0A478 
 369      C6A967A6 
 369      FB122071 
 369      C1250E0F 
ARM GAS  C:\Users\gjl\AppData\Local\Temp\ccksrccj.s 			page 29


 370 0c04 E494CF9A 		.ascii	"\344\224\317\232BL!h\027\014\020\001tDp\251\007b\303"
 370      424C2168 
 370      170C1001 
 370      744470A9 
 370      0762C3
 371 0c17 D04E6189 		.ascii	"\320Na\211\340\234\251\206\321\236\004\226\217*\027"
 371      E09CA986 
 371      D19E0496 
 371      8F2A17
 372 0c26 43427833 		.ascii	"CBx3l\242\211y\232\371.\376\231\024\206d\217{v\252\310"
 372      6CA28979 
 372      9AF92EFE 
 372      99148664 
 372      8F7B76AA 
 373 0c3b E2CC24C4 		.ascii	"\342\314$\304\205\322\223\345!\011\3774:.\316\244\267"
 373      85D293E5 
 373      2109FF34 
 373      3A2ECEA4 
 373      B7
 374 0c4c B705F1F7 		.ascii	"\267\005\361\367\202+\343\315%\202K\214\241=4olV\247"
 374      822BE3CD 
 374      25824B8C 
 374      A13D346F 
 374      6C56A7
 375 0c5f 53EF723B 		.ascii	"S\357r;\\N(\361\177\003\233e\3540"
 375      5C4E28F1 
 375      7F039B65 
 375      EC30
 376              		.text
 377              		.section	.gnu.lto_.symtab.50a24282,"",%progbits
 378 0000 75387838 		.ascii	"u8x8_GetMenuEvent\000"
 378      5F476574 
 378      4D656E75 
 378      4576656E 
 378      7400
 379 0012 00       		.ascii	"\000"
 380 0013 00       		.ascii	"\000"
 381 0014 00       		.ascii	"\000"
 382 0015 00000000 		.ascii	"\000\000\000\000\000\000\000\000"
 382      00000000 
 383 001d 48010000 		.ascii	"H\001\000\000"
 384 0021 75387838 		.ascii	"u8x8_gpio_call\000"
 384      5F677069 
 384      6F5F6361 
 384      6C6C00
 385 0030 00       		.ascii	"\000"
 386 0031 02       		.ascii	"\002"
 387 0032 00       		.ascii	"\000"
 388 0033 00000000 		.ascii	"\000\000\000\000\000\000\000\000"
 388      00000000 
 389 003b 50010000 		.ascii	"P\001\000\000"
 390              		.text
 391              		.section	.gnu.lto_.opts,"",%progbits
 392 0000 272D666D 		.ascii	"'-fmath-errno' '-fsigned-zeros' '-ftrapping-math' '"
 392      6174682D 
 392      6572726E 
 392      6F272027 
ARM GAS  C:\Users\gjl\AppData\Local\Temp\ccksrccj.s 			page 30


 392      2D667369 
 393 0033 2D666E6F 		.ascii	"-fno-trapv' '-fno-openmp' '-fno-openacc' '-mcpu=cor"
 393      2D747261 
 393      70762720 
 393      272D666E 
 393      6F2D6F70 
 394 0066 7465782D 		.ascii	"tex-m0' '-mthumb' '-g' '-Os' '-ffunction-sections' "
 394      6D302720 
 394      272D6D74 
 394      68756D62 
 394      2720272D 
 395 0099 272D6666 		.ascii	"'-ffat-lto-objects' '-flto'\000"
 395      61742D6C 
 395      746F2D6F 
 395      626A6563 
 395      74732720 
 396              		.text
 397              		.cfi_sections	.debug_frame
 398              		.section	.text.u8x8_GetMenuEvent,"ax",%progbits
 399              		.align	1
 400              		.global	u8x8_GetMenuEvent
 401              		.code	16
 402              		.thumb_func
 403              		.type	u8x8_GetMenuEvent, %function
 404              	u8x8_GetMenuEvent:
 405              	.LFB2:
 406              		.file 1 "..\\u8g2\\csrc\\u8x8_debounce.c"
   1:..\u8g2\csrc/u8x8_debounce.c **** /*
   2:..\u8g2\csrc/u8x8_debounce.c **** 
   3:..\u8g2\csrc/u8x8_debounce.c ****   u8x8_debounce.c
   4:..\u8g2\csrc/u8x8_debounce.c ****   
   5:..\u8g2\csrc/u8x8_debounce.c ****   Key/button simple debounce algorithm (Addon for u8x8)
   6:..\u8g2\csrc/u8x8_debounce.c ****   
   7:..\u8g2\csrc/u8x8_debounce.c ****   Universal 8bit Graphics Library (https://github.com/olikraus/u8g2/)
   8:..\u8g2\csrc/u8x8_debounce.c **** 
   9:..\u8g2\csrc/u8x8_debounce.c ****   Copyright (c) 2016, olikraus@gmail.com
  10:..\u8g2\csrc/u8x8_debounce.c ****   All rights reserved.
  11:..\u8g2\csrc/u8x8_debounce.c **** 
  12:..\u8g2\csrc/u8x8_debounce.c ****   Redistribution and use in source and binary forms, with or without modification, 
  13:..\u8g2\csrc/u8x8_debounce.c ****   are permitted provided that the following conditions are met:
  14:..\u8g2\csrc/u8x8_debounce.c **** 
  15:..\u8g2\csrc/u8x8_debounce.c ****   * Redistributions of source code must retain the above copyright notice, this list 
  16:..\u8g2\csrc/u8x8_debounce.c ****     of conditions and the following disclaimer.
  17:..\u8g2\csrc/u8x8_debounce.c ****     
  18:..\u8g2\csrc/u8x8_debounce.c ****   * Redistributions in binary form must reproduce the above copyright notice, this 
  19:..\u8g2\csrc/u8x8_debounce.c ****     list of conditions and the following disclaimer in the documentation and/or other 
  20:..\u8g2\csrc/u8x8_debounce.c ****     materials provided with the distribution.
  21:..\u8g2\csrc/u8x8_debounce.c **** 
  22:..\u8g2\csrc/u8x8_debounce.c ****   THIS SOFTWARE IS PROVIDED BY THE COPYRIGHT HOLDERS AND 
  23:..\u8g2\csrc/u8x8_debounce.c ****   CONTRIBUTORS "AS IS" AND ANY EXPRESS OR IMPLIED WARRANTIES, 
  24:..\u8g2\csrc/u8x8_debounce.c ****   INCLUDING, BUT NOT LIMITED TO, THE IMPLIED WARRANTIES OF 
  25:..\u8g2\csrc/u8x8_debounce.c ****   MERCHANTABILITY AND FITNESS FOR A PARTICULAR PURPOSE ARE 
  26:..\u8g2\csrc/u8x8_debounce.c ****   DISCLAIMED. IN NO EVENT SHALL THE COPYRIGHT HOLDER OR 
  27:..\u8g2\csrc/u8x8_debounce.c ****   CONTRIBUTORS BE LIABLE FOR ANY DIRECT, INDIRECT, INCIDENTAL, 
  28:..\u8g2\csrc/u8x8_debounce.c ****   SPECIAL, EXEMPLARY, OR CONSEQUENTIAL DAMAGES (INCLUDING, BUT 
  29:..\u8g2\csrc/u8x8_debounce.c ****   NOT LIMITED TO, PROCUREMENT OF SUBSTITUTE GOODS OR SERVICES; 
  30:..\u8g2\csrc/u8x8_debounce.c ****   LOSS OF USE, DATA, OR PROFITS; OR BUSINESS INTERRUPTION) HOWEVER 
ARM GAS  C:\Users\gjl\AppData\Local\Temp\ccksrccj.s 			page 31


  31:..\u8g2\csrc/u8x8_debounce.c ****   CAUSED AND ON ANY THEORY OF LIABILITY, WHETHER IN CONTRACT, 
  32:..\u8g2\csrc/u8x8_debounce.c ****   STRICT LIABILITY, OR TORT (INCLUDING NEGLIGENCE OR OTHERWISE) 
  33:..\u8g2\csrc/u8x8_debounce.c ****   ARISING IN ANY WAY OUT OF THE USE OF THIS SOFTWARE, EVEN IF 
  34:..\u8g2\csrc/u8x8_debounce.c ****   ADVISED OF THE POSSIBILITY OF SUCH DAMAGE.  
  35:..\u8g2\csrc/u8x8_debounce.c ****   
  36:..\u8g2\csrc/u8x8_debounce.c **** */
  37:..\u8g2\csrc/u8x8_debounce.c **** 
  38:..\u8g2\csrc/u8x8_debounce.c **** #include "u8x8.h"
  39:..\u8g2\csrc/u8x8_debounce.c **** 
  40:..\u8g2\csrc/u8x8_debounce.c **** static uint8_t u8x8_read_pin_state(u8x8_t *u8x8)
  41:..\u8g2\csrc/u8x8_debounce.c **** {
  42:..\u8g2\csrc/u8x8_debounce.c ****   uint8_t i;
  43:..\u8g2\csrc/u8x8_debounce.c ****   uint8_t pin_state;
  44:..\u8g2\csrc/u8x8_debounce.c ****   
  45:..\u8g2\csrc/u8x8_debounce.c ****   pin_state = 255;	/* be compatible with the setup of the default pin setup, which is 255 */
  46:..\u8g2\csrc/u8x8_debounce.c ****   for( i = 0; i < U8X8_PIN_INPUT_CNT; i++ )
  47:..\u8g2\csrc/u8x8_debounce.c ****   {
  48:..\u8g2\csrc/u8x8_debounce.c ****     pin_state <<= 1;
  49:..\u8g2\csrc/u8x8_debounce.c ****     
  50:..\u8g2\csrc/u8x8_debounce.c ****     /* the callback function should put the return value into this variable */
  51:..\u8g2\csrc/u8x8_debounce.c ****     u8x8->gpio_result = 1;
  52:..\u8g2\csrc/u8x8_debounce.c ****     u8x8_gpio_call(u8x8, U8X8_MSG_GPIO(i+U8X8_PIN_OUTPUT_CNT), 0);
  53:..\u8g2\csrc/u8x8_debounce.c ****     pin_state |= u8x8->gpio_result & 1;
  54:..\u8g2\csrc/u8x8_debounce.c ****   }
  55:..\u8g2\csrc/u8x8_debounce.c ****   
  56:..\u8g2\csrc/u8x8_debounce.c ****   return pin_state;
  57:..\u8g2\csrc/u8x8_debounce.c **** }
  58:..\u8g2\csrc/u8x8_debounce.c **** 
  59:..\u8g2\csrc/u8x8_debounce.c **** /*
  60:..\u8g2\csrc/u8x8_debounce.c ****   return 0 to U8X8_PIN_INPUT_CNT-1 if there is a difference
  61:..\u8g2\csrc/u8x8_debounce.c ****   return U8X8_PIN_INPUT_CNT if there is no difference
  62:..\u8g2\csrc/u8x8_debounce.c **** */
  63:..\u8g2\csrc/u8x8_debounce.c **** static uint8_t u8x8_find_first_diff(uint8_t a, uint8_t b)
  64:..\u8g2\csrc/u8x8_debounce.c **** {
  65:..\u8g2\csrc/u8x8_debounce.c ****   uint8_t mask;
  66:..\u8g2\csrc/u8x8_debounce.c ****   uint8_t i;
  67:..\u8g2\csrc/u8x8_debounce.c ****   mask = 1;
  68:..\u8g2\csrc/u8x8_debounce.c ****   i = U8X8_PIN_INPUT_CNT;
  69:..\u8g2\csrc/u8x8_debounce.c ****   do
  70:..\u8g2\csrc/u8x8_debounce.c ****   {
  71:..\u8g2\csrc/u8x8_debounce.c ****     i--;
  72:..\u8g2\csrc/u8x8_debounce.c ****     if ( (a & mask) != (b & mask) )
  73:..\u8g2\csrc/u8x8_debounce.c ****       return i;
  74:..\u8g2\csrc/u8x8_debounce.c ****     mask <<= 1;
  75:..\u8g2\csrc/u8x8_debounce.c ****   } while( i > 0 );
  76:..\u8g2\csrc/u8x8_debounce.c ****   return U8X8_PIN_INPUT_CNT;
  77:..\u8g2\csrc/u8x8_debounce.c **** }
  78:..\u8g2\csrc/u8x8_debounce.c **** 
  79:..\u8g2\csrc/u8x8_debounce.c **** /*
  80:..\u8g2\csrc/u8x8_debounce.c ****   State A:
  81:..\u8g2\csrc/u8x8_debounce.c ****     u8x8->debounce_last_pin_state == current_state 
  82:..\u8g2\csrc/u8x8_debounce.c ****       --> State A
  83:..\u8g2\csrc/u8x8_debounce.c ****     u8x8->debounce_last_pin_state != current_state 
  84:..\u8g2\csrc/u8x8_debounce.c ****       --> u8x8->debounce_last_pin_state = current_state 
  85:..\u8g2\csrc/u8x8_debounce.c ****       --> State B + cnt
  86:..\u8g2\csrc/u8x8_debounce.c **** 
  87:..\u8g2\csrc/u8x8_debounce.c ****   State B + cnt
ARM GAS  C:\Users\gjl\AppData\Local\Temp\ccksrccj.s 			page 32


  88:..\u8g2\csrc/u8x8_debounce.c ****     --> state--
  89:..\u8g2\csrc/u8x8_debounce.c **** 
  90:..\u8g2\csrc/u8x8_debounce.c ****   State B
  91:..\u8g2\csrc/u8x8_debounce.c ****     u8x8->debounce_last_pin_state == current_state 
  92:..\u8g2\csrc/u8x8_debounce.c ****       --> keypress detected
  93:..\u8g2\csrc/u8x8_debounce.c ****       --> State C
  94:..\u8g2\csrc/u8x8_debounce.c ****     u8x8->debounce_last_pin_state != current_state 
  95:..\u8g2\csrc/u8x8_debounce.c ****       --> State A
  96:..\u8g2\csrc/u8x8_debounce.c **** 
  97:..\u8g2\csrc/u8x8_debounce.c ****   State C
  98:..\u8g2\csrc/u8x8_debounce.c ****     u8x8->debounce_last_pin_state == current_state 
  99:..\u8g2\csrc/u8x8_debounce.c ****       --> State C
 100:..\u8g2\csrc/u8x8_debounce.c ****     u8x8->debounce_last_pin_state != current_state 
 101:..\u8g2\csrc/u8x8_debounce.c ****       --> State A
 102:..\u8g2\csrc/u8x8_debounce.c **** 
 103:..\u8g2\csrc/u8x8_debounce.c **** */
 104:..\u8g2\csrc/u8x8_debounce.c **** 
 105:..\u8g2\csrc/u8x8_debounce.c **** #ifdef __unix__xxxxxx_THIS_IS_DISABLED
 106:..\u8g2\csrc/u8x8_debounce.c **** 
 107:..\u8g2\csrc/u8x8_debounce.c **** #include <stdio.h>
 108:..\u8g2\csrc/u8x8_debounce.c **** #include <stdlib.h>
 109:..\u8g2\csrc/u8x8_debounce.c **** uint8_t u8x8_GetMenuEvent(u8x8_t *u8x8)
 110:..\u8g2\csrc/u8x8_debounce.c **** {
 111:..\u8g2\csrc/u8x8_debounce.c ****     int c;
 112:..\u8g2\csrc/u8x8_debounce.c ****     c = getc(stdin);
 113:..\u8g2\csrc/u8x8_debounce.c ****     switch(c)
 114:..\u8g2\csrc/u8x8_debounce.c ****     {
 115:..\u8g2\csrc/u8x8_debounce.c ****         case 'n':
 116:..\u8g2\csrc/u8x8_debounce.c ****             return  U8X8_MSG_GPIO_MENU_NEXT;
 117:..\u8g2\csrc/u8x8_debounce.c ****         case 'p':
 118:..\u8g2\csrc/u8x8_debounce.c ****             return  U8X8_MSG_GPIO_MENU_PREV;
 119:..\u8g2\csrc/u8x8_debounce.c ****         case 's':
 120:..\u8g2\csrc/u8x8_debounce.c ****             return  U8X8_MSG_GPIO_MENU_SELECT;
 121:..\u8g2\csrc/u8x8_debounce.c ****         case 'h':
 122:..\u8g2\csrc/u8x8_debounce.c ****             return  U8X8_MSG_GPIO_MENU_HOME;
 123:..\u8g2\csrc/u8x8_debounce.c ****         case 'x':
 124:..\u8g2\csrc/u8x8_debounce.c ****             exit(0);
 125:..\u8g2\csrc/u8x8_debounce.c ****         default:
 126:..\u8g2\csrc/u8x8_debounce.c ****             puts("press n, p, s, h or x");
 127:..\u8g2\csrc/u8x8_debounce.c ****             break;
 128:..\u8g2\csrc/u8x8_debounce.c ****     }
 129:..\u8g2\csrc/u8x8_debounce.c ****     return 0;
 130:..\u8g2\csrc/u8x8_debounce.c **** }
 131:..\u8g2\csrc/u8x8_debounce.c **** 
 132:..\u8g2\csrc/u8x8_debounce.c **** 
 133:..\u8g2\csrc/u8x8_debounce.c **** #else  /* __unix__ */
 134:..\u8g2\csrc/u8x8_debounce.c **** 
 135:..\u8g2\csrc/u8x8_debounce.c **** 
 136:..\u8g2\csrc/u8x8_debounce.c **** #define U8X8_DEBOUNCE_WAIT 1
 137:..\u8g2\csrc/u8x8_debounce.c **** /* do debounce and return a GPIO msg which indicates the event */
 138:..\u8g2\csrc/u8x8_debounce.c **** /* returns 0, if there is no event */
 139:..\u8g2\csrc/u8x8_debounce.c **** uint8_t u8x8_GetMenuEvent(u8x8_t *u8x8)
 140:..\u8g2\csrc/u8x8_debounce.c **** {
 407              		.loc 1 140 0
 408              		.cfi_startproc
 409              		@ args = 0, pretend = 0, frame = 0
 410              		@ frame_needed = 0, uses_anonymous_args = 0
ARM GAS  C:\Users\gjl\AppData\Local\Temp\ccksrccj.s 			page 33


 411              	.LVL0:
 412 0000 F8B5     		push	{r3, r4, r5, r6, r7, lr}
 413              		.cfi_def_cfa_offset 24
 414              		.cfi_offset 3, -24
 415              		.cfi_offset 4, -20
 416              		.cfi_offset 5, -16
 417              		.cfi_offset 6, -12
 418              		.cfi_offset 7, -8
 419              		.cfi_offset 14, -4
 420              		.loc 1 140 0
 421 0002 0400     		movs	r4, r0
 422              	.LVL1:
 423 0004 5026     		movs	r6, #80
 424              	.LBB6:
 425              	.LBB7:
  45:..\u8g2\csrc/u8x8_debounce.c ****   for( i = 0; i < U8X8_PIN_INPUT_CNT; i++ )
 426              		.loc 1 45 0
 427 0006 FF25     		movs	r5, #255
 428              	.LVL2:
 429              	.L2:
  51:..\u8g2\csrc/u8x8_debounce.c ****     u8x8_gpio_call(u8x8, U8X8_MSG_GPIO(i+U8X8_PIN_OUTPUT_CNT), 0);
 430              		.loc 1 51 0
 431 0008 0123     		movs	r3, #1
 432 000a 671D     		adds	r7, r4, #5
 433 000c FB77     		strb	r3, [r7, #31]
  52:..\u8g2\csrc/u8x8_debounce.c ****     pin_state |= u8x8->gpio_result & 1;
 434              		.loc 1 52 0
 435 000e 0022     		movs	r2, #0
 436 0010 3100     		movs	r1, r6
 437 0012 2000     		movs	r0, r4
 438 0014 FFF7FEFF 		bl	u8x8_gpio_call
 439              	.LVL3:
  53:..\u8g2\csrc/u8x8_debounce.c ****   }
 440              		.loc 1 53 0
 441 0018 0122     		movs	r2, #1
 442 001a 9540     		lsls	r5, r5, r2
 443              	.LVL4:
 444 001c FB7F     		ldrb	r3, [r7, #31]
 445 001e B618     		adds	r6, r6, r2
 446              	.LVL5:
 447 0020 1340     		ands	r3, r2
 448 0022 1D43     		orrs	r5, r3
 449 0024 F6B2     		uxtb	r6, r6
 450 0026 EDB2     		uxtb	r5, r5
 451              	.LVL6:
  46:..\u8g2\csrc/u8x8_debounce.c ****   {
 452              		.loc 1 46 0
 453 0028 562E     		cmp	r6, #86
 454 002a EDD1     		bne	.L2
 455              	.LVL7:
 456              	.LBE7:
 457              	.LBE6:
 141:..\u8g2\csrc/u8x8_debounce.c ****   uint8_t pin_state;
 142:..\u8g2\csrc/u8x8_debounce.c ****   uint8_t result_msg = 0;	/* invalid message */
 143:..\u8g2\csrc/u8x8_debounce.c ****   
 144:..\u8g2\csrc/u8x8_debounce.c ****   pin_state = u8x8_read_pin_state(u8x8);
 145:..\u8g2\csrc/u8x8_debounce.c ****   
ARM GAS  C:\Users\gjl\AppData\Local\Temp\ccksrccj.s 			page 34


 146:..\u8g2\csrc/u8x8_debounce.c ****   /* States A, B, C & D are encoded in the upper 4 bit*/
 147:..\u8g2\csrc/u8x8_debounce.c ****   switch(u8x8->debounce_state)
 458              		.loc 1 147 0
 459 002c 2200     		movs	r2, r4
 460 002e 0832     		adds	r2, r2, #8
 461 0030 D37F     		ldrb	r3, [r2, #31]
 462 0032 102B     		cmp	r3, #16
 463 0034 0ED0     		beq	.L4
 464 0036 0021     		movs	r1, #0
 465 0038 202B     		cmp	r3, #32
 466 003a 15D0     		beq	.L5
 467 003c 8B42     		cmp	r3, r1
 468 003e 2AD1     		bne	.L16
 148:..\u8g2\csrc/u8x8_debounce.c ****   {
 149:..\u8g2\csrc/u8x8_debounce.c ****     case 0x00:	/* State A, default state */
 150:..\u8g2\csrc/u8x8_debounce.c ****       if ( u8x8->debounce_default_pin_state != pin_state )
 469              		.loc 1 150 0
 470 0040 A11D     		adds	r1, r4, #6
 471 0042 C97F     		ldrb	r1, [r1, #31]
 142:..\u8g2\csrc/u8x8_debounce.c ****   
 472              		.loc 1 142 0
 473 0044 1800     		movs	r0, r3
 474              		.loc 1 150 0
 475 0046 A942     		cmp	r1, r5
 476 0048 28D0     		beq	.L7
 151:..\u8g2\csrc/u8x8_debounce.c ****       {
 152:..\u8g2\csrc/u8x8_debounce.c **** 	u8x8->debounce_last_pin_state = pin_state;
 153:..\u8g2\csrc/u8x8_debounce.c **** 	u8x8->debounce_state = 0x010 + U8X8_DEBOUNCE_WAIT;
 477              		.loc 1 153 0
 478 004a 1121     		movs	r1, #17
 152:..\u8g2\csrc/u8x8_debounce.c **** 	u8x8->debounce_state = 0x010 + U8X8_DEBOUNCE_WAIT;
 479              		.loc 1 152 0
 480 004c 0734     		adds	r4, r4, #7
 481              	.LVL8:
 482 004e E577     		strb	r5, [r4, #31]
 483              		.loc 1 153 0
 484 0050 D177     		strb	r1, [r2, #31]
 485 0052 23E0     		b	.L7
 486              	.LVL9:
 487              	.L4:
 154:..\u8g2\csrc/u8x8_debounce.c ****       }
 155:..\u8g2\csrc/u8x8_debounce.c ****       break;
 156:..\u8g2\csrc/u8x8_debounce.c ****     case 0x10:	/* State B */
 157:..\u8g2\csrc/u8x8_debounce.c ****       if ( u8x8->debounce_last_pin_state != pin_state )
 488              		.loc 1 157 0
 489 0054 0734     		adds	r4, r4, #7
 490              	.LVL10:
 491 0056 E37F     		ldrb	r3, [r4, #31]
 492 0058 0020     		movs	r0, #0
 493 005a AB42     		cmp	r3, r5
 494 005c 01D0     		beq	.L8
 158:..\u8g2\csrc/u8x8_debounce.c ****       {
 159:..\u8g2\csrc/u8x8_debounce.c **** 	u8x8->debounce_state = 0x00;	/* back to state A */
 495              		.loc 1 159 0
 496 005e D077     		strb	r0, [r2, #31]
 497 0060 1CE0     		b	.L7
 498              	.L8:
ARM GAS  C:\Users\gjl\AppData\Local\Temp\ccksrccj.s 			page 35


 160:..\u8g2\csrc/u8x8_debounce.c ****       }
 161:..\u8g2\csrc/u8x8_debounce.c ****       else
 162:..\u8g2\csrc/u8x8_debounce.c ****       {
 163:..\u8g2\csrc/u8x8_debounce.c **** 	/* keypress detected */
 164:..\u8g2\csrc/u8x8_debounce.c **** 	u8x8->debounce_last_pin_state = pin_state;
 165:..\u8g2\csrc/u8x8_debounce.c **** 	//result_msg = U8X8_MSG_GPIO_MENU_NEXT;
 166:..\u8g2\csrc/u8x8_debounce.c **** 	u8x8->debounce_state = 0x020;	/* got to state C */	
 499              		.loc 1 166 0
 500 0062 2023     		movs	r3, #32
 501 0064 D377     		strb	r3, [r2, #31]
 502 0066 19E0     		b	.L7
 503              	.LVL11:
 504              	.L5:
 167:..\u8g2\csrc/u8x8_debounce.c ****       }
 168:..\u8g2\csrc/u8x8_debounce.c ****       break;
 169:..\u8g2\csrc/u8x8_debounce.c ****     case 0x20:	/* State C */
 170:..\u8g2\csrc/u8x8_debounce.c ****       /* wait until key release */
 171:..\u8g2\csrc/u8x8_debounce.c ****       if ( u8x8->debounce_default_pin_state == pin_state )
 505              		.loc 1 171 0
 506 0068 A31D     		adds	r3, r4, #6
 507 006a DB7F     		ldrb	r3, [r3, #31]
 142:..\u8g2\csrc/u8x8_debounce.c ****   
 508              		.loc 1 142 0
 509 006c 0800     		movs	r0, r1
 510              		.loc 1 171 0
 511 006e AB42     		cmp	r3, r5
 512 0070 14D1     		bne	.L7
 513              	.LBB8:
 514              	.LBB9:
  68:..\u8g2\csrc/u8x8_debounce.c ****   do
 515              		.loc 1 68 0
 516 0072 0620     		movs	r0, #6
  67:..\u8g2\csrc/u8x8_debounce.c ****   i = U8X8_PIN_INPUT_CNT;
 517              		.loc 1 67 0
 518 0074 0123     		movs	r3, #1
 519              	.LBE9:
 520              	.LBE8:
 172:..\u8g2\csrc/u8x8_debounce.c ****       {
 173:..\u8g2\csrc/u8x8_debounce.c **** 	u8x8->debounce_state = 0x00;	/* back to state A */
 521              		.loc 1 173 0
 522 0076 D177     		strb	r1, [r2, #31]
 174:..\u8g2\csrc/u8x8_debounce.c **** 	result_msg = U8X8_MSG_GPIO(u8x8_find_first_diff(u8x8->debounce_default_pin_state, u8x8->debounce_l
 523              		.loc 1 174 0
 524 0078 0734     		adds	r4, r4, #7
 525              	.LVL12:
 526 007a E27F     		ldrb	r2, [r4, #31]
 527              	.LVL13:
 528              	.LBB11:
 529              	.LBB10:
  72:..\u8g2\csrc/u8x8_debounce.c ****       return i;
 530              		.loc 1 72 0
 531 007c 5540     		eors	r5, r2
 532              	.LVL14:
 533              	.L10:
  71:..\u8g2\csrc/u8x8_debounce.c ****     if ( (a & mask) != (b & mask) )
 534              		.loc 1 71 0
 535 007e 0138     		subs	r0, r0, #1
ARM GAS  C:\Users\gjl\AppData\Local\Temp\ccksrccj.s 			page 36


 536              	.LVL15:
 537 0080 C0B2     		uxtb	r0, r0
 538              	.LVL16:
  72:..\u8g2\csrc/u8x8_debounce.c ****       return i;
 539              		.loc 1 72 0
 540 0082 1D42     		tst	r5, r3
 541 0084 04D1     		bne	.L9
  74:..\u8g2\csrc/u8x8_debounce.c ****   } while( i > 0 );
 542              		.loc 1 74 0
 543 0086 5B00     		lsls	r3, r3, #1
 544              	.LVL17:
 545 0088 DBB2     		uxtb	r3, r3
 546              	.LVL18:
  75:..\u8g2\csrc/u8x8_debounce.c ****   return U8X8_PIN_INPUT_CNT;
 547              		.loc 1 75 0
 548 008a 0028     		cmp	r0, #0
 549 008c F7D1     		bne	.L10
  76:..\u8g2\csrc/u8x8_debounce.c **** }
 550              		.loc 1 76 0
 551 008e 0630     		adds	r0, r0, #6
 552              	.LVL19:
 553              	.L9:
 554              	.LBE10:
 555              	.LBE11:
 556              		.loc 1 174 0
 557 0090 5030     		adds	r0, r0, #80
 558 0092 C0B2     		uxtb	r0, r0
 559              	.LVL20:
 560 0094 02E0     		b	.L7
 561              	.LVL21:
 562              	.L16:
 142:..\u8g2\csrc/u8x8_debounce.c ****   
 563              		.loc 1 142 0
 564 0096 0800     		movs	r0, r1
 175:..\u8g2\csrc/u8x8_debounce.c ****       }
 176:..\u8g2\csrc/u8x8_debounce.c ****       else
 177:..\u8g2\csrc/u8x8_debounce.c ****       {
 178:..\u8g2\csrc/u8x8_debounce.c **** 	//result_msg = U8X8_MSG_GPIO_MENU_NEXT;
 179:..\u8g2\csrc/u8x8_debounce.c **** 	// maybe implement autorepeat here 
 180:..\u8g2\csrc/u8x8_debounce.c ****       }
 181:..\u8g2\csrc/u8x8_debounce.c ****       break;
 182:..\u8g2\csrc/u8x8_debounce.c ****     default:
 183:..\u8g2\csrc/u8x8_debounce.c ****       u8x8->debounce_state--;	/* count down, until there is a valid state */
 565              		.loc 1 183 0
 566 0098 013B     		subs	r3, r3, #1
 567 009a D377     		strb	r3, [r2, #31]
 568              	.LVL22:
 569              	.L7:
 184:..\u8g2\csrc/u8x8_debounce.c ****       break;
 185:..\u8g2\csrc/u8x8_debounce.c ****   }
 186:..\u8g2\csrc/u8x8_debounce.c ****   return result_msg;
 187:..\u8g2\csrc/u8x8_debounce.c **** }
 570              		.loc 1 187 0
 571              		@ sp needed
 572              	.LVL23:
 573 009c F8BD     		pop	{r3, r4, r5, r6, r7, pc}
 574              		.cfi_endproc
ARM GAS  C:\Users\gjl\AppData\Local\Temp\ccksrccj.s 			page 37


 575              	.LFE2:
 576              		.size	u8x8_GetMenuEvent, .-u8x8_GetMenuEvent
 577              		.text
 578              	.Letext0:
 579              		.file 2 "c:\\program files (x86)\\cypress\\psoc creator\\4.1\\psoc creator\\import\\gnu\\arm\\5.4.
 580              		.file 3 "c:\\program files (x86)\\cypress\\psoc creator\\4.1\\psoc creator\\import\\gnu\\arm\\5.4.
 581              		.file 4 "..\\u8g2\\csrc\\u8x8.h"