ARM GAS  C:\Users\gjl\AppData\Local\Temp\ccAtyu2A.s 			page 1


   1              		.syntax unified
   2              		.cpu cortex-m0
   3              		.fpu softvfp
   4              		.eabi_attribute 20, 1
   5              		.eabi_attribute 21, 1
   6              		.eabi_attribute 23, 3
   7              		.eabi_attribute 24, 1
   8              		.eabi_attribute 25, 1
   9              		.eabi_attribute 26, 1
  10              		.eabi_attribute 30, 4
  11              		.eabi_attribute 34, 0
  12              		.eabi_attribute 18, 4
  13              		.thumb
  14              		.syntax unified
  15              		.file	"u8x8_u16toa.c"
  16              		.text
  17              	.Ltext0:
  18              		.section	.gnu.lto_.profile.1a3f301,"",%progbits
  19 0000 789C6361 		.ascii	"x\234ca`d`a`\000\222r\302\000\000\271\000<"
  19      60646061 
  19      60009272 
  19      C20000B9 
  19      003C
  20              		.text
  21              		.section	.gnu.lto_.icf.1a3f301,"",%progbits
  22 0000 789C6361 		.ascii	"x\234ca`d\000\001\021\006\004`fX\376w\303-v\306\255"
  22      60640001 
  22      11060460 
  22      6658FE77 
  22      C32D76C6 
  23 0015 2BE61CE3 		.ascii	"+\346\034\343gj\1775\3475\037\003\000b\273\011)"
  23      676A7F35 
  23      E7351F03 
  23      0062BB09 
  23      29
  24              		.text
  25              		.section	.gnu.lto_.jmpfuncs.1a3f301,"",%progbits
  26 0000 789C6361 		.ascii	"x\234ca`d\000\001S\006\004`b`bdd\256\257g\004Q\214\365"
  26      60640001 
  26      53060460 
  26      62606264 
  26      64AEAF67 
  27 0018 2C8C7F99 		.ascii	",\214\177\231\030w\356|s\233\275\376oCGC\203@+3C'3P"
  27      1877EE7C 
  27      739BBDFE 
  27      6F434743 
  27      83402B33 
  28 0030 1DE372C6 		.ascii	"\035\343r\306z\240\352J\260&\000_*\014Z"
  28      7AA0EA4A 
  28      B026005F 
  28      2A0C5A
  29              		.text
  30              		.section	.gnu.lto_.inline.1a3f301,"",%progbits
  31 0000 789C6361 		.ascii	"x\234ca`d\000\001\033\006\004`b`\340\373\316\310\310"
  31      60640001 
  31      1B060460 
  31      6260E0FB 
ARM GAS  C:\Users\gjl\AppData\Local\Temp\ccAtyu2A.s 			page 2


  31      CEC8C8
  32 0013 C024FAE0 		.ascii	"\300$\372\340\275,\003{\207:\023H\224\221\201S\220\221"
  32      BD2C037B 
  32      873A1348 
  32      94918153 
  32      9091
  33 0025 919103A8 		.ascii	"\221\221\003\250\236\231\351\002?\003\333\002y&\006"
  33      9E99E902 
  33      3F03DB02 
  33      792606
  34 0034 20830524 		.ascii	" \203\005$\311\302\013\3226\301\217\001\000\015X\007"
  34      C9C20BD2 
  34      36C18F01 
  34      000D5807 
  35 0044 AE       		.ascii	"\256"
  36              		.text
  37              		.section	.gnu.lto_.pureconst.1a3f301,"",%progbits
  38 0000 789C6361 		.ascii	"x\234ca`d`e```b\220b\224\000\000\000\353\000@"
  38      60646065 
  38      60606062 
  38      90629400 
  38      0000EB00 
  39              		.text
  40              		.section	.gnu.lto_u8x8_u16toap.1a3f301,"",%progbits
  41 0000 789C6D54 		.ascii	"x\234mT\337oTE\024\2363\347\376\332\237l\033x\2621\365"
  41      DF6F5445 
  41      149E33E7 
  41      FEDA9F6C 
  41      1B78B231 
  42 0015 A1560CA9 		.ascii	"\241V\014\251\250\011\362\350\223\177\200\317\030C\012"
  42      A809F2E8 
  42      937F80CF 
  42      18430A
  43 0024 313E10C4 		.ascii	"1>\020\304\2021\276p\273ww\221D\022\011R\253\202\033"
  43      8231BE70 
  43      BB777791 
  43      44120952 
  43      AB821B
  44 0037 53488B08 		.ascii	"SH\213\010m\241?\250\024\275\253\301\032R\201\022\177"
  44      6DA13FA8 
  44      14BDABC1 
  44      1A528112 
  44      7F
  45 0048 60520885 		.ascii	"`R\010\205\204\020\210\311vS *\355\372\235\231\325,"
  45      841088C9 
  45      7653202A 
  45      EDFA9D99 
  45      D52C
  46 005a 8993BD73 		.ascii	"\211\223\275sg\316|\337\231o\2769w\035EJ\332\032W\251"
  46      67CE7CDF 
  46      996FBE39 
  46      771D454A 
  46      DA1A57A9 
  47 006e E7F07E0F 		.ascii	"\347\360~\017\017%\024\351\017/*\325\033h\362\354\200"
  47      0F2514E9 
  47      0F2F2AD5 
  47      1B68F2EC 
ARM GAS  C:\Users\gjl\AppData\Local\Temp\ccAtyu2A.s 			page 3


  47      80
  48 007f 29904125 		.ascii	")\220A%\0104\1770\243T\230t\013\276\012\323\256\005"
  48      08347F30 
  48      A3549874 
  48      0BBE0AD3 
  48      AE05
  49 0091 54024F3B 		.ascii	"T\002O;\373*\022\367\243\014\342\216\305\223O$\3570"
  49      FB2A12F7 
  49      A30CE28E 
  49      C5934F24 
  49      EF30
  50 00a3 20B55B73 		.ascii	" \265[s\340z\216O\273\331S\024;\344\232Nv\017\224m\367"
  50      E07A8E4F 
  50      BBD95314 
  50      3BE49A4E 
  50      760F946D 
  51 00b8 F5B2A6B9 		.ascii	"\365\262\246\271\302\310!^\322EV\344`\272\370\323\247"
  51      C2C8215E 
  51      D24556E4 
  51      60BAF8D3 
  51      A7
  52 00c9 B7B23225 		.ascii	"\267\2622%j\307\364\263\360\312^\177\355`\030\346\303"
  52      6AC7F4B3 
  52      F0CA5E7F 
  52      ED6018E6 
  52      C3
  53 00da 1BC55FB3 		.ascii	"\033\305_\263\237\014\305N\221\265\252kEC\324F\203\324"
  53      9F0CC54E 
  53      91B5AA6B 
  53      4543D446 
  53      83D4
  54 00ec 26273846 		.ascii	"&'8Fk\201\375\353\363\363{=~\212\024\306\345\245\203"
  54      6B81FDEB 
  54      F3F37B3D 
  54      7E8A14C6 
  54      E5A583
  55 00ff 57FDCEA3 		.ascii	"W\375\316\243\302\013\017l\015\023Ef\372\222\270\231"
  55      C20B0F6C 
  55      0D134566 
  55      FA92B899 
  56 010f 8790A2E3 		.ascii	"\207\220\242\343\324\011\364\371\372\303x\225\325 \222"
  56      D409F4F9 
  56      FAC37895 
  56      D52092
  57 011e AE54670F 		.ascii	"\256Tg\017\247\254\206\034\246\245\201\357\377\314\360"
  57      A7AC861C 
  57      A6A581EF 
  57      FFCCF0
  58 012d D326EFC9 		.ascii	"\323&\357\311GG\226\222\215\274s\233C\267\310\016\235"
  58      47479692 
  58      8DBC739B 
  58      43B7C80E 
  58      9D
  59 013e B4794F20 		.ascii	"\264yO \357W&\257\243h\230:\005~q\360\350GI~\306P\017"
  59      EF5726AF 
  59      A368983A 
  59      057E71F0 
ARM GAS  C:\Users\gjl\AppData\Local\Temp\ccAtyu2A.s 			page 4


  59      E847497E 
  60 0155 8413C37E 		.ascii	"\204\023\303~\307\200P\343\251\035\375a\234o\027\366"
  60      C78050E3 
  60      A91DFD61 
  60      9C6F17F6 
  61 0165 C8E36C69 		.ascii	"\310\343li\000\337\371\355\330\224\313\317\032\342\265"
  61      00DFF9ED 
  61      D894CBCF 
  61      1AE2B5
  62 0174 F9F274B2 		.ascii	"\371\362t\262A\234\334\366q\030\367\202\350\322)K|\261"
  62      419CDCF6 
  62      7118F782 
  62      E8D2294B 
  62      7CB1
  63 0186 8DD6FF47 		.ascii	"\215\326\377G+\377\274\377\210\317\353\014\355\357\376"
  63      2BFFBCFF 
  63      88CFEB0C 
  63      EDEFFE
  64 0195 FA8CDBA0 		.ascii	"\372\214\333\240\215\275\026F/\013i\354\177H7GW\016"
  64      8DBD1646 
  64      2F0B69EC 
  64      7F483747 
  64      570E
  65 01a7 66BC4288 		.ascii	"f\274B\210\326N\343\324A\247\361\214R\207\270\014s'"
  65      D64EE3D4 
  65      41A7F18C 
  65      5287B80C 
  65      7327
  66 01b9 C843D170 		.ascii	"\310C\321p\363\312\360\253qX\257Ga|\332\375\203W\223"
  66      F3CAF0AB 
  66      7158AF47 
  66      617CDAFD 
  66      835793
  67 01cc 39AE363D 		.ascii	"9\2566=\034\004\016\006\000\351*\301\242$\020O\230\325"
  67      1C040E06 
  67      00E92AC1 
  67      A224104F 
  67      98D5
  68 01de A4E95366 		.ascii	"\244\351Sf5\015\243T\206\344\006\262r\0279\203n1k\255"
  68      350DA354 
  68      86E406B2 
  68      72173983 
  68      6E316BAD 
  69 01f2 268B5255 		.ascii	"&\213RU\010\030#\265\2505^|\223\362\361\3315F\017\220"
  69      081823B5 
  69      A8355E7C 
  69      93F2F1D9 
  69      35460F90 
  70 0206 107E6166 		.ascii	"\020~af\377<\311=9Ru4\011\373\004sn\207\301\214\033"
  70      FF3CC93D 
  70      39527534 
  70      09FB0473 
  70      6E87C18C 
  71 021b 4C5FF1BB 		.ascii	"L_\361\273K\276`\\\310<c\014^\324\254P\324|\233\242"
  71      4BBE605C 
  71      C83C630C 
  71      5ED4AC50 
ARM GAS  C:\Users\gjl\AppData\Local\Temp\ccAtyu2A.s 			page 5


  71      D47C9BA2 
  72 022f FED2F557 		.ascii	"\376\322\365W\004\034q\"b\212\330E\002m\330\320\211"
  72      041C7122 
  72      628AD845 
  72      026DD8D0 
  72      89
  73 0240 A002A6AF 		.ascii	"\240\002\246\257t{\203\305\244\"\226\022\035\3373;\232"
  73      747B83C5 
  73      A4229612 
  73      1DDF333B 
  73      9A
  74 0251 B42989A6 		.ascii	"\264)\211\246\314\246\226\003\345\000\231\035\002%\212"
  74      CCA69603 
  74      E500991D 
  74      02258A
  75 0260 A026A76C 		.ascii	"\240&\247l\330Qvb\362\222Z\240\302\357\321\340-\262"
  75      D8517662 
  75      F2925AA0 
  75      C2EFD1E0 
  75      2DB2
  76 0272 89CDCE68 		.ascii	"\211\315\316h5\302(\351\240K\360\364>\252\221\023q\213"
  76      35C228E9 
  76      A04BF0F4 
  76      3EAA9113 
  76      718B
  77 0284 4C533CBB 		.ascii	"LS<\273\015Y]U\360!;_\333\363`\202-5\035\241\214\241"
  77      0D595D55 
  77      F0213B5F 
  77      DBF36082 
  77      2D351DA1 
  78 029a F29067E7 		.ascii	"\362\220g\347\331\2103\210\"\224\357[X-\261f\023\330"
  78      D9883388 
  78      2294EF5B 
  78      582DB166 
  78      13D8
  79 02ac 54C6C399 		.ascii	"T\306\303\231\013\357\247\313t\270W\256\374%\230/<\372"
  79      0BEFA7CB 
  79      74B857AE 
  79      FC25982F 
  79      3CFA
  80 02be 5ACCA1B3 		.ascii	"Z\314\241\263T&Q\213\224#\245\225\276\306.9\010\004"
  80      5426518B 
  80      9423A595 
  80      BEC62E39 
  80      0804
  81 02d0 71B97A79 		.ascii	"q\271zy9-y|J\322t\323\311G\345\2109\353\326\203_|Kj"
  81      392D797C 
  81      4AD274D3 
  81      C947E588 
  81      39EBD683 
  82 02e8 85B4C7FC 		.ascii	"\205\264\307\374\031\027T\253\361\307Sg\002\266\216"
  82      191754AB 
  82      F1C75367 
  82      02B68E
  83 02f7 18AEDBB0 		.ascii	"\030\256\333\260\307@\270\331+-^]\212\2626'CE\345\306"
  83      C740B8D9 
  83      2B2D5E5D 
ARM GAS  C:\Users\gjl\AppData\Local\Temp\ccAtyu2A.s 			page 6


  83      8AB23627 
  83      4345E5C6 
  84 030b A9C594F5 		.ascii	"\251\305\224\365\337\241s\366\233\251\221\216\330\327"
  84      DFA173F6 
  84      9BA9918E 
  84      D8D7
  85 0319 908EFF99 		.ascii	"\220\216\377\231\032\261\\\265\376\221\261\235{\325"
  85      1AB15CB5 
  85      FE91B19D 
  85      7BD5
  86 0327 AF2186E2 		.ascii	"\257!\206\342\320\363\307\261\236s\037\235\360\240\300"
  86      D0F3C7B1 
  86      9E731F9D 
  86      F0A0C0
  87 0336 112FC14B 		.ascii	"\021/\301Kb\013\017\224\026d\036\030\031*\261\315\274"
  87      620B0F94 
  87      16641E18 
  87      192AB1CD 
  87      BC
  88 0347 9EBEA136 		.ascii	"\236\276\2416\257\220\001\322\227\342\203\237K\325\351"
  88      AF9001D2 
  88      97E2839F 
  88      4BD5E9
  89 0356 271A86AE 		.ascii	"'\032\206\256\334[\270\227\261\206\212/_\37409\227\370"
  89      DC5BB897 
  89      B1868A2F 
  89      5FFC3039 
  89      97F8
  90 0368 D7D055C6 		.ascii	"\327\320U\306\317\014}k\374\214\341g\363\015\340[\242"
  90      CF0C7D6B 
  90      FC8CE167 
  90      F30DE05B 
  90      A2
  91 0379 0A56EEA2 		.ascii	"\012V\356\242P\357\277i\017\225\221\023T5a\037\024\374"
  91      50EFBF69 
  91      0F959113 
  91      5435611F 
  91      14FC
  92 038b 935D5D9B 		.ascii	"\223]]\233\360\333\265\361\215\0276u\367\274\335\215"
  92      F0DBB5F1 
  92      8D173675 
  92      F7BCDD8D 
  93 039b D1BB1B5F 		.ascii	"\321\273\033_\337\365\374\206\235\3337wu+g\313\326\236"
  93      DFF5FC86 
  93      9DDB3777 
  93      752B67CB 
  93      D69E
  94 03ad 9DF40E75 		.ascii	"\235\364\016u\323\026~k{\317?w\020\233\303"
  94      D3167E6B 
  94      7BCF3F77 
  94      109BC3
  95              		.text
  96              		.section	.gnu.lto_u8x8_u16toa.1a3f301,"",%progbits
  97 0000 789C5552 		.ascii	"x\234URKO\024A\020\256\257{^\254\273\300\335\215\201"
  97      4B4F1441 
  97      10AEAF7B 
  97      5EACBBC0 
ARM GAS  C:\Users\gjl\AppData\Local\Temp\ccAtyu2A.s 			page 7


  97      DD8D81
  98 0013 68B2E1B2 		.ascii	"h\262\341\262\361\221\020\376\000\177\2003\306\2205"
  98      F19110FE 
  98      007F8033 
  98      C69035
  99 0022 F148A262 		.ascii	"\361H\242b\274M/\303\254r\363\340\032@\010&BXT^\276"
  99      BC4D2FC3 
  99      AC72F3E0 
  99      1A400826 
  99      4258545E 
 100 0037 920D9789 		.ascii	"\222\015\227\211\312\0151\022\211\007\017*&\204\200"
 100      CA0D3112 
 100      89070F2A 
 100      268480
 101 0046 8785600C 		.ascii	"\207\205`\014\006\030\253f\274\330\231\236\256\252\251"
 101      0618AB66 
 101      BCD8999E 
 101      AEAAA9
 102 0055 EFABAFAA 		.ascii	"\357\253\257\252\307\"\220\254nEt\216\317\323\274\241"
 102      C72290AC 
 102      6E45748E 
 102      CFD3BCA1 
 103 0065 09EADE1A 		.ascii	"\011\352\336\032Q\331S\200\030\306\003\371\012>~\251"
 103      51D95380 
 103      18C603F9 
 103      0A3E7EA9 
 104 0075 63858F43 		.ascii	"c\205\217C\213\343\372@\205\234f\261\273\367~\354G\263"
 104      8BE3FA40 
 104      859C66B1 
 104      BBF77EEC 
 104      47B3
 105 0087 B8401BBB 		.ascii	"\270@\033\273\017\315\372\260\3331c\314\240\371\266"
 105      0FCDFAB0 
 105      DB3163CC 
 105      A0F9B6
 106 0096 F2B579B4 		.ascii	"\362\265y\264\026Y\241V\024+B\015y\314 /%f\321\301\271"
 106      1659A156 
 106      142B420D 
 106      79CC202F 
 106      2566D1C1 
 107 00ab 2BF1EFA8 		.ascii	"+\361\357\250%e\022\342\365\306\352\304\251\224\251"
 107      256512E2 
 107      F5C6EAC4 
 107      A994A9
 108 00ba 95DDCAE3 		.ascii	"\225\335\312\343\267\2079\335\016b{\376h\352 S\230\026"
 108      B78739DD 
 108      0E627BFE 
 108      68EA2053 
 108      9816
 109 00cc 5653ED33 		.ascii	"VS\3553v\2505\236A\013\353Sf}\302\254\034\"\314\241"
 109      76A8359E 
 109      410BEB53 
 109      667DC2AC 
 109      1C22CCA1 
 110 00e0 C0D9DB9F 		.ascii	"\300\331\333\237g\353\266>\233 \313\265\373\373\331"
 110      67EBB63E 
 110      9B20CBB5 
ARM GAS  C:\Users\gjl\AppData\Local\Temp\ccAtyu2A.s 			page 8


 110      FBFBD9
 111 00ef 7FC8E5CB 		.ascii	"\177\310\345\313F\207\332\302|\212\274\224\307y\301"
 111      4687DAC2 
 111      7C8ABC94 
 111      C779C1
 112 00fe 59840514 		.ascii	"Y\204\005\024$ys\351\244\232s\206\014\257\266aM\242"
 112      247973E9 
 112      A49A7386 
 112      0CAFB661 
 112      4DA2
 113 0110 9AC52EC2 		.ascii	"\232\305.\302\341)\201\003\013=\221\211\343\300D\261"
 113      E1298103 
 113      0B3D9189 
 113      E3C044B1 
 114 0120 3D976D02 		.ascii	"=\227m\002\004\247\022\264\005\251\3550\233r\371E\236"
 114      04A712B4 
 114      05A9ED30 
 114      9B72F945 
 114      9E
 115 0131 58440DDE 		.ascii	"XD\015\3362\301=\245\344\324[\010F*k#\031\341\014\264"
 115      32C13DA5 
 115      E4D45B08 
 115      462A6B23 
 115      19E10CB4 
 116 0145 347DB2FB 		.ascii	"4}\262\373}7'M[\260\261\204|\240A\233PIQ\346\345$\332"
 116      7D37274D 
 116      5BB0B184 
 116      7CA0419B 
 116      504951E6 
 117 015c 4618552B 		.ascii	"F\030U+\271\024\3430\246^\377\371\305\365\217\315]c"
 117      B914E330 
 117      A65EFFF9 
 117      C5F58FCD 
 117      5D63
 118 016e 5A436DC7 		.ascii	"ZCm\307J\344=\207/-<\010\337|p\205\317I\332\377?\325"
 118      4AE43D87 
 118      2F2D3C08 
 118      DF7C7085 
 118      CF49DAFF 
 119 0184 91A624BC 		.ascii	"\221\246$\274\263\272\361.3\211\211\262I\342.^\362\355"
 119      B3BAF12E 
 119      338989B2 
 119      49E22E5E 
 119      F2ED
 120 0196 BE90BBE1 		.ascii	"\276\220\273\341\217\217\376\034nd\031\343\011\311+"
 120      8F8FFE1C 
 120      6E6419E3 
 120      09C92B
 121 01a5 4C422A13 		.ascii	"LB*\023^\303\0174_\246G[\030\334\277s\244SA\256H\344"
 121      5EC30F34 
 121      5FA6475B 
 121      18DCBF73 
 121      A45341AE 
 122 01bb BEC62B9F 		.ascii	"\276\306+\237\220F<V\311q\332I\333\340\200\374b\015"
 122      90463C56 
 122      C971DA49 
 122      DBE080FC 
ARM GAS  C:\Users\gjl\AppData\Local\Temp\ccAtyu2A.s 			page 9


 122      620D
 123 01cd 56C923E0 		.ascii	"V\311#\340\201\234)\026{\371\031\350\272v\261\267t\343"
 123      819C2916 
 123      7BF919E8 
 123      BA76B1B7 
 123      74E3
 124 01df 7A89ADDB 		.ascii	"z\211\255\333]W\006.t\336\354\357+\226\010\267p\365"
 124      5D57062E 
 124      74DEECEF 
 124      2B9608B7 
 124      70F5
 125 01f1 2FD97FC7 		.ascii	"/\331\177\307;"
 125      3B
 126              		.text
 127              		.section	.gnu.lto_.symbol_nodes.1a3f301,"",%progbits
 128 0000 789C6361 		.ascii	"x\234ca`d0a\000\002&\206z\006\206\011\347\030@\324\256"
 128      60643061 
 128      00022686 
 128      7A068609 
 128      E71840D4 
 129 0015 0645A000 		.ascii	"\006E\240\000c=#\212\000+\023C\203\020\003\00333#\003"
 129      633D238A 
 129      002B1343 
 129      83100303 
 129      33332303 
 130 0029 C3A307FF 		.ascii	"\303\243\007\377\030\031\000 \312\013\017"
 130      18190020 
 130      CA0B0F
 131              		.text
 132              		.section	.gnu.lto_.refs.1a3f301,"",%progbits
 133 0000 789C6361 		.ascii	"x\234ca`d`c```ddbbf\000\000\000\255\000\025"
 133      60646063 
 133      60606064 
 133      64626266 
 133      000000AD 
 134              		.text
 135              		.section	.gnu.lto_.decls.1a3f301,"",%progbits
 136 0000 789CBD54 		.ascii	"x\234\275T]L\\E\024\276\347\336]Xn\267KC\372\300\303"
 136      5D4C5C45 
 136      14BEE7DE 
 136      5D586EB7 
 136      4B43FAC0 
 137 0015 D56C9A14 		.ascii	"\325l\232\0241i\327\256V\334\370\242\306D\023\037|\323"
 137      3169D7AE 
 137      56DCF8A2 
 137      C644131F 
 137      7CD3
 138 0027 A79B6C96 		.ascii	"\247\233l\226e\201M`w\263?\246<y\371\323\376<H\005L"
 138      65814D60 
 138      77B33FA6 
 138      3C79F9D3 
 138      FE3C4805 
 139 003c AC5691D2 		.ascii	"\254V\221\322\012\002\302B)-\205\262\255\345\257,\012"
 139      0A02C242 
 139      292D85B2 
 139      ADE5AF2C 
 139      0A
ARM GAS  C:\Users\gjl\AppData\Local\Temp\ccAtyu2A.s 			page 10


 140 004d 956E8B3C 		.ascii	"\225n\213<t\011\244\376\324\246\020k\264 \30133\367"
 140      7409A4FE 
 140      D4A6106B 
 140      B420C133 
 140      33F7
 141 005f EEDD6D20 		.ascii	"\356\335m \2769\271gf\316\2313\347\234\231\357\273c"
 141      BE39B967 
 141      66CE9933 
 141      E79C99EF 
 141      BB63
 142 0071 E08023AD 		.ascii	"\340\200#\255*\213\343\3028\235\304\371\0266\001\307"
 142      2A8BE3C2 
 142      389DC4F9 
 142      163601C7 
 143 0081 7751C86A 		.ascii	"wQ\310j?\307\032\2172\2012\257\332os\231\215\254\231"
 143      3FC71A8F 
 143      328132AF 
 143      DA6F7399 
 143      8DAC99
 144 0094 50F250F6 		.ascii	"P\362P\366\242\214\241\\C\031E\231E\211\242\024\250"
 144      A28CA15C 
 144      43194599 
 144      4589A214 
 144      A8
 145 00a5 BEA0FA3F 		.ascii	"\276\240\372?\331H\354\234'bh\373\357\250\265\364\241"
 145      D948EC9C 
 145      276268FB 
 145      EFA8B5F4 
 145      A1
 146 00b6 8CA7D534 		.ascii	"\214\247\3254\257\306\332\256\246M\036\346\352z?\027"
 146      AFC6DAAE 
 146      A64D1EE6 
 146      EA7A3F17 
 147 00c6 1EF19027 		.ascii	"\036\361\220'\202\001\325\265\231S\313\026T\367\212"
 147      8201D5B5 
 147      9953CB16 
 147      54F78A
 148 00d5 604575AA 		.ascii	"`Eu\252m\350\0373[5\242\372\305G\027\317\212\342Q\005"
 148      6DE81F33 
 148      5B35A2FA 
 148      C54717CF 
 148      8AE25105 
 149 00e9 5B43AD92 		.ascii	"[C\255\2227i!\013\355 \301\327 a\206o@\304\3769\011"
 149      3769210B 
 149      ED20C1D7 
 149      2061866F 
 149      40C4FE39 
 150 00fe 3A5045F7 		.ascii	":PE\367\225\215\356!\013\333\235\205\352\345\301\341"
 150      958DEE21 
 150      0BDB9D85 
 150      EAE5C1E1 
 151 010e 71238B7D 		.ascii	"q#\213}\010\325[\177\217\254\233\005\036\320\323\320"
 151      08D55B7F 
 151      8FAC9B05 
 151      1ED0D3D0 
 152 011e 5F73F72B 		.ascii	"_s\367+\013\024J\200\261@<G\023(\012\317A\024D\350\006"
 152      0B144A80 
ARM GAS  C:\Users\gjl\AppData\Local\Temp\ccAtyu2A.s 			page 11


 152      B1403C47 
 152      13280ACF 
 152      411444E8 
 153 0133 412BF894 		.ascii	"A+\370\224\202\311W\337'f\234\233\350\210\226\032e\265"
 153      82C957DF 
 153      27669C9B 
 153      E888961A 
 153      65B5
 154 0145 55C9CAE7 		.ascii	"U\311\312\347\340\005\011\016I\034|\013\205t\211\203"
 154      E005090E 
 154      491C7C0B 
 154      85748983 
 155 0155 5E0CD8C3 		.ascii	"^\014\330\303\252\371m\351\327Fs^\203\032\373U\240\261"
 155      AAF96DE9 
 155      D746735E 
 155      831AFB55 
 155      A0B1
 156 0167 BB70BD93 		.ascii	"\273p\275\223\026\337\007y\332\021\210w\363p_\257h>"
 156      16DF0779 
 156      DA118877 
 156      F3705FAF 
 156      683E
 157 0179 4E62AB47 		.ascii	"Nb\253GE\207\264\263\366\203\231\"\205#z\317\326\215"
 157      4587B4B3 
 157      F6839922 
 157      85237ACF 
 157      D68D
 158 018b 0F9A1661 		.ascii	"\017\232\026a\001\3608\240b\010\254\007*\034\023\252"
 158      01F038A0 
 158      6208AC07 
 158      2A1C13AA 
 159 019b E284A73D 		.ascii	"\342\204\247=\2272\245\006\216\364\034\363\2476=\030"
 159      9732A506 
 159      8EF41CF3 
 159      A7363D18 
 160 01ab FDB4714B 		.ascii	"\375\264qKk4\210\036\035\324M\220\252\200\355b\353\274"
 160      6B34881E 
 160      1DD44D90 
 160      AA80ED62 
 160      EBBC
 161 01bd 16950DBC 		.ascii	"\026\225\015\274\276!-\036+7\255&\310<\023h\324\211"
 161      BE212D1E 
 161      2B37AD26 
 161      C83C1368 
 161      D489
 162 01cf 374C0E66 		.ascii	"7L\016f\013\331\004@\270\373\270\375\015[\227\206\333"
 162      0BD90440 
 162      B8FBB8FD 
 162      0D5B9786 
 162      DB
 163 01e0 019D5F67 		.ascii	"\001\235_g\3277V\011\277\012D\300\377\006\015=\277_"
 163      D7375609 
 163      BF0A44C0 
 163      FF060D3D 
 163      BF5F
 164 01f2 7ABC9B19 		.ascii	"z\274\233\031\310\372\350\364\3249\263\360\024\235\217"
 164      C8FAE8F4 
ARM GAS  C:\Users\gjl\AppData\Local\Temp\ccAtyu2A.s 			page 12


 164      D439B3F0 
 164      149D8F
 165 0201 6DFD15CB 		.ascii	"m\375\025\313e|\341Q\275\271\032?\275\213\361e\317&"
 165      657CE151 
 165      BDB91A3F 
 165      BD8BF165 
 165      CF26
 166 0213 CFB7C56A 		.ascii	"\317\267\305j\352\221\034\205\024o\245V\021\333-\034"
 166      EA911C85 
 166      146FA556 
 166      11DB2D1C 
 167 0223 5C464086 		.ascii	"\\F@\206\020\020\030A\3101\344\005\260qp\021\215\203"
 167      10101841 
 167      C831E405 
 167      B0717011 
 167      8D83
 168 0235 68A43C4A 		.ascii	"h\244<JF\037\274U\253(\000\303\010\367%\020\250\013"
 168      461FBC55 
 168      AB2800C3 
 168      08F72510 
 168      A80B
 169 0247 9EA24005 		.ascii	"\236\242@\005\372\312\311\305{\242\320\011\244\002\276"
 169      FACAC9C5 
 169      7BA2D009 
 169      A402BE
 170 0256 6335DE95 		.ascii	"c5\336\225\273c\216\330\2169\026N\024\340\341\367\300"
 170      BB638ED8 
 170      8E39164E 
 170      14E0E1F7 
 170      C0
 171 0267 28E6B8A2 		.ascii	"(\346\270\242\347\030\326\330\364p\361\203\015\321\200"
 171      E718D6D8 
 171      F470F183 
 171      0DD180
 172 0276 BF23F528 		.ascii	"\277#\365(6\020[c\264\355\2301\203a\204\220:\303\256"
 172      36105B63 
 172      B4ED9831 
 172      83618490 
 172      3AC3AE
 173 0289 3186A167 		.ascii	"1\206\241g\242\251+i\244\273\321\006W\201n\377i\"^\227"
 173      A2A92B69 
 173      A4BBD106 
 173      57816EFF 
 173      69225E97 
 174 029d 25AAE46F 		.ascii	"%\252\344o\370/\362\337\357\274\227\260d$\273\236\221"
 174      F82FF2DF 
 174      EFBC97B0 
 174      6424BB9E 
 174      91
 175 02ae 6C2C952C 		.ascii	"l,\225,\271\2624\234\225\377\0119\026^\200\225'K\251"
 175      B9B2349C 
 175      95FF0939 
 175      165E8095 
 175      274BA9
 176 02c1 2BE0601C 		.ascii	"+\340`\034\362\261\377\016k\240\336\037~\366\363\274"
 176      F2B1FF0E 
 176      6BA0DE1F 
ARM GAS  C:\Users\gjl\AppData\Local\Temp\ccAtyu2A.s 			page 13


 176      7EF6F3BC 
 177 02d1 715F8B92 		.ascii	"q_\213\222\354U\222\203\215\007N\367)J=n4\020?\030\320"
 177      EC559283 
 177      8D074EF7 
 177      294A3D6E 
 177      34103F18 
 178 02e6 6F6280FE 		.ascii	"ob\200\376\303p\036\026\221L\023\260\017\267~\234<v"
 178      C3701E16 
 178      914C13B0 
 178      0FB77E9C 
 178      3C76
 179 02f8 C124DCA0 		.ascii	"\301$\334\240\017\000\364\324\257t\230\020k\011i\002"
 179      0F00F4D4 
 179      AF749810 
 179      6B096902 
 180 0308 692C9118 		.ascii	"i,\221\030K\316\307\376\3506\010\011\352\313\317\365"
 180      4BCEC7FE 
 180      E8360809 
 180      EACBCFF5 
 181 0318 2F8CE540 		.ascii	"/\214\345@\241\250\302\373\347k\024\336\031<\317\264"
 181      A1A8C2FB 
 181      E76B14DE 
 181      193CCFB4 
 182 0328 9E502237 		.ascii	"\236P\"7\277\315\323\020\307\333\221T\014o\340\251\246"
 182      BFCDD310 
 182      C7DB9154 
 182      0C6FE0A9 
 182      A6
 183 0339 D8FD747C 		.ascii	"\330\375t|\331~}\267\220d\011\0364\335?*\244\022,\234"
 183      D97E7DB7 
 183      9064091E 
 183      34DD3F2A 
 183      A4122C9C 
 184 034d 903A09B6 		.ascii	"\220:\011\266\263\230\340{=\301\014\354\220\341\207"
 184      B398E07B 
 184      3DC10CEC 
 184      90E187
 185 035c ED332C3D 		.ascii	"\3553,=\034\3714\233\2028\233\242\300r\375h3\244h1\307"
 185      1CF9349B 
 185      82389BA2 
 185      C072FD68 
 185      33A46831 
 186 0371 805D6F8A 		.ascii	"\200]o\212F-;\003\360#\005\340\246\006@k\343\\\202\000"
 186      462D3B03 
 186      F02305E0 
 186      A606406B 
 186      E35C8200 
 187 0385 D0420178 		.ascii	"\320B\001xE\007\000\375`R/w2\035\200y\012\300\306D\342"
 187      450700FD 
 187      60522F77 
 187      321D8079 
 187      0AC0C644 
 188 039a 19E11776 		.ascii	"\031\341\027v\377\235\2176\247\015\302\032S\226\317"
 188      FF9D8F36 
 188      A70DC21A 
 188      5396CF
 189 03a9 341F17F6 		.ascii	"4\037\027\366\237Qb-J\354\344xn\265\022\253\266\322"
ARM GAS  C:\Users\gjl\AppData\Local\Temp\ccAtyu2A.s 			page 14


 189      9F51622D 
 189      4AECE478 
 189      6EB512AB 
 189      B6D2
 190 03bb E72F81F1 		.ascii	"\347/\201\361po\332\253y\213\204\205\333\260\237\024"
 190      706FDAAB 
 190      798B8485 
 190      DBB09F14 
 191 03cb BE36D06A 		.ascii	"\2766\320j\312\340\030!\201\316\261;\352\223IF\203\273"
 191      CAE01821 
 191      81CEB13B 
 191      EA934946 
 191      83BB
 192 03dd DC153447 		.ascii	"\334\0254G\034G\034\316\210\275(\354w\005Lo\276\375"
 192      1C471CCE 
 192      88BD28EC 
 192      77054C6F 
 192      BEFD
 193 03ef 8EF575BB 		.ascii	"\216\365u\273\235\023\235\316\210\327\027\266\0279\303"
 193      9D139DCE 
 193      88D717B6 
 193      1739C3
 194 03fe D5E07E59 		.ascii	"\325\340~Y\016\004\375eAW\245\265\324[\341\011Y\013"
 194      0E04FD65 
 194      4157A5B5 
 194      D45BE109 
 194      590B
 195 0410 8F388A9E 		.ascii	"\2178\212\236\225\335U\201\240'\024\222\003!\277\333"
 195      95DD5581 
 195      A0271492 
 195      0321BFDB 
 196 0420 EA0E7A5C 		.ascii	"\352\016z\\a\177P>l\263g\032\274\225\001\1770,\227\371"
 196      617F503E 
 196      6CB3671A 
 196      BC95017F 
 196      302C97F9 
 197 0434 22B22B58 		.ascii	"\"\262+X)\277h#\0368;\350\363\373<\007=\256b\257\354"
 197      29BF6823 
 197      1E383BE8 
 197      F3FB3C07 
 197      3DAE62AF 
 198 0449 F5B92B22 		.ascii	"\365\271+\"%\036\271\322\345.\367\372<\262\263\304S"
 198      251EB9D2 
 198      E52EF7FA 
 198      3CB2B3C4 
 198      53
 199 045a EA8A5484 		.ascii	"\352\212T\204\235\341\252\200'd+\347LZ-\357\375_\245"
 199      9DE1AA80 
 199      27642BE7 
 199      4C5A2DEF 
 199      FD5FA5
 200 046d 84AA42B2 		.ascii	"\204\252B\2623\024.\301\274\230\377i\233M\306/\342("
 200      33142EC1 
 200      BC98FF69 
 200      9B4DC62F 
 200      E228
 201 047f 7B5E7687 		.ascii	"{^v\207\202n9\355\316lnnW\232\232\303.\316\341\014g"
ARM GAS  C:\Users\gjl\AppData\Local\Temp\ccAtyu2A.s 			page 15


 201      826E39ED 
 201      CE6C6E6E 
 201      579A9AC3 
 201      2ECEE10C 
 202 0494 ABA3A938 		.ascii	"\253\243\2518Rj;\354x\251H\300\311\277U\016Y\267"
 202      526A3BEC 
 202      78A948C0 
 202      C9BF550E 
 202      59B7
 203              		.text
 204              		.section	.gnu.lto_.symtab.1a3f301,"",%progbits
 205 0000 75387838 		.ascii	"u8x8_u16toap\000"
 205      5F753136 
 205      746F6170 
 205      00
 206 000d 00       		.ascii	"\000"
 207 000e 00       		.ascii	"\000"
 208 000f 00       		.ascii	"\000"
 209 0010 00000000 		.ascii	"\000\000\000\000\000\000\000\000"
 209      00000000 
 210 0018 C7000000 		.ascii	"\307\000\000\000"
 211 001c 75387838 		.ascii	"u8x8_u16toa\000"
 211      5F753136 
 211      746F6100 
 212 0028 00       		.ascii	"\000"
 213 0029 00       		.ascii	"\000"
 214 002a 00       		.ascii	"\000"
 215 002b 00000000 		.ascii	"\000\000\000\000\000\000\000\000"
 215      00000000 
 216 0033 D4000000 		.ascii	"\324\000\000\000"
 217              		.text
 218              		.section	.gnu.lto_.opts,"",%progbits
 219 0000 272D666D 		.ascii	"'-fmath-errno' '-fsigned-zeros' '-ftrapping-math' '"
 219      6174682D 
 219      6572726E 
 219      6F272027 
 219      2D667369 
 220 0033 2D666E6F 		.ascii	"-fno-trapv' '-fno-openmp' '-fno-openacc' '-mcpu=cor"
 220      2D747261 
 220      70762720 
 220      272D666E 
 220      6F2D6F70 
 221 0066 7465782D 		.ascii	"tex-m0' '-mthumb' '-g' '-Os' '-ffunction-sections' "
 221      6D302720 
 221      272D6D74 
 221      68756D62 
 221      2720272D 
 222 0099 272D6666 		.ascii	"'-ffat-lto-objects' '-flto'\000"
 222      61742D6C 
 222      746F2D6F 
 222      626A6563 
 222      74732720 
 223              		.text
 224              		.cfi_sections	.debug_frame
 225              		.global	__aeabi_uidiv
 226              		.section	.text.u8x8_u16toap,"ax",%progbits
 227              		.align	1
ARM GAS  C:\Users\gjl\AppData\Local\Temp\ccAtyu2A.s 			page 16


 228              		.global	u8x8_u16toap
 229              		.code	16
 230              		.thumb_func
 231              		.type	u8x8_u16toap, %function
 232              	u8x8_u16toap:
 233              	.LFB0:
 234              		.file 1 "..\\..\\u8g2\\csrc\\u8x8_u16toa.c"
   1:..\..\u8g2\csrc/u8x8_u16toa.c **** /*
   2:..\..\u8g2\csrc/u8x8_u16toa.c **** 
   3:..\..\u8g2\csrc/u8x8_u16toa.c ****   u8x8_u16toa.c
   4:..\..\u8g2\csrc/u8x8_u16toa.c **** 
   5:..\..\u8g2\csrc/u8x8_u16toa.c ****   Universal 8bit Graphics Library (https://github.com/olikraus/u8g2/)
   6:..\..\u8g2\csrc/u8x8_u16toa.c **** 
   7:..\..\u8g2\csrc/u8x8_u16toa.c ****   Copyright (c) 2016, olikraus@gmail.com
   8:..\..\u8g2\csrc/u8x8_u16toa.c ****   All rights reserved.
   9:..\..\u8g2\csrc/u8x8_u16toa.c **** 
  10:..\..\u8g2\csrc/u8x8_u16toa.c ****   Redistribution and use in source and binary forms, with or without modification, 
  11:..\..\u8g2\csrc/u8x8_u16toa.c ****   are permitted provided that the following conditions are met:
  12:..\..\u8g2\csrc/u8x8_u16toa.c **** 
  13:..\..\u8g2\csrc/u8x8_u16toa.c ****   * Redistributions of source code must retain the above copyright notice, this list 
  14:..\..\u8g2\csrc/u8x8_u16toa.c ****     of conditions and the following disclaimer.
  15:..\..\u8g2\csrc/u8x8_u16toa.c ****     
  16:..\..\u8g2\csrc/u8x8_u16toa.c ****   * Redistributions in binary form must reproduce the above copyright notice, this 
  17:..\..\u8g2\csrc/u8x8_u16toa.c ****     list of conditions and the following disclaimer in the documentation and/or other 
  18:..\..\u8g2\csrc/u8x8_u16toa.c ****     materials provided with the distribution.
  19:..\..\u8g2\csrc/u8x8_u16toa.c **** 
  20:..\..\u8g2\csrc/u8x8_u16toa.c ****   THIS SOFTWARE IS PROVIDED BY THE COPYRIGHT HOLDERS AND 
  21:..\..\u8g2\csrc/u8x8_u16toa.c ****   CONTRIBUTORS "AS IS" AND ANY EXPRESS OR IMPLIED WARRANTIES, 
  22:..\..\u8g2\csrc/u8x8_u16toa.c ****   INCLUDING, BUT NOT LIMITED TO, THE IMPLIED WARRANTIES OF 
  23:..\..\u8g2\csrc/u8x8_u16toa.c ****   MERCHANTABILITY AND FITNESS FOR A PARTICULAR PURPOSE ARE 
  24:..\..\u8g2\csrc/u8x8_u16toa.c ****   DISCLAIMED. IN NO EVENT SHALL THE COPYRIGHT HOLDER OR 
  25:..\..\u8g2\csrc/u8x8_u16toa.c ****   CONTRIBUTORS BE LIABLE FOR ANY DIRECT, INDIRECT, INCIDENTAL, 
  26:..\..\u8g2\csrc/u8x8_u16toa.c ****   SPECIAL, EXEMPLARY, OR CONSEQUENTIAL DAMAGES (INCLUDING, BUT 
  27:..\..\u8g2\csrc/u8x8_u16toa.c ****   NOT LIMITED TO, PROCUREMENT OF SUBSTITUTE GOODS OR SERVICES; 
  28:..\..\u8g2\csrc/u8x8_u16toa.c ****   LOSS OF USE, DATA, OR PROFITS; OR BUSINESS INTERRUPTION) HOWEVER 
  29:..\..\u8g2\csrc/u8x8_u16toa.c ****   CAUSED AND ON ANY THEORY OF LIABILITY, WHETHER IN CONTRACT, 
  30:..\..\u8g2\csrc/u8x8_u16toa.c ****   STRICT LIABILITY, OR TORT (INCLUDING NEGLIGENCE OR OTHERWISE) 
  31:..\..\u8g2\csrc/u8x8_u16toa.c ****   ARISING IN ANY WAY OUT OF THE USE OF THIS SOFTWARE, EVEN IF 
  32:..\..\u8g2\csrc/u8x8_u16toa.c ****   ADVISED OF THE POSSIBILITY OF SUCH DAMAGE.  
  33:..\..\u8g2\csrc/u8x8_u16toa.c **** 
  34:..\..\u8g2\csrc/u8x8_u16toa.c ****   
  35:..\..\u8g2\csrc/u8x8_u16toa.c **** */
  36:..\..\u8g2\csrc/u8x8_u16toa.c **** 
  37:..\..\u8g2\csrc/u8x8_u16toa.c **** 
  38:..\..\u8g2\csrc/u8x8_u16toa.c **** #include "u8x8.h"
  39:..\..\u8g2\csrc/u8x8_u16toa.c **** 
  40:..\..\u8g2\csrc/u8x8_u16toa.c **** const char *u8x8_u16toap(char * dest, uint16_t v)
  41:..\..\u8g2\csrc/u8x8_u16toa.c **** {
 235              		.loc 1 41 0
 236              		.cfi_startproc
 237              		@ args = 0, pretend = 0, frame = 0
 238              		@ frame_needed = 0, uses_anonymous_args = 0
 239              	.LVL0:
 240 0000 F8B5     		push	{r3, r4, r5, r6, r7, lr}
 241              		.cfi_def_cfa_offset 24
 242              		.cfi_offset 3, -24
 243              		.cfi_offset 4, -20
ARM GAS  C:\Users\gjl\AppData\Local\Temp\ccAtyu2A.s 			page 17


 244              		.cfi_offset 5, -16
 245              		.cfi_offset 6, -12
 246              		.cfi_offset 7, -8
 247              		.cfi_offset 14, -4
 248              		.loc 1 41 0
 249 0002 0C00     		movs	r4, r1
 250              	.LVL1:
 251 0004 0500     		movs	r5, r0
 252 0006 0600     		movs	r6, r0
 253 0008 471D     		adds	r7, r0, #5
  42:..\..\u8g2\csrc/u8x8_u16toa.c ****   uint8_t pos;
  43:..\..\u8g2\csrc/u8x8_u16toa.c ****   uint8_t d;
  44:..\..\u8g2\csrc/u8x8_u16toa.c ****   uint16_t c;
  45:..\..\u8g2\csrc/u8x8_u16toa.c ****   c = 10000;
 254              		.loc 1 45 0
 255 000a 0A48     		ldr	r0, .L8
 256              	.LVL2:
 257              	.L2:
  41:..\..\u8g2\csrc/u8x8_u16toa.c ****   uint8_t pos;
 258              		.loc 1 41 0
 259 000c 3023     		movs	r3, #48
 260              	.L5:
 261              	.LVL3:
  46:..\..\u8g2\csrc/u8x8_u16toa.c ****   for( pos = 0; pos < 5; pos++ )
  47:..\..\u8g2\csrc/u8x8_u16toa.c ****   {
  48:..\..\u8g2\csrc/u8x8_u16toa.c ****       d = '0';
  49:..\..\u8g2\csrc/u8x8_u16toa.c ****       while( v >= c )
 262              		.loc 1 49 0
 263 000e 8442     		cmp	r4, r0
 264 0010 04D3     		bcc	.L7
  50:..\..\u8g2\csrc/u8x8_u16toa.c ****       {
  51:..\..\u8g2\csrc/u8x8_u16toa.c **** 	v -= c;
 265              		.loc 1 51 0
 266 0012 241A     		subs	r4, r4, r0
 267              	.LVL4:
  52:..\..\u8g2\csrc/u8x8_u16toa.c **** 	d++;
 268              		.loc 1 52 0
 269 0014 0133     		adds	r3, r3, #1
 270              	.LVL5:
  51:..\..\u8g2\csrc/u8x8_u16toa.c **** 	d++;
 271              		.loc 1 51 0
 272 0016 A4B2     		uxth	r4, r4
 273              	.LVL6:
 274              		.loc 1 52 0
 275 0018 DBB2     		uxtb	r3, r3
 276              	.LVL7:
 277 001a F8E7     		b	.L5
 278              	.L7:
  53:..\..\u8g2\csrc/u8x8_u16toa.c ****       }
  54:..\..\u8g2\csrc/u8x8_u16toa.c ****       dest[pos] = d;
 279              		.loc 1 54 0 discriminator 2
 280 001c 3370     		strb	r3, [r6]
  55:..\..\u8g2\csrc/u8x8_u16toa.c ****       c /= 10;
 281              		.loc 1 55 0 discriminator 2
 282 001e 0A21     		movs	r1, #10
 283 0020 FFF7FEFF 		bl	__aeabi_uidiv
 284              	.LVL8:
ARM GAS  C:\Users\gjl\AppData\Local\Temp\ccAtyu2A.s 			page 18


 285 0024 0136     		adds	r6, r6, #1
 286              	.LVL9:
 287 0026 80B2     		uxth	r0, r0
 288              	.LVL10:
  46:..\..\u8g2\csrc/u8x8_u16toa.c ****   {
 289              		.loc 1 46 0 discriminator 2
 290 0028 B742     		cmp	r7, r6
 291 002a EFD1     		bne	.L2
  56:..\..\u8g2\csrc/u8x8_u16toa.c ****   }  
  57:..\..\u8g2\csrc/u8x8_u16toa.c ****   dest[5] = '\0';
 292              		.loc 1 57 0
 293 002c 0023     		movs	r3, #0
  58:..\..\u8g2\csrc/u8x8_u16toa.c ****   return dest;
  59:..\..\u8g2\csrc/u8x8_u16toa.c **** }
 294              		.loc 1 59 0
 295 002e 2800     		movs	r0, r5
 296              	.LVL11:
  57:..\..\u8g2\csrc/u8x8_u16toa.c ****   return dest;
 297              		.loc 1 57 0
 298 0030 6B71     		strb	r3, [r5, #5]
 299              		.loc 1 59 0
 300              		@ sp needed
 301              	.LVL12:
 302              	.LVL13:
 303 0032 F8BD     		pop	{r3, r4, r5, r6, r7, pc}
 304              	.L9:
 305              		.align	2
 306              	.L8:
 307 0034 10270000 		.word	10000
 308              		.cfi_endproc
 309              	.LFE0:
 310              		.size	u8x8_u16toap, .-u8x8_u16toap
 311              		.section	.text.u8x8_u16toa,"ax",%progbits
 312              		.align	1
 313              		.global	u8x8_u16toa
 314              		.code	16
 315              		.thumb_func
 316              		.type	u8x8_u16toa, %function
 317              	u8x8_u16toa:
 318              	.LFB1:
  60:..\..\u8g2\csrc/u8x8_u16toa.c **** 
  61:..\..\u8g2\csrc/u8x8_u16toa.c **** /* v = value, d = number of digits */
  62:..\..\u8g2\csrc/u8x8_u16toa.c **** const char *u8x8_u16toa(uint16_t v, uint8_t d)
  63:..\..\u8g2\csrc/u8x8_u16toa.c **** {
 319              		.loc 1 63 0
 320              		.cfi_startproc
 321              		@ args = 0, pretend = 0, frame = 0
 322              		@ frame_needed = 0, uses_anonymous_args = 0
 323              	.LVL14:
 324 0000 10B5     		push	{r4, lr}
 325              		.cfi_def_cfa_offset 8
 326              		.cfi_offset 4, -8
 327              		.cfi_offset 14, -4
 328              		.loc 1 63 0
 329 0002 0C00     		movs	r4, r1
 330              	.LVL15:
  64:..\..\u8g2\csrc/u8x8_u16toa.c ****   static char buf[6];
ARM GAS  C:\Users\gjl\AppData\Local\Temp\ccAtyu2A.s 			page 19


  65:..\..\u8g2\csrc/u8x8_u16toa.c ****   d = 5-d;
  66:..\..\u8g2\csrc/u8x8_u16toa.c ****   return u8x8_u16toap(buf, v) + d;
 331              		.loc 1 66 0
 332 0004 0100     		movs	r1, r0
 333 0006 0448     		ldr	r0, .L11
 334              	.LVL16:
 335 0008 FFF7FEFF 		bl	u8x8_u16toap
 336              	.LVL17:
 337 000c 0521     		movs	r1, #5
 338 000e 091B     		subs	r1, r1, r4
 339 0010 C9B2     		uxtb	r1, r1
 340 0012 4018     		adds	r0, r0, r1
  67:..\..\u8g2\csrc/u8x8_u16toa.c **** }
 341              		.loc 1 67 0
 342              		@ sp needed
 343              	.LVL18:
 344 0014 10BD     		pop	{r4, pc}
 345              	.L12:
 346 0016 C046     		.align	2
 347              	.L11:
 348 0018 00000000 		.word	.LANCHOR0
 349              		.cfi_endproc
 350              	.LFE1:
 351              		.size	u8x8_u16toa, .-u8x8_u16toa
 352              		.bss
 353              		.set	.LANCHOR0,. + 0
 354              		.type	buf.4876, %object
 355              		.size	buf.4876, 6
 356              	buf.4876:
 357 0000 00000000 		.space	6
 357      0000
 358              		.text
 359              	.Letext0:
 360              		.file 2 "c:\\program files (x86)\\cypress\\psoc creator\\4.1\\psoc creator\\import\\gnu\\arm\\5.4.
 361              		.file 3 "c:\\program files (x86)\\cypress\\psoc creator\\4.1\\psoc creator\\import\\gnu\\arm\\5.4.