ARM GAS  C:\Users\gjl\AppData\Local\Temp\ccoTbLoi.s 			page 1


   1              		.syntax unified
   2              		.cpu cortex-m0
   3              		.fpu softvfp
   4              		.eabi_attribute 20, 1
   5              		.eabi_attribute 21, 1
   6              		.eabi_attribute 23, 3
   7              		.eabi_attribute 24, 1
   8              		.eabi_attribute 25, 1
   9              		.eabi_attribute 26, 1
  10              		.eabi_attribute 30, 4
  11              		.eabi_attribute 34, 0
  12              		.eabi_attribute 18, 4
  13              		.thumb
  14              		.syntax unified
  15              		.file	"u8x8_d_st7567.c"
  16              		.text
  17              	.Ltext0:
  18              		.section	.gnu.lto_.profile.1a3c2e7,"",%progbits
  19 0000 789C6361 		.ascii	"x\234ca`d`e`\000\222o\030c\000\003\240\001U"
  19      60646065 
  19      6000926F 
  19      18630003 
  19      A00155
  20              		.text
  21              		.section	.gnu.lto_.icf.1a3c2e7,"",%progbits
  22 0000 789C6361 		.ascii	"x\234ca`d\000\001m\006\004`g\230\371\252o/'c\373\355"
  22      60640001 
  22      6D060460 
  22      6798F9AA 
  22      6F2F2763 
  23 0016 E533F899 		.ascii	"\3453\370\231Z\026.8\312\304\374\347\334\263\307l,\263"
  23      5A162E38 
  23      CAC4FCE7 
  23      DCB3C76C 
  23      2CB3
  24 0028 9EAE4D67 		.ascii	"\236\256Mg=\277l\336n^\266\235O&\236`b\000\000\275\373"
  24      3DBF6CDE 
  24      6E5EB69D 
  24      4F269E60 
  24      620000BD 
  25 003d 145F     		.ascii	"\024_"
  26              		.text
  27              		.section	.gnu.lto_.jmpfuncs.1a3c2e7,"",%progbits
  28 0000 789C858E 		.ascii	"x\234\205\216;\016\3020\020D=\273KJ\302\001r1n\002U"
  28      3B0EC230 
  28      10443DBB 
  28      4B4AC201 
  28      72316E02 
  29 0015 8C500ADF 		.ascii	"\214P\012\337\200\033\360\347\012\320\244\347\030\364"
  29      801BF0E7 
  29      0AD0A4E7 
  29      18F4
  30 0023 2045428A 		.ascii	" EB\212`\027\013\323Dx\232\261g\337\330+\016\3164\213"
  30      60170BD3 
  30      44789AB1 
  30      67DFD82B 
  30      0ECE348B 
ARM GAS  C:\Users\gjl\AppData\Local\Temp\ccoTbLoi.s 			page 2


  31 0037 F6119C40 		.ascii	"\366\021\234@U\326*\242\271EE\264(I\227\241\2235\020"
  31      55D62AA2 
  31      B94545B4 
  31      284997A1 
  31      933510
  32 004a ED97D3B4 		.ascii	"\355\227\323\264'\264\257\356R>\250a\007\302\032\025"
  32      27B4AFEE 
  32      523EA861 
  32      07C21A15 
  33 005a A531747A 		.ascii	"\2451tz\353\256\241\260)\260\0006\250\322S\022\315\240"
  33      EBAEA1B0 
  33      29B00036 
  33      A8D25312 
  33      CDA0
  34 006c E5F37C1F 		.ascii	"\345\363|\037\327\275_y?i\230\002[y\213\372?d\371.\007"
  34      D7BD5F79 
  34      3F699802 
  34      5B798BFA 
  34      3F64F92E 
  35 0081 E936D8E7 		.ascii	"\3516\330\347 \375\017\207/\344\206 \016,\232\037\015"
  35      20FD0F87 
  35      2FE48620 
  35      0E2C9A1F 
  35      0D
  36 0092 CAED2F81 		.ascii	"\312\355/\201G\232\237\224\205\226\336\027\303V("
  36      479A9F94 
  36      8596DE17 
  36      C35628
  37              		.text
  38              		.section	.gnu.lto_.inline.1a3c2e7,"",%progbits
  39 0000 789C6DD0 		.ascii	"x\234m\320\261J\003A\020\006\340\371\347\366\2225\311"
  39      B14A0341 
  39      1006E0F9 
  39      E7F69235 
  39      C9
  40 0011 997B8040 		.ascii	"\231{\200@\316G\260\265\220{\202{\015A_b\013\323\312"
  40      CE47B0B5 
  40      907B827B 
  40      0D415F62 
  40      0BD3CA
  41 0024 D9588884 		.ascii	"\331X\210\204X\250\321\234Xj\004!\225]RZ\372\004\012"
  41      58A8D19C 
  41      586A0421 
  41      955D525A 
  41      FA040A
  42 0037 062C1411 		.ascii	"\006,\024\021\234\335=7\026n\261\363\357\267;0\254\""
  42      9CDD3D37 
  42      166EB1F3 
  42      EFB73B30 
  42      AC22
  43 0049 905DB7BE 		.ascii	"\220]\267\276\270%\361\231\266\320\202\336\375f\034"
  43      B825F199 
  43      B6D082DE 
  43      FD661C
  44 0058 CD0FEF1B 		.ascii	"\315\017\357\033\357<\210\2005\\\240G\236\347\247\325"
  44      EF3C8880 
  44      355CA047 
ARM GAS  C:\Users\gjl\AppData\Local\Temp\ccoTbLoi.s 			page 3


  44      9EE7A7D5 
  45 0068 A2E616C6 		.ascii	"\242\346\026\306\201\277>\026\017M\317m\\\006~\233\236"
  45      81BF3E16 
  45      0F4DCF6D 
  45      5C067E9B 
  45      9E
  46 0079 8DD97382 		.ascii	"\215\331s\202\253\300\257O\223*\362\274\216I\340\352"
  46      ABC0AF4F 
  46      932AF2BC 
  46      8E49E0EA 
  47 0089 7C39EB7A 		.ascii	"|9\353z\356\242\022f\3077/\323\317\304r\014\302\265"
  47      EEA21266 
  47      C7372FD3 
  47      CFC4720C 
  47      C2B5
  48 009b E33D57A1 		.ascii	"\343=W\241ed\266[G\306o\214\372L\275\331\266\321\024"
  48      6564B65B 
  48      47C66F8C 
  48      FA4CBDD9 
  48      B6D114
  49 00ae 3FC6064C 		.ascii	"?\306\006L\033\303\035\003\342\0236iN\352N\2314#>\200"
  49      1BC31D03 
  49      E2133669 
  49      4EEA4E99 
  49      34233E80 
  50 00c2 51199312 		.ascii	"Q\031\223\022U\376\310\365\2213\377(\265\237\301m\222"
  50      55FEC8F5 
  50      9133FF28 
  50      B59FC16D 
  50      92
  51 00d3 5E94854A 		.ascii	"^\224\205J !:\336,\213\375f\324\261\312eQ\026\377\307"
  51      20213ADE 
  51      2C8BFD66 
  51      D4B1CA65 
  51      5116FFC7 
  52 00e7 D02621B7 		.ascii	"\320&!\267U\356\362\360\312%\372s\345F\020\262\221W"
  52      55EEF2F0 
  52      CA25FA73 
  52      E54610B2 
  52      9157
  53 00f9 51A52B0D 		.ascii	"Q\245+\015Q\3776\353\272Y9\240\037\366\023]\026"
  53      51FF36EB 
  53      BA5939A0 
  53      1FF6135D 
  53      16
  54              		.text
  55              		.section	.gnu.lto_.pureconst.1a3c2e7,"",%progbits
  56 0000 789C6361 		.ascii	"x\234ca`d`f`\000\222R\000\000r\000$"
  56      60646066 
  56      60009252 
  56      00007200 
  56      24
  57              		.text
  58              		.section	.gnu.lto_u8x8_d_st7567_pi_132x64.1a3c2e7,"",%progbits
  59 0000 789C9D57 		.ascii	"x\234\235WkPU\327\025\336\353\354\373~_\242\326Xj\360"
  59      6B5055D7 
  59      15DEEBEC 
ARM GAS  C:\Users\gjl\AppData\Local\Temp\ccoTbLoi.s 			page 4


  59      FB7E5FA2 
  59      D6586AF0 
  60 0014 2DA38012 		.ascii	"-\243\200\022\251\376\310\217\264\375\325\277\375m\306"
  60      A9FEC88F 
  60      B4FDD5BF 
  60      FD6DC6
  61 0023 E968C73E 		.ascii	"\351h\307>\246\235\216\332\031\377t8p\271\010DQ:\021"
  61      A69D8EDA 
  61      19FF7438 
  61      70B90844 
  61      513A11
  62 0036 91A0C631 		.ascii	"\221\240\3061D\033\037\274\242\0021zC\022M\020P#\025"
  62      441B1FBC 
  62      A202317A 
  62      43124D10 
  62      502315
  63 0049 D11895A0 		.ascii	"\321\030\225\240RK\"\017\025c\320\333\265\326>\347\302"
  63      524B220F 
  63      1563D0DB 
  63      B5D63EE7 
  63      C2
  64 005a 957B21ED 		.ascii	"\225{!\355\035Xg\357}\366\267\366\267\276\275\316\332"
  64      1D5867EF 
  64      7DF6B7F6 
  64      B7BEBDCE 
  64      DA
  65 006b E7580408 		.ascii	"\347X\004\010\372\215\004\204\370\025^\237\343?\274"
  65      FA8D0484 
  65      F8155E9F 
  65      E33FBC
  66 007a 2440DBD1 		.ascii	"$@\333\321!D\236C\263\007w\272\205\356\220l-l\255l\035"
  66      21449E43 
  66      B30777BA 
  66      85EE906C 
  66      2D6CAD6C 
  67 008f 6CDD6C3D 		.ascii	"l\335l=j\016\004\025\310b6\254\232\255h\221\320]v\262"
  67      6A0E0415 
  67      C86236AC 
  67      9AAD6891 
  67      D05D76B2 
  68 00a3 1E9B396C 		.ascii	"\036\2339l7\033\016\315\311\367]|\337i\016\273\314\206"
  68      371B0ECD 
  68      C9F75D7C 
  68      DF690EBB 
  68      CC86
  69 00b5 DB6C7834 		.ascii	"\333lx4/O\364\361D/\370\324\260\017\374\324\000\277"
  69      2F4FF4F1 
  69      442FF8D4 
  69      B00FFCD4 
  69      00BF
  70 00c7 96B2F59C 		.ascii	"\226\262\365\234\300\373\201\002;\336OQ\303\277\010"
  70      C0FB8102 
  70      3BDE4F51 
  70      C3BF08
  71 00d6 98F02000 		.ascii	"\230\360 \0005t\007\210\\MZ\2546\273\303\351r{\274>"
  71      35740788 
  71      5C4D5AAC 
ARM GAS  C:\Users\gjl\AppData\Local\Temp\ccoTbLoi.s 			page 5


  71      36BBC3E9 
  71      727BBC3E 
  72 00ea 7F4A2008 		.ascii	"\177J \010\271\232_@\304\002Q\245\304#\355\231\006\347"
  72      B99A5F40 
  72      C40251A5 
  72      C423ED99 
  72      06E7
  73 00fc 473EDFEA 		.ascii	"G>\337\352J?\250\353\371\372\255\352\003\277\036\314"
  73      4A3FA8EB 
  73      F9FAADEA 
  73      03BF1ECC 
  74 010c 0FCF0C4B 		.ascii	"\017\317\014K!\242\232\200WSaY*\251t\020\322q\346\245"
  74      21A29A80 
  74      57536159 
  74      2AA97410 
  74      D271E6A5 
  75 0120 82DA2AF9 		.ascii	"\202\332*\371P\013K\000\013v\007\333+\277\361QW\203"
  75      500B4B00 
  75      0B7607DB 
  75      2BBFF151 
  75      5783
  76 0132 34ECBED3 		.ascii	"4\354\276\323y\340+\233\234\007\002\333\345\255\235"
  76      79E02B9B 
  76      9C0702DB 
  76      E5AD9D
  77 0141 DF791755 		.ascii	"\337y\027U\223O\275\341w\2723,%\274\017\222|\376\023"
  77      934FBDE1 
  77      77BA332C 
  77      25BC0F92 
  77      7CFE13
  78 0154 52E110A4 		.ascii	"R\341\020\244\012\034\022p\030\026\341\354\266\332\246"
  78      0A1C1270 
  78      1816E1EC 
  78      B6DAA6
  79 0163 2E8B5CCC 		.ascii	".\213\\\314\310\221S\237<3\2217\337\320%R\201#\012\251"
  79      C891539F 
  79      3C339137 
  79      DFD02552 
  79      81230AA9 
  80 0177 D8103738 		.ascii	"\330\02078\312\270\212K\267\266\271\344R\306U\335y\320"
  80      CAB88A4B 
  80      B7B6B9E4 
  80      52C655DD 
  80      79D0
  81 0189 6D3570BB 		.ascii	"m5p\273\317\272\365e\004<6\001X\303\300\356{\355\227"
  81      CFBAF565 
  81      043C3601 
  81      58C3C0EE 
  81      7BED97
  82 019c 5D720503 		.ascii	"]r\005\003\337?~\263\336n\000\273\316z\364\035\020\226"
  82      DF3F7EB3 
  82      DE6E00BB 
  82      CE7AF41D 
  82      1096
  83 01ae 16A87D91 		.ascii	"\026\250}\221\254E@\035,\"@igI\217\224\2571\270Z\257"
  83      AC45401D 
  83      2C224069 
ARM GAS  C:\Users\gjl\AppData\Local\Temp\ccoTbLoi.s 			page 6


  83      67498F94 
  83      AF31B85A 
  84 01c3 2D712E38 		.ascii	"-q.8@\340H]\211o\267\036)H\013K+\324\307\303\351\207"
  84      40E0485D 
  84      896FB71E 
  84      29480B4B 
  84      2BD4C7C3 
  85 01d9 B33B0E56 		.ascii	"\263;\016V\277\345\222\2573r_y\363U\023\271\257\304"
  85      BFE592AF 
  85      33725F79 
  85      F35513B9 
  85      AFC4
  86 01eb BF4B8FE4 		.ascii	"\277K\217\344\245\021\345\017\306S6p\225\315[\362]\362"
  86      A511E50F 
  86      C6533670 
  86      95CD5BF2 
  86      5DF2
  87 01fd 978C0B35 		.ascii	"\227\214\0135v}\350W8\375\344j=\364:\201N$\000\365\324"
  87      767DE857 
  87      38FDE46A 
  87      3DF43A81 
  87      4E2400F5 
  88 0212 3DDFE9B5 		.ascii	"=\337\351\265\025\350\370K\203\223\260\000\216\343\177"
  88      15E8F84B 
  88      8393B000 
  88      8EE37F
  89 0221 032CA08D 		.ascii	"\003,\240\215E!\032\301\2069 \307\337\251\371MD\217"
  89      45211AC1 
  89      863920C7 
  89      DFA9F94D 
  89      448F
  90 0233 46437A64 		.ascii	"FCzd\217\353\343\323\276\225\300j\241[\274-I=+\017\330"
  90      8FEBE3D3 
  90      BE95C06A 
  90      A15BBC2D 
  90      493D2B0F 
  91 0248 81D47702 		.ascii	"\201\324w\002\355\235\027h$\2107m)h\354\323\2515\203"
  91      ED9D1768 
  91      2488376D 
  91      2968ECD3 
  91      A93583
  92 025b 5AB3C8CC 		.ascii	"Z\263\310\314\006\322\354\025A\213\244\261\235C\303"
  92      06D2EC15 
  92      418BA4B1 
  92      9D43C3
  93 026a 73B9398F 		.ascii	"s\2719\217\232\363\311,$\263\230L:\231%\274\342R\266"
  93      9AF3C92C 
  93      24B3984C 
  93      3A9925BC 
  93      E252B6
  94 027d 19828865 		.ascii	"\031\202\210e\342\260#\213\31422\313\3218\263\371\376"
  94      E2B0238B 
  94      CC3232CB 
  94      D138B3F9 
  94      FE
  95 028e 0AB6394C 		.ascii	"\012\2669LL\210\001\214\254r\271\030\3244\274\310;P"
  95      4C88018C 
ARM GAS  C:\Users\gjl\AppData\Local\Temp\ccoTbLoi.s 			page 7


  95      AC72B918 
  95      D434BCC8 
  95      3B50
  96 02a0 A137BEF7 		.ascii	"\2417\276\3672E\032\222vJ\312\356w\373\254e\260=\017"
  96      32451A92 
  96      764ACAEE 
  96      77FBAC65 
  96      B03D0F
  97 02b3 45899CEC 		.ascii	"E\211\234\354\300\304u\341\203\"I/h\2022\240)\355e\315"
  97      C0C475E1 
  97      8322492F 
  97      688232A0 
  97      29ED65CD 
  98 02c7 364A6901 		.ascii	"6Ji\001N\354\266\364_\357\005\023q\302\205\000h\306"
  98      4EECB6F4 
  98      5FEF0513 
  98      71C28500 
  98      68C6
  99 02d9 EDD4253D 		.ascii	"\355\324%=>\360\241\302\264\357?\322a`\\\330\315/\356"
  99      3EF0A1C2 
  99      B4EF3FD2 
  99      61605CD8 
  99      CD2FEE
 100 02ec AA769898 		.ascii	"\252v\230\230S\2149\305\030\226\375#\205\371\341I\307"
 100      538C39C5 
 100      1896FD23 
 100      85F9E149 
 100      C7
 101 02fd 47768571 		.ascii	"Gv\205qS\322\357\274\373\216\315\304t2\3464c\210\034"
 101      53D2EFBC 
 101      FB8ECDC4 
 101      7432E634 
 101      63881C
 102 0310 9C519881 		.ascii	"\234Q\230\201\246\352C\232\302x\261{\347\304\356\"i"
 102      A6EA439A 
 102      C278B17B 
 102      E7C4EE22 
 102      69
 103 0321 62061813 		.ascii	"b\006\030\023a\214\2050\037+\314\267W\016\037\221\012"
 103      618C8530 
 103      1F2BCCB7 
 103      570E1F91 
 103      0A
 104 0332 E3C3EEA3 		.ascii	"\343\303\356\243\216k\207<&\246\322M\230\026\306X\011"
 104      8E6B873C 
 104      26A6D24D 
 104      9816C658 
 104      09
 105 0343 F389C21C 		.ascii	"\363\211\302\034yo0\342W\030?v\367~p\360-\257\211id"
 105      796F30E2 
 105      57183F76 
 105      F77E70F0 
 105      2DAF8969 
 106 0358 CCA78CB1 		.ascii	"\314\247\214\261\021\3463\304\340uP\223\242\300.{!/"
 106      11E633C4 
 106      E0755093 
 106      A2C02E7B 
ARM GAS  C:\Users\gjl\AppData\Local\Temp\ccoTbLoi.s 			page 8


 106      212F
 107 036a 407A9340 		.ascii	"@z\223@}\020\2164\265J\352R:65\365_\267\347>\323\213"
 107      7D108E34 
 107      B54AEA52 
 107      3A3635F5 
 107      5FB7E73E 
 108 0380 743D1096 		.ascii	"t=\020\226\356\250\20608\013\271\"$I\351\362p\313\005"
 108      EEA88630 
 108      380BB922 
 108      2449E9F2 
 108      70CB05
 109 0393 16C4A6B2 		.ascii	"\026\304\246\262\374\351\231a\037\316\256\340\331\266"
 109      FCE99961 
 109      1FCEAEE0 
 109      D9B6
 110 03a1 6269E79C 		.ascii	"bi\347\234\376\242\362\360\237\366\301\236\274\035<"
 110      FEA2F2F0 
 110      9FF6C19E 
 110      BC1D3C
 111 03b0 EC81CF21 		.ascii	"\354\201\317!\027\316\321\363\205\367\242\367\353\217"
 111      17CED1F3 
 111      85F7A2F7 
 111      EB8F
 112 03be 39113293 		.ascii	"9\0212\223||\001\373\200W\206V\310\015K/S\264\304S\324"
 112      7C7C01FB 
 112      80578656 
 112      C80D4B2F 
 112      53B4C453 
 113 03d3 906241E4 		.ascii	"\220bA\344\264+1C_\024\263H\300y\3050,\375\034\320\305"
 113      B42B3143 
 113      5F14B348 
 113      C079C530 
 113      2CFD1CD0 
 114 03e8 24B30351 		.ascii	"$\263\003Q\215\252K\333\304x\202\011\342\011\026KG\202"
 114      8DAA4BDB 
 114      C4788209 
 114      E209164B 
 114      4782
 115 03fa 7852A003 		.ascii	"xR\240\003\343i\177!\036\204\350\273\200\034]\210\005"
 115      E3697F21 
 115      1E84E8BB 
 115      801C5D88 
 115      05
 116 040b 7591827A 		.ascii	"u\221\202z\211\203\262\306\007%\305m(\270\026\252\331"
 116      8983B2C6 
 116      0725C56D 
 116      28B816AA 
 116      D9
 117 041c 394BE53D 		.ascii	"9K\345=eJM\177\323\367^\342b\307G\372\222Q\216\0065"
 117      654A4D7F 
 117      D3F75EE2 
 117      62C747FA 
 117      92518E06 
 118 0431 9B689192 		.ascii	"\233h\221\222\202\352.\201I\243\372rbT\323\022D5\255"
 118      82EA2E81 
 118      49A3FA72 
 118      6254D312 
ARM GAS  C:\Users\gjl\AppData\Local\Temp\ccoTbLoi.s 			page 9


 118      4435AD
 119 0444 583A1344 		.ascii	"X:\023D5\035:1\252\313\011\242\372;\371\371W,\250+c"
 119      351D3A31 
 119      AACB09A2 
 119      FA3BF9F9 
 119      572CA82B 
 120 0459 41D94D6A 		.ascii	"A\331Mj7\246\240\326\025\2436\201\213+!\227\253\223"
 120      37A6A0D6 
 120      15A33681 
 120      8B2B2197 
 120      AB93
 121 046b 71E98E71 		.ascii	"q\351\216q\2716\306\305\021/\260E\011|/&\3608E\235&"
 121      B936C6C5 
 121      112FB045 
 121      097C2F26 
 121      F038459D 
 122 0480 ED912968 		.ascii	"\355\221)h_ON\333\235\220\366W\223\321\276\021\243\375"
 122      5F4F4EDB 
 122      9D90F657 
 122      93D1BE11 
 122      A3FD
 123 0492 B5A27D17 		.ascii	"\265\242}\027\362\233\353\276\036\262*\206\323\307o"
 123      F29BEBBE 
 123      1EB22A86 
 123      D3C76F
 124 04a1 9C5487EC 		.ascii	"\234T\207\354\271\326\"\017\372\307\264\232\201<\340"
 124      B9D6220F 
 124      FAC7B49A 
 124      813CE0
 125 04b0 A6E1BABA 		.ascii	"\246\341\272\2727\377\230=+\203\236\240[\350\364\271"
 125      37FF983D 
 125      2B839EA0 
 125      5BE8F4B9 
 126 04c0 C6B5F136 		.ascii	"\306\265\3616d\261\313\333\013\225\303\031\361\036<"
 126      64B1CBDB 
 126      0B95C319 
 126      F11E3C
 127 04cf B844EC29 		.ascii	"\270D\354)\334[\3218\354\313:J\254\177\002=\354\203"
 127      DC5BD138 
 127      ECCB3A4A 
 127      AC7F023D 
 127      EC83
 128 04e1 6BE537CA 		.ascii	"k\3457\312G\371\355i\344c\234\203<:\240\274\311x\010"
 128      47F9ED69 
 128      E4639C83 
 128      3C3AA0BC 
 128      C97808
 129 04f4 E8651F5C 		.ascii	"\350e\037\\;\357@\026.\316J\273L\245\313\336\234\\\351"
 129      3BEF4016 
 129      2ECE4ABB 
 129      4CA5CBDE 
 129      9C5CE9
 130 0507 BBC995F6 		.ascii	"\273\311\225\366$T\372\336dJ\367\305\224\376\367\230"
 130      2454FADE 
 130      644AF7C5 
 130      94FEF798 
 131 0517 D283BDA6 		.ascii	"\322\203\275\246\322\301\037'\355\3751i\377\363\202"
ARM GAS  C:\Users\gjl\AppData\Local\Temp\ccoTbLoi.s 			page 10


 131      D2C11F27 
 131      EDFD3169 
 131      FFF382
 132 0526 B42913A4 		.ascii	"\264)\023\244\015&\226\266\237}\360\361\360\355\377"
 132      0D2696B6 
 132      9F7DF0F1 
 132      F0EDFF
 133 0535 2BED7763 		.ascii	"+\355wc\322> iSXZw|\276[\271J\3569\237\244\220\317\214"
 133      D23E2069 
 133      53585A77 
 133      7CBE5BB9 
 133      4AEE399F 
 134 054d 62591530 		.ascii	"bY\0250`\226\311\227\271L\356u'\236=+\212\365J\300`"
 134      6096C997 
 134      B94CEE75 
 134      279E3D2B 
 134      8AF54AC0 
 135 0562 6C53FA46 		.ascii	"lS\372F.\026\033gg\036\300\020\244\206\345O1\230\320"
 135      2E161B67 
 135      671EC010 
 135      A486E54F 
 135      3198D0
 136 0575 50614B86 		.ascii	"PaK\206Rd\226\252a\237EG\324\241\344\000\015\2061\226"
 136      526496AA 
 136      619F4547 
 136      D4A1E400 
 136      0D863196 
 137 0589 3EB0265D 		.ascii	">\260&]\003O&x\250\326@\007\344\222b\250OB\012C\300"
 137      034F2678 
 137      A8D64007 
 137      E49262A8 
 137      4F420A43 
 138 059e D3051E8D 		.ascii	"\323\005\036\215\205@2x\342e\260\261\213\346\344.H\205"
 138      85403278 
 138      E265B0B1 
 138      8BE6E42E 
 138      4885
 139 05b0 C7632E38 		.ascii	"\307c.81\036\374C\252 ^\031\377\010\246\306=\202\274"
 139      311EFC43 
 139      AA205E19 
 139      FF08A6C6 
 139      3D82BC
 140 05c3 49BB005F 		.ascii	"I\273\000_i~\026\222\263ad\3426=\341m\342S\375{\334"
 140      697E1692 
 140      B36164E2 
 140      363DE16D 
 140      E253FD7B 
 141 05d8 EA1EC8D7 		.ascii	"\352\036\310\327_\345\3277|\211B\327$WeaK\246Z)M-V\362"
 141      5FE5D737 
 141      7C8942D7 
 141      24576561 
 141      4BA65A29 
 142 05f0 B4ABD4A1 		.ascii	"\264\253\324\241tu\300S\364\331\203\262\3050i\212\336"
 142      7475C053 
 142      F4D983B2 
 142      C530698A 
 142      DE
ARM GAS  C:\Users\gjl\AppData\Local\Temp\ccoTbLoi.s 			page 11


 143 0601 C37C236F 		.ascii	"\303|#o\347\374\230\274\025\360\303X\276\214r\316\205"
 143      E7FC98BC 
 143      15F0C358 
 143      BE8C72CE 
 143      85
 144 0612 CA0BDB40 		.ascii	"\312\013\333@\271\230\313K\317\211_g\256\332\312+\307"
 144      B998CB4B 
 144      CF895F67 
 144      AEDACA2B 
 144      C7
 145 0623 7C6AD23C 		.ascii	"|j\322<\034\032\377\031\341\000\013<\303up\326\023\233"
 145      1C1AFF19 
 145      E1000B3C 
 145      C37570D6 
 145      139B
 146 0635 9A321F67 		.ascii	"\2322\037g\341\224/\007\332\366\270\325\221\025\200"
 146      E1942F07 
 146      DAF6B8D5 
 146      911580
 147 0644 E7536C37 		.ascii	"\347Sl7\245T\324\334\356\371F\006\215\026^3$Y\210\253"
 147      A554D4DC 
 147      EEF94606 
 147      8D165E33 
 147      245988AB 
 148 0658 F22BCB54 		.ascii	"\362+\313T>t\315\360\261P\371\300\"\372x\310\257\234"
 148      3E74CDF0 
 148      B150F9C0 
 148      22FA78C8 
 148      AF9C
 149 066a 2C8E9728 		.ascii	",\216\227(\331^\345i$\021\277M\345k,\321\223\302\327"
 149      D95EE569 
 149      2411BF4D 
 149      E56B2CD1 
 149      93C2D7
 150 067d 948774E5 		.ascii	"\224\207t\345\244s\377\256[Fd\265\000!mjZ\005&\255\364"
 150      A473FFAE 
 150      5B4664B5 
 150      00216D6A 
 150      5A0526AD 
 151 0692 18AD1133 		.ascii	"\030\255\0213\261\226\374O\231\024fv\374\336V\250\215"
 151      B196FC4F 
 151      99146676 
 151      FCDE56A8 
 151      8D
 152 06a3 CFA4E3B4 		.ascii	"\317\244\343\264[KT&=5d[\212#q\251\303\223\226*\002"
 152      5B4B5426 
 152      3D35645B 
 152      8A2371A9 
 152      C393962A 
 153 06b8 A3F50681 		.ascii	"\243\365\006\201\214\027\011\274\235\234\200\025\266"
 153      8C1709BC 
 153      9D9C8015 
 153      B6
 154 06c5 30013B11 		.ascii	"0\001;\021(2\010\254d\337\015\344;\203|\017my\\c(\226"
 154      283208AC 
 154      64DF0DE4 
 154      3B837C0F 
ARM GAS  C:\Users\gjl\AppData\Local\Temp\ccoTbLoi.s 			page 12


 154      6D795C63 
 155 06db 692C3764 		.ascii	"i,7dW\375,#\243\312\215\\Y\306S\262\024\252SS\203\313"
 155      57FD2C23 
 155      A3CA8D5C 
 155      59C653B2 
 155      14AA5353 
 156 06f1 719C8EE8 		.ascii	"q\234\216\350\253\241?\032\003Ha\333\273\015\333\255"
 156      ABA13F1A 
 156      034861DB 
 156      BB0DDBAD 
 157 0701 24BA130A 		.ascii	"$\272\023\012\000\2125\363\300\366\3221\202,\"e\245"
 157      008A35F3 
 157      C0F6D231 
 157      822C2265 
 157      A5
 158 0712 B11871FA 		.ascii	"\261\030q\372\376\321\243\315^\365\364\340\364\022\215"
 158      FED1A3CD 
 158      5EF5F4E0 
 158      F4128D
 159 0721 33B4A2B0 		.ascii	"3\264\242\260u\225\362\230MC\304%N\231l\366\350\243"
 159      7595F298 
 159      4D43C425 
 159      4E996CF6 
 159      E8A3
 160 0733 B22186C0 		.ascii	"\262!\206\300\212e\313\003h\274X\325V` \236\321\033"
 160      8A65CB03 
 160      68BC58D5 
 160      5660209E 
 160      D11B
 161 0745 EB7092B7 		.ascii	"\353p\222\267j0\200\323\374\002?\322\361|\314\017\010"
 161      6A3080D3 
 161      FC023FD2 
 161      F17CCC0F 
 161      08
 162 0756 85D684EA 		.ascii	"\205\326\204\352\340wL\210_\236\013#o\227&9\332fG\361"
 162      E0774C88 
 162      5F9E0B23 
 162      6F972639 
 162      DA6647F1 
 163 076a A544C09B 		.ascii	"\245D\300\233f^h(]X\025\202\362\302\307\215\331\212"
 163      665E6828 
 163      5D581582 
 163      F2C2C78D 
 163      D98A
 164 077c 650EFA41 		.ascii	"e\016\372A\350\345\320\247\027\214/\200(\300Vml?y\251"
 164      E8E5D0A7 
 164      178C2F80 
 164      28C0566D 
 164      6C3F79A9 
 165 0790 1CD2EA7A 		.ascii	"\034\322\352z\350L\225\241q\216\371:3\204\311)\255>"
 165      E84C95A1 
 165      718EF93A 
 165      3384C929 
 165      AD3E
 166 07a2 343929FD 		.ascii	"49)\375\203\353\206\000WYA]-\005\360C+El=\207\205\\"
 166      83EB8600 
 166      5759415D 
ARM GAS  C:\Users\gjl\AppData\Local\Temp\ccoTbLoi.s 			page 13


 166      2D05F043 
 166      2B456C3D 
 167 07b9 0B50BC54 		.ascii	"\013P\274T\032\033:\222\237\020T^\267iq\3455(\252\226"
 167      1A1B3A92 
 167      9F10545E 
 167      B76971E5 
 167      3528AA96 
 168 07cd 7379E5   		.ascii	"sy\345"
 169 07d0 0FB0FB14 		.ascii	"\017\260\373\024{\210\277v\206@\216/\226\002_YK\265"
 169      7B88BF76 
 169      86408E2F 
 169      96025F59 
 169      4BB5
 170 07e2 54AD6D78 		.ascii	"T\255mx3\016\037\337\322V\347R\303\000\333\265TK\377"
 170      330E1FDF 
 170      D256E752 
 170      C300DBB5 
 170      544BFF
 171 07f5 F0EFE98A 		.ascii	"\360\357\351\212}\264N\2666\266\001\266n\266.\266v\372"
 171      7DB44EB6 
 171      36B601B6 
 171      6EB62EB6 
 171      76FA
 172 0807 3E045C16 		.ascii	">\004\\\026\013XZf\346j\374\373\333\252\365\331\253"
 172      0B585A66 
 172      E66AFCFB 
 172      DBAAF5D9 
 172      AB
 173 0818 D76EDCB0 		.ascii	"\327n\334\260\026[\233W\255Y\267f\343\246\2259?_\231"
 173      165B9B57 
 173      AD59B766 
 173      E3A69539 
 173      3F5F99
 174 082b B9565868 		.ascii	"\271VXh@\376y\343z\373o7\254_\363\207\277l\342\353_"
 174      40FE79E3 
 174      7AFB6F37 
 174      AC5FF387 
 174      BF6CE2EB 
 175 0840 376D90F8 		.ascii	"7m\220\370\017ka\363\177\001\012\253\226`"
 175      0F6B61F3 
 175      7F010AAB 
 175      9660
 176              		.text
 177              		.section	.gnu.lto_u8x8_st7567_132x64_display_info.1a3c2e7,"",%progbits
 178 0000 789C2D8E 		.ascii	"x\234-\216MK\002Q\024\206\357{\357L\215\346T\266\366"
 178      4D4B0251 
 178      1486EF7B 
 178      EF4C8DE6 
 178      54B6F6
 179 0013 07B46EE5 		.ascii	"\007\264n\345O\352g\314b\314)\210\300E\2132(\010\372"
 179      4FEA67CC 
 179      62CC2988 
 179      C0458B32 
 179      2808FA
 180 0026 B0721A2D 		.ascii	"\260r\032-\2216.\004\241\225!.\025\334\010A\264i\300"
 180      91362E04 
 180      A195212E 
ARM GAS  C:\Users\gjl\AppData\Local\Temp\ccoTbLoi.s 			page 14


 180      15DC0841 
 180      B469C0
 181 0039 5C24DDD7 		.ascii	"\\$\335\327\343\335<\3679\347=\367\\GA\361\354[\310"
 181      E3DD3CF7 
 181      39E73DF7 
 181      5C4741F1 
 181      EC5BC8
 182 004c 4DA93F8D 		.ascii	"M\251?\215\326w\255\345\247\272d\024:\364\343\353\306"
 182      D677ADE5 
 182      A7BA6414 
 182      3AF4E3EB 
 182      C6
 183 005d 892B1EC2 		.ascii	"\211+\036\302z\375\253=_\366\001\266\317\336\322wW\324"
 183      7AFDAB3D 
 183      5FF601B6 
 183      CFDED277 
 183      57D4
 184 006f B31AF5C6 		.ascii	"\263\032\365\306C\210\346\255\016\246WaN\264\317\364"
 184      4388E6AD 
 184      0EA65761 
 184      4EB4CFF4 
 185 007f F9CFE833 		.ascii	"\371\317\3503#\276k\365#\214\253F\324\261:J\222\213"
 185      23BE6BF5 
 185      238CAB46 
 185      D4B13A4A 
 185      928B
 186 0091 E55B1A41 		.ascii	"\345[\032A%\345\262hR\036d%\360\313\371\227\351a\260"
 186      25E5B268 
 186      521E6425 
 186      F0CBF997 
 186      E961B0
 187 00a4 5ABE67B5 		.ascii	"Z\276g\265\331\355\035x\242L\317g\325\331\352/\247\364"
 187      D9ED1D78 
 187      A24CCF67 
 187      D5D9EA2F 
 187      A7F4
 188 00b6 A34E3FF1 		.ascii	"\243N?\361\213\257At\031\304n\311\230\205V\270Ca\241"
 188      8BAF4174 
 188      19C46EC9 
 188      988556B8 
 188      4361A1
 189 00c9 8184D068 		.ascii	"\201\204\320h\020\006\317\204#EW\260&\305u\304\204\207"
 189      1006CF84 
 189      234557B0 
 189      26C575C4 
 189      8487
 190 00db 3A9191F1 		.ascii	":\221\221\361,\236\210\015<\0229<\020>j\304&\356\211"
 190      2C9E880D 
 190      3C12393C 
 190      103E6AC4 
 190      26EE89
 191 00ee 2D496E0B 		.ascii	"-In\013\362\270%vp\203\202B\023E\365\017X\313y\217"
 191      F2B82576 
 191      70838242 
 191      1345F50F 
 191      58CB798F 
 192              		.text
ARM GAS  C:\Users\gjl\AppData\Local\Temp\ccoTbLoi.s 			page 15


 193              		.section	.gnu.lto_u8x8_d_st7567_132x64_init_seq.1a3c2e7,"",%progbits
 194 0000 789C4D92 		.ascii	"x\234M\222\373O\222Q\030\307\337\003h\336\320\356W\272"
 194      FB4F9251 
 194      18C7DF03 
 194      68DED0EE 
 194      57BA
 195 0012 DF7E69B5 		.ascii	"\337~i\265\354\027\377\205\376\217\376\020X\320\304"
 195      EC17FF85 
 195      FE8FFE10 
 195      58D0C4
 196 0021 CDE6CC8D 		.ascii	"\315\346\314\215\255\345\362FH\310\305J_A4\304\310\013"
 196      ADE5F246 
 196      48C8C54A 
 196      5F4134C4 
 196      C80B
 197 0033 78C31B88 		.ascii	"x\303\033\210\022\251\245\313df$\225\240}\317{\2365"
 197      12A9A5CB 
 197      64662495 
 197      A07DCF7B 
 197      9E35
 198 0045 D83E7BF9 		.ascii	"\330>{\371\354\373\234\333s\216Fb\022\377ui$\372'Iy"
 198      ECFB9CDB 
 198      738E4662 
 198      12FF7569 
 198      24FA2749 
 199 005a 15739BD6 		.ascii	"\025s\233\326\355%\031\225I-\261C\006\337k0\324\253"
 199      ED251995 
 199      492DB143 
 199      06DF6B30 
 199      D4AB
 200 006c B933760B 		.ascii	"\2713v\013\232\261D\342U\">\007M\006&c\305\"\275\311"
 200      9AB144E2 
 200      55223E07 
 200      4D062663 
 200      C522BDC9 
 201 0080 8BC3BE96 		.ascii	"\213\303\276\226\012\221Z\371\340\337\376\2316\225\210"
 201      0A915AF9 
 201      E0DFFE99 
 201      369588
 202 008f 6F40D76C 		.ascii	"o@\327l\007\226b\021\237\202\256z\366\226i\352\353\320"
 202      07966211 
 202      9F82AE7A 
 202      F69669EA 
 202      EBD0
 203 00a1 F1EE8521 		.ascii	"\361\356\205!Z\331\305\0077>\225\033i\3605hm\342{\246"
 203      5AD9C507 
 203      373E951B 
 203      69F03568 
 203      6DE27BA6 
 204 00b5 42E855A8 		.ascii	"B\350U\250U\216?\024\305\267a?&\236\257U\212\360\012"
 204      558E3F14 
 204      C5B7613F 
 204      269EAF55 
 204      8AF00A
 205 00c8 F4D79FBA 		.ascii	"\364\327\237\272t\251HOC\237u\270\274Z\221^\206\366"
 205      74A9484F 
 205      439F75B8 
ARM GAS  C:\Users\gjl\AppData\Local\Temp\ccoTbLoi.s 			page 16


 205      BC5A915E 
 205      86F6
 206 00da DBDD1BB4 		.ascii	"\333\335\033\264\015\003_\310\367\330\341\241\370\022"
 206      0D035FC8 
 206      F7D8E1A1 
 206      F812
 207 00e8 B46D7362 		.ascii	"\264msb\254H\350\305\302\006HJ\003\372\006\266\253E"
 207      AC48E8C5 
 207      C206484A 
 207      03FA06B6 
 207      AB45
 208 00fa A8837586 		.ascii	"\250\203u\206\2022\023z\001\332\363\325\254\327\212"
 208      8232137A 
 208      01DAF3D5 
 208      ACD78A
 209 0109 DA6AE8C6 		.ascii	"\332j\350\306Fk\023m\371<4\266\025\015\227\213\364\200"
 209      466B136D 
 209      F93C34B6 
 209      150D978B 
 209      F480
 210 011b 15F69229 		.ascii	"\025\366\222)\275\034M\324\017\322\266\356A\323\306"
 210      BD1C4DD4 
 210      0FD2B6EE 
 210      41D3C6
 211 012a 2FA97291 		.ascii	"/\251r\221\236\205\376\264\230\314%B\317\024\236\220"
 211      9E85FEB4 
 211      98CC2542 
 211      CF149E90 
 212 013a 2927FCDF 		.ascii	")'\374\337Y\246t\326\223Z1\320Twywr\3152\025\237\344"
 212      59A674D6 
 212      935A31D0 
 212      54777977 
 212      72CD3215 
 213 0150 EB7A9FFC 		.ascii	"\353z\237\374\245f\235\200v\247r~\215\320\343\274\317"
 213      A5669D80 
 213      76A7727E 
 213      8DD0E3BC 
 213      CF
 214 0161 23C9793A 		.ascii	"#\311y:\3221\250\261\271aJ%\246\272\003\215\356D\232"
 214      D231A8B1 
 214      B9614A25 
 214      A6BA038D 
 214      EE449A
 215 0174 695747A1 		.ascii	"iWG\241\256\335\214\213\326\255\202\016\231\263\241"
 215      AEDD8C8B 
 215      D6AD820E 
 215      99B3A1
 216 0183 3251DCCE 		.ascii	"2Q\334\316O\230_6\034\320\025VB\333\277y\207\251\263"
 216      4F985F36 
 216      1CD01556 
 216      42DBBF79 
 216      87A9B3
 217 0196 5AA8EDE5 		.ascii	"Z\250\355\345\354\034\275\226W\274z\177\263)N+W@\027"
 217      EC1CBD96 
 217      57BC7A7F 
 217      B3294E2B 
 217      574017
ARM GAS  C:\Users\gjl\AppData\Local\Temp\ccoTbLoi.s 			page 17


 218 01a9 E3462F69 		.ascii	"\343F/i9?\223\337\270])\252\003\312\334;\323yjn\031"
 218      393F93DF 
 218      B85D29AA 
 218      03CADC3B 
 218      D3796A6E 
 219 01be D4D16BF5 		.ascii	"\324\321k\365Qu)t:\021u\323;mUz]g\312\322[;\002\225"
 219      51752974 
 219      3A1175D3 
 219      3B6D557A 
 219      5D67CAD2 
 220 01d6 D30E992E 		.ascii	"\323\016\231.*\300_\375\372\276\323G-)\206\216u\370"
 220      2AC05FFD 
 220      FABED347 
 220      2D29868E 
 220      75F8
 221 01e8 72347711 		.ascii	"r4w\021t\306\350yA\2035\320\340\256\307F\251\232\247"
 221      74C6E879 
 221      418335D0 
 221      E0AEC746 
 221      A99AA7
 222 01fb CECF8FC4 		.ascii	"\316\317\217\304T\253|\245\320a6@\267\252*\274FI\271"
 222      54AB7CA5 
 222      D0613640 
 222      B7AA2ABC 
 222      4649B9
 223 020e 46FD56CC 		.ascii	"F\375V\314\254\251\351\325\327\266\350wJMj\025\273\257"
 223      ACA9E9D5 
 223      D7B6E877 
 223      4A4D6A15 
 223      BBAF
 224 0220 639F988E 		.ascii	"c\237\230\216U\353\230\023\237$X\001\313Lx\002\270\301"
 224      55EB9813 
 224      9F245801 
 224      CB4C7802 
 224      B8C1
 225 0232 12791CC4 		.ascii	"\022y\034\304\300\"\371\003\035[\300g\236t\016\314\202"
 225      C022F903 
 225      1D5BC067 
 225      9E740ECC 
 225      82
 226 0243 28F90C98 		.ascii	"(\371\014\230\006S\344\223`\002D\310\303`\034\214\201"
 226      0653E493 
 226      600244C8 
 226      C3601C8C 
 226      81
 227 0254 41300AFC 		.ascii	"A0\012\374`\204\362\217 \004>P>Ly\220\362!\020\000\357"
 227      6084F28F 
 227      20043E50 
 227      3E4C7990 
 227      F2211000 
 228 0269 291FA0BC 		.ascii	")\037\240\274\237r\037\360\202>r\031\364\202\036\360"
 228      9F721FF0 
 228      823E7219 
 228      F4821EF0 
 229 0279 0EBC056F 		.ascii	"\016\274\005o@7\345\036:\256\213\274\0138\300k`\007"
 229      4037E51E 
 229      3AAE8BBC 
ARM GAS  C:\Users\gjl\AppData\Local\Temp\ccoTbLoi.s 			page 18


 229      0B38C06B 
 229      6007
 230 028b 9DC0C674 		.ascii	"\235\300\306t\022K\261\032\351\037\273\234\224\327"
 230      124BB11A 
 230      E91FBB9C 
 230      94D7
 231              		.text
 232              		.section	.gnu.lto_u8x8_d_st7567_132x64_powersave0_seq.1a3c2e7,"",%progbits
 233 0000 789C2D8B 		.ascii	"x\234-\213\275\016\301P\030\206\317\327\037\021D'\011"
 233      BD0EC150 
 233      1886CFD7 
 233      1F114427 
 233      09
 234 0011 496F82A9 		.ascii	"Io\202\251\227\345\022:\264\211\304f \021\203\201TQ"
 234      97E5123A 
 234      B489C466 
 234      20118381 
 234      5451
 235 0023 AD0E864E 		.ascii	"\255\016\206N\"1\010\213Qb\220`5P1\370}\233\317I\236"
 235      2231088B 
 235      51629060 
 235      355031F8 
 235      7D9BCF49 
 236 0038 9CEFC993 		.ascii	"\234\357\311\223W\021$\222w\007|\011\361\226\310\267"
 236      57112492 
 236      77077C09 
 236      F196C8B7 
 237 0048 4F6E3A96 		.ascii	"On:\226lY\320\227\340\247\247\027\345\023'JA\343\326"
 237      6C59D097 
 237      E0A7A717 
 237      E513274A 
 237      41E3D6
 238 005b 66A7712E 		.ascii	"f\247q.AW\275\350\225\343\252B\033\317u3\303\325O\306"
 238      4157BDE8 
 238      95E3AA42 
 238      1BCF7533 
 238      C3D54FC6 
 239 006f 5B2BE8C8 		.ascii	"[+\350\310\234\025\350\321\371\264R\234\013\320\305"
 239      9C15E8D1 
 239      F9B4529C 
 239      0BD0C5
 240 007e 3570FE63 		.ascii	"5p\376c\031Z\017o}\225k/\031/\277\217\271\306Y\202^"
 240      195A0F6F 
 240      7D956B2F 
 240      192FBF8F 
 240      B9C65982 
 241 0093 ACF321CB 		.ascii	"\254\363!\313\271\010m/\366\253\27413k]\263j\313\022"
 241      B9086D2F 
 241      F6ABBC31 
 241      336B5DB3 
 241      6ACB12
 242 00a6 95759A92 		.ascii	"\225u\232\222N\025\235<|\001\360\301\204\330\307`\004"
 242      4E159D3C 
 242      7C01F0C1 
 242      84D8C760 
 242      04
 243 00b7 86C00503 		.ascii	"\206\300\005\003\340\220.($C\374\000\312BTO"
ARM GAS  C:\Users\gjl\AppData\Local\Temp\ccoTbLoi.s 			page 19


 243      E0902E28 
 243      2443FC00 
 243      CA42544F 
 244              		.text
 245              		.section	.gnu.lto_u8x8_d_st7567_132x64_powersave1_seq.1a3c2e7,"",%progbits
 246 0000 789C2D8D 		.ascii	"x\234-\215\271\012\302@\024E\347%Q\004\203\251\004\205"
 246      B90AC240 
 246      1445E725 
 246      510483A9 
 246      0485
 247 0012 FC8456F9 		.ascii	"\374\204V\371,?!E\002\342\017\330XX\250q\313fa\221J"
 247      2C3F2145 
 247      02E20FD8 
 247      5858A871 
 247      CB666191 
 248 0027 050B97C6 		.ascii	"\005\013\227\306F\260\023\324\326B\\\012\327;<\007\016"
 248      46B013D4 
 248      D6425C0A 
 248      D73B3C07 
 248      0E
 249 0038 3387C365 		.ascii	"3\207\303e4AB\236\033\340\227\020o\205B\367\330\313"
 249      3441429E 
 249      1BE09710 
 249      6F8542F7 
 249      D8CB
 250 004a 5C155715 		.ascii	"\\\025W\025\364%\370\361\351'9\351Di\350\265\276\336"
 250      F425F8F1 
 250      E92739E9 
 250      4469E8B5 
 250      BEDE
 251 005c 199C8BD0 		.ascii	"\031\234\213\320E+y\351\\S\320\373*i\352\\\333r\274"
 251      452B79E9 
 251      5C53D0FB 
 251      2A69EA5C 
 251      DB72BC
 252 006f 71A286CA 		.ascii	"q\242\206\312Y\203\036\274O=\3159\017\235]\"\357?V\241"
 252      59831EBC 
 252      4F3DCD39 
 252      0F9D5D22 
 252      EF3F56A1 
 253 0083 CB783BFD 		.ascii	"\313x;\375\377\034\310\361\374\373\230\030\234\025\350"
 253      FF1CC8F1 
 253      FCFB9818 
 253      9C15E8
 254 0092 D939EDB3 		.ascii	"\3319\355\263\234\013\320N\315=\2235\266\253M\273\342"
 254      9C0BD04E 
 254      CD3D9335 
 254      B6AB4DBB 
 254      E2
 255 00a3 AA0A954C 		.ascii	"\252\012\225L\212\311\244\262I>\256\010\204  \366!\030"
 255      8AC9A4B2 
 255      493EAE08 
 255      842020F6 
 255      2118
 256 00b5 803EE881 		.ascii	"\200>\350\201.\360\310\0244\"K\374\000\350\343TS"
 256      2EF0C814 
 256      34224BFC 
ARM GAS  C:\Users\gjl\AppData\Local\Temp\ccoTbLoi.s 			page 20


 256      00E8E354 
 256      53
 257              		.text
 258              		.section	.gnu.lto_u8x8_d_st7567_132x64_flip0_seq.1a3c2e7,"",%progbits
 259 0000 789C2D8C 		.ascii	"x\234-\214=\013\202P\030F\357\253%A\242SP\340\237\250"
 259      3D0B8250 
 259      1846EFAB 
 259      2541A253 
 259      50E09FA8 
 260 0014 C99FD54F 		.ascii	"\311\237\325OpPhjmi(\010\354[kh\220\006\011\032\202"
 260      7050686A 
 260      6D692808 
 260      EC5B6B68 
 260      9006091A 
 261 0029 866AA968 		.ascii	"\206j\251h\011\262\261\2060\032\372|\344\355\302\341"
 261      09B2B186 
 261      301AFA7C 
 261      E4EDC2E1 
 262 0039 DEC3E1B9 		.ascii	"\336\303\341\271)A\"9w\300/!\336\022yN\324\311\304\222"
 262      29412239 
 262      77C02F21 
 262      DE12794E 
 262      D4C9C492 
 263 004d 230BFA12 		.ascii	"#\013\372\022<z\016\002-q\"\005\032\327\226{\235s\001"
 263      3C7A0E02 
 263      2D712205 
 263      1AD7967B 
 263      9D7301
 264 0060 BA68052F 		.ascii	"\272h\005/\225k\032\352O\355\213\3065L\306k\333\257"
 264      956B1AEA 
 264      4FED8BC6 
 264      354CC66B 
 264      DBAF
 265 0072 CB9C53D0 		.ascii	"\313\234S\320\223\373\251)\234s\320\331\315w\377c\031"
 265      93FBA929 
 265      9C73D0D9 
 265      CD77FF63 
 265      19
 266 0083 BA3A6CBC 		.ascii	"\272:l\274\377\327\315d<\377>B\235\263\004\275\332\347"
 266      FFD7CD64 
 266      3CFF3E42 
 266      9DB304BD 
 266      DAE7
 267 0095 6396731E 		.ascii	"c\226s\036Z\235\355\266\2529\261*\015\253\354\310\022"
 267      5A9DEDB6 
 267      AA39B12A 
 267      0DABECC8 
 267      12
 268 00a6 150D1A91 		.ascii	"\025\015\032\221A%\203\006\270|\340\201!\261\367A\017"
 268      41258306 
 268      B87CE081 
 268      21B1F741 
 268      0F
 269 00b7 744107B4 		.ascii	"tA\007\264\201K\206\2401\231\342\007\3673T\255"
 269      814B86A0 
 269      3199E207 
 269      F73354AD 
ARM GAS  C:\Users\gjl\AppData\Local\Temp\ccoTbLoi.s 			page 21


 270              		.text
 271              		.section	.gnu.lto_u8x8_d_st7567_132x64_flip1_seq.1a3c2e7,"",%progbits
 272 0000 789C2D8B 		.ascii	"x\234-\213=\013AQ\030\307\317s\216\267\"&E\235/\301"
 272      3D0B4151 
 272      18C7CF73 
 272      8EB72226 
 272      459D2FC1 
 273 0014 E463F908 		.ascii	"\344c\371\010\206{\313hc0\030\324\365\356\222\014&)"
 273      867BCB68 
 273      633018D4 
 273      F5EE920C 
 273      2629
 274 0026 A22C6C26 		.ascii	"\242,l&\312e4\350\312\340\345\372\237\036\247~\235\347"
 274      CA6534E8 
 274      CAE0E5FA 
 274      9F1EA77E 
 274      9DE7
 275 0038 D7AF7F48 		.ascii	"\327\257\177H\2200\357\001\370\022\342#ih{\355\230/"
 275      9030EF01 
 275      F812E223 
 275      69687BED 
 275      982F
 276 004a 6D252820 		.ascii	"m%( \270\367\352\317\222\306\211\"P\277\272=\2448g\241"
 276      B8F7EACF 
 276      92C68922 
 276      50BFBA3D 
 276      A43867A1 
 277 005e 9BE6EC9D 		.ascii	"\233\346\354\235\340\032\206\326\254\375Ur]\233\361"
 277      E01A86D6 
 277      ACFD5572 
 277      5D9BF1
 278 006d CE72EB8A 		.ascii	"\316r\353\212s\010zv\276\325\010\3474tqw\235\377XA?"
 278      73087A76 
 278      BED508E7 
 278      34747177 
 278      9DFF5841 
 279 0082 C74A25CA 		.ascii	"\307J%\312\265a\306\313\3409Oq\226\320\233u9\3059g\240"
 279      B561C6CB 
 279      E0394F71 
 279      96D09B75 
 279      39C53967 
 280 0097 ABC9B41C 		.ascii	"\253\311\264\034+LK\345F\251h+I9M#\322\224\327\324\307"
 280      2B4C4BE5 
 280      46A9682B 
 280      49394D23 
 280      D294D7D4 
 281 00ac E7822118 		.ascii	"\347\202!\030\020{\017tA\007\264A\0138\244\005\215\251"
 281      107B0F74 
 281      4107B441 
 281      0B38A405 
 281      8DA9
 282 00be 207EBEEB 		.ascii	" ~\276\353T\034"
 282      541C
 283              		.text
 284              		.section	.gnu.lto_.symbol_nodes.1a3c2e7,"",%progbits
 285 0000 789C55CC 		.ascii	"x\234U\314\273\015\3020\024\205\341\343W\234w\201\030"
 285      BB0DC230 
ARM GAS  C:\Users\gjl\AppData\Local\Temp\ccoTbLoi.s 			page 22


 285      1485E1E3 
 285      579C7781 
 285      18
 286 0011 004A4661 		.ascii	"\000JFa\252\353\302\035R@Bb\002OAm\021\211\002Zj\310"
 286      AAEBC21D 
 286      52404262 
 286      024F416D 
 286      1189025A 
 287 0027 0094D091 		.ascii	"\000\224\320\221\330)p\365\351\327}H0l\031\000\236\021"
 287      D82970F5 
 287      E9D77D48 
 287      306C1900 
 287      9E11
 288 0039 70B80123 		.ascii	"p\270\001#g\263\006\224Tf\001\010\245d\024\"\312x\224"
 288      67B30694 
 288      54660108 
 288      A5641422 
 288      CA7894
 289 004c B3A84090 		.ascii	"\263\250@\2205\304\302\003\300\230\025\300Z\342IW$\222"
 289      35C4C203 
 289      C09815C0 
 289      5AE24957 
 289      2492
 290 005e 2E49265D 		.ascii	".I&]\223J\272\240,\351\234t\322\232\362\377\026h1|\226"
 290      934ABAA0 
 290      2CE99C74 
 290      D29AF2FF 
 290      1668317C 
 291 0073 020DDC77 		.ascii	"\002\015\334w\244\206\217\270K\317B\316\272~\366:Y\302"
 291      A4868FB8 
 291      4BCF42CE 
 291      BA7EF63A 
 291      59C2
 292 0085 EFEE5CA0 		.ascii	"\357\356\\\240\300\020\254\340\272I\015\037,a\367q\356"
 292      C010ACE0 
 292      BA490D1F 
 292      2C61F771 
 292      EE
 293 0096 8F517B9A 		.ascii	"\217Q{\232\367\2039\354\363\321\351\351\300\276\336"
 293      F78339EC 
 293      F3D1E9E9 
 293      C0BEDE
 294 00a5 1BFC0001 		.ascii	"\033\374\000\001\277E\216"
 294      BF458E
 295              		.text
 296              		.section	.gnu.lto_.refs.1a3c2e7,"",%progbits
 297 0000 789C6361 		.ascii	"x\234ca`d\020e```c`bdfbbcb\346db\341bb\345eb\023d\000"
 297      60641065 
 297      60606063 
 297      60626466 
 297      62626362 
 298 0020 00060600 		.ascii	"\000\006\006\000|"
 298      7C
 299              		.text
 300              		.section	.gnu.lto_.decls.1a3c2e7,"",%progbits
 301 0000 789CBD59 		.ascii	"x\234\275Y\013PTW\232\356sO\003Mw\003\021HbM\261\211"
 301      0B505457 
ARM GAS  C:\Users\gjl\AppData\Local\Temp\ccoTbLoi.s 			page 23


 301      9AEE734F 
 301      034D7703 
 301      1148624D 
 302 0016 951065AB 		.ascii	"\225\020e\253f\214\304$cm\325nejvwf\266\266v\263;\223"
 302      668CC424 
 302      636DD56E 
 302      656A7677 
 302      66B6B676 
 303 002d 54CD1655 		.ascii	"T\315\026U\235\246i\264'\3200tc\320\232\232\272<U\224"
 303      9DA669B4 
 303      27D03074 
 303      63D09A9A 
 303      BA3C5594 
 304 0041 973C14D4 		.ascii	"\227<\024\324\250\370\002EET^\242\264o\021\024\005Q"
 304      A8F80245 
 304      45545EA2 
 304      B46F1114 
 304      0551
 305 0053 11045454 		.ascii	"\021\004TT\024A@\020\025\220\375\3179\367\366\275\027"
 305      14414010 
 305      1590FDCF 
 305      39F7F6BD 
 305      17
 306 0064 2F994DD5 		.ascii	"/\231M\325\314v\371q\356\177\316w\376\327y\336\253V"
 306      CC76F971 
 306      EE7FCE77 
 306      FED779DE 
 306      AB56
 307 0076 8334E417 		.ascii	"\2034\344\027\372\276F\363\330C\243\351\3434\232i\370"
 307      FABE46F3 
 307      D843A3E9 
 307      E3349A69 
 307      F8
 308 0087 E9A0EE6B 		.ascii	"\351\240\356k\200'\340K\300A@\015\300\005\360\202.A"
 308      8027E04B 
 308      C041400D 
 308      C005F082 
 308      2E41
 309 0099 1AF6F306 		.ascii	"\032\366\363\006\374;\310\377\015\370\037\3007\000\013"
 309      FC3BC8FF 
 309      0DF81FC0 
 309      37000B
 310 00a8 2012F02D 		.ascii	" \022\360- \006\340DL\317r(\023\000+\001\177\002\374"
 310      2006E044 
 310      4CCF7228 
 310      13002B01 
 310      7F02FC
 311 00bb 19C0238D 		.ascii	"\031\300#\215\342Gt\315\023\354\371\003\002\001\377"
 311      E24774CD 
 311      13ECF903 
 311      0201FF
 312 00ca 08755F41 		.ascii	"\010u_A\371\025\222l\023\237\376S\3601\221\350\0078"
 312      F915926C 
 312      139FFE53 
 312      F03191E8 
 312      0738
 313 00dc 0049003B 		.ascii	"\000I\000; \0311_\353\001\177@\314\367j\300?\301s\025"
ARM GAS  C:\Users\gjl\AppData\Local\Temp\ccoTbLoi.s 			page 24


 313      2019315F 
 313      EB017F40 
 313      CCF76AC0 
 313      3FC17315 
 314 00f0 942950FE 		.ascii	"\224)P\376\027 \025`\002\344\003\362\000\005\200\337"
 314      17201560 
 314      02E403F2 
 314      000580DF 
 315 0100 0348FCBF 		.ascii	"\003H\374\277\206\362%\224\237A9\012e\006\224Y\200L"
 315      86F22594 
 315      9F41390A 
 315      65069459 
 315      804C
 316 0112 40369262 		.ascii	"@6\222bw\012q~+\304\376\215\020\277\230\023\037\340"
 316      770A717E 
 316      2BC4FE8D 
 316      10BF9813 
 316      1FE0
 317 0124 6D807223 		.ascii	"m\200r#\240\020P\004\330\004\330\014\330\"\344\340\317"
 317      A0105004 
 317      D804D80C 
 317      D822E4E0 
 317      CF
 318 0135 424E560A 		.ascii	"BNV\0129Z>#/\204\243\205r\276\206\305\277@\303b\016"
 318      395A3E23 
 318      2F84A385 
 318      72BE86C5 
 318      BF40C362 
 319 014a 80720C30 		.ascii	"\200r\0140\002\030\002<\007\214\223\016\3206\010\305"
 319      0218023C 
 319      078C930E 
 319      D03608C5 
 320 015a 30E01560 		.ascii	"0\340\025`\0120\001x\001x\015\340\240\375\251\206\305"
 320      0A300178 
 320      01780DE0 
 320      A0FDA986 
 320      C5
 321 016b 47629B24 		.ascii	"Gb\233$]f\330\024\177\3047,\330\015\024r:\333\357O3"
 321      5D66D814 
 321      7FC4372C 
 321      D80D1472 
 321      3ADBEF4F 
 322 0180 B8D53FC0 		.ascii	"\270\325?\300]\371#\270\011?\202\273\374Gp\2478t0\265"
 322      5DF923B8 
 322      093F82BB 
 322      FC4770A7 
 322      387430B5 
 323 0194 B75437CA 		.ascii	"\267T7\312\241 =\232FD~R\363\322\207\311\244\271\373"
 323      A1203D9A 
 323      46447E52 
 323      F3D287C9 
 323      A4B9FB
 324 01a7 65C9BF2E 		.ascii	"e\311\277.,\343\341\227\315\363\034'\365;\342z\266_"
 324      2CE3E197 
 324      CDF31C27 
 324      F53BE27A 
 324      B65F
ARM GAS  C:\Users\gjl\AppData\Local\Temp\ccoTbLoi.s 			page 25


 325 01b9 8B0D84C4 		.ascii	"\213\015\204\304]=\334~\326\033\205\350w\023^O\307\350"
 325      5D3DDC7E 
 325      D61B85E8 
 325      77135E4F 
 325      C7E8
 326 01cb 2F92791E 		.ascii	"/\222y\036\2412\244G{\021F\245h!t\001\205\360w5\317"
 326      A132A447 
 326      7B1146A5 
 326      68217401 
 326      85F07735 
 327 01e0 27F143C5 		.ascii	"'\361C\305\274\347\\\015Z\034\204\026\005i\320>\024"
 327      BCE75C0D 
 327      5A1C8416 
 327      0569D03E 
 327      14
 328 01f1 428C1116 		.ascii	"B\214\021\026*AAh\017\012\"\372K\267\226\234\361\301"
 328      2A414168 
 328      0F0A22FA 
 328      4BB7969C 
 328      F1C1
 329 0203 1B113530 		.ascii	"\033\02150\220\327\277\032\273\015\344\254\015\332\307"
 329      90D7BF1A 
 329      BB0DE4AC 
 329      0DDAC7
 330 0212 F36FA183 		.ascii	"\363o\241\203``\277d\000\354\251[8\240b\201t\006+WS"
 330      6060BF64 
 330      00ECA95B 
 330      38A06281 
 330      74062B57 
 331 0227 CA376388 		.ascii	"\3127c\210\326_\217\264 \016_*\272\347\013b\240\036"
 331      D65F8FB4 
 331      200E5F2A 
 331      BAE70B62 
 331      A01E
 332 0239 CD03B177 		.ascii	"\315\003\261wb\177\255/k\365\004\361\351\275\361\273"
 332      627FAD2F 
 332      6BF504F1 
 332      E9BDF1BB 
 333 0249 3AFD6A9A 		.ascii	":\375j\232\214d\336\377\202/i8\004\012\313A\241\006"
 333      8C64DEFF 
 333      822F6938 
 333      040ACB41 
 333      A106
 334 025b 1D26F6D1 		.ascii	"\035&\366\321\307A\250\202E0\232\236:.\350\366\002\261"
 334      C741A882 
 334      45309A9E 
 334      3A2EE8F6 
 334      02B1
 335 026d E4C1E64C 		.ascii	"\344\301\346L#\323\275\004D\327S~\334\317?[\310\354"
 335      23D3BD04 
 335      44D7537E 
 335      DCCF3F5B 
 335      C8EC
 336 027f 17884673 		.ascii	"\027\210Fs\024\224\035\241\312*\221\277\250\222\350"
 336      14941DA1 
 336      CA2A91BF 
 336      A892E8
ARM GAS  C:\Users\gjl\AppData\Local\Temp\ccoTbLoi.s 			page 26


 337 028e DAD27637 		.ascii	"\332\322v7\333[/\304\226\375\027b\003\376\376\342\344"
 337      DB5B2FC4 
 337      96FD1762 
 337      03FEFEE2 
 337      E4
 338 029f 8B9C5C7B 		.ascii	"\213\234\\{\325\017i\257\335|\276\323\303\230N\264\013"
 338      D50F69AF 
 338      DD7CBED3 
 338      C3984EB4 
 338      0B
 339 02b0 8155237F 		.ascii	"\201U#\177Yd5\310HF\235\224\300~\236\235\230!\3045\037"
 339      596435C8 
 339      48469D94 
 339      C07E9E9D 
 339      9821C435 
 340 02c5 C4636D75 		.ascii	"\304cmu\273<g\317\31211+\265\314\263]U\355\277a\235"
 340      BB3C67CF 
 340      CA31312B 
 340      B5CCB35D 
 340      55EDBF61 
 341 02da 178074B2 		.ascii	"\027\200t\262\365\321\032\216%\245\232\003\271\265\266"
 341      F5D11A8E 
 341      25A59A03 
 341      B9B5B6
 342 02e9 275F3B33 		.ascii	"'_;3+\307AY\035Uv\202\372}L\364;\353\346\353Q\355\314"
 342      2BC74159 
 342      1D557682 
 342      FA7D4CF4 
 342      3BEBE6EB 
 343 0300 28676797 		.ascii	"(gg\227V^\361UDY\257\210\322%D\351\242Q\036\253\252"
 343      565EF155 
 343      4459AF88 
 343      D22544E9 
 343      A2511EAB 
 344 0315 3BE7C13C 		.ascii	";\347\301<[\004b\313P\323\026\003\363\373-\020\317N"
 344      5B0462CB 
 344      50D31603 
 344      F3FB2D10 
 344      CF4E
 345 0327 8FBBFC98 		.ascii	"\217\273\374\230\310\311Z\003Y\353\272\326\312\305x"
 345      C8C95A03 
 345      59EBBAD6 
 345      CAC578
 346 0336 034717D0 		.ascii	"\003G\027\320\256W\023C$[\363a}Mc\331\002\233\317\026"
 346      AE571343 
 346      245BF361 
 346      7D4D63D9 
 346      029BCF16 
 347 034a 587D63C3 		.ascii	"X}c\303n#\336A\311\334NWR*B\372\020:\320|2\257/\361"
 347      6E23DE41 
 347      C9DC4E57 
 347      522A42FA 
 347      103AD07C 
 348 0362 D5A033E0 		.ascii	"\325\2403\340\341i2e/\302X\317\027\306\372<T\236\203"
 348      E1693265 
 348      2FC258CF 
 348      17C6FA3C 
ARM GAS  C:\Users\gjl\AppData\Local\Temp\ccoTbLoi.s 			page 27


 348      549E83
 349 0375 4A61C93D 		.ascii	"Ja\311=\3717\272\344\032 \376\013\322\212\230/D~\"\247"
 349      F937BAE4 
 349      1A20FE0B 
 349      D28A982F 
 349      447E22A7 
 350 0389 E3811E1F 		.ascii	"\343\201\036\037`6J\207\232\312\374f\265qiV\0339k\347"
 350      60364A87 
 350      9ACAFC66 
 350      B5716956 
 350      1B396BE7 
 351 039d 979155D7 		.ascii	"\227\221U\327\0046\032%\033\015bz\007S\356\367\0109"
 351      04361A25 
 351      1B0D627A 
 351      0753EEF7 
 351      0839
 352 03af 980B6259 		.ascii	"\230\013bY\333\315)\204\253X\022.\275\036:\201q\003"
 352      DBCD2984 
 352      AB58122E 
 352      BD1E3A81 
 352      7103
 353 03c1 13F6F7A4 		.ascii	"\023\366\367\244\265z\340[L\330=\271\375\210\021?`B"
 353      B57AE05B 
 353      4CD83DB9 
 353      FD88113F 
 353      6042
 354 03d3 D1B1D18B 		.ascii	"\321\261\321\213\036,\253:\020\317\215\037\337\341\201"
 354      1E2CAB3A 
 354      10CF8D1F 
 354      DFE181
 355 03e2 87595BFA 		.ascii	"\207Y[\372\332\275\333}q\032\246\302\246g\267\037y3"
 355      DABDDB7D 
 355      711AA6C2 
 355      A667B71F 
 355      7933
 356 03f4 5B2120A6 		.ascii	"[! \246\256\333W\207q!k\273\322]1\346\211\0170\241\273"
 356      AEDB5787 
 356      71216BBB 
 356      D25D31E6 
 356      890F30A1 
 357 0409 2BE70FB8 		.ascii	"+\347\017\270\212=\337\276P\272\217\214\304\0022\022"
 357      8A3DDFBE 
 357      50BA8F8C 
 357      C4023212 
 358 0419 D3D37EB2 		.ascii	"\323\323~\262\261X\300\306\242%kd\247\027>C\351\334"
 358      B158C0C6 
 358      A2256B64 
 358      A7173E43 
 358      E9DC
 359 042b B98CC315 		.ascii	"\271\214\303\025\006iS\333i\254!\321wA\364\235R\364"
 359      066953DB 
 359      69AC21D1 
 359      7741F49D 
 359      52F4
 360 043d 0BDC5B0E 		.ascii	"\013\334[\016\233R\032\367|B\267!\223\013\204Lv@\345"
 360      9B521AF7 
 360      7C42B721 
ARM GAS  C:\Users\gjl\AppData\Local\Temp\ccoTbLoi.s 			page 28


 360      930B844C 
 360      7640E5
 361 0450 2D615FDB 		.ascii	"-a_\333\231S\354\211\233\231\215\302#{\307\365\262}"
 361      9953EC89 
 361      9B998DC2 
 361      237BC7F5 
 361      B27D
 362 0462 ED539AE1 		.ascii	"\355S\232\341;`\243[\262\321\205f7\322\243n\244\377"
 362      3B60A35B 
 362      B2D18566 
 362      37D2A36E 
 362      A4FF
 363 0474 5A4B8E07 		.ascii	"ZK\216\007\276\311\342\236\252XuL\213\373\231\360\360"
 363      BEC9E29E 
 363      AA58754C 
 363      8BFB99F0 
 363      F0
 364 0485 C2CB5103 		.ascii	"\302\313Q\003\236b\302\253SI5\010gk\251Py\352e\223\007"
 364      9E62C2AB 
 364      53493508 
 364      676BA950 
 364      79EA6593 
 365 049a DEC584C1 		.ascii	"\336\305\204\301\244};\021>\301\204+\371\003\005\034"
 365      A47D3B11 
 365      3EC1842B 
 365      F903051C 
 366 04aa BEC184C9 		.ascii	"\276\301\204\311\211\334D\017\374\230\011\365\235}e"
 366      89DC440F 
 366      FC9809F5 
 366      9D7D65
 367 04b9 063C29F4 		.ascii	"\006<)\364\021&\200?\233\000\345u)\003\302^\352\"\007"
 367      1126803F 
 367      9B00E575 
 367      2903C25E 
 367      EA2207
 368 04cc 4B49C6D0 		.ascii	"KI\306\320i=\316\367 \334\267\023\353/\235\367B\301"
 368      693DCEF7 
 368      20DCB713 
 368      EB2F9DF7 
 368      42C1
 369 04de E417102C 		.ascii	"\344\027\020,\375B\000\305$\320\236\374\376/\352*;y"
 369      FD4200C5 
 369      24D09EFC 
 369      FE2FEA2A 
 369      3B79
 370 04f0 3ECD48B7 		.ascii	">\315H\267\200{\220\216g(@\334\365>&\353\365$Y\265\032"
 370      807B908E 
 370      672840DC 
 370      F53E26EB 
 370      F52459B5 
 371 0505 4A7765B7 		.ascii	"Jwe\267\030\370\362o(\365\252\222z\212\256\355\305\022"
 371      18F8F26F 
 371      28F5AA92 
 371      7A8AAEED 
 371      C512
 372 0517 B5F3B29B 		.ascii	"\265\363\262\233\372PE\353\031\231\326\215\315n\352"
 372      FA5045EB 
ARM GAS  C:\Users\gjl\AppData\Local\Temp\ccoTbLoi.s 			page 29


 372      1999D68D 
 372      CD6EEA
 373 0526 5D15EA51 		.ascii	"]\025\352Q\031\365\246\244\265O\205J\355\347\010\033"
 373      19F5A6A4 
 373      B54F854A 
 373      EDE7081B 
 374 0536 158F9C1A 		.ascii	"\025\217\234\032\364\004F\253\237\014\341c\201\016c"
 374      F40446AB 
 374      9F0CE163 
 374      810E63
 375 0545 08277008 		.ascii	"\010'p\010\032C\301h\0040\004x\016\030\007\360\\0\032"
 375      1A43C168 
 375      04300478 
 375      0E1807F0 
 375      5C301A
 376 0558 847218F0 		.ascii	"\204r\030\360\0120\005\230\000\274\000\274\006$A\373"
 376      0A300598 
 376      00BC00BC 
 376      062441FB 
 377 0568 53285F02 		.ascii	"S(_\002F\001\223\200D.\230\236\325\314\277\002)A\315"
 377      46019380 
 377      442E989E 
 377      D5CCBF02 
 377      2941CD
 378 057b 6A09BA2C 		.ascii	"j\011\272,\213\345\272\024\313#\225XB%f\227\304|\240"
 378      8BE5BA14 
 378      CB239558 
 378      42256697 
 378      C47CA0
 379 058e C2942B1D 		.ascii	"\302\224+\035\222\250\367U\250\207d\324Q)\355mJj+\232"
 379      92A8F755 
 379      A88764D4 
 379      5129ED6D 
 379      4A6A2B9A 
 380 05a2 39F07952 		.ascii	"9\360yR\\W\324\342\222\017\347\326,\337B\336\225\202"
 380      5C57D4E2 
 380      920FE7D6 
 380      2CDF42DE 
 380      9582
 381 05b4 E9026B17 		.ascii	"\351\002k\027\330\356\245\304t\313\202ko\366\331\300"
 381      D8EEA5C4 
 381      74CB826B 
 381      6FF6D9C0 
 382 05c4 BB123155 		.ascii	"\273\0221U~C\315\221\3532\345U\353}7\362\256$L\367\307"
 382      7E43CD91 
 382      EB32E555 
 382      EB7D37F2 
 382      AE244CF7 
 383 05d9 B302DBBD 		.ascii	"\263\002\333\275\2552g\344A\266\312\265\337T\323.g\277"
 383      AD3267E4 
 383      41B6CAB5 
 383      DF54D32E 
 383      67BF
 384 05eb 9052724D 		.ascii	"\220RrM\215\313\246\"\335F\\\365\231F\236\327\021\216"
 384      8DCBA622 
 384      DD465CF5 
 384      99469ED7 
ARM GAS  C:\Users\gjl\AppData\Local\Temp\ccoTbLoi.s 			page 30


 384      118E
 385 05fd 46D842A4 		.ascii	"F\330B\244i\360\354\262\314j\257\3128\310C\252\221\207"
 385      69F0ECB2 
 385      CC6AAFCA 
 385      38C843AA 
 385      9187
 386 060f 34A01E92 		.ascii	"4\240\036\222|,\246\345!\265\250\215\006\315.\354\005"
 386      7C2CA6E5 
 386      21B5A88D 
 386      06CD2EEC 
 386      05
 387 0620 ED599B0A 		.ascii	"\355Y\233\012\375p-\335\013\270K\275E\365\276( D}y\244"
 387      FD702DDD 
 387      0BB84BBD 
 387      45F5BE28 
 387      20447D79 
 388 0635 72217FD3 		.ascii	"r!\177\323\345\301rv\273\361\247$g)\\\000J\346\334;"
 388      E5C17276 
 388      BBF1A724 
 388      67295C00 
 388      4AE6DC3B 
 389 0649 2F4921F5 		.ascii	"/I!\365w{\311\236\014\024 8\350\232\325A\315_\335;\260"
 389      777BC99E 
 389      0C142038 
 389      E89AD541 
 389      CD5FDD3B 
 390 065e 9D96FE2C 		.ascii	"\235\226\376,\021)\256-i\\\200\354\332\262\212c\327"
 390      1129AE2D 
 390      695C80EC 
 390      DAB28A63 
 390      D7
 391 066f 1628C95E 		.ascii	"\026(\311^\235r\256J\327\001\263\033NM\341\205\206\275"
 391      9D72AE4A 
 391      D701B31B 
 391      4E4DE185 
 391      86BD
 392 0681 D8202808 		.ascii	"\330 (\0104\014T\204\007\216\376\325\270\253\334\205"
 392      340C5484 
 392      078EFED5 
 392      B8ABDC85 
 393 0691 86FCD530 		.ascii	"\206\374\3250>\255\223\224\321\177b9-\376\250\022I;"
 393      3EAD9394 
 393      D17F6239 
 393      2DFEA812 
 393      493B
 394 06a3 123A21B7 		.ascii	"\022:!\267\007\254\027k\347D\255\254\340\244\0162}\314"
 394      07AC176B 
 394      E744ADAC 
 394      E0A40E32 
 394      7DCC
 395 06b5 5D994F48 		.ascii	"]\231OH\031\023\022S\324u\350\322\2007\276L\247\023"
 395      19131253 
 395      D475E8D2 
 395      8037BE4C 
 395      A713
 396 06c7 3A503651 		.ascii	":P6Q\256\327\302\233\012\372\312\210\302\265\244\252"
 396      AED7C29B 
ARM GAS  C:\Users\gjl\AppData\Local\Temp\ccoTbLoi.s 			page 31


 396      0AFACA88 
 396      C2B5A4AA 
 397 06d7 236D4FA3 		.ascii	"#mO\243\201V\221\231\231\316\321\312\266\233]m\336\356"
 397      81569199 
 397      99CED1CA 
 397      B69B5D6D 
 397      DEEE
 398 06e9 CAB5AC52 		.ascii	"\312\265\254R\274X\370\263\213\205\370>\340\317\336"
 398      BC58F8B3 
 398      8B85F83E 
 398      E0CFDE
 399 06f8 07F8BE94 		.ascii	"\007\370\276\224\255\034~\300\354\324\367\345\324\353"
 399      AD1C7EC0 
 399      ECD4F7E5 
 399      D4EB
 400 0706 F01813AE 		.ascii	"\360\030\023\256\354\031\270\341\2133<\251\320\267\255"
 400      EC19B8E1 
 400      8B333CA9 
 400      D0B7AD
 401 0715 BE42874B 		.ascii	"\276B\207K\230\220\357Z?\251\307G\230\320Psw\021\256"
 401      9890EF5A 
 401      3FA9C747 
 401      98D05073 
 401      7711AE
 402 0728 67CFCF1B 		.ascii	"g\317\317\033\257\335\306\3702\023\262N\035?\255\303"
 402      AFDDC6F8 
 402      3213B24E 
 402      1D3FADC3 
 403 0738 B79870AE 		.ascii	"\267\230p\256\363V\233\026?`B\342\361\323\207}\360\004"
 403      F3569B16 
 403      3F6042E2 
 403      F1D3877D 
 403      F004
 404 074a 13A60E1F 		.ascii	"\023\246\016\037>\215p\212\027\025\036\244\227\016\033"
 404      3E8D708A 
 404      17151EA4 
 404      970E1B
 405 0759 7106131E 		.ascii	"q\006\023\036uVM\032\025\263\204\334\205\245Y\262\211"
 405      75564D1A 
 405      15B384DC 
 405      85A559B2 
 405      89
 406 076a CD1260DE 		.ascii	"\315\022`\336=4\376D\207\327\263n\253\246o\237\321\341"
 406      3D34FE44 
 406      87D7B36E 
 406      ABA66F9F 
 406      D1E1
 407 077c 9D4C48D9 		.ascii	"\235LH\331\223\261\311\007\2273!\263p\344\230\027\256"
 407      93B1C907 
 407      973321B3 
 407      70E49817 
 407      AE
 408 078d 6642AB6B 		.ascii	"fB\253k\333&o\\\317\204{G\306w\372\340\213L\270\363"
 408      DB266F5C 
 408      CF847B47 
 408      C677FAE0 
 408      8B4CB8F3 
ARM GAS  C:\Users\gjl\AppData\Local\Temp\ccoTbLoi.s 			page 32


 409 07a1 F478A197 		.ascii	"\364x\241\227;\213,\335G[\266v{\341\026Fx\325<Q\213"
 409      3B8B2CDD 
 409      475BB676 
 409      7BE11646 
 409      78D53C51 
 410 07b6 703713C6 		.ascii	"p7\023\306\367?\354\364\300O\004s[\262\2339\226\334"
 410      F73FECF4 
 410      C04F0473 
 410      5BB29B39 
 410      96DC
 411 07c8 9F8258B0 		.ascii	"\237\202X\260fs\217\226"
 411      66738F96 
 412 07d0 DD177AC8 		.ascii	"\335\027z\310\235\272\357\376\246sz\374\202q\353[\017"
 412      9DBAEFFE 
 412      A6737AFC 
 412      8271EB5B 
 412      0F
 413 07e1 36F9E175 		.ascii	"6\371\341u:\"|\320\371\244\242\306\007).\016\301\301"
 413      3A227CD0 
 413      F9A4A2C6 
 413      07292E0E 
 413      C1C1
 414 07f3 46E35CAD 		.ascii	"F\343\\\2551@|\012\011\016\011\011a\273\322\206\353"
 414      31407C0A 
 414      090E0909 
 414      61BBD286 
 414      EB
 415 0804 B25D6903 		.ascii	"\262]i\003,\356}\234{W\352\227m\236\212\355g\017\027"
 415      2CEE7D9C 
 415      7B57EA97 
 415      6D9E8AED 
 415      670F17
 416 0817 847673C0 		.ascii	"\204vs\300\330%t \333O\003\254\364\013\260XO\001N\002"
 416      D8257420 
 416      DB4F03AC 
 416      F40BB058 
 416      4F014E02 
 417 082b 5C807A40 		.ascii	"\\\200z@5\240\012P\0118\012\330\0138\0028\014\250\000"
 417      35A00A50 
 417      09380AD8 
 417      0B380238 
 417      0CA800
 418 083e 1C029403 		.ascii	"\034\002\224\003\016\002\016\000\366\003\312\024\247"
 418      0E020E00 
 418      F603CA14 
 418      A7
 419 084b 73DD75F7 		.ascii	"s\335u\367\366^\242\3640\203\233q*\325J\324,%5\223\233"
 419      F65EA2F4 
 419      30839B71 
 419      2AD54AD4 
 419      2C253593 
 420 0860 7929A996 		.ascii	"y)\251\226\270\331j\\\371\346])qs\324\270\362\203\341"
 420      B8D96A5C 
 420      F9E65D29 
 420      7173D4B8 
 420      F283E1
 421 0873 88C45DAF 		.ascii	"\210\304]\257\306\225\237\\\025\0227W\215+\277#\224"
ARM GAS  C:\Users\gjl\AppData\Local\Temp\ccoTbLoi.s 			page 33


 421      C6959F5C 
 421      15123757 
 421      8D2BBF23 
 421      94
 422 0884 4BDC3C35 		.ascii	"K\334<5\256\3740\377^\342\346\253qe7\276\215\022\265"
 422      AEFC30FF 
 422      5EE2E6AB 
 422      716537BE 
 422      8D12B5
 423 0897 408D2ACB 		.ascii	"@\215*\313n\236D\335\2506U\344\031\313-\220\035\217"
 423      6E9E44DD 
 423      A83655E4 
 423      19CB2D90 
 423      1D8F
 424 08a9 8502DB7D 		.ascii	"\205\002\333}<\366\277q\206\347\024\274\315\256\037"
 424      3CF6BF71 
 424      86E714BC 
 424      CDAE1F
 425 08b8 B0165191 		.ascii	"\260\026Q\221\300w_?\372g^?\246[\375\030\275\006\350"
 425      C0775F3F 
 425      FA675E3F 
 425      A65BFD18 
 425      BD06E8
 426 08cb 9B67D2E5 		.ascii	"\233g\322\345\027\012\371\252?\306\315\225H\2150ak\241"
 426      170AF9AA 
 426      3FC6CD95 
 426      488D3061 
 426      6BA1
 427 08dd 373BCE66 		.ascii	"7;\316f\243id\234\002\262\010\340\245p\036Gs F\243!"
 427      A369649C 
 427      02B208E0 
 427      A5701E47 
 427      732046A3 
 428 08f2 1DE06F1D 		.ascii	"\035\340o\035G\276\302\221\325~\034\272\254\003I\256"
 428      47BEC291 
 428      D57E1CBA 
 428      AC0349AE 
 429 0902 F484E25C 		.ascii	"\364\204\342\\:\316v\034\365eu\021<\373\333/\253\311"
 429      3ACE761C 
 429      F5657511 
 429      3CFBDB2F 
 429      ABC9
 430 0914 56239F6D 		.ascii	"V#\237m\246\011\374^=\201\262|\277\222\310[g\222U.d"
 430      A609FC5E 
 430      3D81B27C 
 430      BF92C85B 
 430      6792552E 
 431 0929 127B9B3A 		.ascii	"\022{\233:[\246z<7\220\015\345i\240o\237I\377X}$\317"
 431      5BA67A3C 
 431      37900DE5 
 431      69A06F9F 
 431      49FF587D 
 432 093f CA47F23C 		.ascii	"\312G\362<\344\350\214\352H\236U\214\344\031\265\221"
 432      E4E88CEA 
 432      489E558C 
 432      E419B591 
 433 094f 6C528CE4 		.ascii	"lR\214\344Y:\222\347\024#Y\014\022\273\010\215\255}"
ARM GAS  C:\Users\gjl\AppData\Local\Temp\ccoTbLoi.s 			page 34


 433      593A92E7 
 433      1423590C 
 433      12BB088D 
 433      AD7D
 434 0961 875C8488 		.ascii	"\207\\\204\210\243;\244\213\320\031:\226,\230\261\334"
 434      A33BA48B 
 434      D0193A96 
 434      2C98B1DC 
 435 0971 F7593070 		.ascii	"\367Y0p\341@;U\203\011\225.\243\303\271\3642\012\034"
 435      E1403B55 
 435      8309952E 
 435      A3C3B9F4 
 435      320A1C
 436 0984 F96594B5 		.ascii	"\371e\224\265u\254}\217\264\221iS*\331\"T\221\361\254"
 436      75AC7D8F 
 436      B4916953 
 436      2AD92254 
 436      91F1AC
 437 0997 F16DC220 		.ascii	"\361m\302 Y\336\"1j\2517p*\014\224_?\317}\260\215\337"
 437      59DE2231 
 437      6AA93770 
 437      2A0C945F 
 437      3FCF7DB0 
 438 09ad 56CEF7DC 		.ascii	"V\316\367\334(\266\225T\364\362\274^K'\367\032\211\016"
 438      28B69554 
 438      F4F2BC5E 
 438      4B27F71A 
 438      890E
 439 09bf 8FA458CD 		.ascii	"\217\244X\315u\300\365\241\211\373\200|\334)\270g\300"
 439      75C0F5A1 
 439      89FB807C 
 439      DC29B867 
 439      C0
 440 09d0 47E86982 		.ascii	"G\350i\202\222w\367\\\361\300\015L(\250wm\366\203\343"
 440      9277F75C 
 440      F1C00D4C 
 440      28A8776D 
 440      F683E3
 441 09e3 0C5DA69D 		.ascii	"\014]\246\235\310qy&i\204]\023H\242\330\001\327\\\337"
 441      C8717926 
 441      69845D13 
 441      48A2D801 
 441      D75CDF
 442 09f6 B4593B77 		.ascii	"\264Y;w\326\265r\225f\370\012\3150\260\277\317m\310"
 442      D6B57295 
 442      66F80ACD 
 442      30B0BFCF 
 442      6DC8
 443 0a08 D782973D 		.ascii	"\327\202\227=\360\212\237\327\237\260vG\232\353\012"
 443      F08A9FD7 
 443      9FB07647 
 443      9AEB0A
 444 0a17 BCE6531E 		.ascii	"\274\346S\036\272$\372\211\2329-\221\330\365\246\205"
 444      BA24FA89 
 444      9A392D91 
 444      D8F5A685 
 445 0a27 BA99BBFD 		.ascii	"\272\231\273\375Y\027\207[fs-\257\357\274\267\342\310"
ARM GAS  C:\Users\gjl\AppData\Local\Temp\ccoTbLoi.s 			page 35


 445      5917875B 
 445      66732DAF 
 445      EFBCB7E2 
 445      C8
 446 0a38 3FA838F2 		.ascii	"?\2508\362\333\334G\376\206\27257=i\014m\356\030z;\033"
 446      DBDC47FE 
 446      86BA3537 
 446      3D690C6D 
 446      EE187A3B 
 447 0a4d 46A583FB 		.ascii	"F\245\203\373:\273\3764\255\232\006\267\305`o\260\312"
 447      3ABBFE34 
 447      AD9A06B7 
 447      C5606FB0 
 447      CA
 448 0a5e 075DA76B 		.ascii	"\007]\247k<g\217\266\235F{S\214v:\355\305\035#\213\326"
 448      3C678FB6 
 448      9D467B53 
 448      8C763AED 
 448      C51D238B 
 449 0a73 F52ABC90 		.ascii	"\365*\274\220?\225\304\177A8\250\325\035\3515\210\264"
 449      3F95C47F 
 449      4138A8D5 
 449      1DE93588 
 449      B4
 450 0a84 558CF416 		.ascii	"U\214\364\026\215t}\316\300zo\334;[\244j\267\214\253"
 450      8D747DCE 
 450      C07A6FDC 
 450      3B5BA46A 
 450      B78CAB
 451 0a97 9DCD939E 		.ascii	"\235\315\223\236n_o3_s767\374\300\310tS_\273D_\223F"
 451      6E5F6F33 
 451      5F733736 
 451      37FCC0C8 
 451      74535FBB 
 452 0aaf CE4F61C1 		.ascii	"\316Oa\301\327\347\242\257\300A\035n_;\301\327\016\321"
 452      D7E7A2AF 
 452      C0411D6E 
 452      5F3BC1D7 
 452      0ED1
 453 0ac1 D71EEA6B 		.ascii	"\327\036\352kfb\365Y-\036\233\315\327\324\314\023\323"
 453      6662F559 
 453      2D1E9BCD 
 453      D7D4CC13 
 453      D3
 454 0ad2 DE82D249 		.ascii	"\336\202\322IQ)\031\352;n\245wA\351\035Q\351=\252\364"
 454      512919EA 
 454      3B6EA577 
 454      41E91D51 
 454      E93DAAF4 
 455 0ae6 D0C5BA87 		.ascii	"\320\305\272\207\336x\235\367,J\317gl\177\"*}!\367\264"
 455      DE789DF7 
 455      2C4ACF67 
 455      6C7F222A 
 455      7D21F7B4 
 456 0afa D7ADF43E 		.ascii	"\327\255\364>(\355\025\225>\240JKR\\#\336x\013S\332"
 456      28ED1595 
 456      3EA04A4B 
ARM GAS  C:\Users\gjl\AppData\Local\Temp\ccoTbLoi.s 			page 36


 456      525C23DE 
 456      780B53DA 
 457 0b0e 353A31C1 		.ascii	"5:1\301\362\265\311=\011:\273\216\233\335)\354c),*\336"
 457      F2B5C93D 
 457      093ABB8E 
 457      9BDD29EC 
 457      63292C2A 
 458 0b23 BD17C953 		.ascii	"\275\027\311S\370\365;\262\014>\246\031|$f0\363z\347"
 458      F8F53BB2 
 458      0C3EA619 
 458      7C246630 
 458      F37AE7
 459 0b36 2D83E0D7 		.ascii	"-\203\340\327\330\275E\340\030G(\350\241\264\374\036"
 459      D8BD45E0 
 459      184728E8 
 459      A1B4FC1E 
 460 0b46 8A3EF553 		.ascii	"\212>\365S\237\366\245\355O\367\300\207\231Oj\213\253"
 460      9FF6A5ED 
 460      4FF7C087 
 460      994F6A8B 
 460      AB
 461 0b57 AB62F0B6 		.ascii	"\253b\360\266\337\254\366\007\251\375\001\321~ks\323"
 461      DFACF607 
 461      A9FD01D1 
 461      7E6B73D3 
 462 0b67 7B82F9BA 		.ascii	"{\202\371\272\033F\327\227\244\035=\221\214?\021\215"
 462      1B46D797 
 462      A41D3D91 
 462      8C3F118D 
 463 0b77 3FA5C6BB 		.ascii	"?\245\306\273\212\273\263<\361ef<\2452\363*\233\354"
 463      8ABBB33C 
 463      F165663C 
 463      A532F32A 
 463      9BEC
 464 0b89 ABDCC6EF 		.ascii	"\253\334\306\357\257\355\030\325\271\035\032f\031\351"
 464      AFED18D5 
 464      B91D1A66 
 464      19E9
 465 0b97 AB1BAB36 		.ascii	"\253\033\2536\314\352\3213\352\321\210\350Q\335\344"
 465      CCEAD133 
 465      EAD188E8 
 465      51DDE4
 466 0ba6 8D3661B5 		.ascii	"\2156a\265\273j\251K@@C\222KC\242K\243\324\245\373y"
 466      BB6AA94B 
 466      40404392 
 466      4B43A24B 
 466      A3D4A5FB 
 467 0bbb 152FBCF1 		.ascii	"\025/\274\3610si\325\255]k|?\332\301_\331F6\264\337"
 467      307369D5 
 467      AD5D6B7C 
 467      3FDAC15F 
 467      D94636B4 
 468 0bd0 6CEC4CE1 		.ascii	"l\354L\341yO\3721~\214)\220}\303'5\277\2039\362\234"
 468      794FFA31 
 468      7E8C2990 
 468      7DC32735 
 468      BF8339F2 
ARM GAS  C:\Users\gjl\AppData\Local\Temp\ccoTbLoi.s 			page 37


 469 0be5 FB087AD6 		.ascii	"\373\010z\326\254{]g\300\331\354;\346\364\235\333\355"
 469      AC7B5D67 
 469      C0D9EC3B 
 469      E6F49DDB 
 469      ED
 470 0bf6 1E4C8D6B 		.ascii	"\036L\215k\304\203\307T\303\370\033\032\306\005\015"
 470      C483C754 
 470      C3F81B1A 
 470      C6050D
 471 0c05 2FA88647 		.ascii	"/\250\206G\253K\275\360A\246\240p\362\376c\301\017W"
 471      AB4BBDF0 
 471      41A6A070 
 471      F2FE63C1 
 471      0F57
 472 0c17 8BA8E0E5 		.ascii	"\213\250\340\345\033\012^\012\012^Q\005k\272\326\234"
 472      1B0A5E0A 
 472      0A5E5105 
 472      6BBAD69C 
 473 0c27 E0702BD3 		.ascii	"\340p+\323\260\243j\373M,h\250\0205L\274\241aB\3200"
 473      B0A36AFB 
 473      4D2C68A8 
 473      10354CBC 
 473      A16142D0 
 474 0c3c 49358CDF 		.ascii	"I5\214\337:U\346\215\307\231\206\254\321\222{H\320\220"
 474      3A55E68D 
 474      C79986AC 
 474      D1927B48 
 474      D090
 475 0c4e F72B7E11 		.ascii	"\367+~\021\375Z?%h\220>\362O\011\032^S\015\331\215\307"
 475      FD5A3F25 
 475      68903EF2 
 475      4F091A5E 
 475      530DD98D 
 476 0c63 8B8D389F 		.ascii	"\213\2158\237\376\267\024\272Pt6\313 h8\232\366Q\"\357"
 476      FEB714BA 
 476      507436CB 
 476      2068389A 
 476      F65122EF 
 477 0c77 D2D277E7 		.ascii	"\322\322w\347iA\211\370\012\257\2415D\011\217?\242\373"
 477      694189F8 
 477      0AAFA135 
 477      44098F3F 
 477      A2FB
 478 0c89 6AEF0EAD 		.ascii	"j\357\016\255bc}\2468d\0231{\343\206\222\014\340\226"
 478      62637DA6 
 478      38641331 
 478      7BE38692 
 478      0CE096
 479 0c9c CCC3CA6D 		.ascii	"\314\303\312mxP\301N\022\330I\224\375\262\262\361\244"
 479      7850C14E 
 479      12D84994 
 479      FDB2B2F1 
 479      A4
 480 0cad 9F82FD58 		.ascii	"\237\202\375X\301N\026\330\311\224\335?|z@\371\0373"
 480      C14E16D8 
 480      C994DD3F 
 480      7C7A40F9 
ARM GAS  C:\Users\gjl\AppData\Local\Temp\ccoTbLoi.s 			page 38


 480      1F33
 481 0cbf 5715EC14 		.ascii	"W\025\354\024\201\235B\331u\255\253\372}\024\354n\005"
 481      819D42D9 
 481      75ADABFA 
 481      7D14EC6E 
 481      05
 482 0cd0 3B5560A7 		.ascii	";U`\247Rvj\372\364C?|\224\245\252\252\350\265K\213\217"
 482      52766AFA 
 482      F4433F7C 
 482      94A5AAAA 
 482      E8B54B8B 
 483 0ce5 3121AD60 		.ascii	"1!\255`\372\256\036\3273at\260\275\304\023_\020h\203"
 483      FAAE1ED7 
 483      336174B0 
 483      BDC4135F 
 483      106883
 484 0cf8 FBAA7C84 		.ascii	"\373\252|\204o\272D^_\226\236\214p;m\364\\w\253\253"
 484      6FBA445E 
 484      5F969E8C 
 484      703B6DF4 
 484      5C77ABAB 
 485 0d0c CD17D157 		.ascii	"\315\027\321W0\341[\216\213\335\372\322q\020\275\023"
 485      30E15B8E 
 485      8BDDFAD2 
 485      7110BD13 
 486 0d1c A13518A3 		.ascii	"\2415\030\243u\230\335\372rp\010\312\306\301(\023\220"
 486      7598DDFA 
 486      727008CA 
 486      C6C12813 
 486      90
 487 0d2d 01C8C2B2 		.ascii	"\001\310\302\262\233[O~\377\2275\262\317\277iB\307\331"
 487      9B5B4F7E 
 487      FF9735B2 
 487      CFBF6942 
 487      C7D9
 488 0d3f BE545548 		.ascii	"\276TUH\037\027W\251P\345\027\267J\211\272V\205*\277"
 488      1F1757A9 
 488      50E517B7 
 488      4A89BA56 
 488      852ABF
 489 0d52 E01FCA14 		.ascii	"\340\037\312\024\276\027\222Ss\265@\236\365\246\263"
 489      BE179253 
 489      73B5409E 
 489      F5A6B3
 490 0d61 857D7603 		.ascii	"\205}v\003\216\374\246C\276\370\247\217L\372\342n\366"
 490      8EFCA643 
 490      BEF8A78F 
 490      4CFAE26E 
 490      F6
 491 0d72 5FA593C5 		.ascii	"_\245\223\305k*u($\200\365\351n\014&}\362@\357z\354"
 491      6B2A7528 
 491      2480F5E9 
 491      6E0C267D 
 491      F240EF7A 
 492 0d87 DE21888A 		.ascii	"\336!\210\212\031\027gw\012s!m\177)\205\344\004\331"
 492      19176777 
 492      0A73216D 
ARM GAS  C:\Users\gjl\AppData\Local\Temp\ccoTbLoi.s 			page 39


 492      7F2985E4 
 492      04D9
 493 0d99 3796AFFC 		.ascii	"7\226\257\374\277\256<,\277\234\347\013S!\237N\205="
 493      BFAE3C2C 
 493      BF9CE70B 
 493      53219F4E 
 493      853D
 494 0dab A746AF2B 		.ascii	"\247F\257+?\036\264+&N\201\300.\240\354\307\227\323"
 494      3F1EB42B 
 494      264E81C0 
 494      2EA0ECC7 
 494      97D3
 495 0dbd 7B7C3FDC 		.ascii	"{|?\334\316\334K\207U\363\365;\364^\305v\265\015\370"
 495      CEDC4B87 
 495      55F3F53B 
 495      F45EC576 
 495      B50DF8
 496 0dd0 43E09CAE 		.ascii	"C\340\234\256N41\012\354c\277/M\007\236\222\266\221"
 496      4E34310A 
 496      EC63BF2F 
 496      4D079E92 
 496      B691
 497 0de2 D2864ED6 		.ascii	"\322\206N\326v`\306s\325\351gr\012)'-\377F\233\217\300"
 497      7660C673 
 497      D5E96772 
 497      0A29272D 
 497      FF469B8F 
 498 0df7 B9F606A7 		.ascii	"\271\366\006\247\210r\016\254\2770\346'p\206\336\340"
 498      88720EAC 
 498      BF30E627 
 498      7086DEE0 
 499 0e07 6CA29CE1 		.ascii	"l\242\234\341GY\333DN\221a&g3\345\034\035\374\376\271"
 499      4759DB44 
 499      4E916126 
 499      6733E51C 
 499      1DFCFEB9 
 500 0e1b 41E054BF 		.ascii	"A\340T\277\301\331\202?\324\350~\365\037_\315\373eh"
 500      C1D9823F 
 500      D4E87EF5 
 500      1F5FCDFB 
 500      6568
 501 0e2d A8C6DB64 		.ascii	"\250\306\333d\212\267\331\235KL\316Dd\371\207\260\330"
 501      8AB7D99D 
 501      4B4CCE44 
 501      64F987B0 
 501      D8
 502 0e3e B898A571 		.ascii	"\270\230\245q\346\350y\221\266(\253c^H\302\222\317\377"
 502      E6E87991 
 502      B628AB63 
 502      5E48C292 
 502      CFFF
 503 0e50 3ECCB222 		.ascii	">\314\262\"6\316\352p\204\305:b,\363,qV\2633&.\354\323"
 503      36CEEA70 
 503      84C53A62 
 503      2CF32C71 
 503      56B33326 
 504 0e67 85A1CA0A 		.ascii	"\205\241\312\012[tlL\2343l\251=>\314\034\027\035\366"
ARM GAS  C:\Users\gjl\AppData\Local\Temp\ccoTbLoi.s 			page 40


 504      5B746C4C 
 504      9C336CA9 
 504      3D3ECC1C 
 504      171DF6
 505 0e7a D942C280 		.ascii	"\331B\302\200\247\237\331c\354\326\237Y\315\341\266"
 505      A79FD963 
 505      ECD69F59 
 505      CDE1B6
 506 0e89 309BDD12 		.ascii	"0\233\335\022\025\037a\015\2136[\226\331\354\3260S\204"
 506      151F610D 
 506      8B365B96 
 506      D9ECD630 
 506      5384
 507 0e9b 35D21C1F 		.ascii	"5\322\034\037\34549W\304Z\035\013\227i\274\004W\226"
 507      E5343957 
 507      C45A1D0B 
 507      9769BC04 
 507      5796
 508 0ead FF7F79E2 		.ascii	"\377\177y\342X\341\01039\234\021`\026\314\033bm\011"
 508      58E10833 
 508      399C1160 
 508      16CC1B62 
 508      6D09
 509 0ebf D628D377 		.ascii	"\326(\323w\266\010\3472=\313K\350\347&\247N|\230\023"
 509      B608E732 
 509      3DCB4BE8 
 509      E726A74E 
 509      7C9813
 510 0ed2 19658B8D 		.ascii	"\031e\213\215\216\211\260\232\022L1\221\221\016\253"
 510      8E89B09A 
 510      124C3191 
 510      910EAB
 511 0ee1 F32D3102 		.ascii	"\363-1\002\261\302\340\004wM\313\254\266\245\313\234"
 511      B1C2E004 
 511      774DCBAC 
 511      B6A5CB9C 
 512 0ef1 7AFA4CB5 		.ascii	"z\372L\265\005~\027gsZM\261\361Q\016\241\306dw\370G"
 512      057E1767 
 512      735A4DB1 
 512      F1510EA1 
 512      C66477F8 
 513 0f06 989D6613 		.ascii	"\230\235f\023t\212\21759m\321V\250\012\264}b1\205\307"
 513      748A8F35 
 513      396DD156 
 513      A80AB47D 
 513      623185C7 
 514 0f1a 3B4C96A8 		.ascii	";L\226\250\030\313\267\246\320E\213\276\375\365J\235"
 514      18CBB7A6 
 514      D0458BBE 
 514      FDF54A9D 
 515 0f2a 23D66622 		.ascii	"#\326f\"f\215\016\250c-\313V\012\016.\376Dp\220<\370"
 515      668D0EA8 
 515      632DCB56 
 515      0A0E2EFE 
 515      4470903C 
 516 0f3f 1382D2C8 		.ascii	"\023\202\322\310\034G\304\014\033\376\2611\016\247\011"
 516      1C47C40C 
ARM GAS  C:\Users\gjl\AppData\Local\Temp\ccoTbLoi.s 			page 41


 516      1BFEB131 
 516      0EA709
 517 0f4e F268759A 		.ascii	"\362hu\232\2763\333\234\246hG \223\344=\243\035s!\327"
 517      BE33DB9C 
 517      A6684720 
 517      93E43DA3 
 517      1D7321D7 
 518 0f62 2618A858 		.ascii	"&\030\250XS\204\315a\016'\241\020\266\035\032\210\002"
 518      5384CD61 
 518      0E27A110 
 518      B61D1A88 
 518      02
 519 0f73 DA62B5CB 		.ascii	"\332b\265\313\033\374\025\354(\353rk\324\0349\215\326"
 519      1BFC15EC 
 519      28EB726B 
 519      D41C398D 
 519      D6
 520 0f84 CC8D5F92 		.ascii	"\314\215_\222\260\204\220b\243\314+L6{d\014\014@\\\274"
 520      B0849062 
 520      A3CC2B4C 
 520      367B640C 
 520      0C405CBC 
 521 0f98 C56964D9 		.ascii	"\305id\331g\271{w"
 521      67B97B77 
 522 0fa0 E1C230F8 		.ascii	"\341\3020\370\027\277d\351'a\026G\234%\214\364\202!"
 522      17BF64E9 
 522      27611647 
 522      9C258CF4 
 522      8221
 523 0fb2 0A78B3B7 		.ascii	"\012x\263\267\363]V\007j~\376\331\347?7A\262B\027\177"
 523      F35D5607 
 523      6A7EFED9 
 523      E73F3741 
 523      B242177F 
 524 0fc6 92F0F9A7 		.ascii	"\222\360\371\247\276\021\326\360\230x\273\305\012-f"
 524      BE11D6F0 
 524      9878BBC5 
 524      0A2D66
 525 0fd5 A7F55DB7 		.ascii	"\247\365]\267\030e\006\377cmvV\377\023w\2758\230\356"
 525      186506FF 
 525      636D7656 
 525      FF1377BD 
 525      3898EE
 526 0fe8 26C3D258 		.ascii	"&\303\322X[\014I\025\324\352\343\235\221KX5(^n\003\276"
 526      5B0C4915 
 526      D4EAE39D 
 526      914B5835 
 526      285E6E03 
 527 0ffd 392282   		.ascii	"9\"\202"
 528 1000 4C470319 		.ascii	"LG\003\0314h\210sZ#\350\263P\037hs\230\"c\354Nps\271"
 528      34688873 
 528      5A23E8B3 
 528      501F6873 
 528      982263EC 
 529 1018 350E324B 		.ascii	"5\0162K\306P'\316\024\235\325n\211\201\211\267TK8s\250"
 529      C65027CE 
 529      149DD56E 
ARM GAS  C:\Users\gjl\AppData\Local\Temp\ccoTbLoi.s 			page 42


 529      898189B7 
 529      544B3873 
 530 102d 25B33D02 		.ascii	"%\263=\002\234 \221Y\302\0154\252h\307Rx\366\012_\001"
 530      9C209159 
 530      C20D34AA 
 530      68C75278 
 530      F60A5F01 
 531 1041 B3C712EE 		.ascii	"\263\307\022\356i1G@\241\027\343\207\026\2735\001\306"
 531      69314740 
 531      A117E387 
 531      16BB3501 
 531      C6
 532 1052 22DC48D9 		.ascii	"\"\334H\331\226e\3468\"\310\363\303\364\260\024\007"
 532      9665E638 
 532      22C8F3C3 
 532      F4B01407 
 533 1062 B8436531 		.ascii	"\270Ce1\021\365\236\264\3359O-\341\356\244.\264h\002"
 533      11F59EB4 
 533      DD394F2D 
 533      E1EEA42E 
 533      B46802
 534 1075 990570E0 		.ascii	"\231\005p\340_\354\021\277\2133\333\035\221\3268\235"
 534      5FEC11BF 
 534      8B33DB1D 
 534      91D6389D 
 535 1085 3DC6668F 		.ascii	"=\306f\217\202\265<\307\335\372[\253=\342\237ab\277"
 535      82B53CC7 
 535      DDFA5BAB 
 535      3DE29F61 
 535      62BF
 536 1097 A5A8F965 		.ascii	"\245\250\371et\304;R\005\311\225\250B\311\373E\334\322"
 536      74C43B52 
 536      05C995A8 
 536      42C9FB45 
 536      DCD2
 537 10a9 B71515BF 		.ascii	"\267\025\025\277\265\3761\0362e\375\211\340\3172kT\254"
 537      B5FE311E 
 537      3265FD89 
 537      E0CF326B 
 537      54AC
 538 10bb 354E3603 		.ascii	"5N6\003l\316\017\324\233\330\244\217\266F\307\304\255"
 538      6CCE0FD4 
 538      9BD8A48F 
 538      B646C7C4 
 538      AD
 539 10cc 784F3945 		.ascii	"xO9E\330\3740\221\345\034\012\274?\316\336\274\2104"
 539      D8FC3091 
 539      E51C0ABC 
 539      3FCEDEBC 
 539      8834
 540 10de 7FA8DA1C 		.ascii	"\177\250\332\034\033\363\035\214\252y\2715\364\377\300"
 540      1BF31D8C 
 540      AA79B935 
 540      F4FFC0
 541 10ed A17AFE4E 		.ascii	"\241z\376N\225CB \255\357\013\003%o\223\017\244G\002"
 541      95434220 
 541      ADEF0B03 
ARM GAS  C:\Users\gjl\AppData\Local\Temp\ccoTbLoi.s 			page 43


 541      256F930F 
 541      A44702
 542 1100 A873608B 		.ascii	"\250s`\213\335\251\243\033K\254S\310\035\225\330\000"
 542      DDA9A31B 
 542      4BAC53C8 
 542      1D95D800 
 543 1110 7BAC201C 		.ascii	"{\254 \034\203T\355\374_m%@u"
 543      8354EDFC 
 543      5F6D2540 
 543      75
 544              		.text
 545              		.section	.gnu.lto_.symtab.1a3c2e7,"",%progbits
 546 0000 75387838 		.ascii	"u8x8_d_st7567_pi_132x64\000"
 546      5F645F73 
 546      74373536 
 546      375F7069 
 546      5F313332 
 547 0018 00       		.ascii	"\000"
 548 0019 00       		.ascii	"\000"
 549 001a 00       		.ascii	"\000"
 550 001b 00000000 		.ascii	"\000\000\000\000\000\000\000\000"
 550      00000000 
 551 0023 4C010000 		.ascii	"L\001\000\000"
 552 0027 75387838 		.ascii	"u8x8_cad_EndTransfer\000"
 552      5F636164 
 552      5F456E64 
 552      5472616E 
 552      73666572 
 553 003c 00       		.ascii	"\000"
 554 003d 02       		.ascii	"\002"
 555 003e 00       		.ascii	"\000"
 556 003f 00000000 		.ascii	"\000\000\000\000\000\000\000\000"
 556      00000000 
 557 0047 52010000 		.ascii	"R\001\000\000"
 558 004b 75387838 		.ascii	"u8x8_cad_SendData\000"
 558      5F636164 
 558      5F53656E 
 558      64446174 
 558      6100
 559 005d 00       		.ascii	"\000"
 560 005e 02       		.ascii	"\002"
 561 005f 00       		.ascii	"\000"
 562 0060 00000000 		.ascii	"\000\000\000\000\000\000\000\000"
 562      00000000 
 563 0068 5A010000 		.ascii	"Z\001\000\000"
 564 006c 75387838 		.ascii	"u8x8_cad_SendCmd\000"
 564      5F636164 
 564      5F53656E 
 564      64436D64 
 564      00
 565 007d 00       		.ascii	"\000"
 566 007e 02       		.ascii	"\002"
 567 007f 00       		.ascii	"\000"
 568 0080 00000000 		.ascii	"\000\000\000\000\000\000\000\000"
 568      00000000 
 569 0088 60010000 		.ascii	"`\001\000\000"
 570 008c 75387838 		.ascii	"u8x8_cad_StartTransfer\000"
ARM GAS  C:\Users\gjl\AppData\Local\Temp\ccoTbLoi.s 			page 44


 570      5F636164 
 570      5F537461 
 570      72745472 
 570      616E7366 
 571 00a3 00       		.ascii	"\000"
 572 00a4 02       		.ascii	"\002"
 573 00a5 00       		.ascii	"\000"
 574 00a6 00000000 		.ascii	"\000\000\000\000\000\000\000\000"
 574      00000000 
 575 00ae 63010000 		.ascii	"c\001\000\000"
 576 00b2 75387838 		.ascii	"u8x8_cad_SendArg\000"
 576      5F636164 
 576      5F53656E 
 576      64417267 
 576      00
 577 00c3 00       		.ascii	"\000"
 578 00c4 02       		.ascii	"\002"
 579 00c5 00       		.ascii	"\000"
 580 00c6 00000000 		.ascii	"\000\000\000\000\000\000\000\000"
 580      00000000 
 581 00ce 66010000 		.ascii	"f\001\000\000"
 582 00d2 75387838 		.ascii	"u8x8_cad_SendSequence\000"
 582      5F636164 
 582      5F53656E 
 582      64536571 
 582      75656E63 
 583 00e8 00       		.ascii	"\000"
 584 00e9 02       		.ascii	"\002"
 585 00ea 00       		.ascii	"\000"
 586 00eb 00000000 		.ascii	"\000\000\000\000\000\000\000\000"
 586      00000000 
 587 00f3 6B010000 		.ascii	"k\001\000\000"
 588 00f7 75387838 		.ascii	"u8x8_d_helper_display_init\000"
 588      5F645F68 
 588      656C7065 
 588      725F6469 
 588      73706C61 
 589 0112 00       		.ascii	"\000"
 590 0113 02       		.ascii	"\002"
 591 0114 00       		.ascii	"\000"
 592 0115 00000000 		.ascii	"\000\000\000\000\000\000\000\000"
 592      00000000 
 593 011d 6F010000 		.ascii	"o\001\000\000"
 594 0121 75387838 		.ascii	"u8x8_d_helper_display_setup_memory\000"
 594      5F645F68 
 594      656C7065 
 594      725F6469 
 594      73706C61 
 595 0144 00       		.ascii	"\000"
 596 0145 02       		.ascii	"\002"
 597 0146 00       		.ascii	"\000"
 598 0147 00000000 		.ascii	"\000\000\000\000\000\000\000\000"
 598      00000000 
 599 014f 74010000 		.ascii	"t\001\000\000"
 600              		.text
 601              		.section	.gnu.lto_.opts,"",%progbits
 602 0000 272D666D 		.ascii	"'-fmath-errno' '-fsigned-zeros' '-ftrapping-math' '"
ARM GAS  C:\Users\gjl\AppData\Local\Temp\ccoTbLoi.s 			page 45


 602      6174682D 
 602      6572726E 
 602      6F272027 
 602      2D667369 
 603 0033 2D666E6F 		.ascii	"-fno-trapv' '-fno-openmp' '-fno-openacc' '-mcpu=cor"
 603      2D747261 
 603      70762720 
 603      272D666E 
 603      6F2D6F70 
 604 0066 7465782D 		.ascii	"tex-m0' '-mthumb' '-g' '-Os' '-ffunction-sections' "
 604      6D302720 
 604      272D6D74 
 604      68756D62 
 604      2720272D 
 605 0099 272D6666 		.ascii	"'-ffat-lto-objects' '-flto'\000"
 605      61742D6C 
 605      746F2D6F 
 605      626A6563 
 605      74732720 
 606              		.text
 607              		.cfi_sections	.debug_frame
 608              		.section	.text.u8x8_d_st7567_pi_132x64,"ax",%progbits
 609              		.align	1
 610              		.global	u8x8_d_st7567_pi_132x64
 611              		.code	16
 612              		.thumb_func
 613              		.type	u8x8_d_st7567_pi_132x64, %function
 614              	u8x8_d_st7567_pi_132x64:
 615              	.LFB0:
 616              		.file 1 "..\\..\\u8g2\\csrc\\u8x8_d_st7567.c"
   1:..\..\u8g2\csrc/u8x8_d_st7567.c **** /*
   2:..\..\u8g2\csrc/u8x8_d_st7567.c **** 
   3:..\..\u8g2\csrc/u8x8_d_st7567.c ****   u8x8_d_st7567.c
   4:..\..\u8g2\csrc/u8x8_d_st7567.c ****   
   5:..\..\u8g2\csrc/u8x8_d_st7567.c ****   Universal 8bit Graphics Library (https://github.com/olikraus/u8g2/)
   6:..\..\u8g2\csrc/u8x8_d_st7567.c **** 
   7:..\..\u8g2\csrc/u8x8_d_st7567.c ****   Copyright (c) 2016, olikraus@gmail.com
   8:..\..\u8g2\csrc/u8x8_d_st7567.c ****   All rights reserved.
   9:..\..\u8g2\csrc/u8x8_d_st7567.c **** 
  10:..\..\u8g2\csrc/u8x8_d_st7567.c ****   Redistribution and use in source and binary forms, with or without modification, 
  11:..\..\u8g2\csrc/u8x8_d_st7567.c ****   are permitted provided that the following conditions are met:
  12:..\..\u8g2\csrc/u8x8_d_st7567.c **** 
  13:..\..\u8g2\csrc/u8x8_d_st7567.c ****   * Redistributions of source code must retain the above copyright notice, this list 
  14:..\..\u8g2\csrc/u8x8_d_st7567.c ****     of conditions and the following disclaimer.
  15:..\..\u8g2\csrc/u8x8_d_st7567.c ****     
  16:..\..\u8g2\csrc/u8x8_d_st7567.c ****   * Redistributions in binary form must reproduce the above copyright notice, this 
  17:..\..\u8g2\csrc/u8x8_d_st7567.c ****     list of conditions and the following disclaimer in the documentation and/or other 
  18:..\..\u8g2\csrc/u8x8_d_st7567.c ****     materials provided with the distribution.
  19:..\..\u8g2\csrc/u8x8_d_st7567.c **** 
  20:..\..\u8g2\csrc/u8x8_d_st7567.c ****   THIS SOFTWARE IS PROVIDED BY THE COPYRIGHT HOLDERS AND 
  21:..\..\u8g2\csrc/u8x8_d_st7567.c ****   CONTRIBUTORS "AS IS" AND ANY EXPRESS OR IMPLIED WARRANTIES, 
  22:..\..\u8g2\csrc/u8x8_d_st7567.c ****   INCLUDING, BUT NOT LIMITED TO, THE IMPLIED WARRANTIES OF 
  23:..\..\u8g2\csrc/u8x8_d_st7567.c ****   MERCHANTABILITY AND FITNESS FOR A PARTICULAR PURPOSE ARE 
  24:..\..\u8g2\csrc/u8x8_d_st7567.c ****   DISCLAIMED. IN NO EVENT SHALL THE COPYRIGHT HOLDER OR 
  25:..\..\u8g2\csrc/u8x8_d_st7567.c ****   CONTRIBUTORS BE LIABLE FOR ANY DIRECT, INDIRECT, INCIDENTAL, 
  26:..\..\u8g2\csrc/u8x8_d_st7567.c ****   SPECIAL, EXEMPLARY, OR CONSEQUENTIAL DAMAGES (INCLUDING, BUT 
  27:..\..\u8g2\csrc/u8x8_d_st7567.c ****   NOT LIMITED TO, PROCUREMENT OF SUBSTITUTE GOODS OR SERVICES; 
ARM GAS  C:\Users\gjl\AppData\Local\Temp\ccoTbLoi.s 			page 46


  28:..\..\u8g2\csrc/u8x8_d_st7567.c ****   LOSS OF USE, DATA, OR PROFITS; OR BUSINESS INTERRUPTION) HOWEVER 
  29:..\..\u8g2\csrc/u8x8_d_st7567.c ****   CAUSED AND ON ANY THEORY OF LIABILITY, WHETHER IN CONTRACT, 
  30:..\..\u8g2\csrc/u8x8_d_st7567.c ****   STRICT LIABILITY, OR TORT (INCLUDING NEGLIGENCE OR OTHERWISE) 
  31:..\..\u8g2\csrc/u8x8_d_st7567.c ****   ARISING IN ANY WAY OUT OF THE USE OF THIS SOFTWARE, EVEN IF 
  32:..\..\u8g2\csrc/u8x8_d_st7567.c ****   ADVISED OF THE POSSIBILITY OF SUCH DAMAGE.  
  33:..\..\u8g2\csrc/u8x8_d_st7567.c **** 
  34:..\..\u8g2\csrc/u8x8_d_st7567.c ****   
  35:..\..\u8g2\csrc/u8x8_d_st7567.c **** */
  36:..\..\u8g2\csrc/u8x8_d_st7567.c **** #include "u8x8.h"
  37:..\..\u8g2\csrc/u8x8_d_st7567.c **** 
  38:..\..\u8g2\csrc/u8x8_d_st7567.c **** 
  39:..\..\u8g2\csrc/u8x8_d_st7567.c **** 
  40:..\..\u8g2\csrc/u8x8_d_st7567.c **** 
  41:..\..\u8g2\csrc/u8x8_d_st7567.c **** static const uint8_t u8x8_d_st7567_132x64_powersave0_seq[] = {
  42:..\..\u8g2\csrc/u8x8_d_st7567.c ****   U8X8_START_TRANSFER(),             	/* enable chip, delay is part of the transfer start */
  43:..\..\u8g2\csrc/u8x8_d_st7567.c ****   U8X8_C(0x0a4),		                /* all pixel off, issue 142 */
  44:..\..\u8g2\csrc/u8x8_d_st7567.c ****   U8X8_C(0x0af),		                /* display on */
  45:..\..\u8g2\csrc/u8x8_d_st7567.c ****   U8X8_END_TRANSFER(),             	/* disable chip */
  46:..\..\u8g2\csrc/u8x8_d_st7567.c ****   U8X8_END()             			/* end of sequence */
  47:..\..\u8g2\csrc/u8x8_d_st7567.c **** };
  48:..\..\u8g2\csrc/u8x8_d_st7567.c **** 
  49:..\..\u8g2\csrc/u8x8_d_st7567.c **** static const uint8_t u8x8_d_st7567_132x64_powersave1_seq[] = {
  50:..\..\u8g2\csrc/u8x8_d_st7567.c ****   U8X8_START_TRANSFER(),             	/* enable chip, delay is part of the transfer start */
  51:..\..\u8g2\csrc/u8x8_d_st7567.c ****   U8X8_C(0x0ae),		                /* display off */
  52:..\..\u8g2\csrc/u8x8_d_st7567.c ****   U8X8_C(0x0a5),		                /* enter powersafe: all pixel on, issue 142 */
  53:..\..\u8g2\csrc/u8x8_d_st7567.c ****   U8X8_END_TRANSFER(),             	/* disable chip */
  54:..\..\u8g2\csrc/u8x8_d_st7567.c ****   U8X8_END()             			/* end of sequence */
  55:..\..\u8g2\csrc/u8x8_d_st7567.c **** };
  56:..\..\u8g2\csrc/u8x8_d_st7567.c **** 
  57:..\..\u8g2\csrc/u8x8_d_st7567.c **** static const uint8_t u8x8_d_st7567_132x64_flip0_seq[] = {
  58:..\..\u8g2\csrc/u8x8_d_st7567.c ****   U8X8_START_TRANSFER(),             	/* enable chip, delay is part of the transfer start */
  59:..\..\u8g2\csrc/u8x8_d_st7567.c ****   U8X8_C(0x0a1),				/* segment remap a0/a1*/
  60:..\..\u8g2\csrc/u8x8_d_st7567.c ****   U8X8_C(0x0c0),				/* c0: scan dir normal, c8: reverse */
  61:..\..\u8g2\csrc/u8x8_d_st7567.c ****   U8X8_END_TRANSFER(),             	/* disable chip */
  62:..\..\u8g2\csrc/u8x8_d_st7567.c ****   U8X8_END()             			/* end of sequence */
  63:..\..\u8g2\csrc/u8x8_d_st7567.c **** };
  64:..\..\u8g2\csrc/u8x8_d_st7567.c **** 
  65:..\..\u8g2\csrc/u8x8_d_st7567.c **** static const uint8_t u8x8_d_st7567_132x64_flip1_seq[] = {
  66:..\..\u8g2\csrc/u8x8_d_st7567.c ****   U8X8_START_TRANSFER(),             	/* enable chip, delay is part of the transfer start */
  67:..\..\u8g2\csrc/u8x8_d_st7567.c ****   U8X8_C(0x0a0),				/* segment remap a0/a1*/
  68:..\..\u8g2\csrc/u8x8_d_st7567.c ****   U8X8_C(0x0c8),				/* c0: scan dir normal, c8: reverse */
  69:..\..\u8g2\csrc/u8x8_d_st7567.c ****   U8X8_END_TRANSFER(),             	/* disable chip */
  70:..\..\u8g2\csrc/u8x8_d_st7567.c ****   U8X8_END()             			/* end of sequence */
  71:..\..\u8g2\csrc/u8x8_d_st7567.c **** };
  72:..\..\u8g2\csrc/u8x8_d_st7567.c **** 
  73:..\..\u8g2\csrc/u8x8_d_st7567.c **** 
  74:..\..\u8g2\csrc/u8x8_d_st7567.c **** static const u8x8_display_info_t u8x8_st7567_132x64_display_info =
  75:..\..\u8g2\csrc/u8x8_d_st7567.c **** {
  76:..\..\u8g2\csrc/u8x8_d_st7567.c ****   /* chip_enable_level = */ 0,
  77:..\..\u8g2\csrc/u8x8_d_st7567.c ****   /* chip_disable_level = */ 1,
  78:..\..\u8g2\csrc/u8x8_d_st7567.c ****   
  79:..\..\u8g2\csrc/u8x8_d_st7567.c ****   /* post_chip_enable_wait_ns = */ 150,	/* */
  80:..\..\u8g2\csrc/u8x8_d_st7567.c ****   /* pre_chip_disable_wait_ns = */ 50,	/* */
  81:..\..\u8g2\csrc/u8x8_d_st7567.c ****   /* reset_pulse_width_ms = */ 1, 
  82:..\..\u8g2\csrc/u8x8_d_st7567.c ****   /* post_reset_wait_ms = */ 1, 
  83:..\..\u8g2\csrc/u8x8_d_st7567.c ****   /* sda_setup_time_ns = */ 50,		/* */
  84:..\..\u8g2\csrc/u8x8_d_st7567.c ****   /* sck_pulse_width_ns = */ 120,	/* */
ARM GAS  C:\Users\gjl\AppData\Local\Temp\ccoTbLoi.s 			page 47


  85:..\..\u8g2\csrc/u8x8_d_st7567.c ****   /* sck_clock_hz = */ 4000000UL,	/* */
  86:..\..\u8g2\csrc/u8x8_d_st7567.c ****   /* spi_mode = */ 0,		/* active high, rising edge */
  87:..\..\u8g2\csrc/u8x8_d_st7567.c ****   /* i2c_bus_clock_100kHz = */ 4,
  88:..\..\u8g2\csrc/u8x8_d_st7567.c ****   /* data_setup_time_ns = */ 40,	/* */
  89:..\..\u8g2\csrc/u8x8_d_st7567.c ****   /* write_pulse_width_ns = */ 80,	/* */
  90:..\..\u8g2\csrc/u8x8_d_st7567.c ****   /* tile_width = */ 17,		/* width of 17*8=136 pixel */
  91:..\..\u8g2\csrc/u8x8_d_st7567.c ****   /* tile_hight = */ 8,
  92:..\..\u8g2\csrc/u8x8_d_st7567.c ****   /* default_x_offset = */ 0,
  93:..\..\u8g2\csrc/u8x8_d_st7567.c ****   /* flipmode_x_offset = */ 0,
  94:..\..\u8g2\csrc/u8x8_d_st7567.c ****   /* pixel_width = */ 132,
  95:..\..\u8g2\csrc/u8x8_d_st7567.c ****   /* pixel_height = */ 64
  96:..\..\u8g2\csrc/u8x8_d_st7567.c **** };
  97:..\..\u8g2\csrc/u8x8_d_st7567.c **** 
  98:..\..\u8g2\csrc/u8x8_d_st7567.c **** static const uint8_t u8x8_d_st7567_132x64_init_seq[] = {
  99:..\..\u8g2\csrc/u8x8_d_st7567.c ****     
 100:..\..\u8g2\csrc/u8x8_d_st7567.c ****   U8X8_START_TRANSFER(),             	/* enable chip, delay is part of the transfer start */
 101:..\..\u8g2\csrc/u8x8_d_st7567.c ****   
 102:..\..\u8g2\csrc/u8x8_d_st7567.c ****   U8X8_C(0x0e2),            			/* soft reset */
 103:..\..\u8g2\csrc/u8x8_d_st7567.c ****   U8X8_C(0x0ae),		                /* display off */
 104:..\..\u8g2\csrc/u8x8_d_st7567.c ****   U8X8_C(0x040),		                /* set display start line to 0 */
 105:..\..\u8g2\csrc/u8x8_d_st7567.c ****   
 106:..\..\u8g2\csrc/u8x8_d_st7567.c ****   U8X8_C(0x0a1),		                /* ADC set to reverse */
 107:..\..\u8g2\csrc/u8x8_d_st7567.c ****   U8X8_C(0x0c0),		                /* common output mode */
 108:..\..\u8g2\csrc/u8x8_d_st7567.c ****   // Flipmode
 109:..\..\u8g2\csrc/u8x8_d_st7567.c ****   //U8X8_C(0x0a0),		                /* ADC set to reverse */
 110:..\..\u8g2\csrc/u8x8_d_st7567.c ****   //U8X8_C(0x0c8),		                /* common output mode */
 111:..\..\u8g2\csrc/u8x8_d_st7567.c ****   
 112:..\..\u8g2\csrc/u8x8_d_st7567.c ****   U8X8_C(0x0a6),		                /* display normal, bit val 0: LCD pixel off. */
 113:..\..\u8g2\csrc/u8x8_d_st7567.c ****   U8X8_C(0x0a3),		                /* LCD bias 1/7 */
 114:..\..\u8g2\csrc/u8x8_d_st7567.c ****   /* power on sequence from paxinstruments */
 115:..\..\u8g2\csrc/u8x8_d_st7567.c ****   U8X8_C(0x028|4),		                /* all power  control circuits on */
 116:..\..\u8g2\csrc/u8x8_d_st7567.c ****   U8X8_DLY(50),
 117:..\..\u8g2\csrc/u8x8_d_st7567.c ****   U8X8_C(0x028|6),		                /* all power  control circuits on */
 118:..\..\u8g2\csrc/u8x8_d_st7567.c ****   U8X8_DLY(50),
 119:..\..\u8g2\csrc/u8x8_d_st7567.c ****   U8X8_C(0x028|7),		                /* all power  control circuits on */
 120:..\..\u8g2\csrc/u8x8_d_st7567.c ****   U8X8_DLY(50),
 121:..\..\u8g2\csrc/u8x8_d_st7567.c ****   
 122:..\..\u8g2\csrc/u8x8_d_st7567.c ****   U8X8_C(0x026),		                /* v0 voltage resistor ratio */
 123:..\..\u8g2\csrc/u8x8_d_st7567.c ****   U8X8_CA(0x081, 0x027),		/* set contrast, contrast value*/
 124:..\..\u8g2\csrc/u8x8_d_st7567.c ****   
 125:..\..\u8g2\csrc/u8x8_d_st7567.c ****   U8X8_C(0x0ae),		                /* display off */
 126:..\..\u8g2\csrc/u8x8_d_st7567.c ****   U8X8_C(0x0a5),		                /* enter powersafe: all pixel on, issue 142 */
 127:..\..\u8g2\csrc/u8x8_d_st7567.c ****    
 128:..\..\u8g2\csrc/u8x8_d_st7567.c ****   U8X8_END_TRANSFER(),             	/* disable chip */
 129:..\..\u8g2\csrc/u8x8_d_st7567.c ****   U8X8_END()             			/* end of sequence */
 130:..\..\u8g2\csrc/u8x8_d_st7567.c **** };
 131:..\..\u8g2\csrc/u8x8_d_st7567.c **** 
 132:..\..\u8g2\csrc/u8x8_d_st7567.c **** /* pax instruments 132x64 display */
 133:..\..\u8g2\csrc/u8x8_d_st7567.c **** uint8_t u8x8_d_st7567_pi_132x64(u8x8_t *u8x8, uint8_t msg, uint8_t arg_int, void *arg_ptr)
 134:..\..\u8g2\csrc/u8x8_d_st7567.c **** {
 617              		.loc 1 134 0
 618              		.cfi_startproc
 619              		@ args = 0, pretend = 0, frame = 8
 620              		@ frame_needed = 0, uses_anonymous_args = 0
 621              	.LVL0:
 622 0000 F7B5     		push	{r0, r1, r2, r4, r5, r6, r7, lr}
 623              		.cfi_def_cfa_offset 32
ARM GAS  C:\Users\gjl\AppData\Local\Temp\ccoTbLoi.s 			page 48


 624              		.cfi_offset 0, -32
 625              		.cfi_offset 1, -28
 626              		.cfi_offset 2, -24
 627              		.cfi_offset 4, -20
 628              		.cfi_offset 5, -16
 629              		.cfi_offset 6, -12
 630              		.cfi_offset 7, -8
 631              		.cfi_offset 14, -4
 135:..\..\u8g2\csrc/u8x8_d_st7567.c ****   uint8_t x, c;
 136:..\..\u8g2\csrc/u8x8_d_st7567.c ****   uint8_t *ptr;
 137:..\..\u8g2\csrc/u8x8_d_st7567.c ****   switch(msg)
 632              		.loc 1 137 0
 633 0002 0939     		subs	r1, r1, #9
 634              	.LVL1:
 134:..\..\u8g2\csrc/u8x8_d_st7567.c ****   uint8_t x, c;
 635              		.loc 1 134 0
 636 0004 0400     		movs	r4, r0
 637 0006 1500     		movs	r5, r2
 638 0008 1F00     		movs	r7, r3
 639              		.loc 1 137 0
 640 000a 0800     		movs	r0, r1
 641              	.LVL2:
 642 000c 0629     		cmp	r1, #6
 643 000e 6CD8     		bhi	.L14
 644 0010 FFF7FEFF 		bl	__gnu_thumb1_case_uqi
 645              	.L4:
 646 0014 04       		.byte	(.L3-.L4)/2
 647 0015 09       		.byte	(.L5-.L4)/2
 648 0016 0F       		.byte	(.L6-.L4)/2
 649 0017 6B       		.byte	(.L14-.L4)/2
 650 0018 19       		.byte	(.L7-.L4)/2
 651 0019 2B       		.byte	(.L8-.L4)/2
 652 001a 3B       		.byte	(.L9-.L4)/2
 653 001b 00       		.p2align 1
 654              	.L3:
 138:..\..\u8g2\csrc/u8x8_d_st7567.c ****   {
 139:..\..\u8g2\csrc/u8x8_d_st7567.c ****     case U8X8_MSG_DISPLAY_SETUP_MEMORY:
 140:..\..\u8g2\csrc/u8x8_d_st7567.c ****       u8x8_d_helper_display_setup_memory(u8x8, &u8x8_st7567_132x64_display_info);
 655              		.loc 1 140 0
 656 001c 3449     		ldr	r1, .L21
 657 001e 2000     		movs	r0, r4
 658 0020 FFF7FEFF 		bl	u8x8_d_helper_display_setup_memory
 659              	.LVL3:
 660 0024 2FE0     		b	.L16
 661              	.LVL4:
 662              	.L5:
 141:..\..\u8g2\csrc/u8x8_d_st7567.c ****       break;
 142:..\..\u8g2\csrc/u8x8_d_st7567.c ****     case U8X8_MSG_DISPLAY_INIT:
 143:..\..\u8g2\csrc/u8x8_d_st7567.c ****       u8x8_d_helper_display_init(u8x8);
 663              		.loc 1 143 0
 664 0026 2000     		movs	r0, r4
 665 0028 FFF7FEFF 		bl	u8x8_d_helper_display_init
 666              	.LVL5:
 144:..\..\u8g2\csrc/u8x8_d_st7567.c ****       u8x8_cad_SendSequence(u8x8, u8x8_d_st7567_132x64_init_seq);
 667              		.loc 1 144 0
 668 002c 3049     		ldr	r1, .L21
 669 002e 1831     		adds	r1, r1, #24
ARM GAS  C:\Users\gjl\AppData\Local\Temp\ccoTbLoi.s 			page 49


 670 0030 05E0     		b	.L19
 671              	.LVL6:
 672              	.L6:
 673 0032 2F49     		ldr	r1, .L21
 145:..\..\u8g2\csrc/u8x8_d_st7567.c ****       break;
 146:..\..\u8g2\csrc/u8x8_d_st7567.c ****     case U8X8_MSG_DISPLAY_SET_POWER_SAVE:
 147:..\..\u8g2\csrc/u8x8_d_st7567.c ****       if ( arg_int == 0 )
 674              		.loc 1 147 0
 675 0034 002A     		cmp	r2, #0
 676 0036 01D1     		bne	.L10
 148:..\..\u8g2\csrc/u8x8_d_st7567.c **** 	u8x8_cad_SendSequence(u8x8, u8x8_d_st7567_132x64_powersave0_seq);
 677              		.loc 1 148 0
 678 0038 3F31     		adds	r1, r1, #63
 679 003a 00E0     		b	.L19
 680              	.L10:
 149:..\..\u8g2\csrc/u8x8_d_st7567.c ****       else
 150:..\..\u8g2\csrc/u8x8_d_st7567.c **** 	u8x8_cad_SendSequence(u8x8, u8x8_d_st7567_132x64_powersave1_seq);
 681              		.loc 1 150 0
 682 003c 4631     		adds	r1, r1, #70
 683              	.LVL7:
 684              	.L19:
 685 003e 2000     		movs	r0, r4
 686 0040 FFF7FEFF 		bl	u8x8_cad_SendSequence
 687              	.LVL8:
 688 0044 1FE0     		b	.L16
 689              	.LVL9:
 690              	.L7:
 691 0046 2A49     		ldr	r1, .L21
 151:..\..\u8g2\csrc/u8x8_d_st7567.c ****       break;
 152:..\..\u8g2\csrc/u8x8_d_st7567.c ****     case U8X8_MSG_DISPLAY_SET_FLIP_MODE:
 153:..\..\u8g2\csrc/u8x8_d_st7567.c ****       if ( arg_int == 0 )
 692              		.loc 1 153 0
 693 0048 002A     		cmp	r2, #0
 694 004a 06D1     		bne	.L11
 154:..\..\u8g2\csrc/u8x8_d_st7567.c ****       {
 155:..\..\u8g2\csrc/u8x8_d_st7567.c **** 	u8x8_cad_SendSequence(u8x8, u8x8_d_st7567_132x64_flip0_seq);
 695              		.loc 1 155 0
 696 004c 4D31     		adds	r1, r1, #77
 697 004e 2000     		movs	r0, r4
 698 0050 FFF7FEFF 		bl	u8x8_cad_SendSequence
 699              	.LVL10:
 156:..\..\u8g2\csrc/u8x8_d_st7567.c **** 	u8x8->x_offset = u8x8->display_info->default_x_offset;
 700              		.loc 1 156 0
 701 0054 2368     		ldr	r3, [r4]
 702 0056 9B7C     		ldrb	r3, [r3, #18]
 703 0058 05E0     		b	.L18
 704              	.LVL11:
 705              	.L11:
 157:..\..\u8g2\csrc/u8x8_d_st7567.c ****       }
 158:..\..\u8g2\csrc/u8x8_d_st7567.c ****       else
 159:..\..\u8g2\csrc/u8x8_d_st7567.c ****       {
 160:..\..\u8g2\csrc/u8x8_d_st7567.c **** 	u8x8_cad_SendSequence(u8x8, u8x8_d_st7567_132x64_flip1_seq);
 706              		.loc 1 160 0
 707 005a 5431     		adds	r1, r1, #84
 708 005c 2000     		movs	r0, r4
 709 005e FFF7FEFF 		bl	u8x8_cad_SendSequence
 710              	.LVL12:
ARM GAS  C:\Users\gjl\AppData\Local\Temp\ccoTbLoi.s 			page 50


 161:..\..\u8g2\csrc/u8x8_d_st7567.c **** 	u8x8->x_offset = u8x8->display_info->flipmode_x_offset;
 711              		.loc 1 161 0
 712 0062 2368     		ldr	r3, [r4]
 713 0064 DB7C     		ldrb	r3, [r3, #19]
 714              	.L18:
 715 0066 A377     		strb	r3, [r4, #30]
 716 0068 0DE0     		b	.L16
 717              	.LVL13:
 718              	.L8:
 162:..\..\u8g2\csrc/u8x8_d_st7567.c ****       }	
 163:..\..\u8g2\csrc/u8x8_d_st7567.c ****       break;
 164:..\..\u8g2\csrc/u8x8_d_st7567.c **** #ifdef U8X8_WITH_SET_CONTRAST
 165:..\..\u8g2\csrc/u8x8_d_st7567.c ****     case U8X8_MSG_DISPLAY_SET_CONTRAST:
 166:..\..\u8g2\csrc/u8x8_d_st7567.c ****       u8x8_cad_StartTransfer(u8x8);
 719              		.loc 1 166 0
 720 006a 2000     		movs	r0, r4
 721 006c FFF7FEFF 		bl	u8x8_cad_StartTransfer
 722              	.LVL14:
 167:..\..\u8g2\csrc/u8x8_d_st7567.c ****       u8x8_cad_SendCmd(u8x8, 0x081 );
 723              		.loc 1 167 0
 724 0070 8121     		movs	r1, #129
 725 0072 2000     		movs	r0, r4
 726 0074 FFF7FEFF 		bl	u8x8_cad_SendCmd
 727              	.LVL15:
 168:..\..\u8g2\csrc/u8x8_d_st7567.c ****       u8x8_cad_SendArg(u8x8, arg_int >> 2 );	/* st7567 has range from 0 to 63 */
 728              		.loc 1 168 0
 729 0078 A908     		lsrs	r1, r5, #2
 730 007a 2000     		movs	r0, r4
 731 007c FFF7FEFF 		bl	u8x8_cad_SendArg
 732              	.LVL16:
 733              	.L17:
 169:..\..\u8g2\csrc/u8x8_d_st7567.c ****       u8x8_cad_EndTransfer(u8x8);
 734              		.loc 1 169 0
 735 0080 2000     		movs	r0, r4
 736 0082 FFF7FEFF 		bl	u8x8_cad_EndTransfer
 737              	.LVL17:
 738              	.L16:
 170:..\..\u8g2\csrc/u8x8_d_st7567.c ****       break;
 171:..\..\u8g2\csrc/u8x8_d_st7567.c **** #endif
 172:..\..\u8g2\csrc/u8x8_d_st7567.c ****     case U8X8_MSG_DISPLAY_DRAW_TILE:
 173:..\..\u8g2\csrc/u8x8_d_st7567.c ****       u8x8_cad_StartTransfer(u8x8);
 174:..\..\u8g2\csrc/u8x8_d_st7567.c ****     
 175:..\..\u8g2\csrc/u8x8_d_st7567.c ****       x = ((u8x8_tile_t *)arg_ptr)->x_pos;
 176:..\..\u8g2\csrc/u8x8_d_st7567.c ****       x *= 8;
 177:..\..\u8g2\csrc/u8x8_d_st7567.c ****       x += u8x8->x_offset;
 178:..\..\u8g2\csrc/u8x8_d_st7567.c ****       u8x8_cad_SendCmd(u8x8, 0x010 | (x>>4) );
 179:..\..\u8g2\csrc/u8x8_d_st7567.c ****       u8x8_cad_SendCmd(u8x8, 0x000 | ((x&15)));
 180:..\..\u8g2\csrc/u8x8_d_st7567.c ****       u8x8_cad_SendCmd(u8x8, 0x0b0 | (((u8x8_tile_t *)arg_ptr)->y_pos));
 181:..\..\u8g2\csrc/u8x8_d_st7567.c ****     
 182:..\..\u8g2\csrc/u8x8_d_st7567.c ****       c = ((u8x8_tile_t *)arg_ptr)->cnt;
 183:..\..\u8g2\csrc/u8x8_d_st7567.c ****       c *= 8;
 184:..\..\u8g2\csrc/u8x8_d_st7567.c ****       ptr = ((u8x8_tile_t *)arg_ptr)->tile_ptr;
 185:..\..\u8g2\csrc/u8x8_d_st7567.c ****       /* 
 186:..\..\u8g2\csrc/u8x8_d_st7567.c **** 	The following if condition checks the hardware limits of the st7567 
 187:..\..\u8g2\csrc/u8x8_d_st7567.c **** 	controller: It is not allowed to write beyond the display limits.
 188:..\..\u8g2\csrc/u8x8_d_st7567.c **** 	This is in fact an issue within flip mode.
 189:..\..\u8g2\csrc/u8x8_d_st7567.c ****       */
ARM GAS  C:\Users\gjl\AppData\Local\Temp\ccoTbLoi.s 			page 51


 190:..\..\u8g2\csrc/u8x8_d_st7567.c ****       if ( c + x > 132u )
 191:..\..\u8g2\csrc/u8x8_d_st7567.c ****       {
 192:..\..\u8g2\csrc/u8x8_d_st7567.c **** 	c = 132u;
 193:..\..\u8g2\csrc/u8x8_d_st7567.c **** 	c -= x;
 194:..\..\u8g2\csrc/u8x8_d_st7567.c ****       }
 195:..\..\u8g2\csrc/u8x8_d_st7567.c ****       do
 196:..\..\u8g2\csrc/u8x8_d_st7567.c ****       {
 197:..\..\u8g2\csrc/u8x8_d_st7567.c **** 	u8x8_cad_SendData(u8x8, c, ptr);	/* note: SendData can not handle more than 255 bytes */
 198:..\..\u8g2\csrc/u8x8_d_st7567.c **** 	arg_int--;
 199:..\..\u8g2\csrc/u8x8_d_st7567.c ****       } while( arg_int > 0 );
 200:..\..\u8g2\csrc/u8x8_d_st7567.c ****       
 201:..\..\u8g2\csrc/u8x8_d_st7567.c ****       u8x8_cad_EndTransfer(u8x8);
 202:..\..\u8g2\csrc/u8x8_d_st7567.c ****       break;
 203:..\..\u8g2\csrc/u8x8_d_st7567.c ****     default:
 204:..\..\u8g2\csrc/u8x8_d_st7567.c ****       return 0;
 205:..\..\u8g2\csrc/u8x8_d_st7567.c ****   }
 206:..\..\u8g2\csrc/u8x8_d_st7567.c ****   return 1;
 739              		.loc 1 206 0
 740 0086 0120     		movs	r0, #1
 170:..\..\u8g2\csrc/u8x8_d_st7567.c ****       break;
 741              		.loc 1 170 0
 742 0088 30E0     		b	.L2
 743              	.LVL18:
 744              	.L9:
 173:..\..\u8g2\csrc/u8x8_d_st7567.c ****     
 745              		.loc 1 173 0
 746 008a 2000     		movs	r0, r4
 747 008c FFF7FEFF 		bl	u8x8_cad_StartTransfer
 748              	.LVL19:
 178:..\..\u8g2\csrc/u8x8_d_st7567.c ****       u8x8_cad_SendCmd(u8x8, 0x000 | ((x&15)));
 749              		.loc 1 178 0
 750 0090 1021     		movs	r1, #16
 175:..\..\u8g2\csrc/u8x8_d_st7567.c ****       x *= 8;
 751              		.loc 1 175 0
 752 0092 7E79     		ldrb	r6, [r7, #5]
 753              	.LVL20:
 177:..\..\u8g2\csrc/u8x8_d_st7567.c ****       u8x8_cad_SendCmd(u8x8, 0x010 | (x>>4) );
 754              		.loc 1 177 0
 755 0094 A37F     		ldrb	r3, [r4, #30]
 176:..\..\u8g2\csrc/u8x8_d_st7567.c ****       x += u8x8->x_offset;
 756              		.loc 1 176 0
 757 0096 F600     		lsls	r6, r6, #3
 758              	.LVL21:
 177:..\..\u8g2\csrc/u8x8_d_st7567.c ****       u8x8_cad_SendCmd(u8x8, 0x010 | (x>>4) );
 759              		.loc 1 177 0
 760 0098 F618     		adds	r6, r6, r3
 761              	.LVL22:
 762 009a F6B2     		uxtb	r6, r6
 763              	.LVL23:
 178:..\..\u8g2\csrc/u8x8_d_st7567.c ****       u8x8_cad_SendCmd(u8x8, 0x000 | ((x&15)));
 764              		.loc 1 178 0
 765 009c 3309     		lsrs	r3, r6, #4
 766 009e 1943     		orrs	r1, r3
 767 00a0 2000     		movs	r0, r4
 768 00a2 FFF7FEFF 		bl	u8x8_cad_SendCmd
 769              	.LVL24:
 179:..\..\u8g2\csrc/u8x8_d_st7567.c ****       u8x8_cad_SendCmd(u8x8, 0x0b0 | (((u8x8_tile_t *)arg_ptr)->y_pos));
ARM GAS  C:\Users\gjl\AppData\Local\Temp\ccoTbLoi.s 			page 52


 770              		.loc 1 179 0
 771 00a6 0F21     		movs	r1, #15
 772 00a8 2000     		movs	r0, r4
 773 00aa 3140     		ands	r1, r6
 774 00ac FFF7FEFF 		bl	u8x8_cad_SendCmd
 775              	.LVL25:
 180:..\..\u8g2\csrc/u8x8_d_st7567.c ****     
 776              		.loc 1 180 0
 777 00b0 B023     		movs	r3, #176
 778 00b2 B979     		ldrb	r1, [r7, #6]
 779 00b4 2000     		movs	r0, r4
 780 00b6 1943     		orrs	r1, r3
 781 00b8 FFF7FEFF 		bl	u8x8_cad_SendCmd
 782              	.LVL26:
 182:..\..\u8g2\csrc/u8x8_d_st7567.c ****       c *= 8;
 783              		.loc 1 182 0
 784 00bc 3B79     		ldrb	r3, [r7, #4]
 785              	.LVL27:
 184:..\..\u8g2\csrc/u8x8_d_st7567.c ****       /* 
 786              		.loc 1 184 0
 787 00be 3F68     		ldr	r7, [r7]
 788              	.LVL28:
 183:..\..\u8g2\csrc/u8x8_d_st7567.c ****       ptr = ((u8x8_tile_t *)arg_ptr)->tile_ptr;
 789              		.loc 1 183 0
 790 00c0 DB00     		lsls	r3, r3, #3
 791              	.LVL29:
 792 00c2 DBB2     		uxtb	r3, r3
 793 00c4 0193     		str	r3, [sp, #4]
 794              	.LVL30:
 190:..\..\u8g2\csrc/u8x8_d_st7567.c ****       {
 795              		.loc 1 190 0
 796 00c6 9B19     		adds	r3, r3, r6
 797 00c8 842B     		cmp	r3, #132
 798 00ca 04DD     		ble	.L13
 799              	.LVL31:
 193:..\..\u8g2\csrc/u8x8_d_st7567.c ****       }
 800              		.loc 1 193 0
 801 00cc 7C23     		movs	r3, #124
 802 00ce 5B42     		rsbs	r3, r3, #0
 803 00d0 9E1B     		subs	r6, r3, r6
 804              	.LVL32:
 805 00d2 F3B2     		uxtb	r3, r6
 806 00d4 0193     		str	r3, [sp, #4]
 807              	.LVL33:
 808              	.L13:
 198:..\..\u8g2\csrc/u8x8_d_st7567.c ****       } while( arg_int > 0 );
 809              		.loc 1 198 0 discriminator 1
 810 00d6 013D     		subs	r5, r5, #1
 811              	.LVL34:
 197:..\..\u8g2\csrc/u8x8_d_st7567.c **** 	arg_int--;
 812              		.loc 1 197 0 discriminator 1
 813 00d8 3A00     		movs	r2, r7
 814 00da 0199     		ldr	r1, [sp, #4]
 815 00dc 2000     		movs	r0, r4
 198:..\..\u8g2\csrc/u8x8_d_st7567.c ****       } while( arg_int > 0 );
 816              		.loc 1 198 0 discriminator 1
 817 00de EDB2     		uxtb	r5, r5
ARM GAS  C:\Users\gjl\AppData\Local\Temp\ccoTbLoi.s 			page 53


 197:..\..\u8g2\csrc/u8x8_d_st7567.c **** 	arg_int--;
 818              		.loc 1 197 0 discriminator 1
 819 00e0 FFF7FEFF 		bl	u8x8_cad_SendData
 820              	.LVL35:
 199:..\..\u8g2\csrc/u8x8_d_st7567.c ****       
 821              		.loc 1 199 0 discriminator 1
 822 00e4 002D     		cmp	r5, #0
 823 00e6 F6D1     		bne	.L13
 824 00e8 CAE7     		b	.L17
 825              	.LVL36:
 826              	.L14:
 204:..\..\u8g2\csrc/u8x8_d_st7567.c ****   }
 827              		.loc 1 204 0
 828 00ea 0020     		movs	r0, #0
 829              	.LVL37:
 830              	.L2:
 207:..\..\u8g2\csrc/u8x8_d_st7567.c **** }
 831              		.loc 1 207 0
 832              		@ sp needed
 833              	.LVL38:
 834 00ec FEBD     		pop	{r1, r2, r3, r4, r5, r6, r7, pc}
 835              	.L22:
 836 00ee C046     		.align	2
 837              	.L21:
 838 00f0 00000000 		.word	.LANCHOR0
 839              		.cfi_endproc
 840              	.LFE0:
 841              		.size	u8x8_d_st7567_pi_132x64, .-u8x8_d_st7567_pi_132x64
 842              		.section	.rodata
 843              		.align	2
 844              		.set	.LANCHOR0,. + 0
 845              		.type	u8x8_st7567_132x64_display_info, %object
 846              		.size	u8x8_st7567_132x64_display_info, 24
 847              	u8x8_st7567_132x64_display_info:
 848 0000 00       		.byte	0
 849 0001 01       		.byte	1
 850 0002 96       		.byte	-106
 851 0003 32       		.byte	50
 852 0004 01       		.byte	1
 853 0005 01       		.byte	1
 854 0006 32       		.byte	50
 855 0007 78       		.byte	120
 856 0008 00093D00 		.word	4000000
 857 000c 00       		.byte	0
 858 000d 04       		.byte	4
 859 000e 28       		.byte	40
 860 000f 50       		.byte	80
 861 0010 11       		.byte	17
 862 0011 08       		.byte	8
 863 0012 00       		.byte	0
 864 0013 00       		.byte	0
 865 0014 8400     		.short	132
 866 0016 4000     		.short	64
 867              		.type	u8x8_d_st7567_132x64_init_seq, %object
 868              		.size	u8x8_d_st7567_132x64_init_seq, 39
 869              	u8x8_d_st7567_132x64_init_seq:
 870 0018 18       		.byte	24
ARM GAS  C:\Users\gjl\AppData\Local\Temp\ccoTbLoi.s 			page 54


 871 0019 15       		.byte	21
 872 001a E2       		.byte	-30
 873 001b 15       		.byte	21
 874 001c AE       		.byte	-82
 875 001d 15       		.byte	21
 876 001e 40       		.byte	64
 877 001f 15       		.byte	21
 878 0020 A1       		.byte	-95
 879 0021 15       		.byte	21
 880 0022 C0       		.byte	-64
 881 0023 15       		.byte	21
 882 0024 A6       		.byte	-90
 883 0025 15       		.byte	21
 884 0026 A3       		.byte	-93
 885 0027 15       		.byte	21
 886 0028 2C       		.byte	44
 887 0029 FE       		.byte	-2
 888 002a 32       		.byte	50
 889 002b 15       		.byte	21
 890 002c 2E       		.byte	46
 891 002d FE       		.byte	-2
 892 002e 32       		.byte	50
 893 002f 15       		.byte	21
 894 0030 2F       		.byte	47
 895 0031 FE       		.byte	-2
 896 0032 32       		.byte	50
 897 0033 15       		.byte	21
 898 0034 26       		.byte	38
 899 0035 15       		.byte	21
 900 0036 81       		.byte	-127
 901 0037 16       		.byte	22
 902 0038 27       		.byte	39
 903 0039 15       		.byte	21
 904 003a AE       		.byte	-82
 905 003b 15       		.byte	21
 906 003c A5       		.byte	-91
 907 003d 19       		.byte	25
 908 003e FF       		.byte	-1
 909              		.type	u8x8_d_st7567_132x64_powersave0_seq, %object
 910              		.size	u8x8_d_st7567_132x64_powersave0_seq, 7
 911              	u8x8_d_st7567_132x64_powersave0_seq:
 912 003f 18       		.byte	24
 913 0040 15       		.byte	21
 914 0041 A4       		.byte	-92
 915 0042 15       		.byte	21
 916 0043 AF       		.byte	-81
 917 0044 19       		.byte	25
 918 0045 FF       		.byte	-1
 919              		.type	u8x8_d_st7567_132x64_powersave1_seq, %object
 920              		.size	u8x8_d_st7567_132x64_powersave1_seq, 7
 921              	u8x8_d_st7567_132x64_powersave1_seq:
 922 0046 18       		.byte	24
 923 0047 15       		.byte	21
 924 0048 AE       		.byte	-82
 925 0049 15       		.byte	21
 926 004a A5       		.byte	-91
 927 004b 19       		.byte	25
ARM GAS  C:\Users\gjl\AppData\Local\Temp\ccoTbLoi.s 			page 55


 928 004c FF       		.byte	-1
 929              		.type	u8x8_d_st7567_132x64_flip0_seq, %object
 930              		.size	u8x8_d_st7567_132x64_flip0_seq, 7
 931              	u8x8_d_st7567_132x64_flip0_seq:
 932 004d 18       		.byte	24
 933 004e 15       		.byte	21
 934 004f A1       		.byte	-95
 935 0050 15       		.byte	21
 936 0051 C0       		.byte	-64
 937 0052 19       		.byte	25
 938 0053 FF       		.byte	-1
 939              		.type	u8x8_d_st7567_132x64_flip1_seq, %object
 940              		.size	u8x8_d_st7567_132x64_flip1_seq, 7
 941              	u8x8_d_st7567_132x64_flip1_seq:
 942 0054 18       		.byte	24
 943 0055 15       		.byte	21
 944 0056 A0       		.byte	-96
 945 0057 15       		.byte	21
 946 0058 C8       		.byte	-56
 947 0059 19       		.byte	25
 948 005a FF       		.byte	-1
 949              		.text
 950              	.Letext0:
 951              		.file 2 "c:\\program files (x86)\\cypress\\psoc creator\\4.1\\psoc creator\\import\\gnu\\arm\\5.4.
 952              		.file 3 "c:\\program files (x86)\\cypress\\psoc creator\\4.1\\psoc creator\\import\\gnu\\arm\\5.4.
 953              		.file 4 "..\\..\\u8g2\\csrc\\u8x8.h"