ARM GAS  C:\Users\gjl\AppData\Local\Temp\ccjfJ1RV.s 			page 1


   1              		.syntax unified
   2              		.cpu cortex-m0
   3              		.fpu softvfp
   4              		.eabi_attribute 20, 1
   5              		.eabi_attribute 21, 1
   6              		.eabi_attribute 23, 3
   7              		.eabi_attribute 24, 1
   8              		.eabi_attribute 25, 1
   9              		.eabi_attribute 26, 1
  10              		.eabi_attribute 30, 4
  11              		.eabi_attribute 34, 0
  12              		.eabi_attribute 18, 4
  13              		.thumb
  14              		.syntax unified
  15              		.file	"u8x8_message.c"
  16              		.text
  17              	.Ltext0:
  18              		.section	.gnu.lto_.profile.1a3fb18,"",%progbits
  19 0000 789C6361 		.ascii	"x\234ca`d`c`\000\222K\231&3\002\000\004U\001H"
  19      60646063 
  19      6000924B 
  19      99263302 
  19      00045501 
  20              		.text
  21              		.section	.gnu.lto_.icf.1a3fb18,"",%progbits
  22 0000 789C6361 		.ascii	"x\234ca`d\000\001^\006\004`b\370z\365\227\021\343\237"
  22      60640001 
  22      5E060460 
  22      62F87AF5 
  22      9711E39F 
  23 0014 235D4B58 		.ascii	"#]KX\030\000-5\005\376"
  23      18002D35 
  23      05FE
  24              		.text
  25              		.section	.gnu.lto_.jmpfuncs.1a3fb18,"",%progbits
  26 0000 789C754F 		.ascii	"x\234uO\273\015\3020\020\275w\347\010\224\212\001\220"
  26      BB0DC230 
  26      10BD77E7 
  26      08948A01 
  26      90
  27 0011 48E66292 		.ascii	"H\346b\222T6\205[\312(\035%0\004\015\003@\313\016HT"
  27      5436855B 
  27      CA281D25 
  27      30040D03 
  27      40CB0E48 
  28 0026 14349138 		.ascii	"\0244\2218\333$V$\362\012\237\374~\366\031\002\005l"
  28      DB245624 
  28      F20A9FFC 
  28      7EF61902 
  28      056C
  29 0038 75082530 		.ascii	"u\010%0\025\010\330X\266V\226\334\020\001\037\364\214"
  29      1508D858 
  29      B65696DC 
  29      10011FF4 
  29      8C
  30 0049 D65FEF8B 		.ascii	"\326_\357\2137{\321\024\216XGw\023\032\202\272\337="
  30      377BD114 
ARM GAS  C:\Users\gjl\AppData\Local\Temp\ccjfJ1RV.s 			page 2


  30      8E584777 
  30      131A82BA 
  30      DF3D
  31 005b DBA2C6C1 		.ascii	"\333\242\306\301u\225\027\2202\217\327\345V\332\336"
  31      75951790 
  31      328FD7E5 
  31      56DADE
  32 006a 75CEADBC 		.ascii	"u\316\255\2740N\250\325z\206%\212\265\224\013\024&^"
  32      304EA8D5 
  32      7A86258A 
  32      B5940B14 
  32      265E
  33 007c C2694631 		.ascii	"\302iF1s\254C\215\310\177c)G\337P\025\234\377YN\354"
  33      73AC438D 
  33      C87F6329 
  33      47DF5015 
  33      9CFF594E 
  34 0091 44445A62 		.ascii	"DDZb\022\303\260X\212\312\254\302\263\012\362s\234\032"
  34      12C3B058 
  34      8ACAACC2 
  34      B30AF273 
  34      9C1A
  35 00a3 F8B72457 		.ascii	"\370\267$W\364\005\373\317*\022"
  35      F405FBCF 
  35      2A12
  36              		.text
  37              		.section	.gnu.lto_.inline.1a3fb18,"",%progbits
  38 0000 789C554E 		.ascii	"x\234UN\253\016\302@\020\234\335\273\366 \264\271\342"
  38      AB0EC240 
  38      109CDDBB 
  38      F620B4B9 
  38      E2
  39 0011 49534382 		.ascii	"ISC\202\346\003\360\230\373\020\360x\004\002w\212\244"
  39      E603F098 
  39      FB10F078 
  39      0402778A 
  39      A4
  40 0022 1A81E203 		.ascii	"\032\201\342\003p\024\213\3004AU\342I\300 H\350\265"
  40      70148BC0 
  40      344155E2 
  40      49C02048 
  40      E8B5
  41 0034 0D69C7CC 		.ascii	"\015i\307\314c7\223\221 8D5U``z\365\011<\336\0375\372"
  41      63379391 
  41      20384435 
  41      5560607A 
  41      F5093CDE 
  42 004b DB15BBD4 		.ascii	"\333\025\273\324\327\004Y(k\012\325\326\326\310\260"
  42      D7045928 
  42      6B0AD5D6 
  42      D6C8B0
  43 005a 7C75B212 		.ascii	"|u\262\022\235D\004\000YCx\340#Hp\262\3742\3556\227"
  43      9D440400 
  43      594378E0 
  43      234870B2 
  43      FC32ED36 
  44 006f 9B7AF346 		.ascii	"\233z\363F\010\002\035h\004N\026\015\227#\274\371\375"
ARM GAS  C:\Users\gjl\AppData\Local\Temp\ccjfJ1RV.s 			page 3


  44      08021D68 
  44      044E160D 
  44      9723BCF9 
  44      FD
  45 0080 354498AD 		.ascii	"5D\230\255\211\321;\317\"\250l\"A'O\376Wxi\234\306\326"
  45      89D13BCF 
  45      22A86C22 
  45      41274FFE 
  45      5778699C 
  46 0096 5893C695 		.ascii	"X\223\306\225\315u\256\235\315\265\010\312\312\247\257"
  46      CD75AE9D 
  46      CDB508CA 
  46      CAA7AF
  47 00a5 A2B2C725 		.ascii	"\242\262\307%\326\300\232\306\241\016|\015\331\262\335"
  47      D6C09AC6 
  47      A10E7C0D 
  47      D9B2DD
  48 00b4 230FAABD 		.ascii	"#\017\252\275\315\354\206\360\003b\023;C"
  48      CDEC86F0 
  48      0362133B 
  48      43
  49              		.text
  50              		.section	.gnu.lto_.pureconst.1a3fb18,"",%progbits
  51 0000 789C6361 		.ascii	"x\234ca`d`e```b\220b\224\002\000\000\355\000B"
  51      60646065 
  51      60606062 
  51      90629402 
  51      0000ED00 
  52              		.text
  53              		.section	.gnu.lto_u8x8_draw_button_line.1a3fb18,"",%progbits
  54 0000 789C8D55 		.ascii	"x\234\215Uol\024U\020\177\363\336\356\355\335\336\366"
  54      6F6C1455 
  54      107FF3DE 
  54      EEEDDDDE 
  54      F6
  55 0011 CABFC285 		.ascii	"\312\277\302\205\264x5\\\033b\004\004b\370d\2141~\327"
  55      B478355C 
  55      1B620404 
  55      62F8648C 
  55      317ED7
  56 0024 CF10436A 		.ascii	"\317\020CjCHDb\013\021>u\351\365J\325\206\200\177J\255"
  56      43484462 
  56      0B113E75 
  56      E9F54AD5 
  56      86807F4A 
  57 0039 983341E4 		.ascii	"\2303A\344\217@[\240\224B\301\245\320+R(\020HP(F*\201"
  57      8F405BA0 
  57      9442C1A5 
  57      D02B5228 
  57      10485028 
  58 0050 06055B82 		.ascii	"\006\005[\202iL\200sf\336\336q\320\222\260\351\356\275"
  58      694C8073 
  58      66DEDE71 
  58      D092B0E9 
  58      EEBD
  59 0062 37FBFBCD 		.ascii	"7\373\373\315\374f\336\314\326\020 \350\372/(\304;\370"
  59      FC66DECC 
ARM GAS  C:\Users\gjl\AppData\Local\Temp\ccjfJ1RV.s 			page 4


  59      D61020E8 
  59      FA2F28C4 
  59      3BF8
  60 0074 DB8A3714 		.ascii	"\333\2127\024\010\220\233\006\204X\037\224`\350\205"
  60      08909B06 
  60      84581F94 
  60      60E885
  61 0083 D28B1341 		.ascii	"\322\213\023AC\252\306>!\\\333\254\263\204\353\2302"
  61      43AAC63E 
  61      215CDBAC 
  61      B384EB98 
  61      32
  62 0094 D0508E3B 		.ascii	"\320P\216;\213\236N\000,\015\267 \254\027A\031\222\370"
  62      8B9E4E00 
  62      2C0DB720 
  62      AC174119 
  62      92F8
  63 00a6 DADE883B 		.ascii	"\332\336\210;\327\011\201\255\315\266~\177\"\030\226"
  63      D70981AD 
  63      CDB67E7F 
  63      221896
  64 00b5 41EDCE61 		.ascii	"A\355\316aw\016\000\331\335 \210\032\251\0143`\005C"
  64      770E00D9 
  64      DD20881A 
  64      A90C3360 
  64      0543
  65 00c7 76D8811A 		.ascii	"v\330\201\032e\010\360\014\310h\265\341\374\315\277"
  65      6508F00C 
  65      C868B5E1 
  65      FCCDBF
  66 00d6 F29184FE 		.ascii	"\362\221\204\376\261\323\215\366\234\035\256[\353\376"
  66      B1D38DF6 
  66      9C1DAE5B 
  66      EBFE
  67 00e4 D17BC9D9 		.ascii	"\321{\311\331\262\323\203\244\022\"#\005,,\206\371\305"
  67      B2D383A4 
  67      12222305 
  67      2C2C86F9 
  67      C5
  68 00f5 94D60E98 		.ascii	"\224\326\016\230\203\310\213um[\325\003\231T\000\006"
  68      83C88B75 
  68      6D5BD503 
  68      99540006 
  69 0105 6E47CFB5 		.ascii	"nG\317\265\374\031\241\255\204\030n\277\277\274m0\240"
  69      FC19A1AD 
  69      84186EBF 
  69      BFBC6D30 
  69      A0
  70 0116 5E0681EB 		.ascii	"^\006\201\353\2463\227\357\025\224o'\237n\252\322\015"
  70      A63397EF 
  70      15946F27 
  70      9F6EAAD2 
  70      0D
  71 0127 259582DD 		.ascii	"%\225\202\335\240\310\347.(\206\235P,\320$\340'(Gt\367"
  71      A0C8E72E 
  71      28869D50 
  71      2CD024E0 
ARM GAS  C:\Users\gjl\AppData\Local\Temp\ccjfJ1RV.s 			page 5


  71      27284774 
  72 013c 67FD0F83 		.ascii	"g\375\017\203\252\234\231\237^M\217\004|\346\265\245"
  72      AA9C999F 
  72      5E4D8F04 
  72      7CE6B5A5 
  73 014c AE4229B0 		.ascii	"\256B)\260G3\265\032\322\006{\231\367\333\205\266\317"
  73      4733B51A 
  73      D2067B99 
  73      F7DB85B6 
  73      CF
  74 015d 236A0EF3 		.ascii	"#j\016\363\016o\372\246%\033qs:\354\316'\342\276q\304"
  74      0E6FFAA6 
  74      251B7173 
  74      3AECCE27 
  74      E2BE71C4 
  75 0171 5626EEB9 		.ascii	"V&\356\271\374\305fG\275\302\304\037\356^O\007}bg\226"
  75      FCC56647 
  75      BDC2C41F 
  75      EE5E4F07 
  75      7D626796 
  76 0185 D8368ED8 		.ascii	"\3306\216\330\316\304\236\364\267\255\226Z\300\304#"
  76      CEC49EF4 
  76      B7AD965A 
  76      C0C423
  77 0194 576FEE0A 		.ascii	"Wo\356\012\371\304L\332q7a\331\014\330\377l\226X\375"
  77      F9C44CDA 
  77      713761D9 
  77      0CD8FF6C 
  77      9658FD
  78 01a7 03504E84 		.ascii	"\003PN\204\226#\033jm\265\210\311\211\303W\216\026\306"
  78      96231B6A 
  78      6DB588C9 
  78      89C3578E 
  78      16C6
  79 01b9 B711D9EB 		.ascii	"\267\021\331\353Z\271\305\365\326\307(\356\301\374\270"
  79      5AB9C5F5 
  79      D6C728EE 
  79      C1FCB8
  80 01c8 742174F8 		.ascii	"t!t\370\312\256.S\275\316\264\353\203\251n\333\247\035"
  80      CAAE2E53 
  80      BDCEB4EB 
  80      83A96EDB 
  80      A71D
  81 01da 5AEA26DE 		.ascii	"Z\352&\336$\322\241\011H\017o\0147\004\325b&\015\354"
  81      24D2A109 
  81      480F6F0C 
  81      3704D562 
  81      260DEC
  82 01ed FEB1D3F1 		.ascii	"\376\261\323\361I\007\263\244\303\023\220:[\036{\206"
  82      4907B3A4 
  82      C313903A 
  82      5B1E7B86 
  83 01fd 7A8349BB 		.ascii	"z\203I\273\367\336\271m\370\244\375Y\322\221\011H\333"
  83      F7DEB96D 
  83      F8A4FD59 
  83      D2910948 
  83      DB
ARM GAS  C:\Users\gjl\AppData\Local\Temp\ccjfJ1RV.s 			page 6


  84 020e FB4F1E8F 		.ascii	"\373O\036\217\250\267t-\207R_)\237\324\226%uO@\032j"
  84      A8B7742D 
  84      87525F29 
  84      9FD49625 
  84      754F401A 
  85 0223 7FFC7541 		.ascii	"\177\374uA\240\316\305+\006\307 \016G\361\356\302\273"
  85      A0CEC52B 
  85      06C7200E 
  85      47F1EEC2 
  85      BB
  86 0234 13EF0E88 		.ascii	"\023\357\016\210S\367a\321\217C\000\033\325\234\010"
  86      53F761D1 
  86      8F43001B 
  86      D59C08
  87 0243 D1FA9EE7 		.ascii	"\321\372\236\347f2\011\327K\231\217\034l\035\302H~b"
  87      663209D7 
  87      4B998F1C 
  87      6C1DC248 
  87      7E62
  88 0255 48C461D9 		.ascii	"H\304a\331\021e\362\323\006:\002G\220\217\010\035I!"
  88      1165F2D3 
  88      063A0247 
  88      908F081D 
  88      4921
  89 0267 50E74DC6 		.ascii	"P\347M\306\2459\205\321S\2319\215\014El\230\016\324"
  89      A53985D1 
  89      5399398D 
  89      0C456C98 
  89      0ED4
  90 0279 2A330485 		.ascii	"*3\004\205\213\262\223\231@=PB\364Y@\015\030#t)\277"
  90      8BB29399 
  90      403D5042 
  90      F459400D 
  90      18237429 
  91 028e 9B4DCB38 		.ascii	"\233M\3138/\313\330\223\020#\230\000\316\345\250\224"
  91      2FCBD893 
  91      10239800 
  91      CEE5A894 
  92 029e F8A386A1 		.ascii	"\370\243\206\241\316;ZB\371$\224\203\371wu\375}\315"
  92      CE3B5A42 
  92      F9249483 
  92      F97775FD 
  92      7DCD
  93 02b0 AA79E436 		.ascii	"\252y\3446\270\356\244\244\012d$\246\011?C\215H(;\251"
  93      B8EEA4A4 
  93      0A6424A6 
  93      093F438D 
  93      48283BA9 
  94 02c4 2C310492 		.ascii	",1\004\222\223G\301H\300m\255w\261\222-\250\215\346"
  94      9347C148 
  94      C06DAD77 
  94      B1922DA8 
  94      8DE6
  95 02d6 2BD973DE 		.ascii	"+\331s\336\242\321\303o\020x\330g\204\270\264\202\021"
  95      A2D1C36F 
  95      1078D867 
  95      84B8B482 
ARM GAS  C:\Users\gjl\AppData\Local\Temp\ccjfJ1RV.s 			page 7


  95      11
  96 02e7 542C3209 		.ascii	"T,2\011\014\256\004~\"0z\322\273\262NG\217\214\213\036"
  96      0CAE047E 
  96      22307AD2 
  96      BBB24E47 
  96      8F8C8B1E 
  97 02fb CCA04601 		.ascii	"\314\240F\001'8:\260\200\220\030\006S\343'\217\303\333"
  97      27383AB0 
  97      80901806 
  97      53E3278F 
  97      C3DB
  98 030d 194903D1 		.ascii	"\031I\003\321\303\370B\364\230Taq\013\022M\365\203\240"
  98      C3F842F4 
  98      98546171 
  98      0B124DF5 
  98      83A0
  99 031f 3953124A 		.ascii	"9S\022J!3\227E\027e1Ec\006\232,\015\232\212\301\320"
  99      21339745 
  99      17653145 
  99      63069A2C 
  99      0D9A8AC1 
 100 0334 77C786B3 		.ascii	"w\307\206\263\355\266\316\004\340$g\"\263i \210\263"
 100      EDB6CE04 
 100      E0246722 
 100      B3692088 
 100      B3
 101 0345 30047ED9 		.ascii	"0\004~\331\024\2468Ih_J\350\015c@\334\200\272\201DD"
 101      14A63849 
 101      685F4AE8 
 101      0D6340DC 
 101      80BA8144 
 102 035a BB05AA17 		.ascii	"\273\005\252\027^\367\321\035VA\356D%SU\263u\037\024"
 102      5EF7D11D 
 102      5641EE44 
 102      255355B3 
 102      751F14
 103 036d EF1BF792 		.ascii	"\357\033\367\222@\325}7\200\216M:\033\226u\257Ii\376"
 103      40D57D37 
 103      808E4D3A 
 103      1B9675AF 
 103      4969FE
 104 0380 34D6EEB0 		.ascii	"4\326\356\260\330\2006\025\241\025\225^J\234:\257\264"
 104      D8803615 
 104      A115955E 
 104      4A9C3AAF 
 104      B4
 105 0391 D20CC0A9 		.ascii	"\322\014\300\251<\251\254\251\210\317`\264\210-\235"
 105      3CA9ACA9 
 105      88CF60B4 
 105      882D9D
 106 03a0 FE19B0B2 		.ascii	"\376\031\260\262\333\013s~\246\363\000\214\312\200\350"
 106      DB0B737E 
 106      A6F3008C 
 106      CA80E8
 107 03af 51949037 		.ascii	"Q\224\2207V\222\305\323K\014\332\\?\344\027h\006Z\264"
 107      5692C5D3 
 107      4B0CDA5C 
ARM GAS  C:\Users\gjl\AppData\Local\Temp\ccjfJ1RV.s 			page 8


 107      3FE41768 
 107      065AB4
 108 03c2 5BF90433 		.ascii	"[\371\0043\2030m\365w|L\024-(\25573\346\025\2224\023"
 108      83306DF5 
 108      777C4C14 
 108      2D28AD37 
 108      33E61592 
 109 03d8 B1BD79CA 		.ascii	"\261\275y\312\230\023\345\220\026\345\252\313\306V\203"
 109      9813E590 
 109      16E5AACB 
 109      C65683
 110 03e7 F57E99D6 		.ascii	"\365~\231\326\300\016m\272\005\265\017\332z_#S~\227"
 110      C00E6DBA 
 110      05B50FDA 
 110      7A5F2353 
 110      7E97
 111 03f9 299EEEB1 		.ascii	")\236\356\261\2763\015N\012\276\303\357\234\203'\017"
 111      BE330D4E 
 111      0ABEC3EF 
 111      9C83270F 
 112 0409 696A32FA 		.ascii	"ij2\372\002\334\254\335g\315{\225\012\323\007)xL\243"
 112      02DCACDD 
 112      67CD7B95 
 112      0AD30729 
 112      784CA3
 113 041c 2BE034CC 		.ascii	"+\3404\314\313u\346\226\372\202\247[\363>\030\2640\033"
 113      CB75E696 
 113      FA82A75B 
 113      F33E18B4 
 113      301B
 114 042e 5BF1BCA2 		.ascii	"[\361\274\242\201\301\177\000\025\006\271Y\261dW\023"
 114      81C17F00 
 114      1506B959 
 114      B1645713 
 115 043e 9D8D519D 		.ascii	"\235\215Q\235\240L\250\231~\315BB*\326\327\367\261\257"
 115      A04CA899 
 115      7ECD4242 
 115      2AD6D7F7 
 115      B1AF
 116 0450 EF0504FD 		.ascii	"\357\005\004\375\362D\320\031\024t\322\237\013;7\027"
 116      F244D019 
 116      1474D29F 
 116      0B3B3717 
 117 0460 EDF58E8E 		.ascii	"\355\365\216\216T\362\274\301\350\347F\227\271\301\360"
 117      54F2BCC1 
 117      E8E74697 
 117      B9C1F0
 118 046f 4B1F1B87 		.ascii	"K\037\033\207/\310`\247\0128\233\035\0143\241f\241\337"
 118      2FC860A7 
 118      0A389B1D 
 118      0C33A166 
 118      A1DF
 119 0481 A48AE8D6 		.ascii	"\244\212\350\326_\244\211\245\374&\226;#.})\227~\344"
 119      5FA489A5 
 119      FC26963B 
 119      232E7D29 
 119      977EE4
ARM GAS  C:\Users\gjl\AppData\Local\Temp\ccjfJ1RV.s 			page 9


 120 0494 ECBB2F9E 		.ascii	"\354\273/\236\332\271'\251\015\370\265\036\206\015^"
 120      DAB927A9 
 120      0DF8B51E 
 120      860D5E
 121 04a3 4736A1D9 		.ascii	"G6\241\331\317\023x>+\020\225\314B\320\306\365\1775"
 121      CF13783E 
 121      2B1095CC 
 121      42D0C6F5 
 121      7F35
 122 04b5 99A56FA7 		.ascii	"\231\245o\247\334f\374\037THQ~\275wl\300FZ4\251&\301"
 122      DC66FC1F 
 122      5448517E 
 122      BD776CC0 
 122      465A34A9 
 123 04cb 05282587 		.ascii	"\005(%\207\002.B\315\263\271\304\331\311\354\247s\211"
 123      022E42CD 
 123      B3B9C4D9 
 123      C9ECA773 
 123      89
 124 04dc 6BC8EFCD 		.ascii	"k\310\357\315U\032T\206\325\033?\332e|\020\341\274\321"
 124      551A5486 
 124      D51B3FDA 
 124      657C10E1 
 124      BCD1
 125 04ee 66B2993F 		.ascii	"f\262\231?\332\362\251\321\226\271\321\226\224\255E"
 125      DAF2A9D1 
 125      96B9D196 
 125      94AD45
 126 04fd A35D66D3 		.ascii	"\243]f\323hc=\015kk;\316n\334\336s \212~\035\352\366"
 126      68633D0D 
 126      6B6B3BCE 
 126      6EDCDE73 
 126      208A7E1D 
 127 0513 3BD87AC7 		.ascii	";\330z\307t\353\371\324\021\374\320\326YX\264\227\346"
 127      74EBF9D4 
 127      11FCD0D6 
 127      5958B497 
 127      E6
 128 0524 CE5D827F 		.ascii	"\316]\202\177k\026/_\260\244\242\272\252\002Wk\027\277"
 128      6B162F5F 
 128      B0A4A2BA 
 128      AA02576B 
 128      17BF
 129 0536 BFB2B2BA 		.ascii	"\277\262\262\272z\331\362\312\271\025\302\240=\254\203"
 129      7AD9F2CA 
 129      B915C2A0 
 129      3DAC83
 130 0545 4F02156B 		.ascii	"O\002\025k\252\252WUA5\254\205\017\314\325\253V/\373"
 130      AAAA5755 
 130      4135AC85 
 130      0FCCD5AB 
 130      562FFB
 131 0558 50557CB4 		.ascii	"PU|\264\032V\310\230\370\037%i\316\006"
 131      1A56C898 
 131      F81F2569 
 131      CE06
 132              		.text
ARM GAS  C:\Users\gjl\AppData\Local\Temp\ccjfJ1RV.s 			page 10


 133              		.section	.gnu.lto_u8x8_UserInterfaceMessage.1a3fb18,"",%progbits
 134 0000 789C8D57 		.ascii	"x\234\215WmPT\327\031>\357=\273w\277\331]\276\215\304"
 134      6D5054D7 
 134      193EEF3D 
 134      BB77BFD9 
 134      5DBE8DC4 
 135 0014 0F4449FC 		.ascii	"\017DI\374@\004\255X\363\2473\375\321\351\277v\246\377"
 135      4004AD58 
 135      F3A733FD 
 135      D1E9BF76 
 135      A6FF
 136 0026 9C665AC2 		.ascii	"\234fZ\302hfR\323\021\354\244\277\274\262`l\306\246"
 136      686652D3 
 136      11ECA4BF 
 136      BCB2606C 
 136      C6A6
 137 0038 9AE24753 		.ascii	"\232\342GSS4\216\243\244\030 \211AT\004\211\202\"\001"
 137      53348EA3 
 137      A4182089 
 137      41540489 
 137      822201
 138 004b 09604B34 		.ascii	"\011`K46\0205&A\353\242\321\230\250\333\367}\317\335"
 138      36103526 
 138      41EBA2D1 
 138      98A8DBF7 
 138      7DCFDD
 139 005e BDCBB24C 		.ascii	"\275\313\262L\331a\357\336s\316\363\274\347\274\317"
 139      D961EFDE 
 139      73CEF3BC 
 139      E7BCCF
 140 006d FB9C732F 		.ascii	"\373\234s/6\001\202>\347\375B\274\200\277\005\330\204"
 140      3601823E 
 140      E7FD42BC 
 140      80BF05D8 
 140      84
 141 007e 6C01DAF6 		.ascii	"l\001\332\366^!6;5M~\320!\204\341\266]\361\010\303+"
 141      5E21363B 
 141      354D7ED0 
 141      2184E1B6 
 141      5DF108C3 
 142 0093 C1A6FA6D 		.ascii	"\301\246\372m\232}k>v\353t\365\332AW\335\272\346\350"
 142      9A7D6B3E 
 142      76EB74F5 
 142      DA4157DD 
 142      BAE6E8
 143 00a6 FA11763B 		.ascii	"\372\021v;\317ga\267\003\234\252\333\011nu\343R7?qk"
 143      CF6761B7 
 143      039CAADB 
 143      096E75E3 
 143      52373F71 
 144 00bb 9E0E8938 		.ascii	"\236\016\2118oo7\006\367z K\215{\265,\356\367\251~\237"
 144      6F6F3706 
 144      F77A204B 
 144      8D7BB52C 
 144      EEF7A97E 
 145 00d0 E6BF9381 		.ascii	"\346\277\223\201\315\224}%\330J1[\251\334\362k\001^"
 145      CD947D25 
ARM GAS  C:\Users\gjl\AppData\Local\Temp\ccjfJ1RV.s 			page 11


 145      D84A315B 
 145      A9DCF26B 
 145      015E
 146 00e2 41905710 		.ascii	"A\220W\020\200\240\212\020\004\227\272I\325\322\031"
 146      80A08A10 
 146      0497BA49 
 146      D5D219
 147 00f1 9DC6E834 		.ascii	"\235\306\3504\263\345\342V\272\226\301\334L\346f@\246"
 147      B3E5E256 
 147      BA96C1DC 
 147      4CE66640 
 147      A6
 148 0102 A26446B9 		.ascii	"\242dF\271Y\000tc8Al\322\244\315\256;\234.\267\307\353"
 148      59007463 
 148      38416CD2 
 148      A4CDAE3B 
 148      9C2EB7C7 
 149 0117 4BF10782 		.ascii	"K\361\007\202\251i\351\031\231Y\260Is\013\365\371V{"
 149      A969E919 
 149      9959B049 
 149      730BF5F9 
 149      567B
 150 0129 ACC18507 		.ascii	"\254\301\205\007\347\266\271\237=d\030\225\306\347\325"
 150      E7B6B99F 
 150      3D641895 
 150      C6E7D5
 151 0138 B77F16AE 		.ascii	"\267\177\026\256\254\316\256\226BD4\001\3059P\230\203"
 151      ACCEAE96 
 151      42443401 
 151      C5395098 
 151      83
 152 0149 383804CF 		.ascii	"88\004\317\"\262\277\252q\257\274\247UK\000\0336\303"
 152      22B2BFAA 
 152      71AFBCA7 
 152      554B001B 
 152      36C3
 153 015b 1FBFF945 		.ascii	"\037\277\371E\01255\230\203\315}\203\007\256\3502\027"
 153      0A353598 
 153      83CD7D83 
 153      07AEE832 
 153      17
 154 016c 04DEEFEA 		.ascii	"\004\336\357\352\036\274\355\313?H1\215\3462\303U-%"
 154      1EBCEDCB 
 154      3F48318D 
 154      E632C355 
 154      2D25
 155 017e BC039262 		.ascii	"\274\003\222b\326A\016\034\206\034\201]\002\376\011"
 155      D6410E1C 
 155      861C815D 
 155      02FE09
 156 018d F9886E32 		.ascii	"\371\210n2><\342\222\371\314\374\262w\227\315$\376\300"
 156      3E3CE292 
 156      F9CCFCB2 
 156      7797CD24 
 156      FEC0
 157 019f 441BD427 		.ascii	"D\033\324'\022m\002\21601\364Ys\304-\013\230x\252\356"
 157      126D028E 
ARM GAS  C:\Users\gjl\AppData\Local\Temp\ccjfJ1RV.s 			page 12


 157      3031F459 
 157      73C42D0B 
 157      9878AAEE 
 158 01b3 4F579C26 		.ascii	"OW\234&s\240\323kl\007\342\276\233\204\333\300\334\346"
 158      73A0D36B 
 158      6C07E2BE 
 158      9B84DBC0 
 158      DCE6
 159 01c5 F09B2572 		.ascii	"\360\233%r\005S\273\257\015\237v\231\324\277wE\251\215"
 159      0553BBAF 
 159      0D9F7699 
 159      D4BF7745 
 159      A98D
 160 01d7 49A84D4C 		.ascii	"I\250ML\255\331\322p\004\344s\314\035\336\037\276\345"
 160      ADD9D270 
 160      04E473CC 
 160      1DDE1FBE 
 160      E5
 161 01e8 31B97763 		.ascii	"1\271wc\334\367\222p\337\207|\"\354\331\374\2706E\376"
 161      DCF79270 
 161      DF877C22 
 161      ECD9FCB8 
 161      3645FE
 162 01fb 94C97DFD 		.ascii	"\224\311}\375\333\336v\315?@\344\366\307\235\276\335"
 162      DBDE76CD 
 162      3F40E4F6 
 162      C79DBEDD 
 163 020b 46FBE639 		.ascii	"F\373\3469\250=|\240\350Q\371\005a\017\356\370\363A"
 163      A83D7CA0 
 163      E851F905 
 163      610FEEF8 
 163      F341
 164 021d A7FC39F3 		.ascii	"\247\3749\363\356?\374\252\306a\362\276\357\364\030"
 164      EE3FFCAA 
 164      C661F2BE 
 164      EFF418
 165 022c 8D869368 		.ascii	"\215\206\223h\037&\241\325\017\276\261\303+\177\305"
 165      1F26A1D5 
 165      0FBEB1C3 
 165      2B7FC5
 166 023b B4EBED1F 		.ascii	"\264\353\355\037]\262\233\264\357,\332\261$\264\223"
 166      5DB29BB4 
 166      EF2CDAB1 
 166      24B493
 167 024a AF5D78E4 		.ascii	"\257]x\344\224k\230\366\372\331\355i&\353\276\305:\236"
 167      946B98F6 
 167      FAD9ED69 
 167      26EBBEC5 
 167      3A9E
 168 025c 8475EED0 		.ascii	"\204u\356\320\370k \177\315\254\266\207[\363L\326=\213"
 168      F86B207F 
 168      CDACB687 
 168      5BF34CD6 
 168      3D8B
 169 026e 7532096B 		.ascii	"u2\011k\264\351\311N\237^e\340g\016\264\302|8\201\337"
 169      B4E9C94E 
 169      9F5E65E0 
ARM GAS  C:\Users\gjl\AppData\Local\Temp\ccjfJ1RV.s 			page 13


 169      670EB4C2 
 169      7C3881DF 
 170 0282 16FC36E3 		.ascii	"\026\3746\343\367(\314'+\242\007O\201\216\033\3346\001"
 170      F728CC27 
 170      2BA2074F 
 170      818E1BDC 
 170      3601
 171 0294 81A30DBF 		.ascii	"\201\243\015\277l7\"\221\220\321~W?}\325\215E!\000N"
 171      6C372291 
 171      90D17E57 
 171      3F7DD58D 
 171      4521004E 
 172 02a8 8110C957 		.ascii	"\201\020\311W\224\036\241v\276\352|u`A\204\007\310}"
 172      941EA176 
 172      BEEA7C75 
 172      60418407 
 172      C87D
 173 02ba 3E202BF9 		.ascii	"> +\371\261\303\036`f\020\310\037\251|\237\006T\360"
 173      B1C31E60 
 173      6610C81F 
 173      A97C9F06 
 173      54F0
 174 02cc 0C1ACCE4 		.ascii	"\014\032\314\344\216,\274\325\263\251=\203\003\315\344"
 174      8E2CBCD5 
 174      B3A93D83 
 174      03CDE4
 175 02db 0972F83A 		.ascii	"\011r\370:\213\306f\323\330\\\272\344r\347<\352\314"
 175      8BC666D3 
 175      D85CBAE4 
 175      72E73CEA 
 175      CC
 176 02ec A3F6026E 		.ascii	"\243\366\002n\347S\373\031j/\244\313\"\356\\L\235K\250"
 176      E753FB19 
 176      6A2FA4CB 
 176      22EE5C4C 
 176      9D4BA8
 177 02ff 5D00E492 		.ascii	"]\000\344\222B\216]$(\273b\276_N\210\025\204X\311\355"
 177      428E5D24 
 177      28BB62BE 
 177      5F4E8815 
 177      8458C9ED 
 178 0313 126AAFA2 		.ascii	"\022j\257\242\366jJE\210;\250\320\035]\2045\015\177"
 178      F66A4A45 
 178      883BA8D0 
 178      1D5D8435 
 178      0D7F
 179 0325 E42854B6 		.ascii	"\344(T\266?\354\364\261b\210\246\375X\335\321\347\240"
 179      3FECF4B1 
 179      6288A6FD 
 179      58DDD1E7 
 179      A0
 180 0336 AD8A4726 		.ascii	"\255\212G&\264\241#o@\345\275\306k\313\010\022?,\271"
 180      B4A1236F 
 180      40E5BDC6 
 180      6BCB0812 
 180      3F2CB9
 181 0349 740FBABA 		.ascii	"t\017\272\272\267zk\341-\264\262#$=\320\216\004\266"
ARM GAS  C:\Users\gjl\AppData\Local\Temp\ccjfJ1RV.s 			page 14


 181      B77A6BE1 
 181      2DB4B223 
 181      243DD08E 
 181      04B6
 182 035b E0B5CA77 		.ascii	"\340\265\312w\035K\227P\224\323P\013O\250,\002:`)\207"
 182      1D4B9750 
 182      94D3500B 
 182      4FA82C02 
 182      3A602987 
 183 036f A45977BF 		.ascii	"\244Yw\277\252fm\345Y\217\276\332\323\344V\263\002|"
 183      AA666DE5 
 183      598FBEDA 
 183      D3E456B3 
 183      027C
 184 0381 84909B50 		.ascii	"\204\220\233P\325\376\267\256\024\202\204\244\037\021"
 184      D5FEB7AE 
 184      148284A4 
 184      1F11
 185 038f 2D2D6397 		.ascii	"--c\227\035\233\036\033[\015#P-\235\021\215\216\360"
 185      1D9B1E1B 
 185      5B0D2350 
 185      2D9D118D 
 185      8EF0
 186 03a1 33B04984 		.ascii	"3\260I\204\244\257Z\272p\231\241][\006A\021\002\310"
 186      A4AF5ABA 
 186      7099A15D 
 186      5B064111 
 186      02C8
 187 03b3 E130A3A0 		.ascii	"\3410\243\240Eg\301^1\002U\227C\315\257\353\012\025"
 187      4567C15E 
 187      31025597 
 187      43CDAFEB 
 187      0A15
 188 03c5 8CCFC786 		.ascii	"\214\317\307\206\351\236\005\345\264\260&\305\230]r"
 188      E99E05E5 
 188      B4B026C5 
 188      985D72
 189 03d4 C8FB7B4B 		.ascii	"\310\373{K\024:U\255\343d\355\266:s\245\032t&N\221\312"
 189      143A55AD 
 189      E364EDB6 
 189      3A73A51A 
 189      74264E91 
 190 03e9 6C9B29AD 		.ascii	"l\233)\255\362I\010\245\242tj\243\351dL\225N\027\247"
 190      F24908A5 
 190      A2746AA3 
 190      E9644C95 
 190      4E17A7
 191 03fc 9336299D 		.ascii	"\2236)\235L\014\201\264\211Se\262\214G\273T\027\331"
 191      4C0C81B4 
 191      895365B2 
 191      8C47BB54 
 191      17D9
 192 040e DCACD6F1 		.ascii	"\334\254\326\361\360\255\035vE\314\232N\211t8\307%\242"
 192      F0AD1D76 
 192      45CC9A4E 
 192      897438C7 
 192      25A2
ARM GAS  C:\Users\gjl\AppData\Local\Temp\ccjfJ1RV.s 			page 15


 193 0420 47249C87 		.ascii	"G$\234\207\245\034\303\2349;^\"=\261\344n\234\001\272"
 193      A51CC39C 
 193      393B5E22 
 193      3DB1E46E 
 193      9C01BA
 194 0433 CD78FFD8 		.ascii	"\315x\377\330s\354n\312\322#\224\216\007.pD\336\214"
 194      73EC6ECA 
 194      D223948E 
 194      072E7044 
 194      DE8C
 195 0445 3D181175 		.ascii	"=\030\021u\357\015=\025K&\233D\036\007\314)\240\365"
 195      EF0D3D15 
 195      4B269B44 
 195      1E07CC29 
 195      A0F5
 196 0457 B4AC43D9 		.ascii	"\264\254C\331\344X\313\357Q8\2738&\331\223'\272d4-\202"
 196      E458CBEF 
 196      5138BB38 
 196      26D99327 
 196      BA64342D 
 197 046c A31A7BB6 		.ascii	"\243\032{\266\214?\255\002\314\304\036\225\276faf\022"
 197      8C3FAD02 
 197      CCC41E95 
 197      BE666166 
 197      12
 198 047d A671CBF7 		.ascii	"\246q\313\367&&\007{pMg#\017\332\375\264t;b?\216+\026"
 198      2626077B 
 198      704D6723 
 198      0FDAFDB4 
 198      743B623F 
 199 0494 7372B858 		.ascii	"sr\270X\272U,\356\325\270X\303]\254\200\230T*o\204\322"
 199      BA552CEE 
 199      D5B858C3 
 199      5DAC8098 
 199      542A6F84 
 200 04a9 825E2E95 		.ascii	"\202^.\225\247Z\372X\256\246\007a\227\232y\326\364$"
 200      A75AFA58 
 200      AEA60761 
 200      979A79D6 
 200      F424
 201 04bb EFB324BF 		.ascii	"\357\263$\277hJ\276\337\253\"\314\216\213\260\231\216"
 201      684ABEDF 
 201      AB22CC8E 
 201      8BB0998E 
 202 04cb BA5A10AC 		.ascii	"\272Z\020\254\365\254IZo\307\321e\244w?\207\243\375"
 202      F5AC495A 
 202      6FC7D165 
 202      A4773F87 
 202      A3FD
 203 04dd 0D9F60B8 		.ascii	"\015\237`\270\233\220\255b\315\235\264\376\224\010\301"
 203      9B90AD62 
 203      CD9DB4FE 
 203      9408C1
 204 04ec 6040AD9F 		.ascii	"`@\255\237<\203)\343\244\274\215\374\312w\213\0259\227"
 204      3C8329E3 
 204      A4BC8DFC 
 204      CA778B15 
ARM GAS  C:\Users\gjl\AppData\Local\Temp\ccjfJ1RV.s 			page 16


 204      3997
 205 04fe 47E64E14 		.ascii	"G\346N\024-Wm\242\266\277D7Qt\327\214#\012\243\331\352"
 205      2D576DA2 
 205      B6BF4437 
 205      5174D78C 
 205      230AA3D9 
 206 0513 4FA4A3B4 		.ascii	"O\244\243\264\366G'rP\\\207\270a\223\354\311GM\246@"
 206      F6472772 
 206      505C87B8 
 206      6193ECC9 
 206      474DA640 
 207 0527 F3A627D0 		.ascii	"\363\246'\320\240%\320\220)\320\210\246\"\344%\012\264"
 207      A025D090 
 207      29D088A6 
 207      22E4250A 
 207      B4
 208 0538 DB14685E 		.ascii	"\333\024h^R\201<$\320%K\240\177Y\002M./\312cC\314\277"
 208      52813C24 
 208      D0254BA0 
 208      7F59024D 
 208      2E2FCA63 
 209 054f E3E5411D 		.ascii	"\343\345A\035\3620\321\230<\227j\315J-\300\261\011\307"
 209      F230D198 
 209      3C976ACD 
 209      4A2DC0B1 
 209      09C7
 210 0561 0C2BB480 		.ascii	"\014+\264\200m\345L\260\225T>y\022\365I\376\364d\030"
 210      6DE54CB0 
 210      95543E79 
 210      12F549FE 
 210      F46418
 211 0574 B664F834 		.ascii	"\266d\3704\301'\317L\345\223\374\251}r\331\222\341J"
 211      C127CF4C 
 211      E593FCA9 
 211      7D72D992 
 211      E14A
 212 0586 BC4F164E 		.ascii	"\274O\026N\345\223\317\342\205\2208)\237O\023}\262\210"
 212      E593CFE2 
 212      85903829 
 212      9F4F137D 
 212      B288
 213 0598 47164E54 		.ascii	"G\026NTa\221\3127\022\366(\320\342\351\345{\325\312"
 213      6191CA37 
 213      12F628D0 
 213      E2E9E57B 
 213      D5CA
 214 05aa F73FD17C 		.ascii	"\367?\321|\323U\204%\211\371\266\231\371.N\232\357/"
 214      D3558425 
 214      89F9B699 
 214      F92E4E9A 
 214      EF2F
 215 05bc 28DFCFAD 		.ascii	"(\337\317\255|G8\337=\306E\207\012W\230,e;\002GU\312"
 215      7C4738DF 
 215      3DC64587 
 215      0A57982C 
 215      653B0247 
 216 05d2 9CD71295 		.ascii	"\234\327\022\225x\001\245\034M\257\231\322+$\303c\326"
ARM GAS  C:\Users\gjl\AppData\Local\Temp\ccjfJ1RV.s 			page 17


 216      7801A51C 
 216      4DAF99D2 
 216      2B24C363 
 216      D6
 217 05e3 B9FA582B 		.ascii	"\271\372X+\372}\201\243\276-\033\253\356\022\373\272"
 217      FA7D81A3 
 217      BE2D1BAB 
 217      EE12FBBA 
 218 05f3 84C4A119 		.ascii	"\204\304\241\031!Y\234Y?T\021\222\2664<\347\354A\300"
 218      21599C59 
 218      3F541192 
 218      B6343CE7 
 218      EC41C0
 219 0606 51B7C017 		.ascii	"Q\267\300\027nP\246h\241(6>kvv\373\324\222\212&-)\020"
 219      6E50A668 
 219      A128363E 
 219      6B7676FB 
 219      D4928A26 
 220 061d C1F349C0 		.ascii	"\301\363I\300\027\321\323&\030[\305Q\342\027\321f\374"
 220      17D1D326 
 220      185BC551 
 220      E217D166 
 220      FC
 221 062e 34D45093 		.ascii	"4\324P\223m\005\030\270\261\277\312\253\316\274\213"
 221      6D0518B8 
 221      B1BFCAAB 
 221      CEBC8B
 222 063d 02AE4537 		.ascii	"\002\256E7\247-$g\270\200\322q\3664\277\204\213\361"
 222      A72D2467 
 222      B880D271 
 222      F634BF84 
 222      8BF1
 223 064f 880EA91E 		.ascii	"\210\016\251\036q7\016?\247\350\253qE\354g2\260W\340"
 223      71370E3F 
 223      A7E8AB71 
 223      45EC6732 
 223      B057E0
 224 0662 BF2792E3 		.ascii	"\277'\222\3437\327<m\305\037>n\264\202\212? \340z\354"
 224      37D73C6D 
 224      C51F3E6E 
 224      B4828A3F 
 224      20E07AEC 
 225 0676 91E9E3D4 		.ascii	"\221\351\343\324\031\337\232n\301\317\2144\324\233\360"
 225      19DF9A6E 
 225      C1CF8C34 
 225      D49BF0
 226 0685 7E013762 		.ascii	"~\0017b\360\024q\250X\241\337\226\026\372\\\303\033"
 226      F01471A8 
 226      58A1DF96 
 226      16FA5CC3 
 226      1B
 227 0696 57CDC50F 		.ascii	"W\315\305\017\012\3702\206\366\213\303\271j\261\275"
 227      0AF83286 
 227      F68BC3B9 
 227      6AB1BD
 228 06a5 753F56F0 		.ascii	"u?V\360\225\321\305F\025aEW\222\"}\241oj\314\247M!u"
 228      95D1C546 
ARM GAS  C:\Users\gjl\AppData\Local\Temp\ccjfJ1RV.s 			page 18


 228      15614557 
 228      92227DA1 
 228      6F6ACCA7 
 229 06bc A9180151 		.ascii	"\251\030\001Q\023\344\207Ks\2677J\340g&\015\006i\202"
 229      13E4874B 
 229      73B7374A 
 229      E067260D 
 229      066982
 230 06cf B8CAD895 		.ascii	"\270\312\330\225}{G\315\355Z2=\373\336\264\354\373U"
 230      7D7B47CD 
 230      ED5A323D 
 230      FBDEB4EC 
 230      FB55
 231 06e1 F4D432D3 		.ascii	"\364\3242\323[\225h\337\267L\373\226$\265\257\237\354"
 231      5B9568DF 
 231      B74CFB96 
 231      24B5AF9F 
 231      EC
 232 06f2 FBB565DF 		.ascii	"\373\265e\337o\376\317\251E\316\035\213s\356*\314\301"
 232      6FFECFA9 
 232      45CE1D8B 
 232      73EE2ACC 
 232      C1
 233 0703 342E561F 		.ascii	"4.V\037oW\372\367\016TP\276\201\223\003/`\306\251\342"
 233      6F57FAF7 
 233      0E5450BE 
 233      8193032F 
 233      60C6A9E2 
 234 0717 BB3C5580 		.ascii	"\273<U\200\037\342\313[\267\257\373\224CU\340\023\001"
 234      1FE2CB5B 
 234      B7AFFB94 
 234      4355E013 
 234      01
 235 0728 B7621548 		.ascii	"\267b\025H\023=OM\256\327\310\301\277\326\270\024zH"
 235      133D4F4D 
 235      AED7C8C1 
 235      BFD6B814 
 235      7A48
 236 073a C0ED183A 		.ascii	"\300\355\030:]\\\017*\364\201\235f%\350\377\300\206"
 236      5D5C0F2A 
 236      F4819D66 
 236      25E8FFC0 
 236      86
 237 074b B196873E 		.ascii	"\261\226\207>\005\027\360\337\030:C\214;\2712\003Ve"
 237      0517F0DF 
 237      183A438C 
 237      3BB93203 
 237      5665
 238 075d 788BE158 		.ascii	"x\213\341X&E\212+\214n\236\301\357\2306(\306.r}\350"
 238      26458A2B 
 238      8C6E9EC1 
 238      EF983628 
 238      C62E727D 
 239 0772 4C9F54AF 		.ascii	"L\237T\257e\021\200;\211\266(V/FC\321r.\237^9\303V9"
 239      6511803B 
 239      89B62856 
 239      2F4643D1 
ARM GAS  C:\Users\gjl\AppData\Local\Temp\ccjfJ1RV.s 			page 19


 239      722E9F5E 
 240 078a C713CAB9 		.ascii	"\307\023\312\271b\252r.\237\272\234w\255r\336\233F9"
 240      62AA722E 
 240      9FBA9C77 
 240      AD72DE9B 
 240      4639
 241 079c BF8D2BE7 		.ascii	"\277\215+\347\012\3164ZN\2223\035\217\225\302\214\275"
 241      0ACE345A 
 241      4E92331D 
 241      8F95C28C 
 241      BD
 242 07ad 4354CB2C 		.ascii	"CT\313,z\330|M\"\205\244\203\267;f\264\332\323\323\377"
 242      7AD87C4D 
 242      2285A483 
 242      B73B66B4 
 242      DAD3D3FF 
 243 07c1 0A15DC3B 		.ascii	"\012\025\334;6\264\016\337\373\001A\370\3522\273"
 243      36B40EDF 
 243      FB0141F8 
 243      EA32BB
 244 07d0 A0600DFE 		.ascii	"\240`\015\376m,Y[\264\246\264|C)\336\275R\362\374\357"
 244      6D2C595B 
 244      B4A6B47C 
 244      4329DEBD 
 244      52F2FCEF 
 245 07e4 CACACB7F 		.ascii	"\312\312\313\177\263\266\254\240T\330\250\255W\274X"
 245      B3B6ACA0 
 245      54D8A8AD 
 245      57BC58
 246 07f3 F152D932 		.ascii	"\361R\3312\365S\244~\212\035\277\335XQ\361\362\372r"
 246      F553A47E 
 246      8A1DBFDD 
 246      5851F1F2 
 246      FA72
 247 0805 7BD91FCA 		.ascii	"{\331\037\312\326W\270U\353\371\322\365\025z\351\306"
 247      D657B855 
 247      EBF9D2F5 
 247      157AE9C6 
 248 0815 0DE52F6F 		.ascii	"\015\345/o\200?\352\353\312^\\\273\256\342\177\177\217"
 248      803FEAEB 
 248      CA5E5CBB 
 248      AEE27F7F 
 248      8F
 249 0826 1AC8     		.ascii	"\032\310"
 250              		.text
 251              		.section	.gnu.lto_.symbol_nodes.1a3fb18,"",%progbits
 252 0000 789C55CF 		.ascii	"x\234U\317;\012\002A\020\004\320\352\355\231\375\340"
 252      3B0A0241 
 252      1004D0EA 
 252      ED99FDE0 
 253 0010 0D4CD454 		.ascii	"\015L\324TC\017\330\033\010\006\202\032\351\005\366"
 253      430FD81B 
 253      0806821A 
 253      E905F6
 254 001f 1482894C 		.ascii	"\024\202\211Ll\260&\202\201\272(\"\010z\000\177\323"
 254      6CB02682 
 254      81BA2822 
ARM GAS  C:\Users\gjl\AppData\Local\Temp\ccjfJ1RV.s 			page 20


 254      087A007F 
 254      D3
 255 0030 1B881355 		.ascii	"\033\210\023U\275\202\016\332\200\320%\000\021\004\230"
 255      BD820EDA 
 255      80D02500 
 255      110498
 256 003f AEA1B1C8 		.ascii	"\256\241\261\310;~ \241` +Q=\000y\336\366f\341\300F"
 256      3B7E20A1 
 256      60202B51 
 256      3D0079DE 
 256      F666E1C0 
 257 0054 4CE0486C 		.ascii	"L\340Hl\340L\342\300\211$\201SI\003\307\222\375\233"
 257      E04CE2C0 
 257      89248153 
 257      4903C792 
 257      FD9B
 258 0066 61511CDE 		.ascii	"aQ\034\336\304\276\025\257{\217a\340\352\364.?K\313"
 258      C4BE15AF 
 258      7B8F61E0 
 258      EAF42E3F 
 258      4BCB
 259 0078 FE09F72B 		.ascii	"\376\011\367+\033-d18\372\023\315\341\255\305\224\301"
 259      1B2D6431 
 259      38FA13CD 
 259      E1ADC594 
 259      C1
 260 0089 8D351314 		.ascii	"\2155\023\024\023\315\024\247\362\331T\273\231\032\250"
 260      13CD14A7 
 260      F2D954BB 
 260      991AA8
 261 0098 E69A3106 		.ascii	"\346\2321\006\273\363\325\326C\365\330\367\265\254."
 261      BBF3D5D6 
 261      43F5D8F7 
 261      B5AC2E
 262 00a7 DB51035F 		.ascii	"\333Q\003_\035\325MA"
 262      1DD54D41 
 263              		.text
 264              		.section	.gnu.lto_.refs.1a3fb18,"",%progbits
 265 0000 789C6361 		.ascii	"x\234ca`\004B \000\000\0009\000\007"
 265      60044220 
 265      00000039 
 265      0007
 266              		.text
 267              		.section	.gnu.lto_.decls.1a3fb18,"",%progbits
 268 0000 789CBD58 		.ascii	"x\234\275X{T\024\327\031\337;w\201eY \242&\266\3454"
 268      7B5414D7 
 268      19DF3B77 
 268      81655920 
 268      A226B6E5 
 269 0015 9E1CABB4 		.ascii	"\236\034\253\264M\214\3064\307\323s\332\246'i^'\217"
 269      4D8CC634 
 269      C7D373DA 
 269      A627695E 
 269      278F
 270 0027 9E939AF6 		.ascii	"\236\223\232\366\017\232\355\262\014\260\025\026\272"
 270      0F9AEDB2 
 270      0CB01516 
ARM GAS  C:\Users\gjl\AppData\Local\Temp\ccjfJ1RV.s 			page 21


 270      BA
 271 0034 3BF8481F 		.ascii	";\370H\037Y\021\321HTP\202\002\342\373\205\240\" \006"
 271      5911D148 
 271      54508202 
 271      E2FB85A0 
 271      222006
 272 0047 455941F1 		.ascii	"EYA\361\001(\202 (\010\342\013\037(\010\202\012H\277"
 272      01288220 
 272      2808E20B 
 272      1F280882 
 272      0A48BF
 273 005a 7BEFCCCE 		.ascii	"{\357\314\316\214\016i\377h:\207\217\231\357\273\277"
 273      8C0E69FF 
 273      683A878F 
 273      99EFBBBF 
 274 006a FBBDEFBD 		.ascii	"\373\275\357\2753\253\327!\035\271~\366#\235\356\252"
 274      33ABD721 
 274      1DB97EF6 
 274      239DEEAA 
 275 007a 5EA78B06 		.ascii	"^\247\213\006v\004.\014\262\317\200@\244\333\003t\000"
 275      76042E0C 
 275      B2CF8040 
 275      A4DB0374 
 275      00
 276 008b E820D021 		.ascii	"\350 \320!\035\273\214@\237\000\366\217@\237\003Y\201"
 276      1DBB8C40 
 276      9F00F68F 
 276      409F0359 
 276      81
 277 009c A2109B1F 		.ascii	"\242\020\233\037\007\344\000\022\200\346!\3353\027\231"
 277      07E40012 
 277      80E621DD 
 277      331799
 278 00ab 3746D41B 		.ascii	"7F\324\033\0044\016\350\327\210\351\016\006\232\017"
 278      04340EE8 
 278      D788E90E 
 278      069A0F
 279 00ba CFB381BE 		.ascii	"\317\263\201\276\000\012\003\372;P$\320o\200\376\001"
 279      000A03FA 
 279      3B5024D0 
 279      6F80FE01 
 280 00ca F46724FB 		.ascii	"\364g$\373C\324\377\034\376y\211z\243\025\276|\256a"
 280      43D4FF1C 
 280      FE79897A 
 280      A315BE7C 
 280      AE61
 281 00dc 9BF81BF4 		.ascii	"\233\370\033\364\035\266\177\"\332\221|\230\004\324"
 281      1DB67F22 
 281      DA917C98 
 281      04D4
 282 00ea 06F27FC2 		.ascii	"\006\362\177\302}.\320\277\200>\006\372\022(\026\261"
 282      7D2ED0BF 
 282      803E06FA 
 282      122816B1 
 283 00fa FC10FBEF 		.ascii	"\374\020\373\357\003\371\003M\004\362\021\355D\213\361"
 283      03F9034D 
 283      04F211ED 
ARM GAS  C:\Users\gjl\AppData\Local\Temp\ccjfJ1RV.s 			page 22


 283      448BF1
 284 0109 4BB9F844 		.ascii	"K\271\370D\314\315\323\3270\207\366,\272\232c\350\343"
 284      CCCDD3D7 
 284      3087F62C 
 284      BA9A63E8 
 284      E3
 285 011a 50B0118D 		.ascii	"P\260\021\215 \302\337)y\344\317x2\334\366h\307;S\363"
 285      20C2DF29 
 285      79E4CF78 
 285      32DCF668 
 285      C73B53F3 
 286 012e 5C70A5B8 		.ascii	"\\p\245\270\\\034'\317+r\367\356\322c?\002\342\316\026"
 286      5C1C27CF 
 286      2B72F7EE 
 286      D2633F02 
 286      E2CE16
 287 0141 361FF345 		.ascii	"6\037\363E!\306m\004\327~\261\357\267\013].\204\362"
 287      21C66D04 
 287      D77EB1EF 
 287      B70B5D2E 
 287      84F2
 288 0153 9011ED44 		.ascii	"\220\021\355D\030\345\240\251$]\301\244pK\\\256\004"
 288      18E5A0A9 
 288      245DC1A4 
 288      704B5CAE 
 288      04
 289 0164 57F72697 		.ascii	"W\367&\227\367\004\035\232\021\214\246\005\353P.\012"
 289      F7041D9A 
 289      118CA605 
 289      EB502E0A 
 290 0174 21C6080A 		.ascii	"!\306\010\012\355@\301h;\012&\372s\326\3578\352\217"
 290      ED40C168 
 290      3B0A26FA 
 290      73D6EF38 
 290      EA8F
 291 0186 D7206AA0 		.ascii	"\327 j\240+\355\366\022\3541\220\232\034\234\353r=\207"
 291      2BEDF612 
 291      EC31909A 
 291      1C9CEB72 
 291      3D87
 292 0198 F680815D 		.ascii	"\366\200\201]\262\001\260\247ma\267\206\0052\031\254"
 292      B201B0A7 
 292      6D61B786 
 292      053219AC 
 293 01a8 9C4DCC5F 		.ascii	"\234M\314_\213!\332 #\322\003\333S\223y%\000\330qF4"
 293      8B21DA20 
 293      23D203DB 
 293      53937925 
 293      00D87146 
 294 01bd 11D87DD9 		.ascii	"\021\330}\331\215\353\374\214Kh\364\013]A'\002\010n"
 294      8DEBFC8C 
 294      4B68F40B 
 294      5D412702 
 294      086E
 295 01cf 2F68C807 		.ascii	"/h\310\007\015:T@\014\242W\251\021@\037\033\031p\007"
 295      0D3A5440 
 295      0CA257A9 
ARM GAS  C:\Users\gjl\AppData\Local\Temp\ccjfJ1RV.s 			page 23


 295      11401F1B 
 295      197007
 296 01e2 325D1CB0 		.ascii	"2]\034\260u\335\325\331~L\327s\3006<<\364\330\204Ws"
 296      75DDD5D9 
 296      7E4CD773 
 296      C0363C3C 
 296      F4D88457 
 297 01f7 241E7D61 		.ascii	"$\036}aB\333\306\000\024\022\214@\027bQ\221\364\352"
 297      42DBC600 
 297      14128C40 
 297      17625191 
 297      F4EA
 298 0209 500984B4 		.ascii	"P\011\204\264\017a\251>\231.0\336\375%\021\303\263\201"
 298      0F61A93E 
 298      992E30DE 
 298      FD2511C3 
 298      B381
 299 021b DE35022C 		.ascii	"\3365\002,\206\000K\2503\337\202\302\375,\201M\003m"
 299      86004BA8 
 299      33DF82C2 
 299      FD2C814D 
 299      036D
 300 022d 03FE4129 		.ascii	"\003\376A)T\267\333\365&\242\272\213`\274\220:\177\000"
 300      54B7DBF5 
 300      26A2BA8B 
 300      60BC903A 
 300      7F00
 301 023f 05492150 		.ascii	"\005I!P\006f\224g\326v\032LK\211~1\\\220+\342=\210L"
 301      06669467 
 301      D6761A4C 
 301      4B897E31 
 301      5C902BE2 
 302 0256 C4297207 		.ascii	"\304)r\007\364\205\343\325\211\336F\321\233\224\377"
 302      F485E3D5 
 302      89DE46D1 
 302      9B94FF
 303 0265 E4CDEDDC 		.ascii	"\344\315\355\334\353\215\001*\335\245H\231\313C\242"
 303      EB8D012A 
 303      DDA54899 
 303      CB43A2
 304 0274 EE435477 		.ascii	"\356CTwmb\345~\303E\324\214 ]b\333\"\304\376#J:F\224"
 304      6D62E57E 
 304      C345D48C 
 304      205D62DB 
 304      22C4FE23 
 305 028c 85078EFE 		.ascii	"\205\007\216\376\327yD\236\233\216\374\3271<\225\311"
 305      D779449E 
 305      9B8EFCD7 
 305      313C95C9 
 306 029c CAE89F74 		.ascii	"\312\350\237t\037\221.\252D\326\216\304I\310\343\001"
 306      1F912EAA 
 306      44D68EC4 
 306      49C8E301 
 307 02ac 9BC5C639 		.ascii	"\233\305\3069I+\273q\362\004\205>\346\256\302'\244\216"
 307      492BBB71 
 307      F204853E 
 307      E6AEC227 
ARM GAS  C:\Users\gjl\AppData\Local\Temp\ccjfJ1RV.s 			page 24


 307      A48E
 308 02be 09492BEA 		.ascii	"\011I+\352\332\375E\251\030\257\245\035\202NVT%`=\307"
 308      DAFD45A9 
 308      18AFA51D 
 308      824E5654 
 308      25603DC7 
 309 02d2 3282C2F4 		.ascii	"2\202\302\364D\226\335u\271\312\213\312H\347\273\021"
 309      4496DD75 
 309      B9CA8BCA 
 309      48E7BB11 
 310 02e2 156EAFBB 		.ascii	"\025n\257\273\025\354\221\035a\262\241\366\216\006\275"
 310      15EC911D 
 310      61B2A1F6 
 310      8E06BD
 311 02f1 4758CE84 		.ascii	"GX\316\204Y\275\2557}Y{\206\000\273\343\372\332\345"
 311      59BDAD37 
 311      7D597B86 
 311      00BBE3FA 
 311      DAE5
 312 0303 26D69E33 		.ascii	"&\326\2363\025\235\037\304:\337\325\231\270\236\303"
 312      159D1FC4 
 312      3ADFD599 
 312      B89EC3
 313 0312 05CC9783 		.ascii	"\005\314\227\203\373K+\275\030t\032\260e\235\251e\006"
 313      FB4B2BBD 
 313      18741AB0 
 313      659DA965 
 313      06
 314 0323 7C848D49 		.ascii	"|\204\215IZ\3071\255\265\333\273\316\007\340f6\326\271"
 314      5AC731AD 
 314      B5DBBBCE 
 314      07E06636 
 314      D6B9
 315 0335 A1ACC040 		.ascii	"\241\254\300@V\027a\356&^k\027\227\303\004`\277q\257"
 315      561761EE 
 315      265E6B17 
 315      97C30460 
 315      BF71AF
 316 0348 1C326217 		.ascii	"\0342b\027f\301\226tL\303\311\354\271\277\352\\+\306"
 316      66C19674 
 316      4CC3C9EC 
 316      B9BFEA5C 
 316      2BC6
 317 035a 998C5951 		.ascii	"\231\214YQ~\250\302\200\267a\225\206 \246\241\262\345"
 317      7EA8C280 
 317      B7619586 
 317      20A6A1B2 
 317      E5
 318 036b 42831E17 		.ascii	"B\203\036\027\260\261\005\207*\012\375\361q\306\014"
 318      B0B10587 
 318      2A0AFDF1 
 318      71C60C
 319 037a 17165620 		.ascii	"\027\026V \\\313\230\255\217\007\273\211\017\223a\177"
 319      5CCB98AD 
 319      8F07BB89 
 319      0F93617F 
 320 038a 1BC18A0D 		.ascii	"\033\301\212\015n2\333\340\312\252Nn3\341f\012\346\266"
ARM GAS  C:\Users\gjl\AppData\Local\Temp\ccjfJ1RV.s 			page 25


 320      6E32DBE0 
 320      CAAA4E6E 
 320      33E1660A 
 320      E6B6
 321 039c B81316C1 		.ascii	"\270\023\026\301\202\014\241]\355Z\3502\356\010\320"
 321      820CA15D 
 321      ED5AE832 
 321      EE08D0
 322 03ab 79D60CBA 		.ascii	"y\326\014\272\000\215=Y\334G\316\203\260\021\204\342"
 322      008D3D59 
 322      DC47CE83 
 322      B01184E2 
 323 03bb 9677E703 		.ascii	"\226w\347\003\272\3455C\272\233\344\035i\262\221U\366"
 323      BAE53543 
 323      BA9BE41D 
 323      69B29155 
 323      F6
 324 03cc 70EAC5EB 		.ascii	"p\352\305\353F|\225\331\310\351\256\316\013\034\325"
 324      467C95D9 
 324      C8E9AECE 
 324      0B1CD5
 325 03db 46EBA836 		.ascii	"F\353\2506R\223'\347\221]\257\005l\\\224m4#\321\310"
 325      529327E7 
 325      915DAF05 
 325      6C5C946D 
 325      3423D1C8 
 326 03ef F5A5393D 		.ascii	"\365\2459=&\334\305\242\316n\350H\361\325Z\234Z{!\340"
 326      26DCC5A2 
 326      CE6EE848 
 326      F1D55A9C 
 326      5A7B21E0 
 327 0403 6FB6EC1F 		.ascii	"o\266\354\0372\251\226g\233jy\266\263\345\251\330\326"
 327      32A99667 
 327      9B6A79B6 
 327      B3E5A9D8 
 327      D6
 328 0414 82D8B6D6 		.ascii	"\202\330\266\326\261w\340\216\001\337gVw\347\015\346"
 328      B177E08E 
 328      01DF6756 
 328      77E70DE6 
 329 0424 1B69DFCD 		.ascii	"\033i\337\315\222z\366b\322\366*?O+^a\255\330\320t\251"
 329      927AF662 
 329      D2F62A3F 
 329      4F2B5E61 
 329      ADD8D074 
 330 0439 C1D723BC 		.ascii	"\301\327#\274\312\204\213GZ\217\032p\242\236jJ\334\276"
 330      CA848B47 
 330      5A8F1A70 
 330      A29E6A4A 
 330      DCBE
 331 044b 2CCB1FA7 		.ascii	",\313\037\2470&\363`\337)/f\322\000\354\362\214\373"
 331      3026F360 
 331      DF292F66 
 331      D200ECF2 
 331      8CFB
 332 045d 077DF01A 		.ascii	"\007}\360\0326V\357\336\220\345\213\3273\346J\321\300"
 332      3656EFDE 
ARM GAS  C:\Users\gjl\AppData\Local\Temp\ccjfJ1RV.s 			page 26


 332      90E58BD7 
 332      33E64AD1 
 332      C0
 333 046e 167FBC93 		.ascii	"\026\177\274\2231\227\357\035\312\360\361\030a\336\354"
 333      3197EF1D 
 333      CAF0F118 
 333      61DEEC
 334 047d AB5BDFE6 		.ascii	"\253[\337\346\203\013\030\340\361\231\301\003\010\227"
 334      830B18E0 
 334      F199C103 
 334      0897
 335 048b 31E6EBFA 		.ascii	"1\346\353\372\342\031\270\232=\34754\015#\334\304\230"
 335      E219B89A 
 335      3DE73534 
 335      0D23DCC4 
 335      98
 336 049c 9A27DD87 		.ascii	"\232'\335\2071\276\305\230]\355I\365^x\2201\333\206"
 336      31BEC598 
 336      5DED49F5 
 336      5E789031 
 336      DB86
 337 04ae 361699F0 		.ascii	"6\026\231\360b/\312T\016\034\332\354\205W2fi\362\316"
 337      622FCA54 
 337      0E1CDAEC 
 337      85573266 
 337      69F2CE
 338 04c1 8D01783B 		.ascii	"\215\001x;c\026}\235[\212\361\001\306\324\266\025<\360"
 338      63167D9D 
 338      5B8AF101 
 338      C6D4B615 
 338      3CF0
 339 04d3 C66718D3 		.ascii	"\306g\030\323v)\365\257\270\211=\267\236\310\311%m:"
 339      7629F5AF 
 339      B8893DB7 
 339      9EC8C925 
 339      6D3A
 340 04e5 85B4E9C8 		.ascii	"\205\264\351\310H\240\242Q\247\260F\255[q\177\213\017"
 340      48A0A251 
 340      A7B046AD 
 340      5B717F8B 
 340      0F
 341 04f6 BE46E15C 		.ascii	"\276F\341\\\345\262\302\002?\371\304\335b*!\2551\014"
 341      E5B2C202 
 341      3FF9C4DD 
 341      622A21AD 
 341      310C
 342 0508 810ECAAD 		.ascii	"\201\016\312\2551\305s\036\262\232\352<\005EC\320\006"
 342      31C5731E 
 342      B29AEA3C 
 342      054543D0 
 342      06
 343 0519 53C43678 		.ascii	"S\3046x\014\302G\342\241\273%u\2237\356f62\212v\016"
 343      0CC247E2 
 343      A1BB2575 
 343      9337EE66 
 343      36328A76 
 344 052e 181587EE 		.ascii	"\030\025\207\356\353\264\375\\\234\021=\221m\014\243"
ARM GAS  C:\Users\gjl\AppData\Local\Temp\ccjfJ1RV.s 			page 27


 344      EBB4FD5C 
 344      9C113D91 
 344      6D0CA3
 345 053d D18D8C68 		.ascii	"\321\215\214h\033\271}\256.\325\013?bq\017\027,>\250"
 345      1BB97DAE 
 345      2ED50B3F 
 345      62710F17 
 345      2C3EA8
 346 0550 C75F7B53 		.ascii	"\307_{S\346\306\211G}~x\035c\036\227'\224 \274\2271"
 346      E6C68947 
 346      7D7E781D 
 346      631E9727 
 346      9420BC97 
 347 0565 C5E58FAA 		.ascii	"\305\345\217\252\275p%c\356&\344nA\270\2151\265\337"
 347      BD702563 
 347      EE26E46E 
 347      41B88D31 
 347      B5DF
 348 0577 74A573F8 		.ascii	"t\245s\370!c\206\006W-\360\302\311>le\267t\346\371\341"
 348      21638606 
 348      572DF0C2 
 348      C93E6C65 
 348      B774E6F9 
 349 058c 6CC6E497 		.ascii	"l\306\344\227&v\211'\273\233\274\346\354X\326]a\304"
 349      26768927 
 349      BB9BBCE6 
 349      EC58D65D 
 349      61C4
 350 059e C57470FC 		.ascii	"\305tp\374\202\262\232\343>h\022\271\306N\222\257\020"
 350      82B29AE3 
 350      3E6812B9 
 350      C64E92AF 
 350      10
 351 05af A04D24B2 		.ascii	"\240M$\262\366\325O\336,-nq\271\222L\264\231\0228\214"
 351      F6D54FDE 
 351      2C2D6E71 
 351      B9924CB4 
 351      9912388C 
 352 05c3 52B9B1D2 		.ascii	"R\271\261\322\232z\225\254\220\023d\235\350(\334\235"
 352      9A7A95AC 
 352      9013649D 
 352      E828DC9D 
 353 05d3 52E7E7CA 		.ascii	"R\347\347\312\377\013\205\336G*\350e\272\232f\310\320"
 353      FF0B85DE 
 353      472AE865 
 353      BA9A66C8 
 353      D0
 354 05e4 96D31E68 		.ascii	"\226\323\036h\222\206\326\"\205\3265g<\320\005\032\320"
 354      9286D622 
 354      85D63567 
 354      3CD0051A 
 354      D0
 355 05f5 630A6893 		.ascii	"c\012h\223\254u\261\006\224\332O\025\337:\\H\320\241"
 355      AC75B106 
 355      94DA4F15 
 355      DF3A5C48 
 355      D0A1
ARM GAS  C:\Users\gjl\AppData\Local\Temp\ccjfJ1RV.s 			page 28


 356 0607 A55C30AA 		.ascii	"\245\\0\252#5\373J\204C\321P6\027\202Vq\223P\012\320"
 356      2335FB4A 
 356      8443D150 
 356      36178256 
 356      7193500A 
 357 061c 72A034A0 		.ascii	"r\2404\240o\200\326\001}\015\264\002h\015P\026P\006"
 357      6F80D601 
 357      7D0DB402 
 357      680D5016 
 357      5006
 358 062e 503AD05A 		.ascii	"P:\320Z\240\015@\313\200V\003\255\004\312\004Z\317M"
 358      A00D40CB 
 358      805603AD 
 358      04CA045A 
 358      CF4D
 359 0640 A2E71CF3 		.ascii	"\242\347\034\363/]NP\267V\202j\024\2614\312\261,\321"
 359      2F5D4E50 
 359      B756826A 
 359      14B134CA 
 359      B12CD1
 360 0653 8865BA8C 		.ascii	"\210e\272\214\274$#\027i \225J\273eh\242\006t\257\002"
 360      BC242317 
 360      6920954A 
 360      BB6568A2 
 360      0674AF02 
 361 0667 DA27A7FD 		.ascii	"\332'\247\375\201\332\327N\364t\341\323\344\270z\264"
 361      81DAD74E 
 361      F474E1D3 
 361      E4B87AB4 
 362 0677 E2529673 		.ascii	"\342R\226s\375\212\200\014\227;\021\323\025\365PD{\326"
 362      FD8A800C 
 362      973B11D3 
 362      15F55044 
 362      7BD6
 363 0689 0ED3AD08 		.ascii	"\016\323\255\010\256\371\214\377j\227{\001\246\312\373"
 363      AEF98CFF 
 363      6A977B01 
 363      A6CAFB
 364 0698 B51C39A5 		.ascii	"\265\0349\245P\276\177e\300\032\227;\001\323\323\342"
 364      50BE7F65 
 364      C01A973B 
 364      01D3D3E2 
 365 06a8 9E88F61C 		.ascii	"\236\210\366\0342\314\031e\220\365J\355\003Z\332\225"
 365      32CC1965 
 365      90F54AED 
 365      035ADA95 
 366 06b8 E887724A 		.ascii	"\350\207rJ\372\264\260\254\025\351\276\341.[nr\301\233"
 366      FAB4B0AC 
 366      15E9BEE1 
 366      2E5B6E72 
 366      C19B
 367 06ca 2B6074E2 		.ascii	"+`t\342\236!\267A\357i\205\325\205\032uP\206T\242\014"
 367      9E21B741 
 367      EF6985D5 
 367      851A7550 
 367      8654A20C 
 368 06de 2999D30C 		.ascii	")\231\323\014IY\213\021eH\275Z\325\240\331\205\275\240"
ARM GAS  C:\Users\gjl\AppData\Local\Temp\ccjfJ1RV.s 			page 29


 368      49598B11 
 368      6548BD5A 
 368      D5A0D985 
 368      BDA0
 369 06f0 79455646 		.ascii	"yEVF \276H\367\002\256\346jfY\000\032\033\242\275<6"
 369      20BE48F7 
 369      02AEE66A 
 369      6659001A 
 369      1BA2BD3C 
 370 0705 C392F83E 		.ascii	"\303\222\370>\227\007\313Yk\325\313$g\233\300\320F\316"
 370      9707CB59 
 370      6BD5CB24 
 370      679BC0D0 
 370      46CE
 371 0717 B3D59214 		.ascii	"\263\325\222\024R\1777\356\330\276\014\215\025\035t"
 371      527F37EE 
 371      D8BE0C8D 
 371      151D74
 372 0726 8FEAA0EE 		.ascii	"\217\352\240\356\177\356\035\330NZ\332\273\000\251^"
 372      7FEE1DD8 
 372      4E5ADABB 
 372      00A95E
 373 0735 14B628DA 		.ascii	"\024\266(\332V\207\266r\322\213\302\300\256\033-^\370"
 373      5687B672 
 373      D28BC2C0 
 373      AE1B2D5E 
 373      F8
 374 0746 1EDB7E13 		.ascii	"\036\333~\023\263S\316p\354\010\177\031\330\364\257"
 374      B353CE70 
 374      EC087F19 
 374      D8F4AF
 375 0755 D6B6EBD9 		.ascii	"\326\266\353\331n\334N\276\225:\257eU\032\361\240\270"
 375      6EDC4EBE 
 375      953AAF65 
 375      551AF1A0 
 375      B8
 376 0766 6FD7EFA9 		.ascii	"o\327\357\251\016\304+\014\204y\251\345NA\211?Rm\313"
 376      0EC42B0C 
 376      8479A9E5 
 376      4E41893F 
 376      526DCB
 377 0779 9326994C 		.ascii	"\223&\231L\023\364\246\261\322S\310\244\220\220\020"
 377      13F4A6B1 
 377      D253C8A4 
 377      909010
 378 0788 56F3D58D 		.ascii	"V\363\325\215\212\232\327C\315\363\344\232\327)ZSU\334"
 378      8A9AD743 
 378      CDF3E49A 
 378      D7295A53 
 378      55DC
 379 079a 1D90BBED 		.ascii	"\035\220\273\355\034 \266ql\002)\356)\310\343I\010\275"
 379      1C20B671 
 379      6C0229EE 
 379      29C8E349 
 379      08BD
 380 07ac 02A81CE8 		.ascii	"\002\250\034\350\010\220\033\250\004\350[\240\375@\305"
 380      08901BA8 
ARM GAS  C:\Users\gjl\AppData\Local\Temp\ccjfJ1RV.s 			page 30


 380      04E85BA0 
 380      FD40C5
 381 07bb 40B940FB 		.ascii	"@\271@\373\200\212\200\012\201\012\200\366\002\345\003"
 381      808A800A 
 381      810A80F6 
 381      02E503
 382 07ca ED01DA0D 		.ascii	"\355\001\332\015\264K"
 382      B44B
 383 07d0 B5F79536 		.ascii	"\265\367\2256z\026O\016\247\362\360\350\323k\376\200"
 383      7A164F0E 
 383      A7F2F0E8 
 383      D36BFE80 
 384 07e0 0C3DAE0E 		.ascii	"\014=\256\016\246R\021\014\303~+cOja\225K\243X\306V"
 384      A652110C 
 384      C37E2B63 
 384      4F6A6195 
 384      4BA358C6 
 385 07f5 696195CB 		.ascii	"ia\225\313\256H\306Vka\225\373B\201\214=\255\205U\356"
 385      AE48C656 
 385      6B6195FB 
 385      42818C3D 
 385      AD8555EE 
 386 0809 C0F932F6 		.ascii	"\300\3712\366\214\026V\271U\256\223\261\265ZX\305y\272"
 386      8C1656B9 
 386      55AE93B1 
 386      B55A58C5 
 386      79BA
 387 081b 46869ED5 		.ascii	"F\206\236\325\202*\262\233&C\317i\265\2122c\253\322"
 387      822AB29B 
 387      2643CF69 
 387      B58A3263 
 387      ABD2
 388 082d 159B4F83 		.ascii	"\025\233O\203\210\366l>u\317d\"5}<\333\334\341\305\031"
 388      88F66C3E 
 388      75CF6422 
 388      357D3CDB 
 388      DCE1C519 
 389 0841 5D12F19E 		.ascii	"]\022\361\236\315\275\356iWF\352\003\031\374\000gB\035"
 389      CDBDEE69 
 389      5746EA03 
 389      19FC0067 
 389      421D
 390 0853 4FC395DB 		.ascii	"O\303\225\333\265\352\013\232\233 \203\252\241a\017"
 390      B5EA0B9A 
 390      9B2083AA 
 390      A1610F
 391 0862 C26CB659 		.ascii	"\302l\266Y\214\006\323)0\351d\021\300\007\310D\216\346"
 391      8C06D329 
 391      30E96411 
 391      C007C844 
 391      8EE6
 392 0874 40FE6900 		.ascii	"@\376i\000&\220\357N\216\374\302D\336\237\017\303\224"
 392      2690EF4E 
 392      8EFCC244 
 392      DE9F0FC3 
 392      94
 393 0885 6BF092AE 		.ascii	"k\360\222\256TZ\246Z\365\207\331\252\327^VU\340\331"
ARM GAS  C:\Users\gjl\AppData\Local\Temp\ccjfJ1RV.s 			page 31


 393      545AA65A 
 393      F587D9AA 
 393      D75E5655 
 393      E0D9
 394 0897 F7BFAC86 		.ascii	"\367\277\254\206\352M\256\024\013M\340\015\355\004*"
 394      EA4DAE14 
 394      0B4DE00D 
 394      ED042A
 395 08a6 F2FD5806 		.ascii	"\362\375X\006\337|\032\254q\334\311\350[\332h\205\352"
 395      DF7C1AAC 
 395      71DCC9E8 
 395      5BDA6885 
 395      EA
 396 08b7 8155E358 		.ascii	"\201U\343X)\217\002\374\366\323\360W\265+Y\251\254\344"
 396      298F02FC 
 396      F6D3F057 
 396      B52B59A9 
 396      ACE4
 397 08c9 09C8D131 		.ascii	"\011\310\3211\315JV\252*yL\253\222-\252JV\322J\036W"
 397      CD4A56AA 
 397      2A794CAB 
 397      922DAA4A 
 397      56D24A1E 
 398 08de 55F20E54 		.ascii	"U\362\016T\222\0353\017\222\237'\307\014q\264K~\243"
 398      921D330F 
 398      929F27C7 
 398      0C71B44B 
 398      7EA3
 399 08f0 3F466BC9 		.ascii	"?Fk\311\202y\260\352E\026\014l\353\350\256f0\323\345"
 399      8279B0EA 
 399      45160C6C 
 399      EBE8AE66 
 399      30D3E5
 400 0903 A3BE6715 		.ascii	"\243\276g\025=\352\363\324G=\033\273\230\374c2F\332"
 400      3DEAF3D4 
 400      473D1BBB 
 400      98FC6332 
 400      46DA
 401 0915 66A77CA4 		.ascii	"f\247|\244\345\321#\215!z\253\306\023\004\311\362u\331"
 401      E5D1238D 
 401      217AABC6 
 401      1304C9F2 
 401      75D9
 402 0927 9B83D41B 		.ascii	"\233\203\324\033\362i\262\250?\215}[\222 *\3307\343"
 402      F269B2A8 
 402      3F8D7D5B 
 402      92202AD8 
 402      37E3
 403 0939 F5B4E474 		.ascii	"\365\264\344tn\302\250\215|\232\206_C\303'?j\2444o\303"
 403      6EC2A88D 
 403      7C9A865F 
 403      43C3273F 
 403      6AA4346F 
 404 094e 2F6D70B5 		.ascii	"/mp\265\347\273\332[7\375-ms\222\253\026&\276I\201\250"
 404      E7BBDA5B 
 404      37FD2D6D 
 404      7392AB16 
ARM GAS  C:\Users\gjl\AppData\Local\Temp\ccjfJ1RV.s 			page 32


 404      26BE4981 
 405 0963 4C365A46 		.ascii	"L6ZF\177\201C\207\341;[\207\316p/\221C)\247\2439\020"
 405      7F814387 
 405      E13B5B87 
 405      CE702F91 
 405      4329A7A3 
 406 0979 171B46FD 		.ascii	"\027\033F\375q\246\267\2621\325\333#;\313Qa\337\212"
 406      71A6B7B2 
 406      31D5DB23 
 406      3BCB5161 
 406      DF8A
 407 098b F51F7864 		.ascii	"\365\037xduL\226}v\303Z\316#\254g\302\243\213\362\037"
 407      754C967D 
 407      76C35ACE 
 407      23AC67C2 
 407      A38BF21F 
 408 099f 7A79A23B 		.ascii	"zy\242;\307\204\003=7\302F\017\256\221\006\327 \005"
 408      C784033D 
 408      37C2460F 
 408      AE9106D7 
 408      2005
 409 09b1 D793BB72 		.ascii	"\327\223\273r\310\017\202\333\220\017o\267\225&\026"
 409      C80F82DB 
 409      900F6FB7 
 409      952616
 410 09c0 1901A15A 		.ascii	"\031\001\241Z9\337\360(\007v\236\006v+\243v\241\011"
 410      39DFF028 
 410      07769E06 
 410      762BA376 
 410      A109
 411 09d2 D78E1E98 		.ascii	"\327\216\036\230\372W\247f\356\331_\235.0YVVi\201\277"
 411      FA57A766 
 411      EED95F9D 
 411      2E305956 
 411      566981BF 
 412 09e6 27868B4C 		.ascii	"'\206\213L\2705\277\246\377;*\324J\203h\221\202\270"
 412      B835BFA6 
 412      FF3B2AD4 
 412      4A836891 
 412      82B8
 413 09f8 D2D9FF2B 		.ascii	"\322\331\377+R \370\336L\177\362\247\252\315I\356\337"
 413      5220F8DE 
 413      4C7FF2A7 
 413      AACD49EE 
 413      DF
 414 0a09 530C6A92 		.ascii	"S\014j\222ch\342\330\317\243\350\022\365?\255\247\244"
 414      6368E2D8 
 414      CFA3E812 
 414      F53FADA7 
 414      A4
 415 0a1a C21F5FFA 		.ascii	"\302\037_\372o\375ogn-\354\253O3(\335\"x\331\255\016"
 415      6FFD6F67 
 415      6E2DECAB 
 415      4F3328DD 
 415      2278D9AD 
 416 0a2f EAD665C9 		.ascii	"\352\326e\311\255\007\355\375\271\230\371\345\336\337"
 416      AD07EDFD 
ARM GAS  C:\Users\gjl\AppData\Local\Temp\ccjfJ1RV.s 			page 33


 416      B998F9E5 
 416      DEDF
 417 0a3d 1B95BA70 		.ascii	"\033\225\272pC\010\201\2406\331\2536\311\253+\324\253"
 417      430881A0 
 417      36D9AB36 
 417      C9AB2BD4 
 417      AB
 418 0a4e FD5BCFDF 		.ascii	"\375[\317\337\360\303\375\243{U\371\240=;\320\223\254"
 418      F0C3FDA3 
 418      7B55F9A0 
 418      3D3BD093 
 418      AC
 419 0a5f 6BCCAB53 		.ascii	"k\314\253S\231i\273\003GO\326\015\352\325u\311\253e"
 419      9969BB03 
 419      474FD60D 
 419      EAD575C9 
 419      AB65
 420 0a71 39258B91 		.ascii	"9%\213\221\350\325\360\375\367\250W\000AWe\257\256J"
 420      E8D5F0FD 
 420      F7A85700 
 420      415765AF 
 420      AE4A
 421 0a83 5E7552AF 		.ascii	"^uR\257\352\027<\311\361\306I\276\243zU[\274\356\010"
 421      EA173CC9 
 421      F1C649BE 
 421      A37A555B 
 421      BCEE08
 422 0a96 1EDD81DB 		.ascii	"\036\335\201\333\324\201[\222\003O\222Vg\032E\007\212"
 422      D4815B92 
 422      034F9256 
 422      671A4507 
 422      8A
 423 0aa7 9C19AE72 		.ascii	"\234\031\256r\216 \320M\331\376M\311\376\035j\177\311"
 423      8E20D04D 
 423      D9FE4DC9 
 423      FE1D6A7F 
 423      C9
 424 0ab8 8A92CD1C 		.ascii	"\212\222\315\034^\313\354w\034M\270\357\353\311\000"
 424      5ECBEC77 
 424      1C4DB8EF 
 424      EBC900
 425 0ac7 B37FA6AC 		.ascii	"\263\177\246\254z\255~t\373\367\250\375\273\222\375"
 425      7AAD7E74 
 425      FBF7A8FD 
 425      BB92FD
 426 0ad6 AE5DF706 		.ascii	"\256]\367\006\364\242\375\207\263\251}@\240.\331~\227"
 426      F4A2FD87 
 426      B3A97D40 
 426      A02ED97E 
 426      97
 427 0ae7 64BF9BDA 		.ascii	"d\277\233\332\357\276ZU\355\207w3\373\273\22764y\211"
 427      EFBE5A55 
 427      ED877733 
 427      FBBB9736 
 427      347989
 428 0afa B36B99F7 		.ascii	"\263k\231\367d\033\350\221g\367H\263\357\323\331ym="
 428      641BE891 
ARM GAS  C:\Users\gjl\AppData\Local\Temp\ccjfJ1RV.s 			page 34


 428      67F748B3 
 428      EFD3D979 
 428      6D3D
 429 0b0c 45067C84 		.ascii	"E\006|\204\315>Q\276'1P\234]*\317\356\225g\367J\263"
 429      CD3E51BE 
 429      2731509C 
 429      5D2ACFEE 
 429      9567F74A 
 430 0b21 FBE8EC9D 		.ascii	"\373\350\354\235\251\355\271\034\256\037=\366K\005w"
 430      A9EDB91C 
 430      AE1F3DF6 
 430      4B0577
 431 0b30 5B55C5FF 		.ascii	"[U\305\377\354yE\350\0034\364~)\364[9K\033\245\320["
 431      EC7945E8 
 431      0334F47E 
 431      29F45B39 
 431      4B1BA5D0 
 432 0b45 D7636A1F 		.ascii	"\327cj\037 \350\201l\377\201d\377!\265\277\260\277\252"
 432      20E8816C 
 432      FF8164FF 
 432      21B5BFB0 
 432      BFAA
 433 0b57 8953BDB8 		.ascii	"\211S\275\270\337V\235&\217\330\021N\356d\253l9\274"
 433      DF569D26 
 433      8FD8114E 
 433      EE64AB6C 
 433      39BC
 434 0b69 5B8DEE50 		.ascii	"[\215\356P\241\037\213\350\307\024}\340ZiU\240\012}"
 434      A11F8BE8 
 434      C7147DE0 
 434      5A6955A0 
 434      0A7D
 435 0b7b 43851E14 		.ascii	"C\205\036\024\321\203\024}\243~u\215\257\012\335\252"
 435      D183147D 
 435      A37E758D 
 435      AF0ADDAA 
 436 0b8b 420F89E8 		.ascii	"B\017\211\350!\212\276\226\275\274P\215\036P\241\207"
 436      218ABE96 
 436      BDBC508D 
 436      1E50A187 
 437 0b9b 45F43045 		.ascii	"E\3640E_*,\253\362Q\241O\253\320OD\364\023\212\276\335"
 437      5F2A2CAB 
 437      F251A14F 
 437      ABD04F44 
 437      F4138ABE 
 438 0bb0 53D1E5A5 		.ascii	"S\321\345\245B\337S\241GD4\271\033\336\375x\326\304"
 438      42DF53A1 
 438      474434B9 
 438      1BDEFD78 
 438      D6C4
 439 0bc2 B7A64FD7 		.ascii	"\267\246O\327\371\232\315\3616\2730\323,,@\326_\206"
 439      F99ACDF1 
 439      36BB30D3 
 439      2C2C40D6 
 439      5F86
 440 0bd4 C6396223 		.ascii	"\3069b#\035\226\230\211\021\266h\33691d\336\3147~\032"
 440      1D969889 
ARM GAS  C:\Users\gjl\AppData\Local\Temp\ccjfJ1RV.s 			page 35


 440      11B668DE 
 440      393164DE 
 440      CC377E1A 
 441 0be8 6A9D1FE7 		.ascii	"j\235\037\347\340\235\316\3208g\254u\242\325\301[\204"
 441      E09DCED0 
 441      3867AC75 
 441      A2D5C15B 
 441      84
 442 0bf9 5847E8EB 		.ascii	"XG\350\353S\247\253\005\266\230\270X\207\020\032i\217"
 442      53A7AB05 
 442      B698B858 
 442      87101A69 
 442      8F
 443 0c0a 0FB53862 		.ascii	"\017\2658bB\1771\225 \340\351\025{\254\235\177\205\267"
 443      427F3195 
 443      20E0E915 
 443      7BAC9D7F 
 443      85B7
 444 0c1c 84D9426D 		.ascii	"\204\331Bmvkt|8\037\032c\261F\331\354|\2509\234\217"
 444      766B747C 
 444      381F1A63 
 444      B146D9EC 
 444      7CA8399C 
 445 0c31 B0C4470B 		.ascii	"\260\304G\013fa~\034\357\234\032\245\363\021]\231\363"
 445      66617E1C 
 445      EF9C1AA5 
 445      F3115D99 
 445      F3
 446 0c42 FFF2C439 		.ascii	"\377\362\3049\337\031jv\012\341`\026\314\353\255Q\026"
 446      DF196A76 
 446      0AE16016 
 446      CCEBAD51 
 446      16
 447 0c53 C7F8F899 		.ascii	"\307\370\370\231\363f\232\303\035\226\271\346\260xA"
 447      F3669AC3 
 447      1D96B9E6 
 447      B07841
 448 0c62 88B59BA3 		.ascii	"\210\265\233\243\301\327\200p>,6\336n\345\001m\021\370"
 448      C1D78070 
 448      3E2C36DE 
 448      6EE5016D 
 448      11F8
 449 0c74 173C6CB4 		.ascii	"\027<l\264\305)\230\343lv&\377\241G.\205\346\031\362"
 449      C52998E3 
 449      6C7626FF 
 449      A1472E85 
 449      E619F2
 450 0c87 8B8CB3C5 		.ascii	"\213\214\263\305\232\301}\220\032\343\205\210\231L\014"
 450      9AC17D90 
 450      1AE38588 
 450      994C0C
 451 0c96 8AE7D800 		.ascii	"\212\347\330\000o\011\017'\241\371\331^\263\222\001"
 451      6F090F27 
 451      A1F9D95E 
 451      B39201
 452 0ca5 87C087D3 		.ascii	"\207\300\207\323gQ>\316\3464G\304\332\005\263\315>\207"
 452      67513ECE 
ARM GAS  C:\Users\gjl\AppData\Local\Temp\ccjfJ1RV.s 			page 36


 452      E63447C4 
 452      DA05B3CD 
 452      3E87
 453 0cb7 77387973 		.ascii	"w8ysLl8o\230g\216\215\210p\362\202\201\267[c!\210H#"
 453      4C6C386F 
 453      98678E8D 
 453      8870F282 
 453      81B75B63 
 454 0ccf ABE6F437 		.ascii	"\253\346\3647\314\202Az\320\223yc\250u\213=\034\034"
 454      CC82417A 
 454      D0937963 
 454      A8758B3D 
 454      1C1C
 455 0ce1 8BB6CC37 		.ascii	"\213\266\3147[\303\374h\2341\316Hx\366\011\233/\360"
 455      5BC3FC68 
 455      9C31CE48 
 455      78F6099B 
 455      2FF0
 456 0cf3 70F7B65A 		.ascii	"p\367\266Z\302\341f\014\2679\343\030\312\307\316\317"
 456      C2E1660C 
 456      B739E318 
 456      CAC7CECF 
 457 0d03 13E06EA2 		.ascii	"\023\340n\242h\222\037\302H\3436{D\254_\234m\036\037"
 457      68921FC2 
 457      48E3367B 
 457      44AC5F9C 
 457      6D1E1F
 458 0d16 6D9E6B0B 		.ascii	"m\236k\013\027\242\306DD\333\342\210gf\311\263\347\244"
 458      17A2C644 
 458      44DBE288 
 458      6766C9B3 
 458      E7A4
 459 0d28 3C48023F 		.ascii	"<H\002?\001\352i\216\342m\221Q\202\221>\323\231\343"
 459      01EA698E 
 459      E26D9151 
 459      82913ED3 
 459      99E3
 460 0d3a E63A6CE0 		.ascii	"\346:l\340B\\|\264S\224\230\355\316\240p\213`1\303\244"
 460      425C7CB4 
 460      539498ED 
 460      CEA0708B 
 460      6031C3A4 
 461 0d4e F838B360 		.ascii	"\3708\263`\213\341A4\216\344$,\336i\266F\307Zg\233\247"
 461      8BE14134 
 461      8EE4242C 
 461      DE69B646 
 461      C75A679B 
 462 0d63 4F9B36FB 		.ascii	"O\2336\373\275/\014\3168\033M\210\311\01126\022\365"
 462      BD2F0CCE 
 462      381B4D88 
 462      C9093236 
 462      12F5
 463 0d75 85988B19 		.ascii	"\205\230\213\031\257\211\271 \017A\004\24062\306\031"
 463      AF89B920 
 463      0F4104A0 
 463      3632C619 
 464 0d85 FE948DA0 		.ascii	"\376\224\215\240\270X\250)d\235\027\314s-6\001\2224"
ARM GAS  C:\Users\gjl\AppData\Local\Temp\ccjfJ1RV.s 			page 37


 464      B858A829 
 464      649D17CC 
 464      732D3601 
 464      9234
 465 0d97 8E71CA99 		.ascii	"\216q\312\2311\316\011\320\214\220\022[\234\031\362"
 465      31CE09D0 
 465      8C90125B 
 465      9C19F2
 466 0da6 610923A1 		.ascii	"a\011#\241\020\264\035\006\210\002:\302\333\225\003"
 466      10B41D06 
 466      88023AC2 
 466      DB9503
 467 0db5 412A7434 		.ascii	"A*t4?\207\217\036\243\204Q\311\004\326\200\212\024C"
 467      3F878F1E 
 467      A38451C9 
 467      04D6808A 
 467      1443
 468 0dc7 4338E2AD 		.ascii	"C8\342\255\202\211e\232\345\356\205\251SC\341/~f\344"
 468      8289659A 
 468      E5EE85A9 
 468      5343E12F 
 468      7E66E4
 469 0dda 6BA156A7 		.ascii	"k\241V\247\303\032JfA\017\217}v\266\300J\315\224\214"
 469      C31A4A66 
 469      410F8F7D 
 469      76B6C04A 
 469      CD948C
 470 0ded F574286B 		.ascii	"\365t(kE\322\001\336t\\xQK\2459\006\272\317\022\311"
 470      45D201DE 
 470      745C7851 
 470      4BA53906 
 470      BACF12C9 
 471 0e01 4FB5EA7E 		.ascii	"O\265\352~@\371YN\336\361\276]\340\035\021\026+\377"
 471      40F9594E 
 471      DEF1BE5D 
 471      E01D1116 
 471      2BFF
 472 0e13 111BF4A7 		.ascii	"\021\033\364\247#o\303\232\231\365\207wf\276@\271wy"
 472      236FC39A 
 472      99F58777 
 472      66BE40B9 
 472      7779
 473 0e25 E153C101 		.ascii	"\341S\301\001=\371!,\237OIG\007Jr\002\372\220\267\217"
 473      3DF9212C 
 473      9F4F4947 
 473      074A7202 
 473      FA90B78F 
 474 0e39 7F16F716 		.ascii	"\177\026\367\026t\252$\375\210\267\307\377n\016o\027"
 474      74AA24FD 
 474      88B7C7FF 
 474      6E0E6F17 
 475 0e49 8254DA09 		.ascii	"\202T\332\011\3149\346\031\021\223\274\025\315[\034"
 475      CC39E619 
 475      1193BC15 
 475      CD5B1C
 476 0e58 6FB3E0FF 		.ascii	"o\263\340\377\015\021#z^"
 476      0D11237A 
ARM GAS  C:\Users\gjl\AppData\Local\Temp\ccjfJ1RV.s 			page 38


 476      5E
 477              		.text
 478              		.section	.gnu.lto_.symtab.1a3fb18,"",%progbits
 479 0000 75387838 		.ascii	"u8x8_draw_button_line\000"
 479      5F647261 
 479      775F6275 
 479      74746F6E 
 479      5F6C696E 
 480 0016 00       		.ascii	"\000"
 481 0017 00       		.ascii	"\000"
 482 0018 00       		.ascii	"\000"
 483 0019 00000000 		.ascii	"\000\000\000\000\000\000\000\000"
 483      00000000 
 484 0021 4F010000 		.ascii	"O\001\000\000"
 485 0025 75387838 		.ascii	"u8x8_UserInterfaceMessage\000"
 485      5F557365 
 485      72496E74 
 485      65726661 
 485      63654D65 
 486 003f 00       		.ascii	"\000"
 487 0040 00       		.ascii	"\000"
 488 0041 00       		.ascii	"\000"
 489 0042 00000000 		.ascii	"\000\000\000\000\000\000\000\000"
 489      00000000 
 490 004a 57010000 		.ascii	"W\001\000\000"
 491 004e 75387838 		.ascii	"u8x8_DrawUTF8\000"
 491      5F447261 
 491      77555446 
 491      3800
 492 005c 00       		.ascii	"\000"
 493 005d 02       		.ascii	"\002"
 494 005e 00       		.ascii	"\000"
 495 005f 00000000 		.ascii	"\000\000\000\000\000\000\000\000"
 495      00000000 
 496 0067 5E010000 		.ascii	"^\001\000\000"
 497 006b 75387838 		.ascii	"u8x8_GetStringLineStart\000"
 497      5F476574 
 497      53747269 
 497      6E674C69 
 497      6E655374 
 498 0083 00       		.ascii	"\000"
 499 0084 02       		.ascii	"\002"
 500 0085 00       		.ascii	"\000"
 501 0086 00000000 		.ascii	"\000\000\000\000\000\000\000\000"
 501      00000000 
 502 008e 63010000 		.ascii	"c\001\000\000"
 503 0092 75387838 		.ascii	"u8x8_GetUTF8Len\000"
 503      5F476574 
 503      55544638 
 503      4C656E00 
 504 00a2 00       		.ascii	"\000"
 505 00a3 02       		.ascii	"\002"
 506 00a4 00       		.ascii	"\000"
 507 00a5 00000000 		.ascii	"\000\000\000\000\000\000\000\000"
 507      00000000 
 508 00ad 68010000 		.ascii	"h\001\000\000"
 509 00b1 75387838 		.ascii	"u8x8_GetStringLineCnt\000"
ARM GAS  C:\Users\gjl\AppData\Local\Temp\ccjfJ1RV.s 			page 39


 509      5F476574 
 509      53747269 
 509      6E674C69 
 509      6E65436E 
 510 00c7 00       		.ascii	"\000"
 511 00c8 02       		.ascii	"\002"
 512 00c9 00       		.ascii	"\000"
 513 00ca 00000000 		.ascii	"\000\000\000\000\000\000\000\000"
 513      00000000 
 514 00d2 6C010000 		.ascii	"l\001\000\000"
 515 00d6 75387838 		.ascii	"u8x8_GetMenuEvent\000"
 515      5F476574 
 515      4D656E75 
 515      4576656E 
 515      7400
 516 00e8 00       		.ascii	"\000"
 517 00e9 02       		.ascii	"\002"
 518 00ea 00       		.ascii	"\000"
 519 00eb 00000000 		.ascii	"\000\000\000\000\000\000\000\000"
 519      00000000 
 520 00f3 70010000 		.ascii	"p\001\000\000"
 521 00f7 75387838 		.ascii	"u8x8_DrawUTF8Lines\000"
 521      5F447261 
 521      77555446 
 521      384C696E 
 521      657300
 522 010a 00       		.ascii	"\000"
 523 010b 02       		.ascii	"\002"
 524 010c 00       		.ascii	"\000"
 525 010d 00000000 		.ascii	"\000\000\000\000\000\000\000\000"
 525      00000000 
 526 0115 72010000 		.ascii	"r\001\000\000"
 527 0119 75387838 		.ascii	"u8x8_DrawUTF8Line\000"
 527      5F447261 
 527      77555446 
 527      384C696E 
 527      6500
 528 012b 00       		.ascii	"\000"
 529 012c 02       		.ascii	"\002"
 530 012d 00       		.ascii	"\000"
 531 012e 00000000 		.ascii	"\000\000\000\000\000\000\000\000"
 531      00000000 
 532 0136 74010000 		.ascii	"t\001\000\000"
 533 013a 75387838 		.ascii	"u8x8_ClearDisplay\000"
 533      5F436C65 
 533      61724469 
 533      73706C61 
 533      7900
 534 014c 00       		.ascii	"\000"
 535 014d 02       		.ascii	"\002"
 536 014e 00       		.ascii	"\000"
 537 014f 00000000 		.ascii	"\000\000\000\000\000\000\000\000"
 537      00000000 
 538 0157 78010000 		.ascii	"x\001\000\000"
 539              		.text
 540              		.section	.gnu.lto_.opts,"",%progbits
 541 0000 272D666D 		.ascii	"'-fmath-errno' '-fsigned-zeros' '-ftrapping-math' '"
ARM GAS  C:\Users\gjl\AppData\Local\Temp\ccjfJ1RV.s 			page 40


 541      6174682D 
 541      6572726E 
 541      6F272027 
 541      2D667369 
 542 0033 2D666E6F 		.ascii	"-fno-trapv' '-fno-openmp' '-fno-openacc' '-mcpu=cor"
 542      2D747261 
 542      70762720 
 542      272D666E 
 542      6F2D6F70 
 543 0066 7465782D 		.ascii	"tex-m0' '-mthumb' '-g' '-Os' '-ffunction-sections' "
 543      6D302720 
 543      272D6D74 
 543      68756D62 
 543      2720272D 
 544 0099 272D6666 		.ascii	"'-ffat-lto-objects' '-flto'\000"
 544      61742D6C 
 544      746F2D6F 
 544      626A6563 
 544      74732720 
 545              		.text
 546              		.cfi_sections	.debug_frame
 547              		.section	.text.u8x8_draw_button_line,"ax",%progbits
 548              		.align	1
 549              		.global	u8x8_draw_button_line
 550              		.code	16
 551              		.thumb_func
 552              		.type	u8x8_draw_button_line, %function
 553              	u8x8_draw_button_line:
 554              	.LFB0:
 555              		.file 1 "..\\..\\u8g2\\csrc\\u8x8_message.c"
   1:..\..\u8g2\csrc/u8x8_message.c **** /*
   2:..\..\u8g2\csrc/u8x8_message.c **** 
   3:..\..\u8g2\csrc/u8x8_message.c ****   u8x8_message.c
   4:..\..\u8g2\csrc/u8x8_message.c ****   
   5:..\..\u8g2\csrc/u8x8_message.c ****   Universal 8bit Graphics Library (https://github.com/olikraus/u8g2/)
   6:..\..\u8g2\csrc/u8x8_message.c **** 
   7:..\..\u8g2\csrc/u8x8_message.c ****   Copyright (c) 2016, olikraus@gmail.com
   8:..\..\u8g2\csrc/u8x8_message.c ****   All rights reserved.
   9:..\..\u8g2\csrc/u8x8_message.c **** 
  10:..\..\u8g2\csrc/u8x8_message.c ****   Redistribution and use in source and binary forms, with or without modification, 
  11:..\..\u8g2\csrc/u8x8_message.c ****   are permitted provided that the following conditions are met:
  12:..\..\u8g2\csrc/u8x8_message.c **** 
  13:..\..\u8g2\csrc/u8x8_message.c ****   * Redistributions of source code must retain the above copyright notice, this list 
  14:..\..\u8g2\csrc/u8x8_message.c ****     of conditions and the following disclaimer.
  15:..\..\u8g2\csrc/u8x8_message.c ****     
  16:..\..\u8g2\csrc/u8x8_message.c ****   * Redistributions in binary form must reproduce the above copyright notice, this 
  17:..\..\u8g2\csrc/u8x8_message.c ****     list of conditions and the following disclaimer in the documentation and/or other 
  18:..\..\u8g2\csrc/u8x8_message.c ****     materials provided with the distribution.
  19:..\..\u8g2\csrc/u8x8_message.c **** 
  20:..\..\u8g2\csrc/u8x8_message.c ****   THIS SOFTWARE IS PROVIDED BY THE COPYRIGHT HOLDERS AND 
  21:..\..\u8g2\csrc/u8x8_message.c ****   CONTRIBUTORS "AS IS" AND ANY EXPRESS OR IMPLIED WARRANTIES, 
  22:..\..\u8g2\csrc/u8x8_message.c ****   INCLUDING, BUT NOT LIMITED TO, THE IMPLIED WARRANTIES OF 
  23:..\..\u8g2\csrc/u8x8_message.c ****   MERCHANTABILITY AND FITNESS FOR A PARTICULAR PURPOSE ARE 
  24:..\..\u8g2\csrc/u8x8_message.c ****   DISCLAIMED. IN NO EVENT SHALL THE COPYRIGHT HOLDER OR 
  25:..\..\u8g2\csrc/u8x8_message.c ****   CONTRIBUTORS BE LIABLE FOR ANY DIRECT, INDIRECT, INCIDENTAL, 
  26:..\..\u8g2\csrc/u8x8_message.c ****   SPECIAL, EXEMPLARY, OR CONSEQUENTIAL DAMAGES (INCLUDING, BUT 
  27:..\..\u8g2\csrc/u8x8_message.c ****   NOT LIMITED TO, PROCUREMENT OF SUBSTITUTE GOODS OR SERVICES; 
ARM GAS  C:\Users\gjl\AppData\Local\Temp\ccjfJ1RV.s 			page 41


  28:..\..\u8g2\csrc/u8x8_message.c ****   LOSS OF USE, DATA, OR PROFITS; OR BUSINESS INTERRUPTION) HOWEVER 
  29:..\..\u8g2\csrc/u8x8_message.c ****   CAUSED AND ON ANY THEORY OF LIABILITY, WHETHER IN CONTRACT, 
  30:..\..\u8g2\csrc/u8x8_message.c ****   STRICT LIABILITY, OR TORT (INCLUDING NEGLIGENCE OR OTHERWISE) 
  31:..\..\u8g2\csrc/u8x8_message.c ****   ARISING IN ANY WAY OUT OF THE USE OF THIS SOFTWARE, EVEN IF 
  32:..\..\u8g2\csrc/u8x8_message.c ****   ADVISED OF THE POSSIBILITY OF SUCH DAMAGE.  
  33:..\..\u8g2\csrc/u8x8_message.c ****   
  34:..\..\u8g2\csrc/u8x8_message.c **** */
  35:..\..\u8g2\csrc/u8x8_message.c **** 
  36:..\..\u8g2\csrc/u8x8_message.c **** #include "u8x8.h"
  37:..\..\u8g2\csrc/u8x8_message.c **** 
  38:..\..\u8g2\csrc/u8x8_message.c **** uint8_t u8x8_draw_button_line(u8x8_t *u8x8, uint8_t y, uint8_t w, uint8_t cursor, const char *s)
  39:..\..\u8g2\csrc/u8x8_message.c **** {
 556              		.loc 1 39 0
 557              		.cfi_startproc
 558              		@ args = 4, pretend = 0, frame = 16
 559              		@ frame_needed = 0, uses_anonymous_args = 0
 560              	.LVL0:
 561 0000 F0B5     		push	{r4, r5, r6, r7, lr}
 562              		.cfi_def_cfa_offset 20
 563              		.cfi_offset 4, -20
 564              		.cfi_offset 5, -16
 565              		.cfi_offset 6, -12
 566              		.cfi_offset 7, -8
 567              		.cfi_offset 14, -4
  40:..\..\u8g2\csrc/u8x8_message.c ****   uint8_t i;
  41:..\..\u8g2\csrc/u8x8_message.c ****   uint8_t cnt;
  42:..\..\u8g2\csrc/u8x8_message.c ****   uint8_t total;
  43:..\..\u8g2\csrc/u8x8_message.c ****   uint8_t d;
  44:..\..\u8g2\csrc/u8x8_message.c ****   uint8_t x;
  45:..\..\u8g2\csrc/u8x8_message.c ****   cnt = u8x8_GetStringLineCnt(s);
  46:..\..\u8g2\csrc/u8x8_message.c ****   
  47:..\..\u8g2\csrc/u8x8_message.c ****   /* calculate the width of the button */
  48:..\..\u8g2\csrc/u8x8_message.c ****   total = 0;
 568              		.loc 1 48 0
 569 0002 0027     		movs	r7, #0
  39:..\..\u8g2\csrc/u8x8_message.c ****   uint8_t i;
 570              		.loc 1 39 0
 571 0004 85B0     		sub	sp, sp, #20
 572              		.cfi_def_cfa_offset 40
  39:..\..\u8g2\csrc/u8x8_message.c ****   uint8_t i;
 573              		.loc 1 39 0
 574 0006 0400     		movs	r4, r0
  45:..\..\u8g2\csrc/u8x8_message.c ****   
 575              		.loc 1 45 0
 576 0008 0A98     		ldr	r0, [sp, #40]
 577              	.LVL1:
  39:..\..\u8g2\csrc/u8x8_message.c ****   uint8_t i;
 578              		.loc 1 39 0
 579 000a 0291     		str	r1, [sp, #8]
 580 000c 1500     		movs	r5, r2
 581 000e 0393     		str	r3, [sp, #12]
  45:..\..\u8g2\csrc/u8x8_message.c ****   
 582              		.loc 1 45 0
 583 0010 FFF7FEFF 		bl	u8x8_GetStringLineCnt
 584              	.LVL2:
  49:..\..\u8g2\csrc/u8x8_message.c ****   for( i = 0; i < cnt; i++ )
 585              		.loc 1 49 0
ARM GAS  C:\Users\gjl\AppData\Local\Temp\ccjfJ1RV.s 			page 42


 586 0014 3E00     		movs	r6, r7
  45:..\..\u8g2\csrc/u8x8_message.c ****   
 587              		.loc 1 45 0
 588 0016 0190     		str	r0, [sp, #4]
 589              	.LVL3:
 590              	.L2:
 591              		.loc 1 49 0 discriminator 1
 592 0018 019B     		ldr	r3, [sp, #4]
 593 001a 9E42     		cmp	r6, r3
 594 001c 0CD0     		beq	.L10
  50:..\..\u8g2\csrc/u8x8_message.c ****   {
  51:..\..\u8g2\csrc/u8x8_message.c ****     total += u8x8_GetUTF8Len(u8x8, u8x8_GetStringLineStart(i, s));
 595              		.loc 1 51 0 discriminator 3
 596 001e 0A99     		ldr	r1, [sp, #40]
 597 0020 3000     		movs	r0, r6
 598 0022 FFF7FEFF 		bl	u8x8_GetStringLineStart
 599              	.LVL4:
 600 0026 0100     		movs	r1, r0
 601 0028 2000     		movs	r0, r4
 602 002a FFF7FEFF 		bl	u8x8_GetUTF8Len
 603              	.LVL5:
  49:..\..\u8g2\csrc/u8x8_message.c ****   for( i = 0; i < cnt; i++ )
 604              		.loc 1 49 0 discriminator 3
 605 002e 0136     		adds	r6, r6, #1
 606              	.LVL6:
 607              		.loc 1 51 0 discriminator 3
 608 0030 3F18     		adds	r7, r7, r0
 609              	.LVL7:
 610 0032 FFB2     		uxtb	r7, r7
 611              	.LVL8:
  49:..\..\u8g2\csrc/u8x8_message.c ****   for( i = 0; i < cnt; i++ )
 612              		.loc 1 49 0 discriminator 3
 613 0034 F6B2     		uxtb	r6, r6
 614              	.LVL9:
 615 0036 EFE7     		b	.L2
 616              	.L10:
  52:..\..\u8g2\csrc/u8x8_message.c ****   }
  53:..\..\u8g2\csrc/u8x8_message.c ****   total += (cnt-1);	/* had one space between the buttons */
 617              		.loc 1 53 0
 618 0038 5E1E     		subs	r6, r3, #1
 619              	.LVL10:
 620 003a BF19     		adds	r7, r7, r6
 621              	.LVL11:
 622 003c FFB2     		uxtb	r7, r7
 623              	.LVL12:
  54:..\..\u8g2\csrc/u8x8_message.c ****   
  55:..\..\u8g2\csrc/u8x8_message.c ****   /* calculate the left offset */
  56:..\..\u8g2\csrc/u8x8_message.c ****   d = 0;
 624              		.loc 1 56 0
 625 003e 0026     		movs	r6, #0
  57:..\..\u8g2\csrc/u8x8_message.c ****   if ( total < w )
 626              		.loc 1 57 0
 627 0040 AF42     		cmp	r7, r5
 628 0042 02D2     		bcs	.L4
 629              	.LVL13:
  58:..\..\u8g2\csrc/u8x8_message.c ****   {
  59:..\..\u8g2\csrc/u8x8_message.c ****     d = w;
ARM GAS  C:\Users\gjl\AppData\Local\Temp\ccjfJ1RV.s 			page 43


  60:..\..\u8g2\csrc/u8x8_message.c ****     d -= total;
  61:..\..\u8g2\csrc/u8x8_message.c ****     d /= 2;
 630              		.loc 1 61 0
 631 0044 EE1B     		subs	r6, r5, r7
 632 0046 F6B2     		uxtb	r6, r6
 633 0048 7608     		lsrs	r6, r6, #1
 634              	.LVL14:
 635              	.L4:
  62:..\..\u8g2\csrc/u8x8_message.c ****   }
  63:..\..\u8g2\csrc/u8x8_message.c ****   
  64:..\..\u8g2\csrc/u8x8_message.c ****   /* draw the buttons */
  65:..\..\u8g2\csrc/u8x8_message.c ****   x = d;
  66:..\..\u8g2\csrc/u8x8_message.c ****   u8x8_SetInverseFont(u8x8, 0);
 636              		.loc 1 66 0
 637 004a 0027     		movs	r7, #0
 638              	.LVL15:
  67:..\..\u8g2\csrc/u8x8_message.c ****   for( i = 0; i < cnt; i++ )
  68:..\..\u8g2\csrc/u8x8_message.c ****   {
  69:..\..\u8g2\csrc/u8x8_message.c ****     if ( i == cursor )
  70:..\..\u8g2\csrc/u8x8_message.c ****       u8x8_SetInverseFont(u8x8, 1);
 639              		.loc 1 70 0
 640 004c 0125     		movs	r5, #1
  66:..\..\u8g2\csrc/u8x8_message.c ****   for( i = 0; i < cnt; i++ )
 641              		.loc 1 66 0
 642 004e E777     		strb	r7, [r4, #31]
 643              	.LVL16:
 644              	.L5:
  67:..\..\u8g2\csrc/u8x8_message.c ****   for( i = 0; i < cnt; i++ )
 645              		.loc 1 67 0 discriminator 1
 646 0050 019B     		ldr	r3, [sp, #4]
 647 0052 9F42     		cmp	r7, r3
 648 0054 1CD0     		beq	.L11
  69:..\..\u8g2\csrc/u8x8_message.c ****       u8x8_SetInverseFont(u8x8, 1);
 649              		.loc 1 69 0
 650 0056 039B     		ldr	r3, [sp, #12]
 651 0058 9F42     		cmp	r7, r3
 652 005a 00D1     		bne	.L6
 653              		.loc 1 70 0
 654 005c E577     		strb	r5, [r4, #31]
 655              	.L6:
  71:..\..\u8g2\csrc/u8x8_message.c ****       
  72:..\..\u8g2\csrc/u8x8_message.c ****     x+=u8x8_DrawUTF8(u8x8, x, y, u8x8_GetStringLineStart(i, s));
 656              		.loc 1 72 0 discriminator 2
 657 005e 0A99     		ldr	r1, [sp, #40]
 658 0060 3800     		movs	r0, r7
 659 0062 FFF7FEFF 		bl	u8x8_GetStringLineStart
 660              	.LVL17:
 661 0066 3100     		movs	r1, r6
 662 0068 0300     		movs	r3, r0
 663 006a 029A     		ldr	r2, [sp, #8]
 664 006c 2000     		movs	r0, r4
 665 006e FFF7FEFF 		bl	u8x8_DrawUTF8
 666              	.LVL18:
  73:..\..\u8g2\csrc/u8x8_message.c ****     u8x8_SetInverseFont(u8x8, 0);
 667              		.loc 1 73 0 discriminator 2
 668 0072 0023     		movs	r3, #0
  72:..\..\u8g2\csrc/u8x8_message.c ****     u8x8_SetInverseFont(u8x8, 0);
ARM GAS  C:\Users\gjl\AppData\Local\Temp\ccjfJ1RV.s 			page 44


 669              		.loc 1 72 0 discriminator 2
 670 0074 3618     		adds	r6, r6, r0
 671              	.LVL19:
 672 0076 F6B2     		uxtb	r6, r6
 673              	.LVL20:
 674              		.loc 1 73 0 discriminator 2
 675 0078 E377     		strb	r3, [r4, #31]
  74:..\..\u8g2\csrc/u8x8_message.c ****     x+=u8x8_DrawUTF8(u8x8, x, y, " ");
 676              		.loc 1 74 0 discriminator 2
 677 007a 3100     		movs	r1, r6
 678 007c 064B     		ldr	r3, .L12
 679 007e 029A     		ldr	r2, [sp, #8]
 680 0080 2000     		movs	r0, r4
 681 0082 FFF7FEFF 		bl	u8x8_DrawUTF8
 682              	.LVL21:
  67:..\..\u8g2\csrc/u8x8_message.c ****   {
 683              		.loc 1 67 0 discriminator 2
 684 0086 0137     		adds	r7, r7, #1
 685              	.LVL22:
 686              		.loc 1 74 0 discriminator 2
 687 0088 3618     		adds	r6, r6, r0
 688              	.LVL23:
 689 008a F6B2     		uxtb	r6, r6
 690              	.LVL24:
  67:..\..\u8g2\csrc/u8x8_message.c ****   {
 691              		.loc 1 67 0 discriminator 2
 692 008c FFB2     		uxtb	r7, r7
 693              	.LVL25:
 694 008e DFE7     		b	.L5
 695              	.L11:
  75:..\..\u8g2\csrc/u8x8_message.c ****   }
  76:..\..\u8g2\csrc/u8x8_message.c ****   
  77:..\..\u8g2\csrc/u8x8_message.c ****   /* return the number of buttons */
  78:..\..\u8g2\csrc/u8x8_message.c ****   return cnt;
  79:..\..\u8g2\csrc/u8x8_message.c **** }
 696              		.loc 1 79 0
 697 0090 3800     		movs	r0, r7
 698 0092 05B0     		add	sp, sp, #20
 699              		@ sp needed
 700              	.LVL26:
 701              	.LVL27:
 702              	.LVL28:
 703 0094 F0BD     		pop	{r4, r5, r6, r7, pc}
 704              	.L13:
 705 0096 C046     		.align	2
 706              	.L12:
 707 0098 00000000 		.word	.LC0
 708              		.cfi_endproc
 709              	.LFE0:
 710              		.size	u8x8_draw_button_line, .-u8x8_draw_button_line
 711              		.section	.text.u8x8_UserInterfaceMessage,"ax",%progbits
 712              		.align	1
 713              		.global	u8x8_UserInterfaceMessage
 714              		.code	16
 715              		.thumb_func
 716              		.type	u8x8_UserInterfaceMessage, %function
 717              	u8x8_UserInterfaceMessage:
ARM GAS  C:\Users\gjl\AppData\Local\Temp\ccjfJ1RV.s 			page 45


 718              	.LFB1:
  80:..\..\u8g2\csrc/u8x8_message.c **** 
  81:..\..\u8g2\csrc/u8x8_message.c **** /*
  82:..\..\u8g2\csrc/u8x8_message.c ****   title1:	Multiple lines,separated by '\n'
  83:..\..\u8g2\csrc/u8x8_message.c ****   title2:	A single line/string which is terminated by '\0' or '\n' . "title2" accepts the return va
  84:..\..\u8g2\csrc/u8x8_message.c ****   title3:	Multiple lines,separated by '\n'
  85:..\..\u8g2\csrc/u8x8_message.c ****   buttons:	one more more buttons separated by '\n' and terminated with '\0'
  86:..\..\u8g2\csrc/u8x8_message.c **** */
  87:..\..\u8g2\csrc/u8x8_message.c **** 
  88:..\..\u8g2\csrc/u8x8_message.c **** uint8_t u8x8_UserInterfaceMessage(u8x8_t *u8x8, const char *title1, const char *title2, const char 
  89:..\..\u8g2\csrc/u8x8_message.c **** {
 719              		.loc 1 89 0
 720              		.cfi_startproc
 721              		@ args = 4, pretend = 0, frame = 8
 722              		@ frame_needed = 0, uses_anonymous_args = 0
 723              	.LVL29:
 724 0000 F0B5     		push	{r4, r5, r6, r7, lr}
 725              		.cfi_def_cfa_offset 20
 726              		.cfi_offset 4, -20
 727              		.cfi_offset 5, -16
 728              		.cfi_offset 6, -12
 729              		.cfi_offset 7, -8
 730              		.cfi_offset 14, -4
 731 0002 85B0     		sub	sp, sp, #20
 732              		.cfi_def_cfa_offset 40
 733              		.loc 1 89 0
 734 0004 0393     		str	r3, [sp, #12]
  90:..\..\u8g2\csrc/u8x8_message.c ****   uint8_t height;
  91:..\..\u8g2\csrc/u8x8_message.c ****   uint8_t y;
  92:..\..\u8g2\csrc/u8x8_message.c ****   uint8_t cursor = 0;
  93:..\..\u8g2\csrc/u8x8_message.c ****   uint8_t button_cnt;
  94:..\..\u8g2\csrc/u8x8_message.c ****   uint8_t event;
  95:..\..\u8g2\csrc/u8x8_message.c **** 
  96:..\..\u8g2\csrc/u8x8_message.c ****   u8x8_SetInverseFont(u8x8, 0);
 735              		.loc 1 96 0
 736 0006 0023     		movs	r3, #0
 737              	.LVL30:
  89:..\..\u8g2\csrc/u8x8_message.c ****   uint8_t height;
 738              		.loc 1 89 0
 739 0008 0400     		movs	r4, r0
 740              		.loc 1 96 0
 741 000a C377     		strb	r3, [r0, #31]
 742              	.LVL31:
  97:..\..\u8g2\csrc/u8x8_message.c ****   
  98:..\..\u8g2\csrc/u8x8_message.c ****   /* calculate overall height of the message box */
  99:..\..\u8g2\csrc/u8x8_message.c ****   height = 1;	/* button line */
 100:..\..\u8g2\csrc/u8x8_message.c ****   height += u8x8_GetStringLineCnt(title1);
 743              		.loc 1 100 0
 744 000c 0800     		movs	r0, r1
 745              	.LVL32:
  89:..\..\u8g2\csrc/u8x8_message.c ****   uint8_t height;
 746              		.loc 1 89 0
 747 000e 0F00     		movs	r7, r1
 748 0010 1600     		movs	r6, r2
 749              		.loc 1 100 0
 750 0012 FFF7FEFF 		bl	u8x8_GetStringLineCnt
 751              	.LVL33:
ARM GAS  C:\Users\gjl\AppData\Local\Temp\ccjfJ1RV.s 			page 46


 101:..\..\u8g2\csrc/u8x8_message.c ****   if ( title2 != NULL )
 102:..\..\u8g2\csrc/u8x8_message.c ****     height ++;
 752              		.loc 1 102 0
 753 0016 851C     		adds	r5, r0, #2
 754 0018 EDB2     		uxtb	r5, r5
 101:..\..\u8g2\csrc/u8x8_message.c ****   if ( title2 != NULL )
 755              		.loc 1 101 0
 756 001a 002E     		cmp	r6, #0
 757 001c 01D1     		bne	.L16
 100:..\..\u8g2\csrc/u8x8_message.c ****   if ( title2 != NULL )
 758              		.loc 1 100 0
 759 001e 0130     		adds	r0, r0, #1
 760              	.LVL34:
 761 0020 C5B2     		uxtb	r5, r0
 762              	.L16:
 763              	.LVL35:
 103:..\..\u8g2\csrc/u8x8_message.c ****   height += u8x8_GetStringLineCnt(title3);
 764              		.loc 1 103 0
 765 0022 0398     		ldr	r0, [sp, #12]
 766 0024 FFF7FEFF 		bl	u8x8_GetStringLineCnt
 767              	.LVL36:
 104:..\..\u8g2\csrc/u8x8_message.c ****   
 105:..\..\u8g2\csrc/u8x8_message.c ****   /* calculate offset from top */
 106:..\..\u8g2\csrc/u8x8_message.c ****   y = 0;
 107:..\..\u8g2\csrc/u8x8_message.c ****   if ( height < u8x8_GetRows(u8x8)  )
 768              		.loc 1 107 0
 769 0028 2368     		ldr	r3, [r4]
 103:..\..\u8g2\csrc/u8x8_message.c ****   height += u8x8_GetStringLineCnt(title3);
 770              		.loc 1 103 0
 771 002a 2D18     		adds	r5, r5, r0
 772              	.LVL37:
 773              		.loc 1 107 0
 774 002c 5B7C     		ldrb	r3, [r3, #17]
 103:..\..\u8g2\csrc/u8x8_message.c ****   height += u8x8_GetStringLineCnt(title3);
 775              		.loc 1 103 0
 776 002e E8B2     		uxtb	r0, r5
 777              	.LVL38:
 106:..\..\u8g2\csrc/u8x8_message.c ****   if ( height < u8x8_GetRows(u8x8)  )
 778              		.loc 1 106 0
 779 0030 0025     		movs	r5, #0
 780              		.loc 1 107 0
 781 0032 9842     		cmp	r0, r3
 782 0034 02D2     		bcs	.L17
 783              	.LVL39:
 108:..\..\u8g2\csrc/u8x8_message.c ****   {
 109:..\..\u8g2\csrc/u8x8_message.c ****     y = u8x8_GetRows(u8x8);
 110:..\..\u8g2\csrc/u8x8_message.c ****     y -= height;
 784              		.loc 1 110 0
 785 0036 1D1A     		subs	r5, r3, r0
 786 0038 EDB2     		uxtb	r5, r5
 787              	.LVL40:
 111:..\..\u8g2\csrc/u8x8_message.c ****     y /= 2;
 788              		.loc 1 111 0
 789 003a 6D08     		lsrs	r5, r5, #1
 790              	.LVL41:
 791              	.L17:
 112:..\..\u8g2\csrc/u8x8_message.c ****   }
ARM GAS  C:\Users\gjl\AppData\Local\Temp\ccjfJ1RV.s 			page 47


 113:..\..\u8g2\csrc/u8x8_message.c **** 
 114:..\..\u8g2\csrc/u8x8_message.c ****   /* draw message box */
 115:..\..\u8g2\csrc/u8x8_message.c ****   
 116:..\..\u8g2\csrc/u8x8_message.c ****   u8x8_ClearDisplay(u8x8);   /* required, because not everything is filled */
 792              		.loc 1 116 0
 793 003c 2000     		movs	r0, r4
 794              	.LVL42:
 795 003e FFF7FEFF 		bl	u8x8_ClearDisplay
 796              	.LVL43:
 117:..\..\u8g2\csrc/u8x8_message.c ****   
 118:..\..\u8g2\csrc/u8x8_message.c ****   y += u8x8_DrawUTF8Lines(u8x8, 0, y, u8x8_GetCols(u8x8), title1);
 797              		.loc 1 118 0
 798 0042 2368     		ldr	r3, [r4]
 799 0044 2A00     		movs	r2, r5
 800 0046 1B7C     		ldrb	r3, [r3, #16]
 801 0048 0021     		movs	r1, #0
 802 004a 0097     		str	r7, [sp]
 803 004c 2000     		movs	r0, r4
 804 004e FFF7FEFF 		bl	u8x8_DrawUTF8Lines
 805              	.LVL44:
 806 0052 2D18     		adds	r5, r5, r0
 807              	.LVL45:
 808 0054 EDB2     		uxtb	r5, r5
 809              	.LVL46:
 119:..\..\u8g2\csrc/u8x8_message.c ****   if ( title2 != NULL )
 810              		.loc 1 119 0
 811 0056 002E     		cmp	r6, #0
 812 0058 09D0     		beq	.L18
 120:..\..\u8g2\csrc/u8x8_message.c ****   {
 121:..\..\u8g2\csrc/u8x8_message.c ****     u8x8_DrawUTF8Line(u8x8, 0, y, u8x8_GetCols(u8x8), title2);
 813              		.loc 1 121 0
 814 005a 2368     		ldr	r3, [r4]
 815 005c 2A00     		movs	r2, r5
 816 005e 1B7C     		ldrb	r3, [r3, #16]
 817 0060 0021     		movs	r1, #0
 818 0062 0096     		str	r6, [sp]
 819 0064 2000     		movs	r0, r4
 820 0066 FFF7FEFF 		bl	u8x8_DrawUTF8Line
 821              	.LVL47:
 122:..\..\u8g2\csrc/u8x8_message.c ****     y++;
 822              		.loc 1 122 0
 823 006a 0135     		adds	r5, r5, #1
 824              	.LVL48:
 825 006c EDB2     		uxtb	r5, r5
 826              	.LVL49:
 827              	.L18:
 123:..\..\u8g2\csrc/u8x8_message.c ****   }
 124:..\..\u8g2\csrc/u8x8_message.c ****   y += u8x8_DrawUTF8Lines(u8x8, 0, y, u8x8_GetCols(u8x8), title3);
 828              		.loc 1 124 0
 829 006e 039A     		ldr	r2, [sp, #12]
 830 0070 2368     		ldr	r3, [r4]
 831 0072 0021     		movs	r1, #0
 832 0074 1B7C     		ldrb	r3, [r3, #16]
 833 0076 2000     		movs	r0, r4
 834 0078 0092     		str	r2, [sp]
 835 007a 2A00     		movs	r2, r5
 836 007c FFF7FEFF 		bl	u8x8_DrawUTF8Lines
ARM GAS  C:\Users\gjl\AppData\Local\Temp\ccjfJ1RV.s 			page 48


 837              	.LVL50:
 125:..\..\u8g2\csrc/u8x8_message.c **** 
 126:..\..\u8g2\csrc/u8x8_message.c ****   button_cnt = u8x8_draw_button_line(u8x8, y, u8x8_GetCols(u8x8), cursor, buttons);
 838              		.loc 1 126 0
 839 0080 2368     		ldr	r3, [r4]
 124:..\..\u8g2\csrc/u8x8_message.c **** 
 840              		.loc 1 124 0
 841 0082 2D18     		adds	r5, r5, r0
 842              	.LVL51:
 843              		.loc 1 126 0
 844 0084 1A7C     		ldrb	r2, [r3, #16]
 845 0086 0A9B     		ldr	r3, [sp, #40]
 124:..\..\u8g2\csrc/u8x8_message.c **** 
 846              		.loc 1 124 0
 847 0088 EDB2     		uxtb	r5, r5
 848              	.LVL52:
 849              		.loc 1 126 0
 850 008a 0093     		str	r3, [sp]
 851 008c 2900     		movs	r1, r5
 852 008e 0023     		movs	r3, #0
 853 0090 2000     		movs	r0, r4
 854 0092 FFF7FEFF 		bl	u8x8_draw_button_line
 855              	.LVL53:
  92:..\..\u8g2\csrc/u8x8_message.c ****   uint8_t button_cnt;
 856              		.loc 1 92 0
 857 0096 0026     		movs	r6, #0
 858              	.LVL54:
 859              		.loc 1 126 0
 860 0098 0700     		movs	r7, r0
 861              	.LVL55:
 862              	.L19:
 127:..\..\u8g2\csrc/u8x8_message.c ****   
 128:..\..\u8g2\csrc/u8x8_message.c ****   for(;;)
 129:..\..\u8g2\csrc/u8x8_message.c ****   {
 130:..\..\u8g2\csrc/u8x8_message.c ****     event = u8x8_GetMenuEvent(u8x8);
 863              		.loc 1 130 0
 864 009a 2000     		movs	r0, r4
 865 009c FFF7FEFF 		bl	u8x8_GetMenuEvent
 866              	.LVL56:
 131:..\..\u8g2\csrc/u8x8_message.c ****     if ( event == U8X8_MSG_GPIO_MENU_SELECT )
 867              		.loc 1 131 0
 868 00a0 5028     		cmp	r0, #80
 869 00a2 02D1     		bne	.L20
 132:..\..\u8g2\csrc/u8x8_message.c ****       return cursor+1;
 870              		.loc 1 132 0
 871 00a4 0136     		adds	r6, r6, #1
 872              	.LVL57:
 873 00a6 F0B2     		uxtb	r0, r6
 874              	.LVL58:
 875 00a8 1FE0     		b	.L21
 876              	.LVL59:
 877              	.L20:
 133:..\..\u8g2\csrc/u8x8_message.c ****     else if ( event == U8X8_MSG_GPIO_MENU_HOME )
 878              		.loc 1 133 0
 879 00aa 5328     		cmp	r0, #83
 880 00ac 1CD0     		beq	.L29
 134:..\..\u8g2\csrc/u8x8_message.c ****       break;
ARM GAS  C:\Users\gjl\AppData\Local\Temp\ccjfJ1RV.s 			page 49


 135:..\..\u8g2\csrc/u8x8_message.c ****     else if ( event == U8X8_MSG_GPIO_MENU_NEXT || event == U8X8_MSG_GPIO_MENU_UP )
 881              		.loc 1 135 0
 882 00ae 5128     		cmp	r0, #81
 883 00b0 01D0     		beq	.L22
 884              		.loc 1 135 0 is_stmt 0 discriminator 1
 885 00b2 5428     		cmp	r0, #84
 886 00b4 05D1     		bne	.L23
 887              	.L22:
 136:..\..\u8g2\csrc/u8x8_message.c ****     {
 137:..\..\u8g2\csrc/u8x8_message.c ****       cursor++;
 888              		.loc 1 137 0 is_stmt 1
 889 00b6 0136     		adds	r6, r6, #1
 890              	.LVL60:
 891 00b8 F6B2     		uxtb	r6, r6
 892              	.LVL61:
 138:..\..\u8g2\csrc/u8x8_message.c ****       if ( cursor >= button_cnt )
 139:..\..\u8g2\csrc/u8x8_message.c **** 	cursor = 0;
 893              		.loc 1 139 0
 894 00ba BE42     		cmp	r6, r7
 895 00bc 9B41     		sbcs	r3, r3, r3
 896 00be 1E40     		ands	r6, r3
 897              	.LVL62:
 898 00c0 08E0     		b	.L39
 899              	.L23:
 140:..\..\u8g2\csrc/u8x8_message.c ****       u8x8_draw_button_line(u8x8, y, u8x8_GetCols(u8x8), cursor, buttons);
 141:..\..\u8g2\csrc/u8x8_message.c ****     }
 142:..\..\u8g2\csrc/u8x8_message.c ****     else if ( event == U8X8_MSG_GPIO_MENU_PREV || event == U8X8_MSG_GPIO_MENU_DOWN  )
 900              		.loc 1 142 0
 901 00c2 5228     		cmp	r0, #82
 902 00c4 01D0     		beq	.L26
 903              		.loc 1 142 0 is_stmt 0 discriminator 1
 904 00c6 5528     		cmp	r0, #85
 905 00c8 E7D1     		bne	.L19
 906              	.L26:
 143:..\..\u8g2\csrc/u8x8_message.c ****     {
 144:..\..\u8g2\csrc/u8x8_message.c ****       if ( cursor == 0 )
 907              		.loc 1 144 0 is_stmt 1
 908 00ca 002E     		cmp	r6, #0
 909 00cc 00D1     		bne	.L27
 145:..\..\u8g2\csrc/u8x8_message.c **** 	cursor = button_cnt;
 910              		.loc 1 145 0
 911 00ce 3E00     		movs	r6, r7
 912              	.LVL63:
 913              	.L27:
 146:..\..\u8g2\csrc/u8x8_message.c ****       cursor--;
 914              		.loc 1 146 0
 915 00d0 013E     		subs	r6, r6, #1
 916              	.LVL64:
 917 00d2 F6B2     		uxtb	r6, r6
 918              	.L39:
 919              	.LVL65:
 147:..\..\u8g2\csrc/u8x8_message.c ****       u8x8_draw_button_line(u8x8, y, u8x8_GetCols(u8x8), cursor, buttons);
 920              		.loc 1 147 0
 921 00d4 2368     		ldr	r3, [r4]
 922 00d6 2900     		movs	r1, r5
 923 00d8 1A7C     		ldrb	r2, [r3, #16]
 924 00da 0A9B     		ldr	r3, [sp, #40]
ARM GAS  C:\Users\gjl\AppData\Local\Temp\ccjfJ1RV.s 			page 50


 925 00dc 2000     		movs	r0, r4
 926              	.LVL66:
 927 00de 0093     		str	r3, [sp]
 928 00e0 3300     		movs	r3, r6
 929 00e2 FFF7FEFF 		bl	u8x8_draw_button_line
 930              	.LVL67:
 931 00e6 D8E7     		b	.L19
 932              	.LVL68:
 933              	.L29:
 148:..\..\u8g2\csrc/u8x8_message.c ****     }    
 149:..\..\u8g2\csrc/u8x8_message.c ****   }  
 150:..\..\u8g2\csrc/u8x8_message.c ****   return 0;
 934              		.loc 1 150 0
 935 00e8 0020     		movs	r0, #0
 936              	.LVL69:
 937              	.L21:
 151:..\..\u8g2\csrc/u8x8_message.c **** }
 938              		.loc 1 151 0
 939 00ea 05B0     		add	sp, sp, #20
 940              		@ sp needed
 941              	.LVL70:
 942              	.LVL71:
 943              	.LVL72:
 944 00ec F0BD     		pop	{r4, r5, r6, r7, pc}
 945              		.cfi_endproc
 946              	.LFE1:
 947              		.size	u8x8_UserInterfaceMessage, .-u8x8_UserInterfaceMessage
 948              		.section	.rodata.str1.1,"aMS",%progbits,1
 949              	.LC0:
 950 0000 2000     		.ascii	" \000"
 951              		.text
 952              	.Letext0:
 953              		.file 2 "c:\\program files (x86)\\cypress\\psoc creator\\4.1\\psoc creator\\import\\gnu\\arm\\5.4.
 954              		.file 3 "c:\\program files (x86)\\cypress\\psoc creator\\4.1\\psoc creator\\import\\gnu\\arm\\5.4.
 955              		.file 4 "..\\..\\u8g2\\csrc\\u8x8.h"