ARM GAS  C:\Users\gjl\AppData\Local\Temp\ccYgjziF.s 			page 1


   1              		.syntax unified
   2              		.cpu cortex-m0
   3              		.fpu softvfp
   4              		.eabi_attribute 20, 1
   5              		.eabi_attribute 21, 1
   6              		.eabi_attribute 23, 3
   7              		.eabi_attribute 24, 1
   8              		.eabi_attribute 25, 1
   9              		.eabi_attribute 26, 1
  10              		.eabi_attribute 30, 4
  11              		.eabi_attribute 34, 0
  12              		.eabi_attribute 18, 4
  13              		.thumb
  14              		.syntax unified
  15              		.file	"u8x8_d_pcd8544_84x48.c"
  16              		.text
  17              	.Ltext0:
  18              		.section	.gnu.lto_.profile.1a3ebb4,"",%progbits
  19 0000 789C6361 		.ascii	"x\234ca`d`e`\000\222\347\030\375\000\0038\001)"
  19      60646065 
  19      600092E7 
  19      18FD0003 
  19      380129
  20              		.text
  21              		.section	.gnu.lto_.icf.1a3ebb4,"",%progbits
  22 0000 789C6361 		.ascii	"x\234ca`d\000\001\005\006\004`ex\376t\317\036^\306\356"
  22      60640001 
  22      05060460 
  22      6578FE74 
  22      CF1E5EC6 
  23 0015 F7AD0FB9 		.ascii	"\367\255\017\271\231f\257i\335\301\303\374\372\353\203"
  23      9966AF69 
  23      DDC1C3FC 
  23      FAEB83
  24 0024 896C2C1F 		.ascii	"\211l,\0377\0369\303\307\000\000\0041\017\230"
  24      371E39C3 
  24      C7000004 
  24      310F98
  25              		.text
  26              		.section	.gnu.lto_.jmpfuncs.1a3ebb4,"",%progbits
  27 0000 789C858D 		.ascii	"x\234\205\215=\012\002Q\014\2043I\260\334\365\000\026"
  27      3D0A0251 
  27      0C843349 
  27      B0DCF500 
  27      16
  28 0011 5A7B42AB 		.ascii	"Z{B\253\367`Y\344\335\300\013\210\277WX<\203\307\260"
  28      F76059E4 
  28      DDC00B88 
  28      BF57583C 
  28      83C7B0
  29 0024 D64A5830 		.ascii	"\326JX01(\202\177\323L2|\223(\201\\\323\260\273@\012"
  29      3128827F 
  29      D34C327C 
  29      9328815C 
  29      D3B0BB40 
  30 0039 539D4CCC 		.ascii	"S\235L\3143\217\006a!}.o\023z\306\374\224;\275p+\204"
  30      338F0661 
ARM GAS  C:\Users\gjl\AppData\Local\Temp\ccYgjziF.s 			page 2


  30      217D2E6F 
  30      137AC6FC 
  30      943BBD70 
  31 004f 31561811 		.ascii	"1V\030\021\371\021\204}+\225ny\254\2424\301\372\245"
  31      F911847D 
  31      2B956E79 
  31      ACA234C1 
  31      FAA5
  32 0061 A461CE34 		.ascii	"\244a\3164\327\303\271J}^\344<l\005E\274\273A\372\001"
  32      D7C3B94A 
  32      7D5EE43C 
  32      6C0545BC 
  32      BB41FA01 
  33 0075 7111CFB7 		.ascii	"q\021\317\267\017\210>AR\204-\3379\364\357\253\026\261"
  33      0F883E41 
  33      52842DDF 
  33      39F4EFAB 
  33      16B1
  34 0087 B7D81B0B 		.ascii	"\267\330\033\013%\272\001\352~>\227"
  34      25BA01EA 
  34      7E3E97
  35              		.text
  36              		.section	.gnu.lto_.inline.1a3ebb4,"",%progbits
  37 0000 789C6361 		.ascii	"x\234ca`d\000\201D\010\005\006@\346\005\206\213\014"
  37      60640081 
  37      44080506 
  37      40E60586 
  37      8B0C
  38 0012 8C9C8C1C 		.ascii	"\214\234\214\034Y\177\231\030\247\235\235\270\213\355"
  38      597F9918 
  38      A79D9DB8 
  38      8BED
  39 0020 0B532B33 		.ascii	"\013S+3Hd9\243\014\003D\370\354\3025\347\240\302\\\214"
  39      486439A3 
  39      0C0344F8 
  39      ECC235E7 
  39      A0C25C8C 
  40 0034 2BE0C2BF 		.ascii	"+\340\302\277\177\234\333\313\016\021\346f\\\011\027"
  40      7F9CDBCB 
  40      0E11E666 
  40      5C0917
  41 0043 7E7B6DF5 		.ascii	"~{m\365\032f\2100\037\343*\270\360\232e\037\017\360"
  41      1A668830 
  41      1FE32AB8 
  41      F09A651F 
  41      0FF0
  42 0055 4384F919 		.ascii	"C\204\371\031W\003\205\231\300\302\353\337\354\374\311"
  42      57038599 
  42      C0C2EBDF 
  42      ECFCC9
  43 0064 0B126665 		.ascii	"\013\022fed`\\\003\026\316\006\323\214\034@\3071\201"
  43      64605C03 
  43      16CE06D3 
  43      8C1C40C7 
  43      3181
  44 0076 0876A043 		.ascii	"\010v\240C\331\026\31031H\034\260k`a`\335\307\346\300"
  44      D916C833 
ARM GAS  C:\Users\gjl\AppData\Local\Temp\ccYgjziF.s 			page 3


  44      31481CB0 
  44      6B606160 
  44      DDC7E6C0 
  45 008a C4A0FCE0 		.ascii	"\304\240\374\340\004\223\003\003\313\014\326\006\016"
  45      04930303 
  45      CB0CD606 
  45      0E
  46 0097 050825C0 		.ascii	"\005\010%\300\320\300\341\000T\312\304\315\340\300\300"
  46      D0C0E100 
  46      54CAC4CD 
  46      E0C0C0
  47 00a6 38C18F85 		.ascii	"8\301\217\205\227\321\201\201\371\204\312\004\277\036"
  47      97D18181 
  47      F984CA04 
  47      BF1E
  48 00b4 36661EA0 		.ascii	"6f\036\240\030\323\004\277\011~\230,\270\006 \255\000"
  48      18D304BF 
  48      097E982C 
  48      B80620AD 
  48      00
  49 00c5 A281120A 		.ascii	"\242\201\022\012p%\0120%0\251\006&\001\260\020\210\311"
  49      70250A30 
  49      2530A906 
  49      2601B010 
  49      88C9
  50 00d7 086772C0 		.ascii	"\010gr\300\224q@\225\261\200\005\030\000\245\005J\301"
  50      94714095 
  50      B1800518 
  50      00A5054A 
  50      C1
  51              		.text
  52              		.section	.gnu.lto_.pureconst.1a3ebb4,"",%progbits
  53 0000 789C6361 		.ascii	"x\234ca`d`f`\000\222\222\000\000q\000#"
  53      60646066 
  53      60009292 
  53      00007100 
  53      23
  54              		.text
  55              		.section	.gnu.lto_u8x8_d_pcd8544_84x48.1a3ebb4,"",%progbits
  56 0000 789C9557 		.ascii	"x\234\225WkpTE\026\356s\373\316\353\316\023\205,\217"
  56      6B705445 
  56      16EE73FB 
  56      CEEBCE13 
  56      852C8F
  57 0013 61139010 		.ascii	"a\023\220\020\202$P\222-R\245?\334\332\037\353\372S"
  57      82245092 
  57      2D52A53F 
  57      DCDA1FEB 
  57      FA53
  58 0025 FF625156 		.ascii	"\377bQV\260\320\262\264,\324*\376X\271\311d\022\222"
  58      B0D0B2B4 
  58      2CD42AFE 
  58      58B9C964 
  58      1292
  59 0037 DA555089 		.ascii	"\332UP\211Y\004q\313\315\242&\022\222\010\230\030tD"
  59      590471CB 
  59      CDA22612 
ARM GAS  C:\Users\gjl\AppData\Local\Temp\ccYgjziF.s 			page 4


  59      92089818 
  59      7444
  60 0049 25901784 		.ascii	"%\220\027\204DB@\020#D\300\210f\"K\214\340x\316\351"
  60      44424010 
  60      2344C088 
  60      66224B8C 
  60      E078CEE9 
  61 005d 7B930C99 		.ascii	"{\223\014\231\3611\225\351\333\335s\276\323\347;\347"
  61      F13195E9 
  61      DBDD73BE 
  61      D3E73BE7 
  62 006d EBEE1B5D 		.ascii	"\353\356\033]\200\240OV@\210\373\3619\214_\230%@\333"
  62      80A04F56 
  62      4088FBF1 
  62      398C5F98 
  62      2540DB
  63 0080 D2234489 		.ascii	"\322#D\211[s\006#~a\272%\267:\267\016n\335\334z\324"
  63      5B730623 
  63      7E61BA25 
  63      B73AB70E 
  63      6EDDDC7A 
  64 0095 AF1054E6 		.ascii	"\257\020T\346\272\335qh\316\3159\3024\\\324\372\234"
  64      BADD7168 
  64      CECD39C2 
  64      345CD4FA 
  64      9C
  65 00a6 F6B4CBEE 		.ascii	"\366\264\313\356\270\355\216\007\014\32514o\333\032"
  65      B8ED8E07 
  65      0CD53134 
  65      6FDB1A
  66 00b5 44F8FB33 		.ascii	"D\370\3733\020\341\325\002\207$\216|=\035\002\207>\360"
  66      10E1D502 
  66      87248E7C 
  66      3D1D0287 
  66      3EF0
  67 00c7 2B2BBF16 		.ascii	"++\277\026\342\031\203\177\366\205\024\372\257\001\333"
  67      E219837F 
  67      F68514FA 
  67      AF01DB
  68 00d6 5D10803A 		.ascii	"]\020\200:\246\033D\261&u\207\323\345\366\030^\237?"
  68      A61B44B1 
  68      267587D3 
  68      E5F6185E 
  68      9F3F
  69 00e8 140842B1 		.ascii	"\024\010B\261f\010\210\351\220P\214\257i75\350\274~"
  69      660888E9 
  69      90508CAF 
  69      693735E8 
  69      BC7E
  70 00fa E49F46EE 		.ascii	"\344\237F\356n\323,5\317\327\216\3357Z\032\235\033\225"
  70      6ED32C35 
  70      CFD78EDD 
  70      375A1A9D 
  70      1B95
  71 010c 42243401 		.ascii	"B$4\001\253\303\260*L\331\330\015\271h\331[\266w\207"
  71      ABC3B02A 
  71      4CD9D80D 
ARM GAS  C:\Users\gjl\AppData\Local\Temp\ccYgjziF.s 			page 5


  71      B968D95B 
  71      B67787
  72 011f FC418B4A 		.ascii	"\374A\213J\000\035\207\243\335\333\277\012\320P\203"
  72      001D87A3 
  72      DDDBBF0A 
  72      D05083
  73 012e 2C1CBEDE 		.ascii	",\034\276\336\377\306\347N\271\034\004\366\253;\372"
  73      FFC6E74E 
  73      B91C04F6 
  73      AB3BFA
  74 013d AFFA736A 		.ascii	"\257\372sj\311\247\271\363\021\323\023\225\022\336\006"
  74      C9A7B9F3 
  74      11D31395 
  74      12DE06
  75 014c 493EDF82 		.ascii	"I>\337\2020\274\011a\201S\002\352 \007\255\273\366\266"
  75      30BC0961 
  75      815302EA 
  75      2007ADBB 
  75      F6B6
  76 015e 0CE87225 		.ascii	"\014\350r%#\257\267}|\323F\016>dJ\014\005\352\025RE"
  76      23AFB77D 
  76      7CD3460E 
  76      3E644A0C 
  76      05EA1552 
  77 0173 43B1C13B 		.ascii	"C\261\301;\214\253\351=\377/C\256f\334\216\213\337\015"
  77      8CABE93D 
  77      FF2F43AE 
  77      66DC8E8B 
  77      DF0D
  78 0185 3A2CDC4B 		.ascii	":,\334K\207\275\346*\002\356\231\001l`\340\340\327\335"
  78      87BDE62A 
  78      02EE9901 
  78      6C60E0E0 
  78      D7DD
  79 0197 7D86BC9B 		.ascii	"}\206\274\233\201o\357\373\242\311e\001{\017\373\314"
  79      816FEFFB 
  79      A2C96501 
  79      7B0FFBCC 
  80 01a7 2D10953A 		.ascii	"-\020\225:\354\2755X]@#\344\020\340\371\376\252!)\377"
  80      ECBD3558 
  80      5D4023E4 
  80      10E0F9FE 
  80      AA2129FF 
  81 01bb C6E05A73 		.ascii	"\306\340Zso\225'\373\015\002\307\032+\002\3776ceYQ\351"
  81      6F9527FB 
  81      0D02C71A 
  81      2B02FF36 
  81      63655951 
  82 01d0 80A66438 		.ascii	"\200\246d8}\320\272gw\355\313\206\374;#wU\267\236\262"
  82      7DD0BA67 
  82      77EDCB86 
  82      FC3B2377 
  82      55B79EB2 
  83 01e4 91BB2A82 		.ascii	"\221\273*\202\257\230\261\222,\012\371\335\351![\270"
  83      AF98B192 
  83      2C0AF9DD 
  83      E9215BB8 
ARM GAS  C:\Users\gjl\AppData\Local\Temp\ccYgjziF.s 			page 6


  84 01f4 EDAD15A5 		.ascii	"\355\255\025\245\206\374\007\343\"\357\015\274\037T"
  84      86FC07E3 
  84      22EF0DBC 
  84      1F54
  85 0202 38F3C05A 		.ascii	"8\363\300Z3r/\201\366\247\000\0155\376\274\315\357,"
  85      33722F81 
  85      F6A7000D 
  85      35FEBCCD 
  85      EF2C
  86 0214 33F19305 		.ascii	"3\361\223\005\007 \033\366\341\267\031\262\251\260\230"
  86      07201BF6 
  86      E1B719B2 
  86      A9B098
  87 0223 88F7C089 		.ascii	"\210\367\300\211\032\220\323\177ix f&\022\0213\266\323"
  87      1A90D37F 
  87      69782066 
  87      26121133 
  87      B6D3
  88 0235 F5518D77 		.ascii	"\365Q\215w\025p\266\320-\232\340\032h\244s\353\240L"
  88      1570B6D0 
  88      2D9AE01A 
  88      68A473EB 
  88      A04C
  89 0247 7A806AE0 		.ascii	"z\200j\340\005\252 \012\016\015g\343\264s\0165\363\200"
  89      05AA200A 
  89      0E0D67E3 
  89      B4730E35 
  89      F380
  90 0259 52359F81 		.ascii	"R5\237\201\013\270\245\004:\027r7\223\272\213\250YL"
  90      0BB8A504 
  90      3A177237 
  90      93BA8BA8 
  90      594C
  91 026b CD12412B 		.ascii	"\315\022A+g\263\343\245\334\346\340\264k\0315\271\324"
  91      67B3E3A5 
  91      DCE6E0B4 
  91      6B1935B9 
  91      D4
  92 027c 2CC7C6BD 		.ascii	",\307\306\275\202\241y\034P>[\011\361=\322h\272C\214"
  92      82A1791C 
  92      503E5B09 
  92      F13DD268 
  92      BA438C
  93 028f 6A1A3EE4 		.ascii	"j\032>\344E\250\2105\267\003\321\212H\017)p\360\277"
  93      45A88835 
  93      B703D18A 
  93      480F2970 
  93      F0BF
  94 02a1 971C5BE1 		.ascii	"\227\034[\341\205\022\314@lk'\252\324\203{BRr\240\005"
  94      8512CC40 
  94      6C6B27AA 
  94      D4837B42 
  94      5272A005 
  95 02b5 B6029974 		.ascii	"\266\002\231tomu\222~\005\020\342\320\310\231\013`#"
  95      6F6D7592 
  95      7E0510E2 
  95      D0C8990B 
ARM GAS  C:\Users\gjl\AppData\Local\Temp\ccYgjziF.s 			page 7


  95      6023
  96 02c7 F6BB1000 		.ascii	"\366\273\020\000\255X;S\322^\201\367\025\246\373?\365"
  96      AD583B53 
  96      D25E81F7 
  96      15A6FB3F 
  96      F5
  97 02d8 3D16C6C0 		.ascii	"=\026\306\300ai\345@\255\333\306\2641\246\2151\234\343"
  97      6169E540 
  97      ADDBC6B4 
  97      31A68D31 
  97      9CE3
  98 02ea 830AF3D3 		.ascii	"\203\012\363\323x\317A\227\302xI\341\333\206_w\332\230"
  98      78CF4197 
  98      C27849E1 
  98      DB865F77 
  98      DA98
  99 02fc 7EC67CC0 		.ascii	"~\306|\300\030\012\016>T\230oO\326\325K\205\011\340"
  99      180A0E3E 
  99      54986F4F 
  99      D6D54B85 
  99      09E0
 100 030e F05ACFE9 		.ascii	"\360Z\317\3517}6f\23411\306\350\204\371Ha\352\3777\032"
 100      377D3666 
 100      9C3131C6 
 100      E884F948 
 100      61EAFF37 
 101 0323 0B2A4C10 		.ascii	"\013*L\020\207\257\275\273\373e\277\215\2516\010s\210"
 101      87AFBDBB 
 101      FB65BF8D 
 101      A9360873 
 101      88
 102 0334 310EC27C 		.ascii	"1\016\302|\214\030|\216jR\2149\344\005(\011Q\356\210"
 102      8C187C8E 
 102      6A528C39 
 102      E4052809 
 102      51EE88
 103 0347 EC2588C6 		.ascii	"\354%\210\306Z\332%\015IG--#g\\\3057\315\315\246\031"
 103      5ADA250D 
 103      49472D2D 
 103      23675CC5 
 103      37CDCDA6 
 104 035c 8A4A23A1 		.ascii	"\212J#\241!\014>\201b\021\221\304\246:z\350\030\223"
 104      210C3E81 
 104      621191C4 
 104      A63A7AE8 
 104      1893
 105 036e F32A794E 		.ascii	"\363*yN|8\026@\353\032\266\366VJ'\213\361\350\366\272"
 105      7C381640 
 105      EB1AB6F6 
 105      564A278B 
 105      F1E8F6BA 
 106 0382 C777C1CE 		.ascii	"\307w\301\316\222-<\355\203\303P\014\237\322\306\300"
 106      922D3CED 
 106      83C3500C 
 106      9FD2C6C0 
 107 0392 DF12579A 		.ascii	"\337\022W\232\366x\0202\227|\264\303..\242\200#P\034"
 107      F6781032 
ARM GAS  C:\Users\gjl\AppData\Local\Temp\ccYgjziF.s 			page 8


 107      977CB4C3 
 107      2E2EA280 
 107      23501C
 108 03a5 957E0E51 		.ascii	"\225~\016QO\016Q\303\020\313b\037\270RG\030H\240\"\004"
 108      4F0E51C3 
 108      10CB621F 
 108      B8524718 
 108      48A02204 
 109 03b9 1C551146 		.ascii	"\034U\021Fe\220\011\035Oc\035Jht,t\314\3443+\005\237"
 109      6590091D 
 109      4F631D4A 
 109      68742C74 
 109      CCE4332B 
 110 03cf 5995D295 		.ascii	"Y\225\322\225\202\317m\320\205|:o\341\203\020\363\025"
 110      82CF6DD0 
 110      857C3A6F 
 110      E18310F3 
 110      15
 111 03e0 2047DD93 		.ascii	" G\335\223\244z\210\324\355L\312\221LJ\212/\241\354"
 111      A47A88D4 
 111      ED4CCA91 
 111      4C4A8A2F 
 111      A1EC
 112 03f2 74A4E185 		.ascii	"t\244\341\205\371J\303T\301\206\221\226\037\375\024"
 112      F94AC354 
 112      C1869196 
 112      1FFD14
 113 0401 0B6E5538 		.ascii	"\013nU8f\235#\243\232SLh\222H\015V\300\257\262:>\223"
 113      669D23A3 
 113      9A534C68 
 113      92480D56 
 113      C0AFB23A 
 114 0417 D5EC14AC 		.ascii	"\325\354\024\254fWJw\012Vs\340\004\262\352M\301\352"
 114      66574A77 
 114      0A5673E0 
 114      04B2EA4D 
 114      C1EA
 115 0429 39F2D337 		.ascii	"9\362\3237I\252\177\212\224\313\016\355\354o\204\366"
 115      49AA7F8A 
 115      94CB0EED 
 115      EC6F84F6 
 116 0439 D9CCD032 		.ascii	"\331\314\3202R\204\226QI\333vFh\177\202\001\014\355"
 116      52849651 
 116      49DB7646 
 116      687F8201 
 116      0CED
 117 044b 64EAD032 		.ascii	"d\352\3202\340\324dh\203S\241\271\223\363\255\263\210"
 117      E0D46468 
 117      8353A1B9 
 117      93F3ADB3 
 117      88
 118 045c 7E4AA7F3 		.ascii	"~J\247\363\271\011T\235\200\323\266\212\346\261\212"
 118      B909549D 
 118      80D3B68A 
 118      E6B18A
 119 046b 6EA451D1 		.ascii	"n\244Q\321\374\004\226S\300\231IR\225\007k{\003j+.\202"
 119      FC049653 
ARM GAS  C:\Users\gjl\AppData\Local\Temp\ccYgjziF.s 			page 9


 119      C0994952 
 119      95076B7B 
 119      036A2B2E 
 120 0480 CF211C95 		.ascii	"\317!\034\225\013\3040D\342\345\023\231\252\274\263"
 120      0BC43044 
 120      E2E51399 
 120      AABCB3
 121 048f B1C27067 		.ascii	"\261\302pg\230&\307\235jj\016\316\"t\377\360\321\303"
 121      9826C79D 
 121      6A6A0ECE 
 121      2274FFF0 
 121      D1C3
 122 04a1 862ABA09 		.ascii	"\206*\272\011p\0269^\002\307\257.{N-\213\036h\031\242"
 122      7016395E 
 122      02C7AF2E 
 122      7B4E2D8B 
 122      1E6819A2 
 123 04b5 B5C548CB 		.ascii	"\265\305H\313\012\367#|1\305\2122\343I\316\214\203]"
 123      0AF7237C 
 123      31C58A32 
 123      E349CE8C 
 123      835D
 124 04c7 D4A47741 		.ascii	"\324\244wA\2119?\345b\030J[\033\333_\224\212\305\374"
 124      89393FE5 
 124      62184A5B 
 124      1BDB5F94 
 124      8AC5FC
 125 04da E9250DAB 		.ascii	"\351%\015\253+\275\275c\263\217\212g\362\216\300\003"
 125      2BBDBD63 
 125      B38F8A67 
 125      F28EC003 
 126 04ea 7D6144CE 		.ascii	"}aD\316\203/\255\362\325^(\335\343Z\231G\271\032\302"
 126      832FADF2 
 126      D55E28DD 
 126      E35A9947 
 126      B91AC2
 127 04fd C2FDACF1 		.ascii	"\302\375\254\361\031\375\025\254\024CPj\256\346\233"
 127      19FD15AC 
 127      1443506A 
 127      AEE69B
 128 050c 0A4F7F74 		.ascii	"\012O\177tM\331\332^>\261L\255\264@-V51\360\274[\245"
 128      4DD9DA5E 
 128      3EB14CAD 
 128      B4402D56 
 128      3531F0BC 
 129 0522 DA0D17D0 		.ascii	"\332\015\027\320\347\020hS\230\005*\274\256R\207\002"
 129      E7106853 
 129      98052ABC 
 129      AE528702 
 130 0532 85A78727 		.ascii	"\205\247\207'\223\302\303\255\372g\244\004\027g\306"
 130      93C2C3AD 
 130      FA67A404 
 130      1767C6
 131 0541 35CC71F1 		.ascii	"5\314q\361=\3605\306\205aT\227wY\227\315B\216\344\226"
 131      3DF035C6 
 131      85615497 
 131      775997CD 
ARM GAS  C:\Users\gjl\AppData\Local\Temp\ccYgjziF.s 			page 10


 131      428EE496 
 132 0555 6517B25C 		.ascii	"e\027\262\\\232;\322\250\313*\334\245I\275T\\6\017\352"
 132      9A3BD2A8 
 132      CB2ADCA5 
 132      49BD545C 
 132      360FEA
 133 0568 8A44165C 		.ascii	"\212D\026\\\236\324\313x\371\211\\\265J&\372\374]b\270"
 133      9ED4CB78 
 133      F9895CB5 
 133      4A26FAFC 
 133      5D62B8
 134 057b 628B2133 		.ascii	"b\213!3j\221\037\355\216\007\225\223E\311l\323U\341"
 134      6A911FED 
 134      8E079593 
 134      45C96CD3 
 134      55E1
 135 058d 1B66CB37 		.ascii	"\033f\3137\330\210b;^~\217\362\260X99p\265\356\200u"
 135      D888623B 
 135      5E7E8FF2 
 135      B0583939 
 135      70B5EE80 
 136 05a2 30C5047C 		.ascii	"0\305\004|\373;\302\272j\207\265x2\254\236&K2Kn\325"
 136      FB3BC2BA 
 136      6A87B578 
 136      32AC9E26 
 136      4B324B6E 
 137 05b7 C8ABE935 		.ascii	"\310\253\3515\342\200\3578:\276+\277\2674\262\206\023"
 137      E280EF38 
 137      3ABE2BBF 
 137      B734B286 
 137      13
 138 05c8 DF4C895F 		.ascii	"\337L\211_\242\352}\314\226c\366\037\322\337(\373\346"
 138      A2EA7DCC 
 138      9663F61F 
 138      D2DF28FB 
 138      E6
 139 05d9 3B359EA4 		.ascii	";5\236\244\277}\344;\333\322\237U\222\2458\223$86Z\312"
 139      BF7DE43B 
 139      DBD29F55 
 139      92A53893 
 139      2438365A 
 140 05ee 5BCA10F8 		.ascii	"[\312\020\370\012.\021\037\022jZ\0125`uh\326\000\337"
 140      0A2E111F 
 140      126A5A0A 
 140      35607568 
 140      D600DF
 141 0601 6622A841 		.ascii	"f\"\250A\2148^qb\271\362\232C\2664\343R\343edN\202\263"
 141      8C385E71 
 141      62B9F29A 
 141      43B634E3 
 141      52E36564 
 142 0618 4E895C36 		.ascii	"N\211\\6Y\246@#\226\006\227\343<\335\037\247\"\031\326"
 142      59A64023 
 142      960697E3 
 142      3CDD1FA7 
 142      2219D6
 143 062b 04F23AD2 		.ascii	"\004\362:\322\360\3429\037\025\311\015\375\002\306\324"
ARM GAS  C:\Users\gjl\AppData\Local\Temp\ccYgjziF.s 			page 11


 143      F0E2391F 
 143      15C90DFD 
 143      02C6D4
 144 063a F51107C0 		.ascii	"\365\021\007\300\223\307\203M^\250m`}\0344\024\226\247"
 144      93C7834D 
 144      5EA86D60 
 144      7D1C3414 
 144      96A7
 145 064c ECC1885C 		.ascii	"\354\301\210\\\021\252\037\010\305A\"\005\317\215\276"
 145      11AA1F08 
 145      C5412205 
 145      CF8DBE
 146 065b F511A987 		.ascii	"\365\021\251\207\000\231xE\333\032\311\256\233\267Y"
 146      00997845 
 146      DB1AC9AE 
 146      9BB759
 147 066a 21D13F0D 		.ascii	"!\321?\015W;\343w+\275\366\011\370a\362j\362\211\033"
 147      573BE377 
 147      2BBDF609 
 147      F861F26A 
 147      F2891B
 148 067d 05443B76 		.ascii	"\005D;v\266J\3329A\353\211\346=\227}\312\034C\271\006"
 148      B64ADA39 
 148      41EB89E6 
 148      3D977DCA 
 148      1C43B906 
 149 0691 7CEED594 		.ascii	"|\356\325\224OX\234\363iJ\245eZ&\363\331\243_\034\357"
 149      4F589CF3 
 149      694AA565 
 149      5A26F3D9 
 149      A35F1CEF 
 150 06a5 4CCA241D 		.ascii	"L\312$\035\334\345\261\261\2524\367Kf\002/!\001\377"
 150      DCE5B1B1 
 150      AA34F74B 
 150      66022F21 
 150      01FF
 151 06b7 B7F5A6A3 		.ascii	"\267\365\246\243&\2422K\355\331\223un\265\342\012\\"
 151      26A2324B 
 151      EDD99375 
 151      6EB5E20A 
 151      5C
 152 06c8 8D5C256D 		.ascii	"\215\\%m\332\025\312\350\\\335]\312(\017\213\203\376"
 152      DA15CAE8 
 152      5CDD5DCA 
 152      280F8B83 
 152      FE
 153 06d9 FB229F1C 		.ascii	"\373\"\237\034\263^\305\022\000\327\247\025\234\353"
 153      B35EC512 
 153      00D7A715 
 153      9CEB
 154 06e7 9747893F 		.ascii	"\227G\211?\023\031\263\263\223g\337\324q\300\265\245"
 154      1319B3B3 
 154      9367DFD4 
 154      71C0B5A5 
 155 06f7 81A9CEF7 		.ascii	"\201\251\316\367\335\370l.\276\260\206\304\316#(2-@"
 155      DDF86C2E 
 155      BEB086C4 
ARM GAS  C:\Users\gjl\AppData\Local\Temp\ccYgjziF.s 			page 12


 155      CE232832 
 155      2D40
 156 0709 072E1DB2 		.ascii	"\007.\035\2627\323\035\020\326A=\236|P\007E\363\035"
 156      37D31D10 
 156      D6413D9E 
 156      7C500745 
 156      F31D
 157 071b 7C50F38B 		.ascii	"|P\363\213\354\025\312I\204\337\346\342\340\230~\256"
 157      EC15CA49 
 157      84DFE6E2 
 157      E0987EAE 
 158 072b E1FFB3F0 		.ascii	"\341\377\263\360#\204\265\035\203\233pz_EW\243\241\246"
 158      2384B51D 
 158      839B707A 
 158      5F4557A3 
 158      A1A6
 159 073d 012620AC 		.ascii	"\001& \254\267\015>JO\034c\353\3446\300\255\233[\027"
 159      B70D3E4A 
 159      4F1C63EB 
 159      E436C0AD 
 159      9B5B17
 160 0750 BD5B032E 		.ascii	"\275[\003.\205'@N~\376Z\374{\266p\303]k\213\236\336"
 160      8527404E 
 160      7EFE5AFC 
 160      7BB670C3 
 160      5D6B8B9E 
 161 0765 5884BD4D 		.ascii	"X\204\275M\205\353\326\257{\252h}\341_\012\012\326\025"
 161      85EBD6AF 
 161      7BAA687D 
 161      E15F0A0A 
 161      D615
 162 0777 166C2A28 		.ascii	"\026l*(\314/\022:\315\313'\236\336\340zx\343\206u\217"
 162      CC2F123A 
 162      CDCB279E 
 162      DEE07A78 
 162      E386758F 
 163 078b 3DF90C3F 		.ascii	"=\371\014?\237zf\243\304/\024\301\246_\000<\335\260"
 163      9F7A66A3 
 163      C42F14C1 
 163      A65F003C 
 163      DDB0
 164 079d 70       		.ascii	"p"
 165              		.text
 166              		.section	.gnu.lto_u8x8_pcd8544_84x48_display_info.1a3ebb4,"",%progbits
 167 0000 789C2DCD 		.ascii	"x\234-\315KK\002Q\030\306\361\363\2343\343%G\255\326"
 167      4B4B0251 
 167      18C6F1F3 
 167      9C33E325 
 167      47ADD6
 168 0013 D2BA654B 		.ascii	"\322\272eK?\230\037` \225\326\342&*\212\010\272\230"
 168      3F981F60 
 168      2095D6E2 
 168      262A8A08 
 168      BA98
 169 0025 CD3499E2 		.ascii	"\3154\231\342\350\242\2402q\025\004\341\302V-\012\334"
 169      E8A2A032 
 169      711504E1 
ARM GAS  C:\Users\gjl\AppData\Local\Temp\ccYgjziF.s 			page 13


 169      C2562D0A 
 169      DC
 170 0036 254868E6 		.ascii	"%Hh\346\373\366\316\331\374\317\357\\-\005\305\243@"
 170      FBF6CED9 
 170      FCCFEF5C 
 170      2D05C5A3 
 170      40
 171 0047 919952BF 		.ascii	"\221\231R\277\032\235V\367\311\236\350\222Q\330\">{"
 171      1A9D56F7 
 171      C99EE892 
 171      51D8223E 
 171      7B
 172 0058 957747F8 		.ascii	"\225wG\370\312\333\336\270\375\223f\003\314\217Y=\314"
 172      CADBDEB8 
 172      FD936603 
 172      CC8F593D 
 172      CC
 173 0069 0863C4B7 		.ascii	"\010c\304\267a\261\015a\212\270\367=\372J\0127\211\341"
 173      61B10D61 
 173      8AB8F73D 
 173      FA4A0A37 
 173      89E1
 174 007b 76CD8FEE 		.ascii	"v\315\217\356n\020_\212\376\276\021Z\304Q\020\034\374"
 174      6E105F8A 
 174      FEBE115A 
 174      C451101C 
 174      FC
 175 008c 7FACE156 		.ascii	"\177\254\341V&\240\225\373iw\234\225\003\003\376l\366"
 175      26A095FB 
 175      69779C95 
 175      0303FE6C 
 175      F6
 176 009d 591D46AF 		.ascii	"Y\035F\257;\304\307\277\351]\264\255\211\375\223p\356"
 176      3BC4C7BF 
 176      E95DB4AD 
 176      89FD9370 
 176      EE
 177 00ae 086D62E3 		.ascii	"\010mb\343\241WN\010\371\255\371\356\361a<\337tw\216"
 177      A1574E08 
 177      F9ADF9EE 
 177      F1613CDF 
 177      74778E
 178 00c1 5CDF2E19 		.ascii	"\\\337.\031\263\320\012\347\310-4\320\340h\334p\214"
 178      B3D00AE7 
 178      C82D34D0 
 178      E068DC70 
 178      8C
 179 00d2 C442C0B1 		.ascii	"\304B\300\261%1\\s\342\3609\011x\234\244\\_\301\025"
 179      25315C73 
 179      E2F03909 
 179      789CA45C 
 179      5FC115
 180 00e5 27853AC7 		.ascii	"'\205:\307\301%'\215\032'\203\013NVN\256J\326p\306Y"
 180      C125278D 
 180      1A27830B 
 180      4E564EAE 
 180      4AD670C6 
ARM GAS  C:\Users\gjl\AppData\Local\Temp\ccYgjziF.s 			page 14


 181 00fa C729720A 		.ascii	"\307)r\012\267\310\253%\007\334~\373"
 181      B7C8AB25 
 181      07DC7EFB 
 182              		.text
 183              		.section	.gnu.lto_u8x8_d_pcd8544_84x48_init_seq.1a3ebb4,"",%progbits
 184 0000 789C4D90 		.ascii	"x\234M\220\315K\002A\030\207gf]\2634\015\242(\330CA"
 184      CD4B0241 
 184      18876766 
 184      5DB3340D 
 184      A228D843 
 185 0015 FF4075F1 		.ascii	"\377@u\361\317+\330\015\351\324!\020\244 \37223u\373"
 185      CF2BD80D 
 185      E9D42110 
 185      A420FA32 
 185      3375FB
 186 0028 B276B592 		.ascii	"\262v\265\222\242Ca\220]B\352\020h\020Qa\266`hj\277"
 186      A2436190 
 186      5D42EA10 
 186      68105161 
 186      B660686A 
 187 003d ED9D430B 		.ascii	"\355\235C\013\0173\017\317\313\014\263\036\306\231\373"
 187      0F330FCF 
 187      CB0CB31E 
 187      C699FB
 188 004c 0D0B2677 		.ascii	"\015\013&w\214\265\005\317\030\325\204\317\021\206\302"
 188      8CB505CF 
 188      18D584CF 
 188      1186C2
 189 005b 7897C3EF 		.ascii	"x\227\303\357j\305e\277\353\234\017@\235h\261\034\242"
 189      6AC565BF 
 189      EB9C0F40 
 189      9D68B11C 
 189      A2
 190 006c 3C0A4DD7 		.ascii	"<\012M\327\235\264\227j\010\372\235/\255\012\252\023"
 190      9DB4976A 
 190      08FA9D2F 
 190      AD0AAA13 
 191 007c D0F6E36C 		.ascii	"\320\366\343lGP\015B+\361N\324Ku\010\272\366j]\250T"
 191      47500D42 
 191      2BF14ED4 
 191      4B7508BA 
 191      F66A5DA8 
 192 0091 FBA1B19C 		.ascii	"\373\241\261\234s\255R\365A[/\213eN5\000\275/\353\226"
 192      73AD52F5 
 192      415B2F8B 
 192      654E3500 
 192      BD2FEB96 
 193 00a5 543FF4F3 		.ascii	"T?\364\363&V\011\322\360\230{Q\355\266\035\240\332\007"
 193      265609D2 
 193      F0987B51 
 193      EDB61DA0 
 193      DA07
 194 00b7 4D66376C 		.ascii	"Mf7l9\334\0135\363\372\273\034.\270Or\346\215\206B\271"
 194      39DC0B35 
 194      F3FABB1C 
 194      2EB84F72 
 194      E68D8642 
ARM GAS  C:\Users\gjl\AppData\Local\Temp\ccYgjziF.s 			page 15


 195 00cc C7556BAE 		.ascii	"\307Uk\256)\363 \264\332J\331A\252^\350\325\272\375"
 195      29F320B4 
 195      DA4AD941 
 195      AA5EE8D5 
 195      BAFD
 196 00de 238F56FF 		.ascii	"#\217V\377W\366WK\272\271$\217\362@\317\353f\\\016+"
 196      57F6574B 
 196      BAB9248F 
 196      F240CFEB 
 196      665C0E2B 
 197 00f2 D0C8C39B 		.ascii	"\320\310\303\233\023\240\341q\350e\267Q\010Q\025\320"
 197      13A0E171 
 197      E865B751 
 197      085115D0 
 198 0102 0FFDF9C9 		.ascii	"\017\375\371\311Ou\004\272\2517\277\224pv&\2622\263"
 198      4F7504BA 
 198      A937BF94 
 198      707626B2 
 198      32B3
 199 0114 A01A8AE0 		.ascii	"\240\032\212\340\223\032?\343\032\237\322x\012\313)"
 199      931A3FE3 
 199      1A9FD278 
 199      0ACB29
 200 0123 3801794E 		.ascii	"8\001yN\236\0036\260\244\037\203#\220\225>\255\361C"
 200      9E0336B0 
 200      A41F8323 
 200      90953EAD 
 200      F143
 201 0135 2C0752F7 		.ascii	",\007R\367\301\036\330\225n\202\014HK\337\001I\260\015"
 201      C11ED895 
 201      6E820C48 
 201      4BDF0149 
 201      B00D
 202 0147 12600BC4 		.ascii	"\022`\013\304\271\346\376\2610\373\005\030\031\2644"
 202      B9E6FEB1 
 202      30FB0518 
 202      19B434
 203              		.text
 204              		.section	.gnu.lto_u8x8_d_pcd8544_84x48_powersave0_seq.1a3ebb4,"",%progbits
 205 0000 789C2DCB 		.ascii	"x\234-\313\315\012\001Q\030\306\361\363\316 \241\261"
 205      CD0A0151 
 205      18C6F1F3 
 205      CE20A1B1 
 206 0010 52D42CDC 		.ascii	"R\324,\334\002\253\271,\227`1S.@M\311BQc|\016\312\302"
 206      02ABB92C 
 206      97603153 
 206      2E404DC9 
 206      4251637C 
 207 0027 4A8A522C 		.ascii	"J\212R,,g\247f\224\025a\312b|=\323\353\324\3239\277"
 207      2C67A766 
 207      941561CA 
 207      627C3DD3 
 207      EBD4D339 
 208 003c FE9D9820 		.ascii	"\376\235\230 \021\235\007\306/!\336\022\215\015\337"
 208      119D07C6 
 208      2F21DE12 
 208      8D0DDF
ARM GAS  C:\Users\gjl\AppData\Local\Temp\ccYgjziF.s 			page 16


 209 004b 4E069221 		.ascii	"N\006\222!\013\372\022\354\207\303\205\022\231(\001"
 209      0BFA12EC 
 209      87C38512 
 209      992801
 210 005a 06E6CECD 		.ascii	"\006\346\316\315r.\200\333\316\342\225\341\032\007\303"
 210      722E80DB 
 210      CEE295E1 
 210      1A07C3
 211 0069 73DD25AE 		.ascii	"s\335%\256\031\360\240;M\231k\014\364\254\217\231\340"
 211      19F0A03B 
 211      4D996B0C 
 211      F4AC8F99 
 211      E0
 212 007a 9A035777 		.ascii	"\232\003Ww\307\372\377\225\301\333\276\341)\\\213\340"
 212      C7FAFF95 
 212      C1DBBEE1 
 212      295C8BE0 
 213 008a FAFB5C66 		.ascii	"\372\373\\f\271J\340E?\035\323\\\363\340\354\272i\247"
 213      B94AE045 
 213      3F1DD35C 
 213      F3E0ECBA 
 213      69A7
 214 009c B479B5D6 		.ascii	"\264y\265\326\252V\014Y\242\222J\023R\251\254\322\020"
 214      AA560C59 
 214      A2924A13 
 214      52A9ACD2 
 214      10
 215 00ad 97838DB1 		.ascii	"\227\203\215\261\021\261\007X\037\353a6\326\305,R\005"
 215      11B10758 
 215      1FEB6136 
 215      D6C52C52 
 215      05
 216 00be 4D49133F 		.ascii	"MI\023?C\272S\362"
 216      43BA53F2 
 217              		.text
 218              		.section	.gnu.lto_u8x8_d_pcd8544_84x48_powersave1_seq.1a3ebb4,"",%progbits
 219 0000 789C2DCC 		.ascii	"x\234-\314?k\302@\030\307\361{\356\374\007\0253\011"
 219      3F6BC240 
 219      18C7F17B 
 219      EEFC0715 
 219      3309
 220 0012 166E50F0 		.ascii	"\026nP\360\015\330.\276\274\014\011H'\027\011H\007)"
 220      0DD82EBE 
 220      BC0C0948 
 220      27170948 
 220      0729
 221 0024 42AAD69A 		.ascii	"B\252\326\232\376\241C\332\241\010\016\025\035\034\273"
 221      FEA143DA 
 221      A1080E15 
 221      1D1CBB
 222 0033 15121D1C 		.ascii	"\025\022\035\034\012\225@\204\266\352/<\011|\271|\370"
 222      0A954084 
 222      B6EA2F3C 
 222      097CB97C 
 222      F8
 223 0044 1D971124 		.ascii	"\035\227\021$\222\257\206\203\377\204\370\2274\261\303"
 223      92AF8683 
ARM GAS  C:\Users\gjl\AppData\Local\Temp\ccYgjziF.s 			page 17


 223      FF84F897 
 223      34B1C3
 224 0053 412192B6 		.ascii	"A!\222\266\022t$8r\026\237\006\373<\341\225\035\253"
 224      12742438 
 224      72169F06 
 224      FB3CE195 
 224      1DAB
 225 0065 84447970 		.ascii	"\204Dyp\377\266\272\221\274\326\301\360w\354\227x\315"
 225      FFB6BA91 
 225      BCD6C1F0 
 225      77EC9778 
 225      CD
 226 0076 81817B70 		.ascii	"\201\201{pr\274\226\301\217\276\377W\3445\013v_\243"
 226      72BC96C1 
 226      8FBEFF57 
 226      E4350B76 
 226      5FA3
 227 0088 7996D702 		.ascii	"y\226\327\002\270\262\274\353\364\345\0148\335ynzY\201"
 227      B8B2BCEB 
 227      F4E50C38 
 227      DD796E7A 
 227      5981
 228 009a 3FCB6E50 		.ascii	"?\313nP\342\313Upv\214\337\015^%\370m\255\277\316x\255"
 228      E2CB5570 
 228      768CDF0D 
 228      5E25F86D 
 228      ADBFCE78 
 229 00af 809DE576 		.ascii	"\200\235\345v#\233/f\253g\266\225\255$54=\221\246\013"
 229      239B2F66 
 229      AB67B695 
 229      AD243534 
 229      3D91A60B 
 230 00c3 4D77381E 		.ascii	"Mw8\036\321\003\362\210=A\367h\234z\204\206h\200n\321"
 230      D103F288 
 230      3D41F768 
 230      9C7A8486 
 230      68806ED1 
 231 00d7 A52697B4 		.ascii	"\245&\227\264\240gj\212\023\371\350a2"
 231      A0676A8A 
 231      13F9E861 
 231      32
 232              		.text
 233              		.section	.gnu.lto_.symbol_nodes.1a3ebb4,"",%progbits
 234 0000 789C55CB 		.ascii	"x\234U\313;\016\3020\020E\321k;\316\267\243@\224\260"
 234      3B0EC230 
 234      1045D16B 
 234      3BCEB7A3 
 234      4094B0
 235 0013 1C56352E 		.ascii	"\034V5.\"!\245\000\304\002\240\361\"\200:\242\244\243"
 235      2221A500 
 235      C402A0F1 
 235      22803AA2 
 235      A4A3
 236 0025 A38C946D 		.ascii	"\243\214\224m\220\330)putGo2\024\033\005\350L\340\374"
 236      90D82970 
 236      7574476F 
 236      32141B05 
ARM GAS  C:\Users\gjl\AppData\Local\Temp\ccYgjziF.s 			page 18


 236      E84CE0FC 
 237 0039 8689A7DB 		.ascii	"\206\211\247\333\2015\306\255\300XtT\251\250&\250jQ"
 237      8135C6AD 
 237      C0587454 
 237      A9A826A8 
 237      6A51
 238 004b E1019CDB 		.ascii	"\341\001\234\333\202jD']\211I\272\224,\351Bl\322\271"
 238      826A4427 
 238      5D8949BA 
 238      942CE942 
 238      6CD2B9
 239 005e E4495B29 		.ascii	"\344I[)\376\333\3200\334\327\206\032\377\230\250\350"
 239      FEDBD030 
 239      DCD7861A 
 239      FF98A8E8 
 240 006e 23FEF551 		.ascii	"#\376\365Q!\203%\355a\324\206\002\277\330v\263\026\037"
 240      218325ED 
 240      61D48602 
 240      BFD876B3 
 240      161F
 241 0080 2C19BA78 		.ascii	",\031\272x\037\216\313\356\264\354.\2639\355\365\273"
 241      1F8ECBEE 
 241      B4EC2EB3 
 241      39EDF5BB 
 242 0090 9FF7FD6D 		.ascii	"\237\367\375m\324\374\000\371\260;\004"
 242      D4FC00F9 
 242      B03B04
 243              		.text
 244              		.section	.gnu.lto_.refs.1a3ebb4,"",%progbits
 245 0000 789C6361 		.ascii	"x\234ca`d\340g```a`bdfbbcb\346db\341b\000\000\002\363"
 245      6064E067 
 245      60606061 
 245      60626466 
 245      62626362 
 246 001d 0047     		.ascii	"\000G"
 247              		.text
 248              		.section	.gnu.lto_.decls.1a3ebb4,"",%progbits
 249 0000 789CBD59 		.ascii	"x\234\275YkP\024Y\226\256\233\267\012\212\242\200\026"
 249      6B501459 
 249      96AE9BB7 
 249      0A8AA280 
 249      16
 250 0011 E81E6382 		.ascii	"\350\036c\202\235v\273ie#fl\355v&\210\371\325\273\275"
 250      9D76BB69 
 250      6523666C 
 250      ED762688 
 250      F9D5BBBD 
 251 0025 AFD81FB3 		.ascii	"\257\330\037\263=1\323\275\261\023\304\324\026U\245"
 251      3D31D3BD 
 251      B113C4D4 
 251      1655A5
 252 0034 D60E14D5 		.ascii	"\326\016\024\325Tac\307\304l\362\020\025\024A\036\202"
 252      546163C7 
 252      C46CF210 
 252      1514411E 
 252      82
 253 0045 EFB728E0 		.ascii	"\357\267(\340\003\025\344\241\224\250 \242\202\">\021"
ARM GAS  C:\Users\gjl\AppData\Local\Temp\ccYgjziF.s 			page 19


 253      0315E4A1 
 253      94A820A2 
 253      82223E11 
 254 0055 5150B1F1 		.ascii	"QP\261\361\201<D\004\254=\367\336\314\312\314\352\244"
 254      813C4404 
 254      AC3DF7DE 
 254      CCCACCEA 
 254      A4
 255 0066 FBCFCE66 		.ascii	"\373\317\316fp\310<\367~\367\234\363\235\373\314,\255"
 255      70C83CF7 
 255      7EF79CF3 
 255      9DFBCC2C 
 255      AD
 256 0077 0669E8F5 		.ascii	"\006i\350\365\276F\263M\247\321$p\032\215\027\256\000"
 256      BE46B34D 
 256      A7D12470 
 256      1A8D17AE 
 256      00
 257 0088 28FA0A84 		.ascii	"(\372\012\204\334\017\201\324\202x@Z@\214\320$\212\265"
 257      DC0F81D4 
 257      8278405A 
 257      408CD024 
 257      8AB5
 258 009a D2E8417E 		.ascii	"\322\350A~\013\372\177\200\230@l KA\022A\276\006Y\006"
 258      0BFA7F80 
 258      98406C20 
 258      4B411241 
 258      BE065906 
 259 00ae A2054C2A 		.ascii	"\242\005L*\334\277\005\3713\310_\004\227\342E\332\377"
 259      DCBF05F9 
 259      33C85F04 
 259      97E245DA 
 259      FF
 260 00bf ADE0271C 		.ascii	"\255\340'\034$\022\344\037\240\354K\270\377A\360\365"
 260      2412E41F 
 260      A0EC4BB8 
 260      FF41F0F5 
 261 00cf 05C8BF0B 		.ascii	"\005\310\277\0131\375\017b1\004\203\244\200\360 N\220"
 261      31FD0F62 
 261      310483A4 
 261      80F0204E 
 261      90
 262 00e0 34C4E26B 		.ascii	"4\304\342k\006I@,\336F!\366\023 \351P\366\025H\006\210"
 262      0649402C 
 262      DE4621F6 
 262      1320E950 
 262      F6154806 
 263 00f5 15A40064 		.ascii	"\025\244\000d=\310\347 \205 \177\004\201\024hr\340\376"
 263      3DC8E720 
 263      85207F04 
 263      81146872 
 263      E0FE
 264 0107 6B90B520 		.ascii	"k\220\265 \271 k\220\304s\231\300+Q\340i\223q7\000\246"
 264      B9206B90 
 264      C47399C0 
 264      2B51E069 
 264      93713700 
ARM GAS  C:\Users\gjl\AppData\Local\Temp\ccYgjziF.s 			page 20


 265 011c 08EEC520 		.ascii	"\010\356\305 \033@J@JA6\012\234\377,\344 \325\217\377"
 265      1B404A40 
 265      4A41360A 
 265      9CFF2CE4 
 265      20D58FFF 
 266 0130 5F841CCD 		.ascii	"_\204\034\315\3250\256\3634\214[\004\334\337\200\214"
 266      D530AEF3 
 266      348C5B04 
 266      DCDF808C 
 267 0140 838C814C 		.ascii	"\203\214\201L\202L\201\350\240n\004\356\257@\274 \034"
 267      824C81E8 
 267      A06E04EE 
 267      AF40BC20 
 267      1C
 268 0151 B107320D 		.ascii	"\261\0072\0157\014\367@\220Qx~\0132A\252@\017\360\363"
 268      370CF740 
 268      9051787E 
 268      0B3241AA 
 268      400FF0F3 
 269 0165 295E2426 		.ascii	")^$&,\370\215\024r7\323\365\255\037\266\361\007\260"
 269      2CF88D14 
 269      7237D3F5 
 269      AD1FB6F1 
 269      07B0
 270 0177 A97ED813 		.ascii	"\251~\330\023?\200\235\346\320\241\025\375\373\365\243"
 270      3F809DE6 
 270      D0A115FD 
 270      FBF5A3
 271 0186 1C8A3220 		.ascii	"\034\2122 /\"\372\323\332\211\020\246\223\352{\023e"
 271      2F22FAD3 
 271      DA8910A6 
 271      93EA7B13 
 271      65
 272 0197 FF3CBF82 		.ascii	"\377<\277\202\207+\217\3479Njw\3143R\251\305\301\004"
 272      872B8FE7 
 272      394E6A77 
 272      CC3352A9 
 272      C5C104
 273 01aa C45D397A 		.ascii	"\304]9z\353\\\020\2121\354%\270\336;\243\177\237\301"
 273      EB5C108A 
 273      31EC25B8 
 273      DE3BA37F 
 273      9FC1
 274 01bc F3085520 		.ascii	"\363\010U \003:\2000\332\217\346\223TD\221NZ\305\363"
 274      033A8030 
 274      DA8FE693 
 274      5444914E 
 274      5AC5F3
 275 01cf E9FCD04E 		.ascii	"\351\374\320N>`\266\006}\032\205\026DiP9\212!\316\010"
 275      3E60B606 
 275      7D1A8516 
 275      44695039 
 275      8A21CE08 
 276 01e3 0A95A128 		.ascii	"\012\225\241(\264\017E\021\373\373\267\225\235\015\301"
 276      B40F4511 
 276      FBFBB795 
 276      9D0DC1
ARM GAS  C:\Users\gjl\AppData\Local\Temp\ccYgjziF.s 			page 21


 277 01f2 25883A78 		.ascii	"%\210:xV8\270\012\373\034\344\347D\225\363\374;\350"
 277      5638B80A 
 277      FB1CE4E7 
 277      4495F3FC 
 277      3BE8
 278 0204 1038A894 		.ascii	"\0208\250\224\034\200?u\017\007U<\220\306\340\345J\346"
 278      1C803F75 
 278      0F07553C 
 278      90C6E0E5 
 278      4AE6
 279 0216 E1CD18D8 		.ascii	"\341\315\030\330\206\033\220\026\324\227\2276\366\205"
 279      861B9016 
 279      D4979736 
 279      F685
 280 0224 821A6940 		.ascii	"\202\032i@s@\335X?zA\307j\365\240\266\016\337\272\034"
 280      7340DD58 
 280      3F7A41C7 
 280      6AF5A0B6 
 280      0EDFBA1C 
 281 0238 62584593 		.ascii	"bXE\223\221\301\207\237\017%\025G\300\340a0\250AG\211"
 281      91C1879F 
 281      0F251547 
 281      C0E06130 
 281      A8414789 
 282 024c 7FF47114 		.ascii	"\177\364q\024\252b\014\312\253\367\324!\326:\010\324"
 282      AA620CCA 
 282      ABF7D421 
 282      D63A08D4 
 283 025c 9C73C79B 		.ascii	"\234s\307\2331\263}\236T\247\277\331v!,<OH\355g\210"
 283      31B37D9E 
 283      54A7BFD9 
 283      76212C3C 
 283      4F48ED67 
 284 0271 D2390ED6 		.ascii	"\3229\016\326\216Qk\325(\\\264I\320[\272\036\344\005"
 284      8E516BD5 
 284      285CB449 
 284      D05BBA1E 
 284      E405
 285 0283 19047279 		.ascii	"\031\004ry?B\016\360\305\373_\234\327\312\255\327\374"
 285      3F420EF0 
 285      C5FB5F9C 
 285      D7CAADD7 
 285      FC
 286 0294 90F59C82 		.ascii	"\220\365\234\202\311\223Fc6\261.0;\201\302e\324j\221"
 286      C9934663 
 286      36B12E30 
 286      3B81C265 
 286      D46A91
 287 02a7 91743BB9 		.ascii	"\221t;\271\003\272\177\262\262.\224\021\013\000\365"
 287      03BA7FB2 
 287      B22E9411 
 287      0B00F5
 288 02b6 45DFF803 		.ascii	"E\337\370\003\375\314i\251\027\323R\307\"\033\315^1"
 288      FDCC69A9 
 288      17D352C7 
 288      221BCD5E 
 288      31
ARM GAS  C:\Users\gjl\AppData\Local\Temp\ccYgjziF.s 			page 22


 289 02c7 2EA43C10 		.ascii	".\244<\020\324\262G\233s\215,-\261\240z^\360\343\337"
 289      D4B2479B 
 289      738D2C2D 
 289      B1A07A5E 
 289      F0E3DF
 290 02da CBCA4930 		.ascii	"\313\312I0\326@\215\235\242q\327\213qW\356\314\270\300"
 290      D6408D9D 
 290      A271D78B 
 290      7157EECC 
 290      B8C0
 291 02ec F9B39C11 		.ascii	"\371\263\234\021]\267\271\245[\247`\331\250`\351\021"
 291      5DB7B9A5 
 291      5BA760D9 
 291      A860E911 
 292 02fc 587A28CB 		.ascii	"Xz(\313\253C\027\267\004\2638\337!c\201\317:\210gf\331"
 292      AB4317B7 
 292      04B338DF 
 292      216381CF 
 292      3A886766 
 293 0311 24B23CCD 		.ascii	"$\262<\315X\256j\351\351\022:\177\026\250\025\227Z\272"
 293      58AE6AE9 
 293      E9123A7F 
 293      16A81597 
 293      5ABA
 294 0323 85CE5F45 		.ascii	"\205\316_Ef\331\330\370\241\265!\3764\317\202\2653\324"
 294      66D9D8F8 
 294      A1B521FE 
 294      34CF82B5 
 294      33D4
 295 0335 DA391A78 		.ascii	"\3329\032x\223\030x\327\376\306Q\243?\315\031\321i\375"
 295      931878D7 
 295      FEC651A3 
 295      3FCD19D1 
 295      69FD
 296 0347 636F9534 		.ascii	"co\2254\233\0254[\004\232-\224f}MC\263\216E\266\000"
 296      9B15345B 
 296      049A2D94 
 296      667D4D43 
 296      B38E45B6 
 297 035c D473DE71 		.ascii	"\324s\336qO\030\213\233\223%!\222%aMg\365\247x\003G"
 297      4F188B9B 
 297      93252192 
 297      25614D67 
 297      F5A77803 
 298 0371 57863D6F 		.ascii	"W\206=o&\207\010\245\271\260px\261l\345\230\313V\216"
 298      268708A5 
 298      B9B07078 
 298      B16CE598 
 298      CB568E
 299 0384 C6B6D6BD 		.ascii	"\306\266\326\275F\274\213\202\271\335\236\364\025\010"
 299      46BC8B82 
 299      B9DD9EF4 
 299      1508
 300 0392 1962E800 		.ascii	"\031b\350\000\3463xCY\250\006]\200\220Z\311\\\354\200"
 300      E6337843 
 300      59A8065D 
 300      80905AC9 
ARM GAS  C:\Users\gjl\AppData\Local\Temp\ccYgjziF.s 			page 23


 300      5CEC80
 301 03a5 313C5718 		.ascii	"1<W\030\303\227\240\360\"\024\012k\311\323\177\243k"
 301      C397A0F0 
 301      22140A6B 
 301      C9D37FA3 
 301      6B
 302 03b6 493B10BE 		.ascii	"I;\020\276,M\365\271\002\325S\371w\036\031\360A\346"
 302      2C4DF5B9 
 302      02D553F9 
 302      771E19F0 
 302      41E6
 303 03c8 63FFD0C5 		.ascii	"c\377\320\305\212\260\031}t\316\350#?gn\005YN\256\202"
 303      8AB0197D 
 303      74CEE823 
 303      3F676E05 
 303      594EAE82 
 304 03dc 8F2B928F 		.ascii	"\217+\222\217v1\237\3173\037\366\0129\230M\272\262\353"
 304      76319FCF 
 304      331FF60A 
 304      39984DBA 
 304      B2EB
 305 03ee E634C235 		.ascii	"\3464\3025,\011\227\336\016\235\302\270\225)\225\275"
 305      2C0997DE 
 305      0E9DC2B8 
 305      952995BD 
 306 03fe 599D3A7C 		.ascii	"Y\235:|\233){\247v\0343\342GLi\036?\271K\207_2%;\347"
 306      9B297BA7 
 306      761C33E2 
 306      474C691E 
 306      3FB94B87 
 307 0417 C08E509C 		.ascii	"\300\216P\234\205\251\262i\344\356\223 f<\006\324\025"
 307      85A9B269 
 307      E4EE9320 
 307      663C06D4 
 307      15
 308 0428 6BCA1B30 		.ascii	"k\312\0330.eu\035\367\252\306\002\360A\246\334\353\311"
 308      2E65751D 
 308      F7AAC602 
 308      F041A6DC 
 308      EBC9
 309 043a FF6F5CC3 		.ascii	"\377o\\\303\236\357\236\337_NR?\217\244\336\353\015"
 309      9EEF9EDF 
 309      5F4E523F 
 309      8FA4DEEB 
 309      0D
 310 044b 93257F1E 		.ascii	"\223%\177\036K\376\325u\303\273\003\361Y\012\347\232"
 310      4BFED575 
 310      C3BB03F1 
 310      590AE79A 
 311 045b D71EAD0A 		.ascii	"\327\036\255\012\226\226\347\335\306ZB\267\017\350\336"
 311      9696E7DD 
 311      C65A42B7 
 311      0FE8DE
 312 046a 97E8CEF3 		.ascii	"\227\350\316\363-\236l\320h|#\006=\200\324\315\023R"
 312      2D9E6CD0 
 312      687C2306 
 312      3D80D4CD 
ARM GAS  C:\Users\gjl\AppData\Local\Temp\ccYgjziF.s 			page 24


 312      1352
 313 047c D70B85F7 		.ascii	"\327\013\205\367\204\025zw\376\316\000\334\316|\224"
 313      84157A77 
 313      FECE00DC 
 313      CE7C94
 314 048b 1E3B306E 		.ascii	"\036;0n\220\255\320\213hJ\037\201\217~\311G\037\232"
 314      90ADD08B 
 314      684A1F81 
 314      8F7EC947 
 314      1F9A
 315 049d D9C94375 		.ascii	"\331\311Cu'\203\327\256\346\353\360M\306{\272je\275"
 315      2783D7AE 
 315      E6EBF04D 
 315      C67BBA6A 
 315      65BD
 316 04af 160F32E5 		.ascii	"\026\0172\345\361\371\211\321`<\315\2247M\351\265\010"
 316      F1F989D1 
 316      603CCD94 
 316      374DE9B5 
 316      08
 317 04c0 E769A952 		.ascii	"\347i\251R\3354qQ\207\3670\345yz\371n\204O1\245\243"
 317      DD347151 
 317      87F730E5 
 317      797AF96E 
 317      844F31A5 
 318 04d5 E8593187 		.ascii	"\350Y1\207o0ej\262 M\207\277cJc\367@E0\236\022\332\010"
 318      6F30656A 
 318      B2204D87 
 318      BF634A63 
 318      F7404530 
 319 04ed 3D1ECE7A 		.ascii	"=\036\316z\374pC\3463aW\360\220\311[\266v\350\214\001"
 319      FC7043E6 
 319      336157F0 
 319      90C95BB6 
 319      76E88C01 
 320 0501 17E908F6 		.ascii	"\027\351\010\366\335\264\306K-\201(\232\\\021\321\322"
 320      DDB4C64B 
 320      2D81289A 
 320      5C11D1D2 
 321 0511 1503B293 		.ascii	"\025\003\262\223\020\355-\032\374\254\241\272\233\347"
 321      10ED2D1A 
 321      FCACA1BA 
 321      9BE7
 322 051f B38C7492 		.ascii	"\263\214t\222\017@:^\243\010q\371\376\230\314\310\363"
 322      0F403A5E 
 322      A30871F9 
 322      FE98CCC8 
 322      F3
 323 0530 645E6A28 		.ascii	"d^j(\334\223w5\230?\374_\024zC\011=Mg\357\247\022\264"
 323      DC937735 
 323      983FFC5F 
 323      147A4309 
 323      3D4D67EF 
 324 0547 FBB20FFA 		.ascii	"\373\262\017\372T\305\352\005\231\325\222v\037\364\261"
 324      54C5EA05 
 324      99D59276 
 324      1FF4B1
ARM GAS  C:\Users\gjl\AppData\Local\Temp\ccYgjziF.s 			page 25


 325 0556 0AF4A40C 		.ascii	"\012\364\244\014zS\262\372L\005J\375\347\013K\021\217"
 325      7A53B2FA 
 325      4C054AFD 
 325      E70B4B11 
 325      8F
 326 0567 DC1AF412 		.ascii	"\334\032\364\022zk\210t\341\013\001\016}\2102\271\030"
 326      7A6B8874 
 326      E10B010E 
 326      7D8832B9 
 326      18
 327 0578 F40645A3 		.ascii	"\364\006E\243q\2201\220I\220)\220\025\\4\032\201\373"
 327      71903190 
 327      49902990 
 327      155C341A 
 327      81FB
 328 058a 2B102F48 		.ascii	"+\020/H:\350<\3104<g\300}%\310(<\277\005\231\000I\003"
 328      3AE83CC8 
 328      343C67C0 
 328      7D25C828 
 328      3CBF0599 
 329 05a1 3D8B8BA6 		.ascii	"=\213\213\246\247\016\026_\261\224\240.\265\004]\223"
 329      A70E165F 
 329      B194A02E 
 329      B5045D93 
 330 05b1 71B92E71 		.ascii	"q\271.qy\256\302e\241\204\354\221\220\203*H\271\321"
 330      79AEC265 
 330      A184EC91 
 330      90832A48 
 330      B9D1
 331 05c3 2109FA9D 		.ascii	"!\011\372\235\012\364\210\014:*\245\375\266\022Z\205"
 331      0AF4880C 
 331      3A2AA5FD 
 331      B6125A85 
 332 05d3 FC3BBE50 		.ascii	"\374;\276P\342u]\215\227\274;\267\255\013-\345=\231"
 332      E2755D8D 
 332      97BC3BB7 
 332      AD0B2DE5 
 332      3D99
 333 05e5 984EB01E 		.ascii	"\230N\260\036\001\355\233J\314\266\214\334\255\366\220"
 333      01ED9B4A 
 333      CCB68CDC 
 333      ADF690
 334 05f4 0DBC270D 		.ascii	"\015\274'\015S\343\335j\201\334\221\031\257Y\037Z\302"
 334      53E3DD6A 
 334      81DC9119 
 334      AF591F5A 
 334      C2
 335 0605 7BD2315D 		.ascii	"{\3221]\020\333\004\264o\035e\301\310Iv\312\255\337"
 335      10DB04B4 
 335      6F1D65C1 
 335      C84976CA 
 335      ADDF
 336 0617 55B32E47 		.ascii	"U\263.G\277\226RrK\015\313\206\"]F<\215\271F\236\327"
 336      BF965272 
 336      4B0DCB86 
 336      225D463C 
 336      8DB9469E 
ARM GAS  C:\Users\gjl\AppData\Local\Temp\ccYgjziF.s 			page 26


 337 062c 138C4658 		.ascii	"\023\214FXB\244a0rY\346\365\211J?\310)\325\312)\015"
 337      42A46130 
 337      7259E6F5 
 337      894A3FC8 
 337      29D5CA29 
 338 0641 AB5392F7 		.ascii	"\253S\222\367\205WN\351\246Zo\320\354\302Zpk\335\246"
 338      85574EE9 
 338      A65A6FD0 
 338      ECC25A70 
 338      6BDDA6
 339 0654 D2305C47 		.ascii	"\3220\\G\327\002\356R\377\306\306P\024\021\243>=\262"
 339      D702EE52 
 339      FFC6C650 
 339      1411A33E 
 339      3DB2
 340 0666 614AFC35 		.ascii	"aJ\3745\247\007\313\331\335\266\237\223\234\255\346"
 340      A707CBD9 
 340      DDB69F93 
 340      9CADE6
 341 0675 22D02ACE 		.ascii	"\"\320*\316\267\362\222\024\322xw\224\355[\213\"\204"
 341      B7F29214 
 341      D2787794 
 341      ED5B8B22 
 341      84
 342 0686 003D3306 		.ascii	"\000=3\006\250\371?\217\016|ge\217\244!\305\301$\207"
 342      A8F93F8F 
 342      0E7C6765 
 342      8FA421C5 
 342      C12487
 343 0699 8B901D4C 		.ascii	"\213\220\035L\326p\354`\002w\262Vg6\327\350\357\300"
 343      D670EC60 
 343      0277B256 
 343      6736D7E8 
 343      EFC0
 344 06ab 20815D53 		.ascii	" \201]Sx\205B\210\375GT4L\250\012\017\034\375\257\361"
 344      78854288 
 344      FD475434 
 344      4CA80A0F 
 344      1CFDAFF1 
 345 06bf 15F96E1A 		.ascii	"\025\371n\032\362_\303\360\264L2F\377\304\273W\274\330"
 345      F25FC3F0 
 345      B44C3246 
 345      FFC4BB57 
 345      BCD8
 346 06d1 4B9DCF3A 		.ascii	"K\235\317:\022\032!_\004\254\025\253\347D\253\354\306"
 346      121A215F 
 346      04AC15AB 
 346      E744ABEC 
 346      C6
 347 06e2 490D64F6 		.ascii	"I\015d\366X\270\262\230\220\222\023\022STT\327r^\217"
 347      58B8B298 
 347      90921312 
 347      535454D7 
 347      725E8F
 348 06f5 2FD3E184 		.ascii	"/\323\341\204\016VL\0366h\341\235\013}iD\361ZRt'k_["
 348      0E564C1E 
 348      3668E19D 
ARM GAS  C:\Users\gjl\AppData\Local\Temp\ccYgjziF.s 			page 27


 348      0B7D6944 
 348      F15A5274 
 349 070d 302D2223 		.ascii	"0-\"#s\035G\013\273n\366t\005\371\012\363X\241x\260"
 349      731D470B 
 349      BB6EF674 
 349      05F90AF3 
 349      58A178B0 
 350 0721 0867070B 		.ascii	"\010g\007\013\361\315&\234\275\331\360\003\231\3338"
 350      F1CD269C 
 350      BDD9F003 
 350      99DB38
 351 0730 DCC7FC34 		.ascii	"\334\307\3744\016\3447\352\3610S:\366=\273\021\212\263"
 351      0EE437EA 
 351      F130533A 
 351      F63DBB11 
 351      8AB3
 352 0742 03A832B0 		.ascii	"\003\2502\260\275\261J\217\3670\245\310\263~\312\200"
 352      BDB14A8F 
 352      F730A5C8 
 352      B37ECA80 
 353 0752 8F30A5B5 		.ascii	"\2170\245\265\366\301\002\334\300\236_\265]\273\213"
 353      F6C102DC 
 353      C09E5FB5 
 353      5DBB8B
 354 0761 711B53D6 		.ascii	"q\033S\3265\235<\243\3077\230\322\334}\273K\213\373"
 354      359D3CA3 
 354      C73798D2 
 354      DC7DBB4B 
 354      8BFB
 355 0773 989276F2 		.ascii	"\230\222v\362\314\321\020\374\232)\323G\217\236A8-\220"
 355      CCD110FC 
 355      9A29D347 
 355      8F9E4138 
 355      2D90
 356 0785 2A8FB2F7 		.ascii	"*\217\262\367\2774\342l\246<\351\256\231R\276\213\220"
 356      BF34E26C 
 356      A63CE9AE 
 356      9952BE8B 
 356      90
 357 0796 D3AE344A 		.ascii	"\323\2564J\266\263Q\002\310\007G\306\237\352\361:\326"
 357      B6B35102 
 357      C80747C6 
 357      9FEAF13A 
 357      D6
 358 07a7 6CA5F7EE 		.ascii	"l\245\367\356Y=\336\301\224\314}k7\205\340J\246\344"
 358      593DDEC1 
 358      94CC7D6B 
 358      3785E04A 
 358      A6E4
 359 07b9 960ED707 		.ascii	"\226\016\327\007\342\343L\351\364l\337\024\204\033\230"
 359      E2E34CE9 
 359      F46CDF14 
 359      841B98
 360 07c8 D2776C7C 		.ascii	"\322wl|w\010na"
 360      77086E61 
 361 07d0 CAFD1727 		.ascii	"\312\375\027'K\003}Yd\351>~u\333\275@\334\316\000o\332"
 361      4B037D59 
ARM GAS  C:\Users\gjl\AppData\Local\Temp\ccYgjziF.s 			page 28


 361      64E93E7E 
 361      75DBBD40 
 361      DCCE006F 
 362 07e5 27EB10EE 		.ascii	"'\353\020\356f\312x\345\343n\035~\"\270\333\222\327"
 362      66CA78E5 
 362      E36E1D7E 
 362      22B8DB92 
 362      D7
 363 07f6 CEB1E4FE 		.ascii	"\316\261\344\376\234\274{\255\336\334\253e\347\205^"
 363      9CBC7BAD 
 363      DEDCAB65 
 363      E7855E
 364 0805 72881E78 		.ascii	"r\210\036x\270\251\331\200\307\030\266\261\363\320\305"
 364      B8A9D980 
 364      C718B6B1 
 364      F3D0C5
 365 0814 30BC5A4F 		.ascii	"0\274ZO\224\017\272\237V\325\206 \305\301!:\332h\234"
 365      940FBA9F 
 365      56D58620 
 365      C5C1213A 
 365      DA689C
 366 0827 AD354688 		.ascii	"\2555F\210O1\321111lU\332p]\266*m\206\311}\230\363\255"
 366      4F31D131 
 366      31316C55 
 366      DA705DB6 
 366      2A6D86C9 
 367 083f 4A43B2C5 		.ascii	"JC\262\305S\261\374TpQ\250\234\003\304\001\241\001Y"
 367      53B1FC54 
 367      7051A89C 
 367      03C401A1 
 367      0159
 368 0851 7E2EC34C 		.ascii	"~.\303L\277\004\223\263\005\244\031\344\034\310Y\220"
 368      BF0493B3 
 368      05A419E4 
 368      1CC85990 
 369 0861 93200D20 		.ascii	"\223 \015 \365 u \207@jAN\200\324\200T\203\034\0079"
 369      F5207520 
 369      87406A41 
 369      4E80D480 
 369      54831C07 
 370 0876 067214A4 		.ascii	"\006r\024\244\012\344\210bwn\270\356[\336+\225\021\256"
 370      0AE48862 
 370      776EB8EE 
 370      5BDE2B95 
 370      11AE
 371 0888 E7FC76A5 		.ascii	"\347\374v\245:\011Z\250\204\026p\376\207\222\023\022"
 371      3A095AA8 
 371      841670FE 
 371      87921312 
 372 0898 B6480D2B 		.ascii	"\266H\015+_\274\253%l\261\032V\2761\034\223\260\033"
 372      5FBCAB25 
 372      6CB11A56 
 372      BE311C93 
 372      B01B
 373 08aa D4B0F29D 		.ascii	"\324\260\362\235\253J\302\226\250a\345g\204\303\022"
 373      AB4AC296 
 373      A861E567 
ARM GAS  C:\Users\gjl\AppData\Local\Temp\ccYgjziF.s 			page 29


 373      84C312
 374 08b9 B6540D2B 		.ascii	"\266T\015+\337\314\267J\330\215jX\331\211\257D\202n"
 374      DFCCB74A 
 374      D88D6A58 
 374      D989AF44 
 374      826E
 375 08cb 5283CAB2 		.ascii	"R\203\312\262[(A\267\250\015\025y\306\012\212e\333\343"
 375      5B2841B7 
 375      A80D1579 
 375      C60A8A65 
 375      DBE3
 376 08dd 5601EDDB 		.ascii	"V\001\355\333\036\207\276\267\207\347\027\277\313\216"
 376      1E87BEB7 
 376      87E717BF 
 376      CB8E
 377 08eb 1F3017D1 		.ascii	"\0370\027\3216\001\357;~\014\371\037?\274\235a\014~"
 377      3601EF3B 
 377      7E0CF91F 
 377      3FBC9D61 
 377      0C7E
 378 08fd 0AE03BFC 		.ascii	"\012\340;\374\341\362\003\205|\326{\270\331\022\250"
 378      E1F20385 
 378      7CD67BB8 
 378      D912A8
 379 090c 03066C23 		.ascii	"\003\006l#\264f\333\331L0\215\014SL&\001\274\005\316"
 379      B466DBD9 
 379      4C308D0C 
 379      534C2601 
 379      BC05CE
 380 091f E1680E44 		.ascii	"\341h\016D6\032\322\000\376\237\346\310w?2\333\233\240"
 380      361AD200 
 380      FE9FE6C8 
 380      773F32DB 
 380      9BA0
 381 0931 493E6872 		.ascii	"I>hr\243g\024\373R\023[q\324\247U;D\366\327\237VS\235"
 381      A36714FB 
 381      52135B71 
 381      D4A7553B 
 381      44F6D79F 
 382 0948 463ECF4C 		.ascii	"F>\317L\023\270K=\201\262|\277\221\300\273\375\301*"
 382      13B84B3D 
 382      81B27CBF 
 382      91C0BBFD 
 382      C12A
 383 095a 073209BD 		.ascii	"\0072\011\275G\035-3=^\020\311\272\362<\300\367\372"
 383      471D2D33 
 383      3D5E10C9 
 383      BAF23CC0 
 383      F7FA
 384 096c C33F56EF 		.ascii	"\303?V\357\311\013\362\236\274\0109jU\355\311\013\212"
 384      C90BF29E 
 384      BC08396A 
 384      55EDC90B 
 384      8A
 385 097d 9E6C55EB 		.ascii	"\236lU\353\311\253\212\236\274@{\262M\321\223\373@c"
 385      C9AB8A9E 
 385      BC407BB2 
ARM GAS  C:\Users\gjl\AppData\Local\Temp\ccYgjziF.s 			page 30


 385      4DD193FB 
 385      4063
 386 098f 07A1B19C 		.ascii	"\007\241\261\234\367\310A\210\004Z&\035\204Zi_22c\005"
 386      F7C84188 
 386      045A261D 
 386      845A695F 
 386      32326305 
 387 09a3 EF33326B 		.ascii	"\35732k\210/U2\013\245\303\350\313\002z\030\005\214"
 387      882F5532 
 387      0BA5C3E8 
 387      CB027A18 
 387      058C
 388 09b5 FC30CAEA 		.ascii	"\3740\312\352\356\344\374\214\324\221asP\362E\240\""
 388      EEE4FC8C 
 388      D4916173 
 388      50F245A0 
 388      22
 389 09c6 62A4ED5D 		.ascii	"b\244\355]\202 Y\336)!\032i4\344\215\263\266\370\201"
 389      822059DE 
 389      29211A69 
 389      34E48DB3 
 389      B6F881
 390 09d9 FE83EDFC 		.ascii	"\376\203\355\374\366\303|\357\225\235\366\315U\375<"
 390      F6C37CEF 
 390      959DF6CD 
 390      55FD3C
 391 09e8 6FD0D2C1 		.ascii	"o\320\322\301\235+\301\341\221\334\326rw\340\370p\205"
 391      9D2BC1E1 
 391      91DCD672 
 391      77E0F870 
 391      85
 392 09f9 FB807CBE 		.ascii	"\373\200|\276)\356\013\306'\350n\2022\366\366v\350\360"
 392      29EE0BC6 
 392      27E86E82 
 392      32F6F676 
 392      E8F0
 393 0a0b 25A61437 		.ascii	"%\246\0247z6\207\301v\206:i#\262]\236M\037f\307\004"
 393      7A3687C1 
 393      76863A69 
 393      23B25D9E 
 393      4D1F66C7 
 394 0a20 9228B6C1 		.ascii	"\222(\266\301\2657^\334\254\235=\343\\\271N3\334E3\014"
 394      B5375EDC 
 394      AC9D3DE3 
 394      5CB94E33 
 394      DC45330C 
 395 0a34 E8AD05AD 		.ascii	"\350\255\005\255EZ\210\262\027^\361\013\007Ssvey:\340"
 395      455A88B2 
 395      175EF10B 
 395      07537376 
 395      65793AE0 
 396 0a48 359FE2D0 		.ascii	"5\237\342\320U1Nt\215\323\022\215\035on\3200\013v\214"
 396      55314E74 
 396      8DD3128D 
 396      1D6F6ED0 
 396      300B768C 
 397 0a5c F470F8FA 		.ascii	"\364p\370\372L\241\025\016\264\004)\266\374C\212-\377"
ARM GAS  C:\Users\gjl\AppData\Local\Temp\ccYgjziF.s 			page 31


 397      4CA1150E 
 397      B40429B6 
 397      FC438A2D 
 397      FF
 398 0a6d B66FCBDF 		.ascii	"\266o\313\337\320\260\372f\000\345p\333\307\241\277"
 398      D0B0FA66 
 398      00E570DB 
 398      C7A1BF
 399 0a7c BB7554DA 		.ascii	"\273uT\332\270\357\260\343\317\305\225\336\016\316G"
 399      B8EFB0E3 
 399      CFC595DE 
 399      0ECE47
 400 0a8b B69B153E 		.ascii	"\266\233\025>\3529S\03303\333\036\312\366\256\310\326"
 400      EA39531B 
 400      3033DB1E 
 400      CAF6AEC8 
 400      D6
 401 0a9c 9BF5FABE 		.ascii	"\233\365\372\276\221\261\365\274\211/\345\233\322\371"
 401      91B1F5BC 
 401      892FE59B 
 401      D2F9
 402 0aaa CF0806DD 		.ascii	"\317\010\006\335\3641\275\005Lo\212L\357Q\246\353\363"
 402      F431BD05 
 402      4C6F8A4C 
 402      EF51A6EB 
 402      F3
 403 0abb 9FAD0FC2 		.ascii	"\237\255\017\302\00331U;e\\\351n\237\012\360\305\372"
 403      03333155 
 403      3B655CE9 
 403      6E9F0AF0 
 403      C5FA
 404 0acd 80C55A50 		.ascii	"\200\305ZP\322\336\372\003=\323Oc\355\023cM\037n\231"
 404      D2DEFA03 
 404      3DD34F63 
 404      ED13634D 
 404      1F6E99
 405 0ae0 C642ACAF 		.ascii	"\306B\254\257\304X\001\003\007\0201\326\373\020k\257"
 405      C4580103 
 405      071031D6 
 405      FB106BAF 
 406 0af0 18EB431A 		.ascii	"\030\353C\032kn\332\211sZ<1S\254+rOy\203\004\243S\242"
 406      6B6EDA89 
 406      735A3C31 
 406      53AC2B72 
 406      4F798304 
 407 0b07 51D2D58F 		.ascii	"Q\322\325\217|F\037\203\321G\242\321\001j\264,\3233"
 407      7C461F83 
 407      D147A2D1 
 407      016AB42C 
 407      D333
 408 0b19 1C84F382 		.ascii	"\034\204\363\202\250\321\236\321\311IFm\273\257\277"
 408      A8D19ED1 
 408      C949466D 
 408      BBAFBF
 409 0b28 BA7B4E9A 		.ascii	"\272{N\232}l\277cl7\356\334{\000\311\331~\365\236\214"
 409      7D6CBF63 
 409      6C37EEDC 
ARM GAS  C:\Users\gjl\AppData\Local\Temp\ccYgjziF.s 			page 32


 409      7B00C9D9 
 409      7EF59E8C 
 410 0b3c EC534A76 		.ascii	"\354SJvP$\233{\275\373v\260\020\327X\337\002\010\214"
 410      50249B7B 
 410      BDFB76B0 
 410      10D758DF 
 410      02088C
 411 0b4f 2310F444 		.ascii	"#\020\364D\232)O\304\230\236\321\230\312\263*\263ux"
 411      9A294FC4 
 411      989ED198 
 411      CAB32AB3 
 411      7578
 412 0b61 2F8B496D 		.ascii	"/\213Im\036\364T=\277\0336\243\377!\352\377\205\350"
 412      1EF4543D 
 412      BF1B36A3 
 412      FF21EAFF 
 412      85E8
 413 0b73 BFB3FDE2 		.ascii	"\277\263\375\342\317\004\367\0157\214\236/H=z.9\177"
 413      CF04F70D 
 413      378C9E2F 
 413      483D7A2E 
 413      397F
 414 0b85 2E3A7F49 		.ascii	".:\177I\235\367\354\274\267.\000\237f\3163\253s\257"
 414      9DF7ECBC 
 414      B72E009F 
 414      66CE33AB 
 414      73AF
 415 0b97 B071B9C6 		.ascii	"\260q\271\306\347\374a\316\235Q\275/\240\021\226\221"
 415      E7FC61CE 
 415      9D51BD2F 
 415      A0119691 
 416 0ba7 8186B113 		.ascii	"\201\206\261\023\3013F4F#\032\025#j\230\272\321%LLO"
 416      C1334634 
 416      46231A15 
 416      236A98BA 
 416      D1254C4C 
 417 0bbc 1D0D0900 		.ascii	"\035\015\011\000hX\012iX\014\351\025\015\351~SM\213"
 417      68580A69 
 417      580CE915 
 417      0DE97E53 
 417      4D8B
 418 0bce 0EF7B390 		.ascii	"\016\367\263\220\366\254\332v\202\373h\027\337\261\235"
 418      F6ACDA76 
 418      82FB6817 
 418      DFB19D
 419 0bdd AC3DBF2D 		.ascii	"\254=\277-\351\316\344\371\000\372\003\30083 \373\335"
 419      E9CEE4F9 
 419      00FA03C0 
 419      383320FB 
 419      DD
 420 0bee 8094FC1E 		.ascii	"\200\224\374\036\306\310k\356#hY2\330\372\224\303\253"
 420      C6C86BEE 
 420      23685932 
 420      D8FA94C3 
 420      AB
 421 0bff D827C791 		.ascii	"\330'\307\221\254M\247\014\314\214gT\307c\372q}B\260"
 421      AC4DA70C 
ARM GAS  C:\Users\gjl\AppData\Local\Temp\ccYgjziF.s 			page 33


 421      CC8C6754 
 421      C763FA71 
 421      7D42B0
 422 0c12 207D939F 		.ascii	" }\223\237\020,\274\241\026\016\247g<\307\270\202Y\330"
 422      102CBCA1 
 422      160EA767 
 422      3CC7B882 
 422      59D8
 423 0c24 FAA0BE32 		.ascii	"\372\240\2762L\260PE,\220\357\326\223\202\005\351s\367"
 423      4CB05045 
 423      2C90EFD6 
 423      938205E9 
 423      73F7
 424 0c36 A460618A 		.ascii	"\244`a\212Z8ZVX\021\204/0\013\3537\244\355\010\025,"
 424      5A385A56 
 424      5811842F 
 424      300BEB37 
 424      A4ED0815 
 425 0c4b D4677D94 		.ascii	"\324g}\224\306{\264\364\035sZ0\"\276\352jh\0111\362"
 425      C67BB4F4 
 425      1D735A30 
 425      22BEEA6A 
 425      680931F2 
 426 0c5f 961A291C 		.ascii	"\226\032)\034\350\337\245U,@c\212\315\310+\274\231z"
 426      E8DFA555 
 426      2C40638A 
 426      CDC82BBC 
 426      997A
 427 0c71 E99BE9C3 		.ascii	"\351\233\351\303-\271G\225\313\325\220\002\315c\206"
 427      2DB94795 
 427      CBD59002 
 427      CD6386
 428 0c80 863BA027 		.ascii	"\206;\240'\252\333N\207)\320O\025\3504\001\235F\321"
 428      AADB4E87 
 428      29D04F15 
 428      E834019D 
 428      46D1
 429 0c92 832FCF3C 		.ascii	"\203/\317<S~\274\277\256@\247\013\350t\212n\350\\9\030"
 429      537EBCBF 
 429      AE40A70B 
 429      E8748A6E 
 429      E85C3918 
 430 0ca6 A240F72B 		.ascii	"\242@\367+\320\031\002:\203\242Wd{\037\207\341\357X"
 430      D019023A 
 430      83A25764 
 430      7B1F87E1 
 430      EF58
 431 0cb8 AA6A36BE 		.ascii	"\252j6\276\365h\361\020S\262\212\275\017\014x\224)\243"
 431      F568F110 
 431      53B28ABD 
 431      0F0C7894 
 431      29A3
 432 0cca CF6F9505 		.ascii	"\317o\225\005\340i\001\366\274\274&D\370\366I3\\\221"
 432      E06901F6 
 432      BCBC2644 
 432      F8F64933 
 432      5C91
ARM GAS  C:\Users\gjl\AppData\Local\Temp\ccYgjziF.s 			page 34


 433 0cdc 9D81702E 		.ascii	"\235\201p.\375\335/`\315\355\236\256PD_U\204o\036\036"
 433      FDDD2F60 
 433      CDED9EAE 
 433      50445F55 
 433      846F1E1E 
 434 0cf0 763A5A85 		.ascii	"v:Z\205\331\257`h%\306(\033\263\323\321:\034\203rq4"
 434      D9AF6068 
 434      25C6281B 
 434      B3D3D13A 
 434      1C837271 
 435 0d05 5A039203 		.ascii	"Z\003\222\003\262\026\313N8\275E\203_\324\312>\223f"
 435      B216CB4E 
 435      38BD4583 
 435      5FD4CA3E 
 435      9366
 436 0d17 0A0D67FA 		.ascii	"\012\015g\372\242S%}\204[\241\002\225\037p\252%\350"
 436      A253257D 
 436      845BA102 
 436      951F70AA 
 436      25E8
 437 0d29 6A15A8FC 		.ascii	"j\025\250\374 |$W\370\256Fv\227,\001<\343\211`\013\373"
 437      207C2457 
 437      F8AE4676 
 437      972C013C 
 437      E389600B 
 438 0d3e 3C0518F9 		.ascii	"<\005\030\371\211\200|\031\317\036\236\012\305\205\354"
 438      89807C19 
 438      CF1E9E0A 
 438      C585EC
 439 0d4d C7D1A99D 		.ascii	"\307\321\251\235\253\253\365(&\202\265\271\327\026M"
 439      ABABF528 
 439      2682B5B9 
 439      D7164D
 440 0d5c DAAC07BB 		.ascii	"\332\254\007\273y\3307=\211\011\277\003\246/\205\371"
 440      79D8373D 
 440      8909BF03 
 440      A62F85F9 
 441 0d6c 90B61F4B 		.ascii	"\220\266\037K!Y\276\313\307\212B\025Ca=\226\037b\013"
 441      2159BECB 
 441      C78A4215 
 441      43613D96 
 441      1F620B
 442 0d7f 84A15040 		.ascii	"\204\241P@\207\302\276\246\321\353\312\227\354\036\305"
 442      87C2BEA6 
 442      D1EBCA97 
 442      EC1EC5
 443 0d8e C02914D0 		.ascii	"\300)\024\320\205\024\335\221>\274'\360\303\035,\274"
 443      8514DD91 
 443      3EBC27F0 
 443      C31D2CBC 
 444 0d9e 6C98355F 		.ascii	"l\2305_\275G\317\037lI)\302\037\222IQq\253\333\3000"
 444      BD47CF1F 
 444      6C4929C2 
 444      1F924951 
 444      71ABDBC0 
 445 0db3 B08AFCE7 		.ascii	"\260\212\374\347\226l\000*q\305\0247ry\315h(\303y\032"
 445      966C002A 
ARM GAS  C:\Users\gjl\AppData\Local\Temp\ccYgjziF.s 			page 35


 445      71C51437 
 445      7279CD68 
 445      28C3791A 
 446 0dc7 02FD311B 		.ascii	"\002\3751\033(\246}\353\332R\301\237\347\332\3670%\024"
 446      28A67DEB 
 446      DA52C19F 
 446      E7DAF730 
 446      2514
 447 0dd9 737557DF 		.ascii	"suW\337+\235\200y\375=L)\305\364\355\250\177\206\005"
 447      2B9D8079 
 447      FD3D4C29 
 447      C5F4EDA8 
 447      7F8605
 448 0dec 4CB1C11F 		.ascii	"L\261\301\037\263\021\177\250\321\377\313o\276\234\363"
 448      B3117FA8 
 448      D1FFCB6F 
 448      BE9CF3
 449 0dfb F9C2859A 		.ascii	"\371\302\205\232 \223)\305\356p\307\232\334i\310\362"
 449      209329C5 
 449      EE70C79A 
 449      DC69C8F2 
 450 0e0b EB386772 		.ascii	"\3538gr\322\222ds\342\234\305\366\004\233kNLj\354\257"
 450      D2926473 
 450      E29CC5F6 
 450      049B6B4E 
 450      4C6AECAF 
 451 0e1f FE2ECEB2 		.ascii	"\376.\316\262\334\231ls\271\342\234\256$\313\034K\262"
 451      DC996C73 
 451      B9E29CAE 
 451      24CB1C4B 
 451      B2
 452 0e30 CDEC4E4A 		.ascii	"\315\354NJ\216[4\177\241\262\300\236\350LJv\307-q\244"
 452      8E5B347F 
 452      A1B2C09E 
 452      E84C4A76 
 452      C72D71A4 
 453 0e44 C4999313 		.ascii	"\304\231\223\023\343~9\237 \340\351\027\216$\207\355"
 453      E37E399F 
 453      20E0E917 
 453      8E2487ED 
 454 0e54 173673BC 		.ascii	"\0276s\274=\316\356\260$\244Xmq\211f\313R\273\303\026"
 454      3DCEEEB0 
 454      24A4586D 
 454      718966CB 
 454      52BBC316 
 455 0e68 67B2DA16 		.ascii	"g\262\332\026\233S\022\334&\367r\247\3155\177\251&P"
 455      9B5312DC 
 455      26F772A7 
 455      CD357FA9 
 455      2650
 456 0e7a 0865D9FF 		.ascii	"\010e\331\377W$\256\345\2568\223\313m\005\267\340>\330"
 456      5724AEE5 
 456      AE3893CB 
 456      6D05B7E0 
 456      3ED8
 457 0e8c 694FB525 		.ascii	"iO\265%\230\276\261[\335K\015,/\013\177er\353\305\207"
 457      98BEB15B 
ARM GAS  C:\Users\gjl\AppData\Local\Temp\ccYgjziF.s 			page 36


 457      DD4B0D2C 
 457      2F0B7F65 
 457      72EBC587 
 458 0ea0 598B13EC 		.ascii	"Y\213\023\354\316\304$\253\315\224jJZ\274\330es\277"
 458      CEC424AB 
 458      CD946A4A 
 458      5ABCD865 
 458      73BF
 459 0eb2 2332100B 		.ascii	"#2\020\013\202\335\020\256i\251\315\276d\251\333@\237"
 459      82DD10AE 
 459      69A9CDBE 
 459      64A9DB40 
 459      9F
 460 0ec3 A9B5C86F 		.ascii	"\251\265\310o\222\355n\233\311\231\222\340\022JL\016"
 460      92ED6E9B 
 460      C99992E0 
 460      124A4C0E 
 461 0ed3 57B8D5EC 		.ascii	"W\270\325\3546\233\240Q\212\323\344\266'\332\240(\322"
 461      369BA051 
 461      8AD3E4B6 
 461      27DAA028 
 461      D2
 462 0ee4 FE89C514 		.ascii	"\376\211\305\024\237\3422Y\022\222,\1772-\\\260\340"
 462      9FE23259 
 462      12922C7F 
 462      322D5CB0 
 462      E0
 463 0ef5 4FFFFAAD 		.ascii	"O\377\372\255\336\345\264\233\210[\243\013\312X\315"
 463      DEE5B49B 
 463      885BA30B 
 463      CA58CD
 464 0f04 D26F8500 		.ascii	"\322o\205\000?\375D\010\220<\204\023\200\322\311,\227"
 464      3FFD4408 
 464      903C8413 
 464      80D2C92C 
 464      97
 465 0f15 D5CF47B8 		.ascii	"\325\317G\2703\311\3456A\036mn\3237f\273\333\224\350"
 465      33C9E536 
 465      411E6D6E 
 465      D33766BB 
 465      DB94E8
 466 0f28 8A649ABC 		.ascii	"\212d\232\274e\242k6\344\332\004\035\3454Y\355.s<\241"
 466      65A26B36 
 466      E4DA041D 
 466      E53459ED 
 466      2E733CA1 
 467 0f3c 42D00EA8 		.ascii	"B\320\016\250 \006h\215\315!\257\010W\240\023l\313l"
 467      2006688D 
 467      CD21AF08 
 467      57A0136C 
 467      CB6C
 468 0f4e 09B3E430 		.ascii	"\011\263\3440Z2;%65\226\200\234\011\346\345&\273cq\022"
 468      5A323B25 
 468      36359680 
 468      9C09E6E5 
 468      26BB6371 
 469 0f63 7440728A 		.ascii	"t@r\212\305md\331g\271\373\311\374\371q\360\227\022"
ARM GAS  C:\Users\gjl\AppData\Local\Temp\ccYgjziF.s 			page 37


 469      C56D64D9 
 469      67B9FBC9 
 469      FCF971F0 
 469      9712
 470 0f75 BBE49338 		.ascii	"\273\344\2238\213+\331\022GZA\027E|\277\265;\222\225"
 470      8B2BD912 
 470      475A4117 
 470      457CBFB5 
 470      3B9295
 471 0f88 999C166B 		.ascii	"\231\234\026k\354/\027-2\305.J]\024\033j\265\305'\245"
 471      EC2F172D 
 471      32C52E4A 
 471      5D141B6A 
 471      B5C527A5 
 472 0f9c 382C36B0 		.ascii	"8,6\260"
 473 0fa0 6E76DB7E 		.ascii	"nv\333~\342S\023\314\020\274\323\356`\345?\365\225\213"
 473      E25313CC 
 473      10BCD3EE 
 473      60E53FF5 
 473      958B
 474 0fb2 3DE9AB0A 		.ascii	"=\351\253\012^\342\264'\221<A\251!\305\2758\226\025"
 474      5EE2B427 
 474      913C41A9 
 474      21C5BD38 
 474      9615
 475 0fc4 83E16576 		.ascii	"\203\341ev\300\233\255V2\026\203I\217AE\262\333f\245"
 475      C09BAD56 
 475      32168349 
 475      8F4145B2 
 475      DB66A5
 476 0fd7 CF4279A4 		.ascii	"\317By\244\335eZ\234\344pC\214\313l\311\220V\322\201"
 476      DD655A9C 
 476      E470438C 
 476      CB6CC990 
 476      56D281
 477 0fea 7A7198E8 		.ascii	"zq\230\350m\016K\022\214\272%Z\202\231E=\231\035V\010"
 477      6D0E4B12 
 477      8CBA255A 
 477      8299453D 
 477      991D5608 
 478 0ffe 82D0     		.ascii	"\202\320"
 479 1000 B2C40753 		.ascii	"\262\304\007SJ\211\256%\360\034\030\277\034\206\216"
 479      4A89AE25 
 479      F01C18BF 
 479      1C868E
 480 100f 253EC062 		.ascii	"%>\300b\266\302\315 \222\207\032\207-\025:\"\336H\321"
 480      B6C2CD20 
 480      92871A87 
 480      2D153A22 
 480      DE48D1
 481 1022 96A5E664 		.ascii	"\226\245\346d\242\310\223\303\354\260\374F\370\2502"
 481      A2C893C3 
 481      ECB0FC46 
 481      F8A832
 482 1031 4EC47C00 		.ascii	"N\304|\000\255w\317S\313\266\177F\347[4,\323$\216\177"
 482      AD77CF53 
 482      CBB67F46 
ARM GAS  C:\Users\gjl\AppData\Local\Temp\ccYgjziF.s 			page 38


 482      E75B342C 
 482      D3248E7F 
 483 1045 72587F9F 		.ascii	"rX\177\237lv\270\026\333\222\365\216$\273#\001\346\363"
 483      6C76B816 
 483      DB92F58E 
 483      24BB2301 
 483      E6F3
 484 1057 2C5FEDEF 		.ascii	",_\355\357l\016\353?\302\340~GQ\362y\242\365=\251\200"
 484      6C0EEB3F 
 484      C2E07E47 
 484      51F279A2 
 484      F53DA980 
 485 106b A44C34F1 		.ascii	"\244L4\361\256\002\367;\333\327)\220\037\333O\205(\226"
 485      AE02F73B 
 485      DBD72990 
 485      1FDB4F85 
 485      2896
 486 107d DA129CB6 		.ascii	"\332\022\234\266dY\247\333\335\037\250W\261q\236hKL"
 486      6459A7DB 
 486      DD1FA857 
 486      B1719E68 
 486      4B4C
 487 108f 4A5EFEA1 		.ascii	"J^\376\241\032\007\2233\351\033\350\015\3632\333B\000"
 487      1A079333 
 487      E91BE80D 
 487      F332DB42 
 487      00
 488 10a0 7FFD2398 		.ascii	"\177\375#\230\005\004\3637\252\030\022\004\251}\237"
 488      0504F337 
 488      AA181204 
 488      A97D9F
 489 10af D62AEBE4 		.ascii	"\326*\353\344\035\240K\005s.lq\270\365t5p\272\223YR"
 489      1DA04B05 
 489      732E6C71 
 489      B8F57435 
 489      70BA9359 
 490 10c4 A8C63A46 		.ascii	"\250\306:F\267\234`\202\245b\367\377\002\334\354\005"
 490      B79C6082 
 490      A562F7FF 
 490      02DCEC05 
 491 10d4 AB       		.ascii	"\253"
 492              		.text
 493              		.section	.gnu.lto_.symtab.1a3ebb4,"",%progbits
 494 0000 75387838 		.ascii	"u8x8_d_pcd8544_84x48\000"
 494      5F645F70 
 494      63643835 
 494      34345F38 
 494      34783438 
 495 0015 00       		.ascii	"\000"
 496 0016 00       		.ascii	"\000"
 497 0017 00       		.ascii	"\000"
 498 0018 00000000 		.ascii	"\000\000\000\000\000\000\000\000"
 498      00000000 
 499 0020 51010000 		.ascii	"Q\001\000\000"
 500 0024 75387838 		.ascii	"u8x8_cad_EndTransfer\000"
 500      5F636164 
 500      5F456E64 
ARM GAS  C:\Users\gjl\AppData\Local\Temp\ccYgjziF.s 			page 39


 500      5472616E 
 500      73666572 
 501 0039 00       		.ascii	"\000"
 502 003a 02       		.ascii	"\002"
 503 003b 00       		.ascii	"\000"
 504 003c 00000000 		.ascii	"\000\000\000\000\000\000\000\000"
 504      00000000 
 505 0044 57010000 		.ascii	"W\001\000\000"
 506 0048 75387838 		.ascii	"u8x8_cad_SendData\000"
 506      5F636164 
 506      5F53656E 
 506      64446174 
 506      6100
 507 005a 00       		.ascii	"\000"
 508 005b 02       		.ascii	"\002"
 509 005c 00       		.ascii	"\000"
 510 005d 00000000 		.ascii	"\000\000\000\000\000\000\000\000"
 510      00000000 
 511 0065 5F010000 		.ascii	"_\001\000\000"
 512 0069 75387838 		.ascii	"u8x8_cad_SendCmd\000"
 512      5F636164 
 512      5F53656E 
 512      64436D64 
 512      00
 513 007a 00       		.ascii	"\000"
 514 007b 02       		.ascii	"\002"
 515 007c 00       		.ascii	"\000"
 516 007d 00000000 		.ascii	"\000\000\000\000\000\000\000\000"
 516      00000000 
 517 0085 65010000 		.ascii	"e\001\000\000"
 518 0089 75387838 		.ascii	"u8x8_cad_StartTransfer\000"
 518      5F636164 
 518      5F537461 
 518      72745472 
 518      616E7366 
 519 00a0 00       		.ascii	"\000"
 520 00a1 02       		.ascii	"\002"
 521 00a2 00       		.ascii	"\000"
 522 00a3 00000000 		.ascii	"\000\000\000\000\000\000\000\000"
 522      00000000 
 523 00ab 68010000 		.ascii	"h\001\000\000"
 524 00af 75387838 		.ascii	"u8x8_cad_SendSequence\000"
 524      5F636164 
 524      5F53656E 
 524      64536571 
 524      75656E63 
 525 00c5 00       		.ascii	"\000"
 526 00c6 02       		.ascii	"\002"
 527 00c7 00       		.ascii	"\000"
 528 00c8 00000000 		.ascii	"\000\000\000\000\000\000\000\000"
 528      00000000 
 529 00d0 6D010000 		.ascii	"m\001\000\000"
 530 00d4 75387838 		.ascii	"u8x8_d_helper_display_init\000"
 530      5F645F68 
 530      656C7065 
 530      725F6469 
 530      73706C61 
ARM GAS  C:\Users\gjl\AppData\Local\Temp\ccYgjziF.s 			page 40


 531 00ef 00       		.ascii	"\000"
 532 00f0 02       		.ascii	"\002"
 533 00f1 00       		.ascii	"\000"
 534 00f2 00000000 		.ascii	"\000\000\000\000\000\000\000\000"
 534      00000000 
 535 00fa 71010000 		.ascii	"q\001\000\000"
 536 00fe 75387838 		.ascii	"u8x8_d_helper_display_setup_memory\000"
 536      5F645F68 
 536      656C7065 
 536      725F6469 
 536      73706C61 
 537 0121 00       		.ascii	"\000"
 538 0122 02       		.ascii	"\002"
 539 0123 00       		.ascii	"\000"
 540 0124 00000000 		.ascii	"\000\000\000\000\000\000\000\000"
 540      00000000 
 541 012c 76010000 		.ascii	"v\001\000\000"
 542              		.text
 543              		.section	.gnu.lto_.opts,"",%progbits
 544 0000 272D666D 		.ascii	"'-fmath-errno' '-fsigned-zeros' '-ftrapping-math' '"
 544      6174682D 
 544      6572726E 
 544      6F272027 
 544      2D667369 
 545 0033 2D666E6F 		.ascii	"-fno-trapv' '-fno-openmp' '-fno-openacc' '-mcpu=cor"
 545      2D747261 
 545      70762720 
 545      272D666E 
 545      6F2D6F70 
 546 0066 7465782D 		.ascii	"tex-m0' '-mthumb' '-g' '-Os' '-ffunction-sections' "
 546      6D302720 
 546      272D6D74 
 546      68756D62 
 546      2720272D 
 547 0099 272D6666 		.ascii	"'-ffat-lto-objects' '-flto'\000"
 547      61742D6C 
 547      746F2D6F 
 547      626A6563 
 547      74732720 
 548              		.text
 549              		.cfi_sections	.debug_frame
 550              		.section	.text.u8x8_d_pcd8544_84x48,"ax",%progbits
 551              		.align	1
 552              		.global	u8x8_d_pcd8544_84x48
 553              		.code	16
 554              		.thumb_func
 555              		.type	u8x8_d_pcd8544_84x48, %function
 556              	u8x8_d_pcd8544_84x48:
 557              	.LFB0:
 558              		.file 1 "..\\..\\u8g2\\csrc\\u8x8_d_pcd8544_84x48.c"
   1:..\..\u8g2\csrc/u8x8_d_pcd8544_84x48.c **** /*
   2:..\..\u8g2\csrc/u8x8_d_pcd8544_84x48.c **** 
   3:..\..\u8g2\csrc/u8x8_d_pcd8544_84x48.c ****   u8x8_d_pcd8544_84x48.c (so called "Nokia 5110" displays)
   4:..\..\u8g2\csrc/u8x8_d_pcd8544_84x48.c ****   
   5:..\..\u8g2\csrc/u8x8_d_pcd8544_84x48.c ****   Universal 8bit Graphics Library (https://github.com/olikraus/u8g2/)
   6:..\..\u8g2\csrc/u8x8_d_pcd8544_84x48.c **** 
   7:..\..\u8g2\csrc/u8x8_d_pcd8544_84x48.c ****   Copyright (c) 2016, olikraus@gmail.com
ARM GAS  C:\Users\gjl\AppData\Local\Temp\ccYgjziF.s 			page 41


   8:..\..\u8g2\csrc/u8x8_d_pcd8544_84x48.c ****   All rights reserved.
   9:..\..\u8g2\csrc/u8x8_d_pcd8544_84x48.c **** 
  10:..\..\u8g2\csrc/u8x8_d_pcd8544_84x48.c ****   Redistribution and use in source and binary forms, with or without modification, 
  11:..\..\u8g2\csrc/u8x8_d_pcd8544_84x48.c ****   are permitted provided that the following conditions are met:
  12:..\..\u8g2\csrc/u8x8_d_pcd8544_84x48.c **** 
  13:..\..\u8g2\csrc/u8x8_d_pcd8544_84x48.c ****   * Redistributions of source code must retain the above copyright notice, this list 
  14:..\..\u8g2\csrc/u8x8_d_pcd8544_84x48.c ****     of conditions and the following disclaimer.
  15:..\..\u8g2\csrc/u8x8_d_pcd8544_84x48.c ****     
  16:..\..\u8g2\csrc/u8x8_d_pcd8544_84x48.c ****   * Redistributions in binary form must reproduce the above copyright notice, this 
  17:..\..\u8g2\csrc/u8x8_d_pcd8544_84x48.c ****     list of conditions and the following disclaimer in the documentation and/or other 
  18:..\..\u8g2\csrc/u8x8_d_pcd8544_84x48.c ****     materials provided with the distribution.
  19:..\..\u8g2\csrc/u8x8_d_pcd8544_84x48.c **** 
  20:..\..\u8g2\csrc/u8x8_d_pcd8544_84x48.c ****   THIS SOFTWARE IS PROVIDED BY THE COPYRIGHT HOLDERS AND 
  21:..\..\u8g2\csrc/u8x8_d_pcd8544_84x48.c ****   CONTRIBUTORS "AS IS" AND ANY EXPRESS OR IMPLIED WARRANTIES, 
  22:..\..\u8g2\csrc/u8x8_d_pcd8544_84x48.c ****   INCLUDING, BUT NOT LIMITED TO, THE IMPLIED WARRANTIES OF 
  23:..\..\u8g2\csrc/u8x8_d_pcd8544_84x48.c ****   MERCHANTABILITY AND FITNESS FOR A PARTICULAR PURPOSE ARE 
  24:..\..\u8g2\csrc/u8x8_d_pcd8544_84x48.c ****   DISCLAIMED. IN NO EVENT SHALL THE COPYRIGHT HOLDER OR 
  25:..\..\u8g2\csrc/u8x8_d_pcd8544_84x48.c ****   CONTRIBUTORS BE LIABLE FOR ANY DIRECT, INDIRECT, INCIDENTAL, 
  26:..\..\u8g2\csrc/u8x8_d_pcd8544_84x48.c ****   SPECIAL, EXEMPLARY, OR CONSEQUENTIAL DAMAGES (INCLUDING, BUT 
  27:..\..\u8g2\csrc/u8x8_d_pcd8544_84x48.c ****   NOT LIMITED TO, PROCUREMENT OF SUBSTITUTE GOODS OR SERVICES; 
  28:..\..\u8g2\csrc/u8x8_d_pcd8544_84x48.c ****   LOSS OF USE, DATA, OR PROFITS; OR BUSINESS INTERRUPTION) HOWEVER 
  29:..\..\u8g2\csrc/u8x8_d_pcd8544_84x48.c ****   CAUSED AND ON ANY THEORY OF LIABILITY, WHETHER IN CONTRACT, 
  30:..\..\u8g2\csrc/u8x8_d_pcd8544_84x48.c ****   STRICT LIABILITY, OR TORT (INCLUDING NEGLIGENCE OR OTHERWISE) 
  31:..\..\u8g2\csrc/u8x8_d_pcd8544_84x48.c ****   ARISING IN ANY WAY OUT OF THE USE OF THIS SOFTWARE, EVEN IF 
  32:..\..\u8g2\csrc/u8x8_d_pcd8544_84x48.c ****   ADVISED OF THE POSSIBILITY OF SUCH DAMAGE.  
  33:..\..\u8g2\csrc/u8x8_d_pcd8544_84x48.c **** 
  34:..\..\u8g2\csrc/u8x8_d_pcd8544_84x48.c ****   
  35:..\..\u8g2\csrc/u8x8_d_pcd8544_84x48.c **** */
  36:..\..\u8g2\csrc/u8x8_d_pcd8544_84x48.c **** #include "u8x8.h"
  37:..\..\u8g2\csrc/u8x8_d_pcd8544_84x48.c **** 
  38:..\..\u8g2\csrc/u8x8_d_pcd8544_84x48.c **** 
  39:..\..\u8g2\csrc/u8x8_d_pcd8544_84x48.c **** 
  40:..\..\u8g2\csrc/u8x8_d_pcd8544_84x48.c **** 
  41:..\..\u8g2\csrc/u8x8_d_pcd8544_84x48.c **** static const uint8_t u8x8_d_pcd8544_84x48_init_seq[] = {
  42:..\..\u8g2\csrc/u8x8_d_pcd8544_84x48.c ****     
  43:..\..\u8g2\csrc/u8x8_d_pcd8544_84x48.c ****   U8X8_START_TRANSFER(),             	/* enable chip, delay is part of the transfer start */
  44:..\..\u8g2\csrc/u8x8_d_pcd8544_84x48.c ****   
  45:..\..\u8g2\csrc/u8x8_d_pcd8544_84x48.c ****   U8X8_C(0x021),            			/* activate chip (PD=0), horizontal increment (V=0), enter extended 
  46:..\..\u8g2\csrc/u8x8_d_pcd8544_84x48.c ****   U8X8_C(0x006),		                /* temp. control: b10 = 2  */
  47:..\..\u8g2\csrc/u8x8_d_pcd8544_84x48.c ****   U8X8_C(0x013),		                /* bias system 1:48 */
  48:..\..\u8g2\csrc/u8x8_d_pcd8544_84x48.c ****   U8X8_C(0x0c0),		                /* medium Vop  */
  49:..\..\u8g2\csrc/u8x8_d_pcd8544_84x48.c ****   
  50:..\..\u8g2\csrc/u8x8_d_pcd8544_84x48.c ****   U8X8_C(0x020),		                /* activate chip (PD=0), horizontal increment (V=0), enter normal
  51:..\..\u8g2\csrc/u8x8_d_pcd8544_84x48.c ****   U8X8_C(0x008),				/* blank */
  52:..\..\u8g2\csrc/u8x8_d_pcd8544_84x48.c ****   U8X8_C(0x024),		                /* power down (PD=1), horizontal increment (V=0), enter normal co
  53:..\..\u8g2\csrc/u8x8_d_pcd8544_84x48.c ****     
  54:..\..\u8g2\csrc/u8x8_d_pcd8544_84x48.c ****   U8X8_END_TRANSFER(),             	/* disable chip */
  55:..\..\u8g2\csrc/u8x8_d_pcd8544_84x48.c ****   U8X8_END()             			/* end of sequence */
  56:..\..\u8g2\csrc/u8x8_d_pcd8544_84x48.c **** };
  57:..\..\u8g2\csrc/u8x8_d_pcd8544_84x48.c **** 
  58:..\..\u8g2\csrc/u8x8_d_pcd8544_84x48.c **** static const uint8_t u8x8_d_pcd8544_84x48_powersave0_seq[] = {
  59:..\..\u8g2\csrc/u8x8_d_pcd8544_84x48.c ****   U8X8_START_TRANSFER(),             	/* enable chip, delay is part of the transfer start */
  60:..\..\u8g2\csrc/u8x8_d_pcd8544_84x48.c ****   U8X8_C(0x020),		                /* activate chip (PD=0), horizontal increment (V=0), enter normal
  61:..\..\u8g2\csrc/u8x8_d_pcd8544_84x48.c ****   U8X8_C(0x00c),				/* display on */
  62:..\..\u8g2\csrc/u8x8_d_pcd8544_84x48.c ****   U8X8_END_TRANSFER(),             	/* disable chip */
  63:..\..\u8g2\csrc/u8x8_d_pcd8544_84x48.c ****   U8X8_END()             			/* end of sequence */
  64:..\..\u8g2\csrc/u8x8_d_pcd8544_84x48.c **** };
ARM GAS  C:\Users\gjl\AppData\Local\Temp\ccYgjziF.s 			page 42


  65:..\..\u8g2\csrc/u8x8_d_pcd8544_84x48.c **** 
  66:..\..\u8g2\csrc/u8x8_d_pcd8544_84x48.c **** static const uint8_t u8x8_d_pcd8544_84x48_powersave1_seq[] = {
  67:..\..\u8g2\csrc/u8x8_d_pcd8544_84x48.c ****   U8X8_START_TRANSFER(),             	/* enable chip, delay is part of the transfer start */
  68:..\..\u8g2\csrc/u8x8_d_pcd8544_84x48.c ****   U8X8_C(0x020),		                /* activate chip (PD=0), horizontal increment (V=0), enter normal
  69:..\..\u8g2\csrc/u8x8_d_pcd8544_84x48.c ****   U8X8_C(0x008),				/* blank */
  70:..\..\u8g2\csrc/u8x8_d_pcd8544_84x48.c ****   U8X8_C(0x024),		                /* power down (PD=1), horizontal increment (V=0), enter normal co
  71:..\..\u8g2\csrc/u8x8_d_pcd8544_84x48.c ****   U8X8_END_TRANSFER(),             	/* disable chip */
  72:..\..\u8g2\csrc/u8x8_d_pcd8544_84x48.c ****   U8X8_END()             			/* end of sequence */
  73:..\..\u8g2\csrc/u8x8_d_pcd8544_84x48.c **** };
  74:..\..\u8g2\csrc/u8x8_d_pcd8544_84x48.c **** 
  75:..\..\u8g2\csrc/u8x8_d_pcd8544_84x48.c **** 
  76:..\..\u8g2\csrc/u8x8_d_pcd8544_84x48.c **** 
  77:..\..\u8g2\csrc/u8x8_d_pcd8544_84x48.c **** static const u8x8_display_info_t u8x8_pcd8544_84x48_display_info =
  78:..\..\u8g2\csrc/u8x8_d_pcd8544_84x48.c **** {
  79:..\..\u8g2\csrc/u8x8_d_pcd8544_84x48.c ****   /* chip_enable_level = */ 0,
  80:..\..\u8g2\csrc/u8x8_d_pcd8544_84x48.c ****   /* chip_disable_level = */ 1,
  81:..\..\u8g2\csrc/u8x8_d_pcd8544_84x48.c ****   
  82:..\..\u8g2\csrc/u8x8_d_pcd8544_84x48.c ****   /* post_chip_enable_wait_ns = */ 5,
  83:..\..\u8g2\csrc/u8x8_d_pcd8544_84x48.c ****   /* pre_chip_disable_wait_ns = */ 5,
  84:..\..\u8g2\csrc/u8x8_d_pcd8544_84x48.c ****   /* reset_pulse_width_ms = */ 2, 
  85:..\..\u8g2\csrc/u8x8_d_pcd8544_84x48.c ****   /* post_reset_wait_ms = */ 2, 
  86:..\..\u8g2\csrc/u8x8_d_pcd8544_84x48.c ****   /* sda_setup_time_ns = */ 12,		
  87:..\..\u8g2\csrc/u8x8_d_pcd8544_84x48.c ****   /* sck_pulse_width_ns = */ 75,	/* half of cycle time (100ns according to datasheet), AVR: below 7
  88:..\..\u8g2\csrc/u8x8_d_pcd8544_84x48.c ****   /* sck_clock_hz = */ 4000000UL,	/* since Arduino 1.6.0, the SPI bus speed in Hz. Should be  10000
  89:..\..\u8g2\csrc/u8x8_d_pcd8544_84x48.c ****   /* spi_mode = */ 0,		/* active high, rising edge */
  90:..\..\u8g2\csrc/u8x8_d_pcd8544_84x48.c ****   /* i2c_bus_clock_100kHz = */ 4,
  91:..\..\u8g2\csrc/u8x8_d_pcd8544_84x48.c ****   /* data_setup_time_ns = */ 30,
  92:..\..\u8g2\csrc/u8x8_d_pcd8544_84x48.c ****   /* write_pulse_width_ns = */ 40,
  93:..\..\u8g2\csrc/u8x8_d_pcd8544_84x48.c ****   /* tile_width = */ 11,		/* width of 11*8=88 pixel */
  94:..\..\u8g2\csrc/u8x8_d_pcd8544_84x48.c ****   /* tile_hight = */ 6,
  95:..\..\u8g2\csrc/u8x8_d_pcd8544_84x48.c ****   /* default_x_offset = */ 0,
  96:..\..\u8g2\csrc/u8x8_d_pcd8544_84x48.c ****   /* flipmode_x_offset = */ 0,
  97:..\..\u8g2\csrc/u8x8_d_pcd8544_84x48.c ****   /* pixel_width = */ 84,
  98:..\..\u8g2\csrc/u8x8_d_pcd8544_84x48.c ****   /* pixel_height = */ 48
  99:..\..\u8g2\csrc/u8x8_d_pcd8544_84x48.c **** };
 100:..\..\u8g2\csrc/u8x8_d_pcd8544_84x48.c **** 
 101:..\..\u8g2\csrc/u8x8_d_pcd8544_84x48.c **** uint8_t u8x8_d_pcd8544_84x48(u8x8_t *u8x8, uint8_t msg, uint8_t arg_int, void *arg_ptr)
 102:..\..\u8g2\csrc/u8x8_d_pcd8544_84x48.c **** {
 559              		.loc 1 102 0
 560              		.cfi_startproc
 561              		@ args = 0, pretend = 0, frame = 8
 562              		@ frame_needed = 0, uses_anonymous_args = 0
 563              	.LVL0:
 564 0000 F7B5     		push	{r0, r1, r2, r4, r5, r6, r7, lr}
 565              		.cfi_def_cfa_offset 32
 566              		.cfi_offset 0, -32
 567              		.cfi_offset 1, -28
 568              		.cfi_offset 2, -24
 569              		.cfi_offset 4, -20
 570              		.cfi_offset 5, -16
 571              		.cfi_offset 6, -12
 572              		.cfi_offset 7, -8
 573              		.cfi_offset 14, -4
 103:..\..\u8g2\csrc/u8x8_d_pcd8544_84x48.c ****   uint8_t x, c;
 104:..\..\u8g2\csrc/u8x8_d_pcd8544_84x48.c ****   uint8_t *ptr;
 105:..\..\u8g2\csrc/u8x8_d_pcd8544_84x48.c ****   switch(msg)
 574              		.loc 1 105 0
ARM GAS  C:\Users\gjl\AppData\Local\Temp\ccYgjziF.s 			page 43


 575 0002 0939     		subs	r1, r1, #9
 576              	.LVL1:
 102:..\..\u8g2\csrc/u8x8_d_pcd8544_84x48.c ****   uint8_t x, c;
 577              		.loc 1 102 0
 578 0004 0400     		movs	r4, r0
 579 0006 1700     		movs	r7, r2
 580 0008 1E00     		movs	r6, r3
 581              		.loc 1 105 0
 582 000a 0800     		movs	r0, r1
 583              	.LVL2:
 584 000c 0629     		cmp	r1, #6
 585 000e 5DD8     		bhi	.L14
 586 0010 FFF7FEFF 		bl	__gnu_thumb1_case_uqi
 587              	.L4:
 588 0014 04       		.byte	(.L3-.L4)/2
 589 0015 09       		.byte	(.L5-.L4)/2
 590 0016 0F       		.byte	(.L6-.L4)/2
 591 0017 5C       		.byte	(.L14-.L4)/2
 592 0018 5C       		.byte	(.L14-.L4)/2
 593 0019 1A       		.byte	(.L7-.L4)/2
 594 001a 28       		.byte	(.L8-.L4)/2
 595 001b 00       		.p2align 1
 596              	.L3:
 106:..\..\u8g2\csrc/u8x8_d_pcd8544_84x48.c ****   {
 107:..\..\u8g2\csrc/u8x8_d_pcd8544_84x48.c ****     case U8X8_MSG_DISPLAY_SETUP_MEMORY:
 108:..\..\u8g2\csrc/u8x8_d_pcd8544_84x48.c ****       u8x8_d_helper_display_setup_memory(u8x8, &u8x8_pcd8544_84x48_display_info);
 597              		.loc 1 108 0
 598 001c 2C49     		ldr	r1, .L19
 599 001e 2000     		movs	r0, r4
 600 0020 FFF7FEFF 		bl	u8x8_d_helper_display_setup_memory
 601              	.LVL3:
 602 0024 0CE0     		b	.L16
 603              	.LVL4:
 604              	.L5:
 109:..\..\u8g2\csrc/u8x8_d_pcd8544_84x48.c ****       break;
 110:..\..\u8g2\csrc/u8x8_d_pcd8544_84x48.c ****     case U8X8_MSG_DISPLAY_INIT:
 111:..\..\u8g2\csrc/u8x8_d_pcd8544_84x48.c ****       u8x8_d_helper_display_init(u8x8);
 605              		.loc 1 111 0
 606 0026 2000     		movs	r0, r4
 607 0028 FFF7FEFF 		bl	u8x8_d_helper_display_init
 608              	.LVL5:
 112:..\..\u8g2\csrc/u8x8_d_pcd8544_84x48.c ****       u8x8_cad_SendSequence(u8x8, u8x8_d_pcd8544_84x48_init_seq);
 609              		.loc 1 112 0
 610 002c 2849     		ldr	r1, .L19
 611 002e 1831     		adds	r1, r1, #24
 612 0030 03E0     		b	.L17
 613              	.LVL6:
 614              	.L6:
 615 0032 2749     		ldr	r1, .L19
 113:..\..\u8g2\csrc/u8x8_d_pcd8544_84x48.c ****       break;
 114:..\..\u8g2\csrc/u8x8_d_pcd8544_84x48.c ****     case U8X8_MSG_DISPLAY_SET_POWER_SAVE:
 115:..\..\u8g2\csrc/u8x8_d_pcd8544_84x48.c ****       if ( arg_int == 0 )
 616              		.loc 1 115 0
 617 0034 002A     		cmp	r2, #0
 618 0036 05D1     		bne	.L9
 116:..\..\u8g2\csrc/u8x8_d_pcd8544_84x48.c **** 	u8x8_cad_SendSequence(u8x8, u8x8_d_pcd8544_84x48_powersave0_seq);
 619              		.loc 1 116 0
ARM GAS  C:\Users\gjl\AppData\Local\Temp\ccYgjziF.s 			page 44


 620 0038 2931     		adds	r1, r1, #41
 621              	.LVL7:
 622              	.L17:
 623 003a 2000     		movs	r0, r4
 624 003c FFF7FEFF 		bl	u8x8_cad_SendSequence
 625              	.LVL8:
 626              	.L16:
 117:..\..\u8g2\csrc/u8x8_d_pcd8544_84x48.c ****       else
 118:..\..\u8g2\csrc/u8x8_d_pcd8544_84x48.c **** 	u8x8_cad_SendSequence(u8x8, u8x8_d_pcd8544_84x48_powersave1_seq);
 119:..\..\u8g2\csrc/u8x8_d_pcd8544_84x48.c ****       break;
 120:..\..\u8g2\csrc/u8x8_d_pcd8544_84x48.c ****     // case U8X8_MSG_DISPLAY_SET_FLIP_MODE:
 121:..\..\u8g2\csrc/u8x8_d_pcd8544_84x48.c ****     // 	  break; 	NOT SUPPORTED
 122:..\..\u8g2\csrc/u8x8_d_pcd8544_84x48.c ****       
 123:..\..\u8g2\csrc/u8x8_d_pcd8544_84x48.c **** #ifdef U8X8_WITH_SET_CONTRAST
 124:..\..\u8g2\csrc/u8x8_d_pcd8544_84x48.c ****     case U8X8_MSG_DISPLAY_SET_CONTRAST:
 125:..\..\u8g2\csrc/u8x8_d_pcd8544_84x48.c ****       u8x8_cad_StartTransfer(u8x8);
 126:..\..\u8g2\csrc/u8x8_d_pcd8544_84x48.c ****       u8x8_cad_SendCmd(u8x8, 0x021 ); /* command mode, extended function set */
 127:..\..\u8g2\csrc/u8x8_d_pcd8544_84x48.c ****       u8x8_cad_SendCmd(u8x8, 0x080 | (arg_int >> 1) );
 128:..\..\u8g2\csrc/u8x8_d_pcd8544_84x48.c ****       u8x8_cad_EndTransfer(u8x8);
 129:..\..\u8g2\csrc/u8x8_d_pcd8544_84x48.c ****       break;
 130:..\..\u8g2\csrc/u8x8_d_pcd8544_84x48.c **** #endif
 131:..\..\u8g2\csrc/u8x8_d_pcd8544_84x48.c ****     case U8X8_MSG_DISPLAY_DRAW_TILE:
 132:..\..\u8g2\csrc/u8x8_d_pcd8544_84x48.c ****       u8x8_cad_StartTransfer(u8x8);
 133:..\..\u8g2\csrc/u8x8_d_pcd8544_84x48.c ****     
 134:..\..\u8g2\csrc/u8x8_d_pcd8544_84x48.c ****       x = ((u8x8_tile_t *)arg_ptr)->x_pos;
 135:..\..\u8g2\csrc/u8x8_d_pcd8544_84x48.c ****       x *= 8;
 136:..\..\u8g2\csrc/u8x8_d_pcd8544_84x48.c ****       x += u8x8->x_offset;
 137:..\..\u8g2\csrc/u8x8_d_pcd8544_84x48.c ****       u8x8_cad_SendCmd(u8x8, 0x020 ); /* activate chip (PD=0), horizontal increment (V=0), enter no
 138:..\..\u8g2\csrc/u8x8_d_pcd8544_84x48.c ****       u8x8_cad_SendCmd(u8x8, 0x080 | (x) );	/* set X address */
 139:..\..\u8g2\csrc/u8x8_d_pcd8544_84x48.c ****       u8x8_cad_SendCmd(u8x8, 0x040 | (((u8x8_tile_t *)arg_ptr)->y_pos) );	/* set Y address */
 140:..\..\u8g2\csrc/u8x8_d_pcd8544_84x48.c ****     
 141:..\..\u8g2\csrc/u8x8_d_pcd8544_84x48.c ****       ptr = ((u8x8_tile_t *)arg_ptr)->tile_ptr;
 142:..\..\u8g2\csrc/u8x8_d_pcd8544_84x48.c ****       c = ((u8x8_tile_t *)arg_ptr)->cnt;
 143:..\..\u8g2\csrc/u8x8_d_pcd8544_84x48.c ****       c *= 8;	
 144:..\..\u8g2\csrc/u8x8_d_pcd8544_84x48.c ****       do
 145:..\..\u8g2\csrc/u8x8_d_pcd8544_84x48.c ****       {
 146:..\..\u8g2\csrc/u8x8_d_pcd8544_84x48.c **** 	if ( c + x > 84u )
 147:..\..\u8g2\csrc/u8x8_d_pcd8544_84x48.c **** 	{
 148:..\..\u8g2\csrc/u8x8_d_pcd8544_84x48.c **** 	  if ( x >= 84u )
 149:..\..\u8g2\csrc/u8x8_d_pcd8544_84x48.c **** 	    break;
 150:..\..\u8g2\csrc/u8x8_d_pcd8544_84x48.c **** 	  c = 84u;
 151:..\..\u8g2\csrc/u8x8_d_pcd8544_84x48.c **** 	  c -= x;
 152:..\..\u8g2\csrc/u8x8_d_pcd8544_84x48.c **** 	}
 153:..\..\u8g2\csrc/u8x8_d_pcd8544_84x48.c **** 	u8x8_cad_SendData(u8x8, c, ptr);	/* note: SendData can not handle more than 255 bytes */
 154:..\..\u8g2\csrc/u8x8_d_pcd8544_84x48.c **** 	x += c;
 155:..\..\u8g2\csrc/u8x8_d_pcd8544_84x48.c **** 	arg_int--;
 156:..\..\u8g2\csrc/u8x8_d_pcd8544_84x48.c ****       } while( arg_int > 0 );
 157:..\..\u8g2\csrc/u8x8_d_pcd8544_84x48.c ****       
 158:..\..\u8g2\csrc/u8x8_d_pcd8544_84x48.c ****       u8x8_cad_EndTransfer(u8x8);
 159:..\..\u8g2\csrc/u8x8_d_pcd8544_84x48.c ****       break;
 160:..\..\u8g2\csrc/u8x8_d_pcd8544_84x48.c ****     default:
 161:..\..\u8g2\csrc/u8x8_d_pcd8544_84x48.c ****       return 0;
 162:..\..\u8g2\csrc/u8x8_d_pcd8544_84x48.c ****   }
 163:..\..\u8g2\csrc/u8x8_d_pcd8544_84x48.c ****   return 1;
 627              		.loc 1 163 0
 628 0040 0120     		movs	r0, #1
 629 0042 44E0     		b	.L2
ARM GAS  C:\Users\gjl\AppData\Local\Temp\ccYgjziF.s 			page 45


 630              	.LVL9:
 631              	.L9:
 118:..\..\u8g2\csrc/u8x8_d_pcd8544_84x48.c ****       break;
 632              		.loc 1 118 0
 633 0044 3031     		adds	r1, r1, #48
 634 0046 F8E7     		b	.L17
 635              	.L7:
 125:..\..\u8g2\csrc/u8x8_d_pcd8544_84x48.c ****       u8x8_cad_SendCmd(u8x8, 0x021 ); /* command mode, extended function set */
 636              		.loc 1 125 0
 637 0048 2000     		movs	r0, r4
 638 004a FFF7FEFF 		bl	u8x8_cad_StartTransfer
 639              	.LVL10:
 126:..\..\u8g2\csrc/u8x8_d_pcd8544_84x48.c ****       u8x8_cad_SendCmd(u8x8, 0x080 | (arg_int >> 1) );
 640              		.loc 1 126 0
 641 004e 2121     		movs	r1, #33
 642 0050 2000     		movs	r0, r4
 643 0052 FFF7FEFF 		bl	u8x8_cad_SendCmd
 644              	.LVL11:
 127:..\..\u8g2\csrc/u8x8_d_pcd8544_84x48.c ****       u8x8_cad_EndTransfer(u8x8);
 645              		.loc 1 127 0
 646 0056 8023     		movs	r3, #128
 647 0058 7908     		lsrs	r1, r7, #1
 648 005a 1943     		orrs	r1, r3
 649 005c 2000     		movs	r0, r4
 650 005e FFF7FEFF 		bl	u8x8_cad_SendCmd
 651              	.LVL12:
 652 0062 20E0     		b	.L13
 653              	.LVL13:
 654              	.L8:
 132:..\..\u8g2\csrc/u8x8_d_pcd8544_84x48.c ****     
 655              		.loc 1 132 0
 656 0064 2000     		movs	r0, r4
 657 0066 FFF7FEFF 		bl	u8x8_cad_StartTransfer
 658              	.LVL14:
 134:..\..\u8g2\csrc/u8x8_d_pcd8544_84x48.c ****       x *= 8;
 659              		.loc 1 134 0
 660 006a 7579     		ldrb	r5, [r6, #5]
 661              	.LVL15:
 136:..\..\u8g2\csrc/u8x8_d_pcd8544_84x48.c ****       u8x8_cad_SendCmd(u8x8, 0x020 ); /* activate chip (PD=0), horizontal increment (V=0), enter no
 662              		.loc 1 136 0
 663 006c A37F     		ldrb	r3, [r4, #30]
 137:..\..\u8g2\csrc/u8x8_d_pcd8544_84x48.c ****       u8x8_cad_SendCmd(u8x8, 0x080 | (x) );	/* set X address */
 664              		.loc 1 137 0
 665 006e 2021     		movs	r1, #32
 135:..\..\u8g2\csrc/u8x8_d_pcd8544_84x48.c ****       x += u8x8->x_offset;
 666              		.loc 1 135 0
 667 0070 ED00     		lsls	r5, r5, #3
 668              	.LVL16:
 137:..\..\u8g2\csrc/u8x8_d_pcd8544_84x48.c ****       u8x8_cad_SendCmd(u8x8, 0x080 | (x) );	/* set X address */
 669              		.loc 1 137 0
 670 0072 2000     		movs	r0, r4
 136:..\..\u8g2\csrc/u8x8_d_pcd8544_84x48.c ****       u8x8_cad_SendCmd(u8x8, 0x020 ); /* activate chip (PD=0), horizontal increment (V=0), enter no
 671              		.loc 1 136 0
 672 0074 ED18     		adds	r5, r5, r3
 673              	.LVL17:
 137:..\..\u8g2\csrc/u8x8_d_pcd8544_84x48.c ****       u8x8_cad_SendCmd(u8x8, 0x080 | (x) );	/* set X address */
 674              		.loc 1 137 0
ARM GAS  C:\Users\gjl\AppData\Local\Temp\ccYgjziF.s 			page 46


 675 0076 FFF7FEFF 		bl	u8x8_cad_SendCmd
 676              	.LVL18:
 138:..\..\u8g2\csrc/u8x8_d_pcd8544_84x48.c ****       u8x8_cad_SendCmd(u8x8, 0x040 | (((u8x8_tile_t *)arg_ptr)->y_pos) );	/* set Y address */
 677              		.loc 1 138 0
 678 007a 8021     		movs	r1, #128
 136:..\..\u8g2\csrc/u8x8_d_pcd8544_84x48.c ****       u8x8_cad_SendCmd(u8x8, 0x020 ); /* activate chip (PD=0), horizontal increment (V=0), enter no
 679              		.loc 1 136 0
 680 007c EDB2     		uxtb	r5, r5
 681              	.LVL19:
 138:..\..\u8g2\csrc/u8x8_d_pcd8544_84x48.c ****       u8x8_cad_SendCmd(u8x8, 0x040 | (((u8x8_tile_t *)arg_ptr)->y_pos) );	/* set Y address */
 682              		.loc 1 138 0
 683 007e 2943     		orrs	r1, r5
 684 0080 2000     		movs	r0, r4
 685 0082 FFF7FEFF 		bl	u8x8_cad_SendCmd
 686              	.LVL20:
 139:..\..\u8g2\csrc/u8x8_d_pcd8544_84x48.c ****     
 687              		.loc 1 139 0
 688 0086 4021     		movs	r1, #64
 689 0088 B379     		ldrb	r3, [r6, #6]
 690 008a 2000     		movs	r0, r4
 691 008c 1943     		orrs	r1, r3
 692 008e FFF7FEFF 		bl	u8x8_cad_SendCmd
 693              	.LVL21:
 141:..\..\u8g2\csrc/u8x8_d_pcd8544_84x48.c ****       c = ((u8x8_tile_t *)arg_ptr)->cnt;
 694              		.loc 1 141 0
 695 0092 3368     		ldr	r3, [r6]
 696 0094 0193     		str	r3, [sp, #4]
 697              	.LVL22:
 142:..\..\u8g2\csrc/u8x8_d_pcd8544_84x48.c ****       c *= 8;	
 698              		.loc 1 142 0
 699 0096 3679     		ldrb	r6, [r6, #4]
 700              	.LVL23:
 143:..\..\u8g2\csrc/u8x8_d_pcd8544_84x48.c ****       do
 701              		.loc 1 143 0
 702 0098 F600     		lsls	r6, r6, #3
 703              	.LVL24:
 704 009a F6B2     		uxtb	r6, r6
 705              	.LVL25:
 706              	.L12:
 146:..\..\u8g2\csrc/u8x8_d_pcd8544_84x48.c **** 	{
 707              		.loc 1 146 0
 708 009c 7319     		adds	r3, r6, r5
 709 009e 542B     		cmp	r3, #84
 710 00a0 08DD     		ble	.L10
 148:..\..\u8g2\csrc/u8x8_d_pcd8544_84x48.c **** 	    break;
 711              		.loc 1 148 0
 712 00a2 532D     		cmp	r5, #83
 713 00a4 03D9     		bls	.L11
 714              	.LVL26:
 715              	.L13:
 158:..\..\u8g2\csrc/u8x8_d_pcd8544_84x48.c ****       break;
 716              		.loc 1 158 0
 717 00a6 2000     		movs	r0, r4
 718 00a8 FFF7FEFF 		bl	u8x8_cad_EndTransfer
 719              	.LVL27:
 720 00ac C8E7     		b	.L16
 721              	.LVL28:
ARM GAS  C:\Users\gjl\AppData\Local\Temp\ccYgjziF.s 			page 47


 722              	.L11:
 151:..\..\u8g2\csrc/u8x8_d_pcd8544_84x48.c **** 	}
 723              		.loc 1 151 0
 724 00ae 5423     		movs	r3, #84
 725 00b0 5E1B     		subs	r6, r3, r5
 726 00b2 F6B2     		uxtb	r6, r6
 727              	.LVL29:
 728              	.L10:
 155:..\..\u8g2\csrc/u8x8_d_pcd8544_84x48.c ****       } while( arg_int > 0 );
 729              		.loc 1 155 0
 730 00b4 013F     		subs	r7, r7, #1
 731              	.LVL30:
 153:..\..\u8g2\csrc/u8x8_d_pcd8544_84x48.c **** 	x += c;
 732              		.loc 1 153 0
 733 00b6 019A     		ldr	r2, [sp, #4]
 734 00b8 3100     		movs	r1, r6
 735 00ba 2000     		movs	r0, r4
 154:..\..\u8g2\csrc/u8x8_d_pcd8544_84x48.c **** 	arg_int--;
 736              		.loc 1 154 0
 737 00bc AD19     		adds	r5, r5, r6
 738              	.LVL31:
 155:..\..\u8g2\csrc/u8x8_d_pcd8544_84x48.c ****       } while( arg_int > 0 );
 739              		.loc 1 155 0
 740 00be FFB2     		uxtb	r7, r7
 153:..\..\u8g2\csrc/u8x8_d_pcd8544_84x48.c **** 	x += c;
 741              		.loc 1 153 0
 742 00c0 FFF7FEFF 		bl	u8x8_cad_SendData
 743              	.LVL32:
 154:..\..\u8g2\csrc/u8x8_d_pcd8544_84x48.c **** 	arg_int--;
 744              		.loc 1 154 0
 745 00c4 EDB2     		uxtb	r5, r5
 746              	.LVL33:
 156:..\..\u8g2\csrc/u8x8_d_pcd8544_84x48.c ****       
 747              		.loc 1 156 0
 748 00c6 002F     		cmp	r7, #0
 749 00c8 E8D1     		bne	.L12
 750 00ca ECE7     		b	.L13
 751              	.LVL34:
 752              	.L14:
 161:..\..\u8g2\csrc/u8x8_d_pcd8544_84x48.c ****   }
 753              		.loc 1 161 0
 754 00cc 0020     		movs	r0, #0
 755              	.LVL35:
 756              	.L2:
 164:..\..\u8g2\csrc/u8x8_d_pcd8544_84x48.c **** }
 757              		.loc 1 164 0
 758              		@ sp needed
 759              	.LVL36:
 760 00ce FEBD     		pop	{r1, r2, r3, r4, r5, r6, r7, pc}
 761              	.L20:
 762              		.align	2
 763              	.L19:
 764 00d0 00000000 		.word	.LANCHOR0
 765              		.cfi_endproc
 766              	.LFE0:
 767              		.size	u8x8_d_pcd8544_84x48, .-u8x8_d_pcd8544_84x48
 768              		.section	.rodata
ARM GAS  C:\Users\gjl\AppData\Local\Temp\ccYgjziF.s 			page 48


 769              		.align	2
 770              		.set	.LANCHOR0,. + 0
 771              		.type	u8x8_pcd8544_84x48_display_info, %object
 772              		.size	u8x8_pcd8544_84x48_display_info, 24
 773              	u8x8_pcd8544_84x48_display_info:
 774 0000 00       		.byte	0
 775 0001 01       		.byte	1
 776 0002 05       		.byte	5
 777 0003 05       		.byte	5
 778 0004 02       		.byte	2
 779 0005 02       		.byte	2
 780 0006 0C       		.byte	12
 781 0007 4B       		.byte	75
 782 0008 00093D00 		.word	4000000
 783 000c 00       		.byte	0
 784 000d 04       		.byte	4
 785 000e 1E       		.byte	30
 786 000f 28       		.byte	40
 787 0010 0B       		.byte	11
 788 0011 06       		.byte	6
 789 0012 00       		.byte	0
 790 0013 00       		.byte	0
 791 0014 5400     		.short	84
 792 0016 3000     		.short	48
 793              		.type	u8x8_d_pcd8544_84x48_init_seq, %object
 794              		.size	u8x8_d_pcd8544_84x48_init_seq, 17
 795              	u8x8_d_pcd8544_84x48_init_seq:
 796 0018 18       		.byte	24
 797 0019 15       		.byte	21
 798 001a 21       		.byte	33
 799 001b 15       		.byte	21
 800 001c 06       		.byte	6
 801 001d 15       		.byte	21
 802 001e 13       		.byte	19
 803 001f 15       		.byte	21
 804 0020 C0       		.byte	-64
 805 0021 15       		.byte	21
 806 0022 20       		.byte	32
 807 0023 15       		.byte	21
 808 0024 08       		.byte	8
 809 0025 15       		.byte	21
 810 0026 24       		.byte	36
 811 0027 19       		.byte	25
 812 0028 FF       		.byte	-1
 813              		.type	u8x8_d_pcd8544_84x48_powersave0_seq, %object
 814              		.size	u8x8_d_pcd8544_84x48_powersave0_seq, 7
 815              	u8x8_d_pcd8544_84x48_powersave0_seq:
 816 0029 18       		.byte	24
 817 002a 15       		.byte	21
 818 002b 20       		.byte	32
 819 002c 15       		.byte	21
 820 002d 0C       		.byte	12
 821 002e 19       		.byte	25
 822 002f FF       		.byte	-1
 823              		.type	u8x8_d_pcd8544_84x48_powersave1_seq, %object
 824              		.size	u8x8_d_pcd8544_84x48_powersave1_seq, 9
 825              	u8x8_d_pcd8544_84x48_powersave1_seq:
ARM GAS  C:\Users\gjl\AppData\Local\Temp\ccYgjziF.s 			page 49


 826 0030 18       		.byte	24
 827 0031 15       		.byte	21
 828 0032 20       		.byte	32
 829 0033 15       		.byte	21
 830 0034 08       		.byte	8
 831 0035 15       		.byte	21
 832 0036 24       		.byte	36
 833 0037 19       		.byte	25
 834 0038 FF       		.byte	-1
 835              		.text
 836              	.Letext0:
 837              		.file 2 "c:\\program files (x86)\\cypress\\psoc creator\\4.1\\psoc creator\\import\\gnu\\arm\\5.4.
 838              		.file 3 "c:\\program files (x86)\\cypress\\psoc creator\\4.1\\psoc creator\\import\\gnu\\arm\\5.4.
 839              		.file 4 "..\\..\\u8g2\\csrc\\u8x8.h"