ARM GAS  C:\Users\gjl\AppData\Local\Temp\cc7XGfCR.s 			page 1


   1              		.syntax unified
   2              		.cpu cortex-m0
   3              		.fpu softvfp
   4              		.eabi_attribute 20, 1
   5              		.eabi_attribute 21, 1
   6              		.eabi_attribute 23, 3
   7              		.eabi_attribute 24, 1
   8              		.eabi_attribute 25, 1
   9              		.eabi_attribute 26, 1
  10              		.eabi_attribute 30, 4
  11              		.eabi_attribute 34, 0
  12              		.eabi_attribute 18, 4
  13              		.thumb
  14              		.syntax unified
  15              		.file	"u8x8_d_stdio.c"
  16              		.text
  17              	.Ltext0:
  18              		.section	.gnu.lto_.profile.1a3e831,"",%progbits
  19 0000 789C6361 		.ascii	"x\234ca`d`a`\000\222\225\226\000\001\225\000\275"
  19      60646061 
  19      60009295 
  19      96000195 
  19      00BD
  20              		.text
  21              		.section	.gnu.lto_.icf.1a3e831,"",%progbits
  22 0000 789C6361 		.ascii	"x\234ca`d\000\001U\006\004`c81\363\370M.\306{\223\177"
  22      60640001 
  22      55060460 
  22      633831F3 
  22      F84D2EC6 
  23 0017 5632DD59 		.ascii	"V2\335Y\326\270\213\233yN\323\2366>\226u//\336\340f"
  23      D6B88B9B 
  23      794ED39E 
  23      363E9675 
  23      2F2FDEE0 
  24 002c 9DBA6EE1 		.ascii	"\235\272n\341A~\006\000Th\021c"
  24      417E0600 
  24      54681163 
  25              		.text
  26              		.section	.gnu.lto_.jmpfuncs.1a3e831,"",%progbits
  27 0000 789C6361 		.ascii	"x\234ca`d\000\201F\006\004`e`fddd\257\257\257g\002\322"
  27      60640081 
  27      46060460 
  27      65606664 
  27      6464AFAF 
  28 0018 F56C7009 		.ascii	"\365lp\011f\006\006&\306\277@\364\341\302_\236/L\255"
  28      66060626 
  28      C6BF40F4 
  28      E1C25F9E 
  28      2F4CAD
  29 002b CC0C8C5C 		.ascii	"\314\014\214\\\214\313\031e\240\302\033\036\334md\203"
  29      8CCB1965 
  29      A0C21B1E 
  29      DC6D6483 
  30 003b 08EB31AE 		.ascii	"\010\3531\256\200\013/\2778\245\233\037\"\254\305\270"
  30      800B2FBF 
  30      38A59B1F 
ARM GAS  C:\Users\gjl\AppData\Local\Temp\cc7XGfCR.s 			page 2


  30      22ACC5B8 
  31 004b 1224CCC2 		.ascii	"\022$\314\302\0024\227\221\217\241\276\236\221\211\251"
  31      02349791 
  31      8FA1BE9E 
  31      9189A9
  32 005a 9219E402 		.ascii	"\222\031\344\002V\220M@\016\3309\000\337\003\030\334"
  32      56904D40 
  32      0ED83900 
  32      DF0318DC 
  33              		.text
  34              		.section	.gnu.lto_.inline.1a3e831,"",%progbits
  35 0000 789C3D50 		.ascii	"x\234=P\273J\004A\020\254\352\031w\307\335\333\275\305"
  35      BB4A0441 
  35      10ACEA19 
  35      77C7DDDB 
  35      BDC5
  36 0012 C8E0F0CC 		.ascii	"\310\340\360\3144\364\023\304\017\270\017\321o8\330"
  36      34F413C4 
  36      0FB80FD1 
  36      6F38D8
  37 0021 4410A30D 		.ascii	"D\020\243\015\015\0146\020\037 \\bb \370\005F~\204\201"
  37      0D0C3610 
  37      1F205C62 
  37      6220F805 
  37      467E8481 
  38 0035 8960E003 		.ascii	"\211`\340\003\301\356\036q\006\252\233\232\242\273j"
  38      C1EE1E71 
  38      06AA9B9A 
  38      A2BB6A
  39 0044 22083B07 		.ascii	"\"\010;\007\271\370Y\003\232gP\220\224\244Al\307\323"
  39      B9F85903 
  39      9A675090 
  39      94A4416C 
  39      C7D3
  40 0056 12C53817 		.ascii	"\022\3058\027H\277L\210\375\027'&\025T\033\014&\014"
  40      48BF4C88 
  40      FD172726 
  40      15541B0C 
  40      260C
  41 0068 BB8E7BD8 		.ascii	"\273\216{\330VD\3227\227\363\245\214\031\015\222\267"
  41      5644D237 
  41      97F3A58C 
  41      190D92B7 
  42 0078 C9A0F3B6 		.ascii	"\311\240\363\266\263!\261\001\302\260\260\033\260y1"
  42      B321B101 
  42      C2B0B01B 
  42      B07931
  43 0087 23646B58 		.ascii	"#dkX\2351O\260-5\325\246\324\362\217\021\355:\013\246"
  43      9D314FB0 
  43      2D35D5A6 
  43      D4F28F11 
  43      ED3A0BA6 
  44 009b C31FE1F7 		.ascii	"\303\037\341\367\307\323C\371.\307\201\254y\305\031"
  44      C7D343F9 
  44      2EC781AC 
  44      79C519
  45 00aa 327D7BF9 		.ascii	"2}{\371\3668\315\364\224\327J\213\323\253\327\373\317"
ARM GAS  C:\Users\gjl\AppData\Local\Temp\cc7XGfCR.s 			page 3


  45      F638CDF4 
  45      94D74A8B 
  45      D3ABD7FB 
  45      CF
  46 00bb C668D199 		.ascii	"\306h\321\2317N\037y\365\240\342i\315\374\271\256\236"
  46      374E1F79 
  46      F5A0E269 
  46      CDFCB9AE 
  46      9E
  47 00cc 8CF37DC4 		.ascii	"\214\363}\304\273\252g\31464\027\207\005+t\321\276\251"
  47      BBAA67CC 
  47      36341787 
  47      052B74D1 
  47      BEA9
  48 00de 68D58FA6 		.ascii	"h\325\217\246@y\262\363g\024&\300/\036\0341C"
  48      4079B2F3 
  48      671426C0 
  48      2F1E1C31 
  48      43
  49              		.text
  50              		.section	.gnu.lto_.pureconst.1a3e831,"",%progbits
  51 0000 789C6361 		.ascii	"x\234ca`d\340a```e\220d\222d\236\301\310\"\301*\005"
  51      6064E061 
  51      60606065 
  51      90649264 
  51      9EC1C822 
  52 0017 00076C01 		.ascii	"\000\007l\001\""
  52      22
  53              		.text
  54              		.section	.gnu.lto_bitmap_place_tile.1a3e831,"",%progbits
  55 0000 789C6553 		.ascii	"x\234eS\335KTA\024\2373s\277\274\356\256\213\275.$\221"
  55      DD4B5441 
  55      149F3373 
  55      BFBCEEAE 
  55      8BBD2E24 
  56 0015 891492F5 		.ascii	"\211\024\222\365\220\377E\320\263\341\203J\010E\220"
  56      90FF45D0 
  56      B3E1834A 
  56      084590
  57 0024 06F6B4E3 		.ascii	"\006\366\264\343^\267\325\236\012L\303\014\241\0225"
  57      5EB7D59E 
  57      0A4CC30C 
  57      A11235
  58 0033 2BB5325B 		.ascii	"+\2652[?\352fe\244\246\370`AA\345\006\022\346\203\212"
  58      3FEA6665 
  58      A4A6F860 
  58      4141E506 
  58      12E6838A 
  59 0047 66841F9D 		.ascii	"f\204\037\2353s\203\205\206\335sg~\367\374~\347\234"
  59      33738385 
  59      86DD7367 
  59      7EF7FC7E 
  59      E79C
  60 0059 39E71A0C 		.ascii	"9\347\032\014\030\255e\301\330\021|\236\304?X\014\370"
  60      18AD65C1 
  60      D8117C9E 
  60      C43F580C 
ARM GAS  C:\Users\gjl\AppData\Local\Temp\cc7XGfCR.s 			page 4


  60      F8
  61 006a D559C61A 		.ascii	"\325Y\306\032\034\016\206\336\010\275y\351\030\\\244"
  61      1C0E86DE 
  61      08BD79E9 
  61      185CA4
  62 0079 DF30265D 		.ascii	"\3370&]\363\243\303d\310\004 \\:\300\342\\\030&\304"
  62      F3A3C364 
  62      C804205C 
  62      3AC0E25C 
  62      1826C4
  63 008c B9C1C037 		.ascii	"\271\301\3007\300Q\206\2447\371\016\207\211\324R\232"
  63      C05186A4 
  63      37F90E87 
  63      89D4529A 
  64 009c 17774B5C 		.ascii	"\027wK\\\337\272\332\204\354\361!\211!\367\270\212\316"
  64      DFBADA84 
  64      ECF12189 
  64      21F7B88A 
  64      CE
  65 00ad A01B8AD1 		.ascii	"\240\033\212\321\253}$\225p\305\001`\270o\351\373}\323"
  65      AB7D2495 
  65      70C50160 
  65      B86FE9FB 
  65      7DD3
  66 00bf 29EA9232 		.ascii	")\352\2222!\345\265\323R$\005@\017\010d\300\361\030"
  66      21E5B5D3 
  66      52240540 
  66      0F0864C0 
  66      F118
  67 00d1 1C8D3104 		.ascii	"\034\2151\004\030\364B\021\372\216]\231\336v\304A\305"
  67      18F44211 
  67      FA8E5D99 
  67      DE76C441 
  67      C5
  68 00e2 6BFE34B9 		.ascii	"k\3764\271j\005\274\341\200w\357?^\237\342\3157\016"
  68      6A05BCE1 
  68      8077EF3F 
  68      5E9FE2CD 
  68      370E
  69 00f4 74880D9E 		.ascii	"t\210\015\236\024X'\036\327\336\267\177\217\320Q@\001"
  69      1458271E 
  69      D7DEB77F 
  69      8FD05140 
  69      01
  70 0105 1E539B5F 		.ascii	"\036S\233_n[\342\220R\375\260\365s7\034\250~\255\226"
  70      6E5BE290 
  70      52FDB0F5 
  70      73371CA8 
  70      7EAD96
  71 0118 394961C0 		.ascii	"9Ia\300C\255\372\000bp\037H\027+\357\207\"r\357\232"
  71      43ADFA00 
  71      62701F48 
  71      172BEF87 
  71      2272EF9A 
  72 012c 7EF53C22 		.ascii	"~\365<\"\016+\352\335Lg\213(\274CT\377\305\2716\351"
  72      0E2BEADD 
  72      4C678B28 
ARM GAS  C:\Users\gjl\AppData\Local\Temp\cc7XGfCR.s 			page 5


  72      BC4354FF 
  72      C5B936E9 
  73 0140 3714504E 		.ascii	"7\024PN\003\3319\321B\327\314\340\356\365\260\325H\267"
  73      03D939D1 
  73      42D7CCE0 
  73      EEF5B0D5 
  73      48B7
  74 0152 54008350 		.ascii	"T\000\203P\250\357\007\036\201\205]\002B\372O\371ro"
  74      A8EF071E 
  74      81855D02 
  74      42FA4FF9 
  74      726F
  75 0164 CF93FEB8 		.ascii	"\317\223\376\270\331+\366a!\210\031@\327`b\002\246\005"
  75      D92BF661 
  75      21881940 
  75      D7606202 
  75      A605
  76 0176 54994D5B 		.ascii	"T\231M[\207L\016\031\227L.\231\020\2310\032\036\001"
  76      874C0E19 
  76      974C2E99 
  76      1099301A 
  76      1E01
  77 0188 4A358F92 		.ascii	"J5\217\222\216\242\261\362\225\022c\253\030\020\033"
  77      8EA2B1F2 
  77      951263AB 
  77      18101B
  78 0197 BBC6393E 		.ascii	"\273\3069>D\006\022\376|\265\212\217o1\301\326\344\304"
  78      440612FE 
  78      7CB58A8F 
  78      6F31C1D6 
  78      E4C4
  79 01a9 9C4D3704 		.ascii	"\234M7\004\030\3721P\342k\\0\234\010\261\004\211\365"
  79      18FA3150 
  79      E26B5C30 
  79      9C08B104 
  79      89F5
  80 01bb D4EC2F41 		.ascii	"\324\354/A\336\2360=\274\015\202l}\266=a\341\331k\267"
  80      DE9E303D 
  80      BC0D826C 
  80      7DB63D61 
  80      E1D96BB7 
  81 01cf F4D94188 		.ascii	"\364\331A\210\032>\2721e\222\236\211\003\363\004\365"
  81      1A3EBA31 
  81      65929E89 
  81      03F304F5 
  82 01df D0A53570 		.ascii	"\320\2455p\311Q*N6\313E4p\303`+\\\243\271\036v4\213"
  82      C9512A4E 
  82      36CB4534 
  82      70C3602B 
  82      5CA3B91E 
  83 01f6 18528EB9 		.ascii	"\030R\216\271\332i;H(\0348u\004Ny\236\210 JN\177\\\015"
  83      DA693B48 
  83      281C3875 
  83      044E799E 
  83      88204A4E 
  84 020d 45B30B34 		.ascii	"E\263\0134T\357\266\336N5\205:\341\026\016+ \007\206"
  84      54EFB6DE 
ARM GAS  C:\Users\gjl\AppData\Local\Temp\cc7XGfCR.s 			page 6


  84      4E35853A 
  84      E1160E2B 
  84      200786
  85 0220 A864780A 		.ascii	"\250dx\012\235\244\225h]\214\0213\233f+Z:\275\362\331"
  85      9DA49568 
  85      5D8C1133 
  85      9B662B5A 
  85      3ABDF2D9 
  86 0234 8EEFC826 		.ascii	"\216\357\310&)\243\2105\013\335\336\345\231\205\327"
  86      29A38835 
  86      0BDDDEE5 
  86      9985D7
  87 0243 2EAA3548 		.ascii	".\2525H\205;\360\014\3420L\222\364r||Q\224\366S\357"
  87      853BF00C 
  87      E2304C92 
  87      F4727C7C 
  87      5194F653 
  88 0258 E509BAE0 		.ascii	"\345\011\272\3404F\301b\324\3471\002\245\230\237*\362"
  88      3446C162 
  88      D4E73102 
  88      A5989F2A 
  88      F2
  89 0269 F2E492A9 		.ascii	"\362\344\222\251\363\315\307\222\2208\224\232\031tu"
  89      F3CDC792 
  89      9038949A 
  89      197475
  90 0278 4F004651 		.ascii	"O\000FQ-\003\374_\313\320I\265\310`\370\225R;\243L\303"
  90      2D03FC5F 
  90      CBD049B5 
  90      C860F895 
  90      523BA34C 
  91 028d C016A171 		.ascii	"\300\026\241q\316\213h%\222y7\325\326\023\32226\214"
  91      CE8B6825 
  91      927937D5 
  91      D613D232 
  91      368C
  92 029f A9D6B275 		.ascii	"\251\326\262uT\304.\363\033\002\205\304\017\023\225"
  92      54C42EF3 
  92      1B0285C4 
  92      0F1395
  93 02ae 4C9A8B65 		.ascii	"L\232\213e\234\213\005\225\205\232\334U\016\210\342"
  93      9C8B0595 
  93      859ADC55 
  93      0E88E2
  94 02bd E4EC2F29 		.ascii	"\344\354/))\307\337\305\2623\307\312+k/T\342\256\276"
  94      29C7DFC5 
  94      B233C7CA 
  94      2B6B2F54 
  94      E2AEBE
  95 02d0 ACA2AAA2 		.ascii	"\254\242\252\242\266\256\252\346|I%\203z\270d\324\325"
  95      B6AEAAE6 
  95      7C492583 
  95      7AB864D4 
  95      D5
  96 02e1 9CAD869A 		.ascii	"\234\255\206\232\277\362R@p"
  96      BFF25240 
  96      70
ARM GAS  C:\Users\gjl\AppData\Local\Temp\cc7XGfCR.s 			page 7


  97              		.text
  98              		.section	.gnu.lto_u8x8_d_stdio.part.0.1a3e831,"",%progbits
  99 0000 789C8D53 		.ascii	"x\234\215SMHTQ\024\276\347\336;\357\331\370\203\355"
  99      4D485451 
  99      14BEE7DE 
  99      3BEFD9F8 
  99      83ED
 100 0012 5C0C2481 		.ascii	"\\\014$\201\210\222\032\271\021jQ\233j\335Z\220pbp\221"
 100      88921AB9 
 100      116A519B 
 100      6ADD5A90 
 100      70627091 
 101 0026 95A310B4 		.ascii	"\225\243\020\264\230;\243/\014*\244H\235P\224D4+\177"
 101      983BA32F 
 101      0C2AA448 
 101      9D509444 
 101      342B7F
 102 0039 B31C531B 		.ascii	"\263\034S\033\015T\2541\244B\244 Q\233\"\204\034L\334"
 102      0D54AC31 
 102      A442A420 
 102      519B2284 
 102      1C4CDC
 103 004c A4D33977 		.ascii	"\244\3239w\234I\311\205\227\231w\177\336\371\276\357"
 103      9C49C985 
 103      9799777F 
 103      DEF9BEEF 
 104 005c 9CEF9E27 		.ascii	"\234\357\236'\0310\032\331\222\26138\037\303?\330\030"
 104      19301AD9 
 104      92B13338 
 104      1FC33FD8 
 104      18
 105 006d C8BA595C 		.ascii	"\310\272Y\\H\340z\346 h\366&\011\000Z \310#\271\000"
 105      48E07AE6 
 105      2068F626 
 105      09005A20 
 105      C823B900 
 106 0081 0F6CF02D 		.ascii	"\017l\360-\016o7\247o\333s:\224\362\251\305\366\360"
 106      0E6F37A7 
 106      6FDB733A 
 106      94F2A9C5 
 106      F6F0
 107 0093 F988CFCA 		.ascii	"\371\210\317\312\260\004cQ\316\240\320\001\307\035\004"
 107      B0046351 
 107      CEA0D001 
 107      C71D04
 108 00a2 E8801C8C 		.ascii	"\350\200\034\214\234\253\351m\022\277\271\205<\022\267"
 108      9CABE96D 
 108      12BFB985 
 108      3C12B7
 109 00b1 91D0C3E5 		.ascii	"\221\320\303\3454\332r\310\304\355\302\367\320\007\273"
 109      34DA72C8 
 109      C4EDC2F7 
 109      D007BB
 110 00c0 380A0CD7 		.ascii	"8\012\014\327]\203_\373\315\354v\342T\013\223)\252\016"
 110      5D835FFB 
 110      CDEC76E2 
 110      540B9329 
ARM GAS  C:\Users\gjl\AppData\Local\Temp\cc7XGfCR.s 			page 8


 110      AA0E
 111 00d2 2C21A00B 		.ascii	",!\240\013\004\261>\006\007t\202\203\341\021\203'\220"
 111      04B13E06 
 111      07748283 
 111      E1118327 
 111      90
 112 00e3 4D80D68F 		.ascii	"M\200\326\217m_\014\221\253\301\353w\303\256\2546\215"
 112      6D5F0C91 
 112      ABC1EB77 
 112      C3AEAC36 
 112      8D
 113 00f4 1D70AA5B 		.ascii	"\035p\252[\247-!\341\351^(\015\214|\327\033\230\227"
 113      A72D21E1 
 113      E95E280D 
 113      8C7CD71B 
 113      9897
 114 0106 A240A356 		.ascii	"\242@\243VCk\263\266\035X\267R\340\315\304*\240;\206"
 114      436BB3B6 
 114      1D58B752 
 114      E0CDC42A 
 114      A03B86
 115 0119 8B17A251 		.ascii	"\213\027\242Q\215s\213w\354\242P\243\232\377\324l$\377"
 115      8D738B77 
 115      ECA250A3 
 115      9AFFD46C 
 115      24FF
 116 012b 87EADD07 		.ascii	"\207\352\335\007\265\324\267\375 \325\250Q82\241\017"
 116      B5D4B7FD 
 116      20D5A851 
 116      3832A10F 
 117 013b B2A007FF 		.ascii	"\262\240\007\377\317 \213\214B\207\372\301\300\273\020"
 117      CF208B8C 
 117      4287FAC1 
 117      C0BB10
 118 014a BBDFF45C 		.ascii	"\273\337\364\\P*\032\255Vu\353\251`\002P\251\034\213"
 118      502A1AAD 
 118      5675EBA9 
 118      600250A9 
 118      1C8B
 119 015c B6097A48 		.ascii	"\266\011zH|\030\214\255!\230\356$\302%\315b\011|\207"
 119      7C188CAD 
 119      2198EE24 
 119      C225CD62 
 119      097C87
 120 016f 496DFC53 		.ascii	"Im\374S\317\252=\267\223\324\202\215S\311\265\234\256"
 120      CFAA3DB7 
 120      93D4828D 
 120      53C9B59C 
 120      AE
 121 0180 24366000 		.ascii	"$6`\000r1\242\351\333\257\005[\314\342\340\300\344\331"
 121      7231A2E9 
 121      DBAF055B 
 121      CCE2E0C0 
 121      E4D9
 122 0192 884F6524 		.ascii	"\210Oe$R\207\235\324\011\004\317\321a\244Mg:7\004\263"
 122      52879DD4 
 122      0904CFD1 
ARM GAS  C:\Users\gjl\AppData\Local\Temp\cc7XGfCR.s 			page 9


 122      61A44D67 
 122      3A3704B3 
 123 01a6 FD44FCE7 		.ascii	"\375D\374\347\032Z\223v\211\014j\221\315\2217[\251q"
 123      1A5A9376 
 123      890C6A91 
 123      CD91375B 
 123      A971
 124 01b8 919BA71A 		.ascii	"\221\233\247\032T\020\022\256\356\021y\221\020\241\342"
 124      541012AE 
 124      EE117991 
 124      10A1E2
 125 01c7 077789CC 		.ascii	"\007w\211\314?\032\273\237\226\020\361\223\210\214\213"
 125      3F1ABB9F 
 125      9610F193 
 125      888C8B
 126 01d6 BCD422D3 		.ascii	"\274\324\"\323\243\241\033\342\244\276\216\231\345\360"
 126      A3A11BE2 
 126      A4BE8E99 
 126      E5F0
 127 01e4 9021D1FA 		.ascii	"\220!\321\372!\0201\333\357\325\217\370\377e\220\347"
 127      211031DB 
 127      EFD58FF8 
 127      FF6590E7 
 128 01f4 574199E8 		.ascii	"WA\231\350\007\210\367\003\004\200N\031\014'\322@\377"
 128      0788F703 
 128      04804E19 
 128      0C27D240 
 128      FF
 129 0205 899E91B5 		.ascii	"\211\236\221\265\\[\273\002\336t\272&\205\314a\360\015"
 129      5C5BBB02 
 129      DE74BA26 
 129      85CC61F0 
 129      0D
 130 0216 F7CD5FA3 		.ascii	"\367\315_\243m\265\240\217\240\336\232xoR/\233:\217"
 130      6DB5A08F 
 130      A0DE9A78 
 130      6F522F9B 
 130      3A8F
 131 0228 CDA999DA 		.ascii	"\315\251\231\332\224\026h\366b\326\351\226H\252\306"
 131      941668F6 
 131      62D6E996 
 131      48AAC6
 132 0237 967F457D 		.ascii	"\226\177E}\207\357\332W|\335fA\036\3710\002-\260\315"
 132      87EFDA57 
 132      7CDD6641 
 132      1EF93002 
 132      2DB0CD
 133 024a 7529A350 		.ascii	"u)\243P\240Y!\306)\016N2\246I\350C\206\327{I\344AI\014"
 133      A05921C6 
 133      290E4E32 
 133      A649E843 
 133      86D77B49 
 134 0262 086A12DD 		.ascii	"\010j\022\335\211\343H\362\003\273\021)((\020X\375l"
 134      89E348F2 
 134      03BB1129 
 134      28281058 
 134      FD6C
ARM GAS  C:\Users\gjl\AppData\Local\Temp\cc7XGfCR.s 			page 10


 135 0274 7AB654AD 		.ascii	"z\266T\255\306\037\212R\020L\200\207a\341\230'\252X"
 135      C61F8A52 
 135      104C8087 
 135      61E19827 
 135      AA58
 136 0286 C2AE6D12 		.ascii	"\302\256m\022\332\246\237d\237\036k\230\024\236`\374"
 136      DAA69F64 
 136      9F1E6B98 
 136      149E60FC 
 137 0296 91FCFC62 		.ascii	"\221\374\374b\374U\025\271N\024\227\272+Jqu\275\250"
 137      FC5515B9 
 137      4E1497BA 
 137      2B4A7175 
 137      BDA8
 138 02a8 C459E2AE 		.ascii	"\304Y\342\256t\226]\311/e\346\305\012W\311\325\312\012"
 138      74965DC9 
 138      2F65E6C5 
 138      0A57C9D5 
 138      CA0A
 139 02ba 49E7E2B2 		.ascii	"I\347\342\262\333\245\017\312\312+\215\252\362*\367"
 139      DBA50FCA 
 139      CA2B8DAA 
 139      F22AF7
 140 02c9 25E75FFC 		.ascii	"%\347_\374\024a\343"
 140      1461E3
 141              		.text
 142              		.section	.gnu.lto_bitmap_show.1a3e831,"",%progbits
 143 0000 789C7D53 		.ascii	"x\234}S\333K\224A\024\237\337\314\267\337mwU\304z\022"
 143      DB4B9441 
 143      149FDFCC 
 143      B7DF6D77 
 143      55C47A12 
 144 0014 92C8C202 		.ascii	"\222\310\302\002\303\236z\353\255?\240g\301\007\205"
 144      C39E7AEB 
 144      AD3FA067 
 144      C10785
 145 0023 B097200B 		.ascii	"\260\227 \013\352i?\335\213fP\021%\265\025=ThY^\272"
 145      EA693FDD 
 145      8B665011 
 145      25B5153D 
 145      5468595E 
 146 0038 E97A89AF 		.ascii	"\351z\211\257\210\350b^\240\236\244R\003\211\220P\261"
 146      88E8625E 
 146      A09EA452 
 146      03899050 
 146      B1
 147 0049 7A28B573 		.ascii	"z(\265sfv)(\034v\3177\363\233\3379\3477\347\314X\002"
 147      66762928 
 147      1C76CF37 
 147      F39BDF39 
 147      E737E7CC 
 148 005f 82C7694B 		.ascii	"\202\307iK\210J\372v\322\0371\001yv\\\210fW\3023\023"
 148      884AFA76 
 148      D21F3101 
 148      79765C88 
 148      6657C233 
 149 0074 25ADB61D 		.ascii	"%\255\266\035\"\360#lc\026l\003G\012\023\033\016O\236"
ARM GAS  C:\Users\gjl\AppData\Local\Temp\cc7XGfCR.s 			page 11


 149      22F0236C 
 149      63166C03 
 149      470A131B 
 149      0E4F9E
 150 0087 B88E54DF 		.ascii	"\270\216T\337\307\0041\335,\210\351\232\000O\\O\372"
 150      C70431DD 
 150      2C88E99A 
 150      004F5C4F 
 150      FA
 151 0098 CF5E321E 		.ascii	"\317^2\036\035\263\010\367\015\037Q\200\277\201\013"
 151      1DB308F7 
 151      0D1F5180 
 151      BF810B
 152 00a7 9190CA8A 		.ascii	"\221\220\312\212\330\216\353\371Q$\224'\020Z(\321\206"
 152      D88EEBF9 
 152      51249427 
 152      105A28D1 
 152      86
 153 00b8 053A7A1D 		.ascii	"\005:z\035\346-\217orU\342i\353|NVu\0064f\322\227U\320"
 153      E62D8F6F 
 153      7255E269 
 153      EB7C4E56 
 153      75063466 
 154 00d0 1522AD84 		.ascii	"\025\"\255\204X\227\232\"\320\211*A\264\251T\337\025"
 154      58979A22 
 154      D0892A41 
 154      B4A954DF 
 154      15
 155 00e1 B522D30A 		.ascii	"\265\"\323\012\260h\271\364&\373\251\210\227\022\025"
 155      B068B9F4 
 155      26FBA988 
 155      971215
 156 00f0 B41C697F 		.ascii	"\264\034i\177\375\313U[\301\314\347\263C\223n\345u\016"
 156      FDCB555B 
 156      C1CCE7B3 
 156      43936EE5 
 156      750E
 157 0102 18BE6FBC 		.ascii	"\030\276o\274\024\204\251\212\264R\270\015E1q\013\345"
 157      1484A98A 
 157      B452B80D 
 157      4531710B 
 157      E5
 158 0113 E842B98E 		.ascii	"\350B\271\216M\344\354Pk\213\257\266i\307L\352\346`"
 158      4DE4EC50 
 158      6B8BAFB6 
 158      69C74CEA 
 158      E660
 159 0125 DC3806BD 		.ascii	"\3348\006\275\366\213\300b\267;\377u\233\353_\273\020"
 159      F68BC062 
 159      B73BFF75 
 159      9BEB5FBB 
 159      10
 160 0136 B753CCAC 		.ascii	"\267S\314\254\300]T\242\033\225F2z`SCd\001\355=\020"
 160      C05D54A2 
 160      1B954632 
 160      7A605343 
 160      6401ED3D 
ARM GAS  C:\Users\gjl\AppData\Local\Temp\cc7XGfCR.s 			page 12


 161 014b 06EBEBC9 		.ascii	"\006\353\353\311 \234\216\344b\233 \030\247x\264c\353"
 161      209C8EE4 
 161      629B2018 
 161      A778B463 
 161      EB
 162 015c B92B288B 		.ascii	"\271+(\213\307\306g\023%c\305x\026gS\304\246\230M\251"
 162      C7C66713 
 162      2563C578 
 162      166753C4 
 162      A6984DA9 
 163 0170 6697694F 		.ascii	"f\227iO!\026)\225/\226\244\024\276\232CK\370\261Q\347"
 163      21162995 
 163      2F96A414 
 163      BE9A434B 
 163      F8B151E7 
 164 0184 A53DEC64 		.ascii	"\245=\354d\221KR\011j\242\232G\262/\363\241\325\341"
 164      914B5209 
 164      6AA29A47 
 164      B22FF3A1 
 164      D5E1
 165 0196 DDA47293 		.ascii	"\335\244r\223\212+\236\035^y\025\341\332)\270\350\245"
 165      8A2B9E1D 
 165      5E7915E1 
 165      DA29B8E8 
 165      A5
 166 01a7 43112B9B 		.ascii	"C\021+\233YP\206\344\021\217H\003_\273\007\342\206D"
 166      595086E4 
 166      118F4803 
 166      5FBB07E2 
 166      8644
 167 01b9 2DEB33AC 		.ascii	"-\3533\254\216\314\2024,?\251@\\\002[\036\317n2X\224"
 167      8ECC8234 
 167      2C3FA940 
 167      5C025B1E 
 167      CF6E3258 
 168 01ce DC3AD24F 		.ascii	"\334:\322O'\034v\213\350\222\346r\013\323Nb5h\013\202"
 168      271C768B 
 168      E892E672 
 168      0BD34E62 
 168      35680B82 
 169 01e2 12C24E2A 		.ascii	"\022\302N*S\276/c\357\236\371\327p\2659\320\270\215"
 169      53BE2F63 
 169      EF9EF9D7 
 169      70B539D0 
 169      B88D
 170 01f4 7B48A09F 		.ascii	"{H\240\237\313\313\233\243\243\263\252fwZ9\270\217k"
 170      CBCB9BA3 
 170      A3B3AA66 
 170      775A39B8 
 170      8F6B
 171 0206 94C5D7F7 		.ascii	"\224\305\327\367\340\001j8\333r\353\230m\322\305(#\213"
 171      E0016A38 
 171      DB72EB98 
 171      6DD2C528 
 171      238B
 172 0218 FA95791B 		.ascii	"\372\225y\0331H\334\234o\245=\375C\031\351\016\036\032"
 172      3148DC9C 
ARM GAS  C:\Users\gjl\AppData\Local\Temp\cc7XGfCR.s 			page 13


 172      6FA53DFD 
 172      4319E90E 
 172      1E1A
 173 022a E5CB9982 		.ascii	"\345\313\231\202[\221\366\214k\317<TL(v\225\213Y\244"
 173      5B91F68C 
 173      6BCF3C54 
 173      4C287695 
 173      8B59A4
 174 023d A69387F2 		.ascii	"\246\223\207\362\230)$\227\322\022\303\333\325g\244"
 174      98292497 
 174      D212C3DB 
 174      D567A4
 175 024c C29F1EEF 		.ascii	"\302\237\036\357\375{.w]R\313\361\010\011\336\353\234"
 175      FD7B2E77 
 175      5D52CBF1 
 175      0809DEEB 
 175      9C
 176 025d 3A7FAAD8 		.ascii	":\177\252\330\244\337\211\001\224\247\251L\034&R\010"
 176      A4DF8901 
 176      94A7A94C 
 176      1C265208 
 177 026d 73CEDE30 		.ascii	"s\316\3360\314\240\011\3237\363\276\3316a\252\221\373"
 177      CCA009D3 
 177      37F3BED9 
 177      3661AA91 
 177      FB
 178 027e 13C62E34 		.ascii	"\023\306.4\266#3>\220ol)u\203\0170\007\335\036\276)"
 178      B623333E 
 178      906F6C29 
 178      75830F30 
 178      07DD1EBE 
 179 0293 046ABA23 		.ascii	"\004j\272#\350u\202\356H\21100\370\230\023\311\315\306"
 179      E87582EE 
 179      48893030 
 179      F89813C9 
 179      CDC6
 180 02a5 137C9993 		.ascii	"\023|\231\223\347\202\230\311\264\017C\346\222/\203"
 180      E78298C9 
 180      B40F43E6 
 180      922F83
 181 02b4 0A6FFB64 		.ascii	"\012o\373dJ\355A\207\342\270\"\013\255\376\322s\271"
 181      4AED4187 
 181      E2B8220B 
 181      ADFED273 
 181      B9
 182 02c5 A1FC6123 		.ascii	"\241\374a#\177uqr5\037\324\307\210\221\257E\257u\344"
 182      7F757172 
 182      351FD4C7 
 182      8891AF45 
 182      AF75E4
 183 02d8 459751B7 		.ascii	"E\227Q\267\376\026\335\315\352\312\264hO\334\2002\232"
 183      FE16DDCD 
 183      EACAB468 
 183      4FDC8032 
 183      9A
 184 02e9 352A8DE6 		.ascii	"5*\215\346\"\343\310=\356Y^\351\311W\247\030\243\005"
 184      22E3C83D 
ARM GAS  C:\Users\gjl\AppData\Local\Temp\cc7XGfCR.s 			page 14


 184      EE595EE9 
 184      C957A718 
 184      A305
 185 02fb CD929A26 		.ascii	"\315\222\232&\273\024\205q/\262h\237E\023n\023\356]"
 185      BB148571 
 185      2FB2689F 
 185      45136E13 
 185      EE5D
 186 030d 39C35094 		.ascii	"9\303P\224^\314\027z1W\367\353S\360X$\335>=\250-\325"
 186      5ECC177A 
 186      3157F7EB 
 186      53F05824 
 186      DD3E3DA8 
 187 0323 D5B5F43B 		.ascii	"\325\265\364;\266\367\340\236\332\372\246#\3654;\276"
 187      B6F7E09E 
 187      DAFAA623 
 187      F5343BBE 
 188 0333 B7AEA1AE 		.ascii	"\267\256\241\256\351hC\343\341\352z\201\0238\376\033"
 188      E96843E3 
 188      E1EA7A81 
 188      1338FE1B 
 189 0343 26597D98 		.ascii	"&Y}\230"
 190              		.text
 191              		.section	.gnu.lto_u8x8_d_stdio.1a3e831,"",%progbits
 192 0000 789C8D92 		.ascii	"x\234\215\222MHTQ\024\307\357\271\367\315\233qtrV\021"
 192      4D485451 
 192      14C7EFB9 
 192      F7CD9B71 
 192      74725611 
 193 0014 3290B411 		.ascii	"2\220\264\021]\014b\213\244]\253Z\2736$T\304E\026\216"
 193      5D0C628B 
 193      A45DAB5A 
 193      BB362454 
 193      C445168E 
 194 0028 42D062AE 		.ascii	"B\320b\2563\363\254E\242VJ\226\204d\246\2319jN:5\332"
 194      33F3AC45 
 194      A2564A96 
 194      8464A699 
 194      396A4E3A 
 195 003e 93609252 		.ascii	"\223`\222RA4d,\3104MB\310\201B#l:\347\276\021\222Zt"
 195      4134642C 
 195      C8344D42 
 195      C8814223 
 195      6C3AE7BE 
 196 0056 79EF7E71 		.ascii	"y\357~q~\347\374\3179Wc\300h\214\013\306N\341Z\202?"
 196      7EE7FCCF 
 196      395763C0 
 196      688C0BC6 
 196      4EE15A82 
 197 006b D819F096 		.ascii	"\330\031\360\2269\306\032\034\\\330\214\034&\035\272"
 197      39C61A1C 
 197      5CD88C1C 
 197      261DBA
 198 007a 9A853573 		.ascii	"\232\2055sm\3610\223N=v\202\311,\015t\313\324fm@\007"
 198      6DF13093 
 198      4E3D7682 
 198      C92C0D74 
ARM GAS  C:\Users\gjl\AppData\Local\Temp\cc7XGfCR.s 			page 15


 198      CBD4666D 
 199 0090 A0553A80 		.ascii	"\240U:\200\371\271\320l:\370\341;\337\343\360fg\372"
 199      F9B9D06C 
 199      3AF8E13B 
 199      DFE3F066 
 199      67FA
 200 00a2 9A33BF57 		.ascii	"\2323\277W\312\200\\\351\3318\223\014\030G\014\214\232"
 200      CA805CE9 
 200      D938930C 
 200      18470C8C 
 200      9A
 201 00b3 E20C8E7B 		.ascii	"\342\014\216{\240\320C\221{!\037-\247'f/\213c\300p\373"
 201      A0D04391 
 201      7B211F2D 
 201      A727662F 
 201      8B63C070 
 202 00c8 7A6D635C 		.ascii	"zmc\\\327\320\244\017\320\226n\346CC\235\342\0337\004"
 202      D7D0A40F 
 202      D0966EE6 
 202      43439DE2 
 202      1B3704
 203 00db 8086C7E4 		.ascii	"\200\206\307\344\354\355\265Ct\344\220\213\307\256\305"
 203      ECEDB543 
 203      74E4908B 
 203      C7AEC5
 204 00ea EEF7BAC8 		.ascii	"\356\367\272\310W\354\365\366X\207+\257\207\002\312"
 204      57ECF5F6 
 204      58872BAF 
 204      8702CA
 205 00f9 48A5CC30 		.ascii	"H\245\3140\204\200\001\020\024\360\021x\240\037\377"
 205      84800110 
 205      14F01178 
 205      A01FFF
 206 0108 87A0E12D 		.ascii	"\207\240\341-\203\307\220\207\300\314PtI\023^\005\357"
 206      83C79087 
 206      C0CC5074 
 206      49135E05 
 206      EF
 207 0119 C45EEEED 		.ascii	"\304^\356\355\303\311\263R\240T\030\264`K-i\207\260"
 207      C3C9B352 
 207      A05418B4 
 207      604B2D69 
 207      87B0
 208 012b E26ECDAF 		.ascii	"\342n\315\25749E\221\342:\327\277&li\356N<S\026\022"
 208      34394591 
 208      E23AD7BF 
 208      266C69EE 
 208      4E3C5316 
 209 0140 38F41738 		.ascii	"8\364\0278\254\300\304\347\331\005\2478\251\300\376"
 209      ACC0C4E7 
 209      D905A738 
 209      A9C0FE
 210 014f C887117B 		.ascii	"\310\207\021{\032L\304\263d\013\030B\203\221\003z\221"
 210      1A4CC4B3 
 210      640B1842 
 210      8391037A 
 210      91
ARM GAS  C:\Users\gjl\AppData\Local\Temp\cc7XGfCR.s 			page 16


 211 0160 D5183C81 		.ascii	"\325\030<\201<\002V\207\177\265\271\364\220\304\221"
 211      3C025687 
 211      7FB5B9F4 
 211      90C491
 212 016f 4B5544AF 		.ascii	"KUD\257\243X}\\\303%\246L\245\202\322\214\350S\273z"
 212      A3587D5C 
 212      C325A64C 
 212      A582D28C 
 212      E853BB7A 
 213 0183 0600E5C7 		.ascii	"\006\000\345\307\201\324j@\241\261G\344\204m#E\315J"
 213      81D46A40 
 213      A1B147E4 
 213      846D2345 
 213      CD4A
 214 0195 724EAB58 		.ascii	"rN\253X\207\2209\026\007\362\023\024\324\263\366\304"
 214      87903916 
 214      07F21314 
 214      D4B3F6C4 
 215 01a5 FD4D5B2B 		.ascii	"\375M[+47`\0303\031\3072\333\260\265\324\011\006\021"
 215      34376018 
 215      3319C732 
 215      DBB0B5D4 
 215      090611
 216 01b8 680534F9 		.ascii	"h\0054\371\271;7a\247\0060\310\244\272\265mt\351\373"
 216      B93B3761 
 216      A70630C8 
 216      A4BAB56D 
 216      74E9FB
 217 01cb C4A48E00 		.ascii	"\304\244\216\000<E\341R\2200\030\263\230\201\007I3\333"
 217      3C45E152 
 217      903018B3 
 217      98810749 
 217      33DB
 218 01dd 62B2F178 		.ascii	"b\262\361xw\264\367\246k\237YV\314\270bTRQd\030i\024"
 218      77B4F7A6 
 218      6B9F5956 
 218      CCB86254 
 218      52516418 
 219 01f3 CCC8119F 		.ascii	"\314\310\021\237\240\301M\372\310\341G\010-\007\273"
 219      A0C14DFA 
 219      C8E14708 
 219      2D07BB
 220 0202 9B722CBD 		.ascii	"\233r,\275\364\032\302[\321\037.r\214u\200g\340Qo;\311"
 220      F41AC25B 
 220      D11F2E72 
 220      8C758067 
 220      E0516F3B 
 221 0217 35F6CA2E 		.ascii	"5\366\312.6!h.4\252\344\250|\321\350\326;\273\177O^"
 221      3621682E 
 221      34AAE4A8 
 221      7CD1E8D6 
 221      3BBB7F4F 
 222 022c 95D26D08 		.ascii	"\225\322m\010{\212c\020x\016~\254\261CA\266\203\341"
 222      7B8A6310 
 222      780E7EAC 
 222      B14341B6 
 222      83E1
ARM GAS  C:\Users\gjl\AppData\Local\Temp\cc7XGfCR.s 			page 17


 223 023e 385B8580 		.ascii	"8[\205\200\332#\274to\362\306\241\202>\252\275\331q"
 223      DA23BC74 
 223      6FF2C6A1 
 223      823EAABD 
 223      D971
 224 0250 BAA3CB41 		.ascii	"\272\243\313A\257\310\032\020\203\202 \212\373\303z"
 224      AFC81A10 
 224      8382208A 
 224      FBC37A
 225 025f EA6D78CB 		.ascii	"\352mx\313iY\313A\323\255^@\332x\202\214\371\177\032"
 225      6959CB41 
 225      D3AD5E40 
 225      DA78828C 
 225      F97F1A
 226 0272 4F92B1C6 		.ascii	"O\222\261\3066!\344\376w\026\031)l$\203\027\230EP`\035"
 226      3621E4FE 
 226      77161929 
 226      6C248317 
 226      98455060 
 227 0287 9D2A119D 		.ascii	"\235*\021\2355co)\023\325\272/\0200w\032]\351p\221+"
 227      35636F29 
 227      13D5BA2F 
 227      1030771A 
 227      5DE97091 
 228 029c 33C34EAB 		.ascii	"3\303N\253\025\000\246U\261m\254\005\"\350\352\250\327"
 228      1500A655 
 228      B16DAC05 
 228      22E8EAA8 
 228      D7
 229 02ad 5B8A5F7D 		.ascii	"[\212_}qUQi\271\257\266\034w\227\212\313*\312|u\025"
 229      71555169 
 229      B9AFB61C 
 229      77978ACB 
 229      2ACA7C75 
 230 02c2 D517BCE5 		.ascii	"\325\027\274\345L\257\257\251\367UVht-\316\373\252\354"
 230      4CAFAFA9 
 230      F7555668 
 230      742DCEFB 
 230      AAEC
 231 02d4 E76AABCA 		.ascii	"\347j\253\312\252k\352\324z\261\256\3667\022\241N\232"
 231      AA6BEAD4 
 231      7AB1AEF6 
 231      3712A14E 
 231      9A
 232              		.text
 233              		.section	.gnu.lto_u8x8_SetupStdio.1a3e831,"",%progbits
 234 0000 789C5590 		.ascii	"x\234U\220\313+\304Q\024\307\317\367\3361\277Q^{S&\013"
 234      CB2BC451 
 234      14C7CFF7 
 234      DE31BF51 
 234      5E7B5326 
 235 0015 B2306435 		.ascii	"\2620d5\377\201\275\225\005\315b\246d\245<\312Fs\315"
 235      FF81BD95 
 235      05CD62A6 
 235      64A53CCA 
 235      4673CD
 236 0028 CCCD2C95 		.ascii	"\314\315,\225Fh4J\232\361f9\273\037\033\245\220\262"
ARM GAS  C:\Users\gjl\AppData\Local\Temp\cc7XGfCR.s 			page 18


 236      4668344A 
 236      9AF16639 
 236      BB1F1BA5 
 236      90B2
 237 003a 23094D92 		.ascii	"#\011M\2224DJ\215\237s\306\312\351\336\3169\367\274"
 237      34444A8D 
 237      9F73C6CA 
 237      E9DECE39 
 237      F7BC
 238 004c 3EE7FA08 		.ascii	">\347\372\010$2\303\252\203u+_h\202\232?'\232\015(@"
 238      2432C3AA 
 238      83752B5F 
 238      68829A3F 
 238      279A0D28 
 239 0061 0C130025 		.ascii	"\014\023\000%\024\022\370TU\205\343\271rIu\025\014\313"
 239      1412F854 
 239      5585E3B9 
 239      72497515 
 239      0CCB
 240 0073 9D7DEF35 		.ascii	"\235}\3575E\027V\023y\252\326\211P@\027g]\246\017r\372"
 240      45175613 
 240      79AAD689 
 240      50401767 
 240      5DA60F72 
 241 0088 43590DF8 		.ascii	"CY\015\370\330};[yh\022W!\304\356\332\325\372\215_\267"
 241      D87D3B5B 
 241      79681257 
 241      21C4EEDA 
 241      D5FA8D5F 
 242 009d 83D85E3C 		.ascii	"\203\330^<\275zm\354\3340&iL5n\352\255\326\330\202\346"
 242      BD7A6DEC 
 242      DC302669 
 242      4C356EEA 
 242      ADD6D882 
 243 00b2 7ED84410 		.ascii	"~\330D\020E\004\211\237\010\333\350\224\364\373\303"
 243      4504899F 
 243      08DBE894 
 243      F4FBC3
 244 00c1 9F6CA33F 		.ascii	"\237l\243?-\343C\177C\261\003\277\254\261?\340\032\317"
 244      2DE3437F 
 244      43B103BF 
 244      ACB13FE0 
 244      1ACF
 245 00d3 4B1977C1 		.ascii	"K\031w\3019Zr\352\030^J\250\3029\262\305\233R\242\365"
 245      395A72EA 
 245      185E4AA8 
 245      C239B2C5 
 245      9B52A2F5 
 246 00e7 13D26EF6 		.ascii	"\023\322n\366\004R%\375J\245\227k'Q5\031cZ\254\366y"
 246      045225FD 
 246      4AA5976B 
 246      27513519 
 246      635AACF6 
 247 00fc 8A5B6117 		.ascii	"\212[a\027\011Ji\306\255\2432\222\337s\267\271A\311"
 247      094A69C6 
 247      ADA33292 
 247      DF73B7B9 
ARM GAS  C:\Users\gjl\AppData\Local\Temp\cc7XGfCR.s 			page 19


 247      41C9
 248 010e 175A7B7C 		.ascii	"\027Z{|\341\310\"\272\006\377ur\232i\310cuVx\232\255"
 248      E1C822BA 
 248      06FF7572 
 248      9A69C863 
 248      7556789A 
 249 0123 F67315F6 		.ascii	"\366s\025\366\030Y\202\033\217\311=\247\247\333j\007"
 249      1859821B 
 249      8FC93DA7 
 249      A7DB6A07 
 250 0133 FBC8E3A7 		.ascii	"\373\310\343\247\366C8@\317\377\261f\330\352\200\307"
 250      F6433840 
 250      CFFFB166 
 250      D8EA80C7 
 251 0143 7484439E 		.ascii	"t\204C\236\373\214\244\273\334_\303\023\2510\020cs\264"
 251      FB8CA4BB 
 251      DC5FC313 
 251      A9301063 
 251      73B4
 252 0155 2D1C1EE2 		.ascii	"-\034\036\3423\025\031\351\033\212M\214\307\330\232"
 252      331519E9 
 252      1B8A4D8C 
 252      C7D89A
 253 0164 8E44E3D1 		.ascii	"\216D\343\321\211\311\370\350X8F>\361\177\001A\237\221"
 253      89C9F8E8 
 253      5838463E 
 253      F17F0141 
 253      9F91
 254 0176 62       		.ascii	"b"
 255              		.text
 256              		.section	.gnu.lto_.symbol_nodes.1a3e831,"",%progbits
 257 0000 789C558C 		.ascii	"x\234U\2141\016\302@\014\004\327\366\371.\025\005\037"
 257      310EC240 
 257      0C04D7F6 
 257      F92E1505 
 257      1F
 258 0011 009EC80B 		.ascii	"\000\236\310\013|\240(HT<\201 >Ah#\312\274\001\241\024"
 258      7CA02848 
 258      543C8120 
 258      3E416823 
 258      CABC01A1 
 259 0026 147943C4 		.ascii	"\024yC\304\035\212\020\331\306\353\331\325:\020\356"
 259      1D8A10D9 
 259      C6EBD9D5 
 259      3A10EE
 260 0035 486236E0 		.ascii	"Hb6\340\324\001\3514q\003(a\267\314Aa4\005t+\353\270"
 260      D401E934 
 260      71032861 
 260      B7CC4161 
 260      3405742B 
 261 004b 4E488C67 		.ascii	"NH\214g]v&?p\316@\315\315\032\344M\277\000\210y\202"
 261      5D76263F 
 261      70CE40CD 
 261      CD1AE44D 
 261      BF008879 
 262 0060 82F9FF5F 		.ascii	"\202\371\377_\030xU\303J\304\243\257\372f\233My\230"
 262      187855C3 
ARM GAS  C:\Users\gjl\AppData\Local\Temp\cc7XGfCR.s 			page 20


 262      4AC4A3AF 
 262      FA669B4D 
 262      7998
 263 0072 4C7B1CDE 		.ascii	"L{\034\336A\234`_/\3041.\217NE\003\256\317\221\360\001"
 263      419C605F 
 263      2FC4312E 
 263      8F4E4503 
 263      AECF91F0 
 264 0087 9AFE2DD8 		.ascii	"\232\376-\330"
 265              		.text
 266              		.section	.gnu.lto_.refs.1a3e831,"",%progbits
 267 0000 789C6361 		.ascii	"x\234ca`d\020``\000\222\214\214<\214\314\014\214\254"
 267      60641060 
 267      6000928C 
 267      8C3C8CCC 
 267      0C8CAC
 268 0013 8CAC4C2C 		.ascii	"\214\254L,L\014\000\003\024\000="
 268      4C0C0003 
 268      14003D
 269              		.text
 270              		.section	.gnu.lto_.decls.1a3e831,"",%progbits
 271 0000 789CBD58 		.ascii	"x\234\275X{P\024G\032\337\236\346\261,\013(\220\204"
 271      7B501447 
 271      1ADF9EE6 
 271      B12C0B28 
 271      9084
 272 0012 4A51172B 		.ascii	"JQ\027+!\312U%Dc.e\345\252\356\222\273\253\273\253\253"
 272      21CA5525 
 272      44632E65 
 272      E5AAEE92 
 272      BBABBBAB 
 273 0027 CB952667 		.ascii	"\313\225&g\376\270\243joY\026\334\013,{\273\203\217"
 273      FEB8A36A 
 273      6F5916DC 
 273      0B2C7BBB 
 273      838F
 274 0039 FC35226A 		.ascii	"\3745\"j\304\027\210\242\250\010\"Q\020T\004\002\"\310"
 274      C41788A2 
 274      A8082251 
 274      10540402 
 274      22C8
 275 004b AE2F7CE0 		.ascii	"\256/|\340\003ET\236\342\033E\024\005$\212\260\367u"
 275      0345549E 
 275      E21B4514 
 275      05248AB0 
 275      F775
 276 005d F7ECCE0C 		.ascii	"\367\354\316\014\031*\377\\n\213\217\231\257\373\327"
 276      192AFF5C 
 276      6E8B8F99 
 276      AFFBD7
 277 006c DFB3FBEB 		.ascii	"\337\263\373\353\351\366\321 \015\371\355~S\243\251"
 277      E9F6D120 
 277      0DF9ED7E 
 277      53A3A9
 278 007b F5D168A6 		.ascii	"\365\321h\246p\032\215\033~~\320\366\025\020\006\232"
 278      701A8D1B 
 278      7E7ED0F6 
ARM GAS  C:\Users\gjl\AppData\Local\Temp\cc7XGfCR.s 			page 21


 278      1510069A 
 279 008b 0B740028 		.ascii	"\013t\000(R\303~\376@u@N\240c@\237\203\210y@_\000\375"
 279      52C37EFE 
 279      4075404E 
 279      A063409F 
 279      83887940 
 280 00a2 1D8848FC 		.ascii	"\035\210H\374'\322(~\004\037 \312$\262B\201\302\201"
 280      27D2287E 
 280      041F20CA 
 280      24B24281 
 280      C281
 281 00b4 AA44F944 		.ascii	"\252D\371Dv,\214\371\2078\016\211c\324d\021\275\201"
 281      762C8CF9 
 281      87380E89 
 281      63D46411 
 281      BD81
 282 00c6 13E4CC07 		.ascii	"\023\344\314\007\372\015br\210\314$x\377\032(\031\350"
 282      FA0D6272 
 282      88CC2478 
 282      FF1A2819 
 282      E8
 283 00d7 B0E8473C 		.ascii	"\260\350G<\274'\000%\"\306;E\333=z\254\023\364\020\337"
 283      BC270025 
 283      22C63B45 
 283      DB3D7AAC 
 283      13F410DF 
 284 00eb 74A2CD1E 		.ascii	"t\242\315\036=\023m%6\374\007\2366q,'\216\373b\2228"
 284      3D136D25 
 284      36FC079E 
 284      36712C27 
 284      8EFB6292 
 285 0100 107D136D 		.ascii	"\020}\023m'v\317\027\365\020\331v\340\217\302\323\001"
 285      2776CF17 
 285      F510D976 
 285      E08FC2D3 
 285      01
 286 0111 CF06711C 		.ascii	"\317\006q\034\026\307\036\023\355&<\017|*\320\302\011"
 286      16C71E13 
 286      ED263C0F 
 286      7C2AD0C2 
 286      09
 287 0122 3A482E3C 		.ascii	":H.<\261\226\353X\0044\027\350\267@\237\000\375Z\264"
 287      B196EB58 
 287      043417E8 
 287      B7409F00 
 287      FD5AB4
 288 0135 F177623C 		.ascii	"\361wb<\346\211\371\373|\202<\362\033\343\320\201\345"
 288      E689F9FB 
 288      7C823CF2 
 288      1BE3D081 
 288      E5
 289 0146 774AB443 		.ascii	"wJ\264C\034\212\324!7\"\374\243\332\027A\214'\3357^"
 289      1C8AD421 
 289      3722FCA3 
 289      DA17418C 
 289      27DD375E 
 290 015a 14FF31A6 		.ascii	"\024\3771\246L\200_\246 p\2344\256\3125\270\317\007"
ARM GAS  C:\Users\gjl\AppData\Local\Temp\cc7XGfCR.s 			page 22


 290      4C805FA6 
 290      20709C34 
 290      AECA35B8 
 290      CF07
 291 016c 07121077 		.ascii	"\007\022\020w\251\262\355d\000\212\326\355&\270\236"
 291      A9B2ED64 
 291      008AD6ED 
 291      26B89E
 292 017b 8EA1CF96 		.ascii	"\216\241\317\226\011\002BeH\207\366\"\214JP\014IE$\011"
 292      09024265 
 292      4887F622 
 292      8C4A500C 
 292      49452409 
 293 018f FAB78290 		.ascii	"\372\267\202\220&\014\024\012~\021\0324;\022\315\214"
 293      260C140A 
 293      7E111A34 
 293      3B12CD8C 
 294 019f D4A05214 		.ascii	"\324\240R\024M\224\021\024*F\221h\017\212$\362K\362"
 294      4D941114 
 294      2A469168 
 294      0F8A24F2 
 294      4BF2
 295 01b1 8B4F04E1 		.ascii	"\213O\004\341-\210*\350\337\330\367-\366*\310Z\035Y"
 295      2D882AE8 
 295      DFD8F72D 
 295      F62AC85A 
 295      1D59
 296 01c3 2A0853D0 		.ascii	"*\010S\320\001P\260OR\000\372\3245\354W\321@\006\203"
 296      0150B04F 
 296      5200FAD4 
 296      35EC57D1 
 296      400683
 297 01d6 96E6F4C6 		.ascii	"\226\346\364\306\032m\007jC\034\322x\346(b\377\021%"
 297      1A6D076A 
 297      431CD278 
 297      E62862FF 
 297      1125
 298 01e8 0D23CAC2 		.ascii	"\015#\312\302\013\247\021\243+6y\037\032\362_\303\360"
 298      0BA711A3 
 298      2B36791F 
 298      1AF25FC3 
 298      F0
 299 01f9 B44D1246 		.ascii	"\264M\022F\377<O\267\347G\205H\322\2218\010y-`\243X"
 299      FF3C4FB7 
 299      E7478548 
 299      D2913808 
 299      792D60A3 
 300 020e 3FE791CA 		.ascii	"?\347\221\312\036\2344@&\217\231+\263\011)}B\236\324"
 300      1E9C3440 
 300      268F992B 
 300      B309297D 
 300      429ED4
 301 0221 3D1FBA73 		.ascii	"=\037\272s\330\017o\346h\202/\245\227o\307\220\357P"
 301      D80F6FE6 
 301      68822FA5 
 301      976FC790 
 301      EF50
ARM GAS  C:\Users\gjl\AppData\Local\Temp\cc7XGfCR.s 			page 23


 302 0233 1DF201F6 		.ascii	"\035\362\001\366\351\371\255\267\203\201\015\327\241"
 302      E9F9ADB7 
 302      83810DD7 
 302      A1
 303 0240 69C06EEC 		.ascii	"i\300n\354=\025\240\317 !\315\\&\204\236\016\2461\257"
 303      3D15A0CF 
 303      2021CD5C 
 303      26849E0E 
 303      A631AF
 304 0253 84185640 		.ascii	"\204\030V@\0145\250\012\351E\231\233\353W]\367\363\341"
 304      0C35A80A 
 304      E945999B 
 304      EB575DF7 
 304      F3E1
 305 0265 581B8AF3 		.ascii	"X\033\212\363!mw:\317\014\371\32362\352{D\033\307v\235"
 305      216D773A 
 305      CF0CF9D3 
 305      3632EA7B 
 305      441BC776 
 306 027a 72636F63 		.ascii	"rcoc5k<\351\036q\2050#8`/\017\234\313\013dFL\001\266"
 306      356B3CE9 
 306      1E718530 
 306      2338602F 
 306      0F9CCB0B 
 307 0293 B178F800 		.ascii	"\261x\370\000\216\310!\271\027\226\011\3238\364\325"
 307      8EC821B9 
 307      179609D3 
 307      38F4D5
 308 02a2 EBA8166C 		.ascii	"\353\250\026l8Dm8\214\"\340\177\015\010\242\206\354"
 308      38446D38 
 308      8C22E07F 
 308      0D08A286 
 308      EC
 309 02b3 2D6E3AC9 		.ascii	"-n:\311\275] \364\224\013=\225-19\313\204b\0306\215"
 309      BD5D20F4 
 309      940B3D95 
 309      2D3139CB 
 309      84621836 
 310 02c8 C0D04169 		.ascii	"\300\320Ai\262\300+y\224\243\016\010R\035z\033Fn\310"
 310      B2C02B79 
 310      94A30E08 
 310      521D7A1B 
 310      466EC8
 311 02db 1F1F0CC1 		.ascii	"\037\037\014\301gXX\366\227\215\226\353\250\231\363"
 311      675858F6 
 311      978D96EB 
 311      A899F3
 312 02ea 3DEE0C6C 		.ascii	"=\356\014l\032\377\016\311\315 \016Hv4P;\216x\354\270"
 312      1AFF0EC9 
 312      CD200E48 
 312      7634503B 
 312      8E78ECB8 
 313 02fe 7DE05029 		.ascii	"}\340P)\261\303U.\270*\033\365\271\005\2564\030\207"
 313      B1C3552E 
 313      B82A1BF5 
 313      B905AE34 
 313      1887
ARM GAS  C:\Users\gjl\AppData\Local\Temp\cc7XGfCR.s 			page 24


 314 0310 090CD54B 		.ascii	"\011\014\325Kv\324\313\355pR;J\013\017\027q\270\213"
 314      76D4CBED 
 314      70523B4A 
 314      0B0F1771 
 314      B88B
 315 0322 D9D1D790 		.ascii	"\331\321\327\220\353\016\232\324\367\243Tg\234\2502"
 315      EB0E9AD4 
 315      F7A35467 
 315      9CA832
 316 0331 C3754DF4 		.ascii	"\303uM\364\334\325\326\246\027\232a\310\247\004\202"
 316      DCD5D6A6 
 316      179A61C8 
 316      A70482
 317 0340 5C923E97 		.ascii	"\\\222>\227\\\3371\252/\255q\375I\204\037L\352w\307"
 317      5CDF31AA 
 317      2FAD71FD 
 317      49841F4C 
 317      EA77C7
 318 0353 8A3D4D81 		.ascii	"\212=M\201\336\214\235`\031k\275\336\335\032\340m<\311"
 318      DE8C9D60 
 318      196BBDDE 
 318      DD1AE06D 
 318      3CC9
 319 0365 1AB70D76 		.ascii	"\032\267\015v=\010`i\214\006\266\370\336\366uz\226\306"
 319      3D086069 
 319      8C06B6F8 
 319      DEF6757A 
 319      96C6
 320 0377 39B2A915 		.ascii	"9\262\251\025\312\246\226\320\233\236\317\341\347Lm"
 320      CAA696D0 
 320      9B9ECFE1 
 320      E74C6D
 321 0386 5D4D7DA3 		.ascii	"]M}\243/\203\316\004\326\331\233\345\324\342\345\030"
 321      2F83CE04 
 321      D6D99BE5 
 321      D4E2E518 
 322 0396 C9A58633 		.ascii	"\311\245\2063\251\315{\372\257\005\343<\326\327[\340"
 322      A9CD7BFA 
 322      AF05E33C 
 322      D6D75BE0 
 323 03a6 ACD0E243 		.ascii	"\254\320\342C\214y\234~\267G\2346\021\300nrmx\245\303"
 323      8C799C7E 
 323      B7479C36 
 323      11C06E72 
 323      6D78A5C3 
 324 03ba 2758DF99 		.ascii	"'X\337\231\332[3\361E\366\376\274\351J\027\306\335\214"
 324      DA5B33F1 
 324      45F6FEBC 
 324      E94A17C6 
 324      DD8C
 325 03cc 597FECC8 		.ascii	"Y\177\354\310q-~\250\224\020\312$4v\266\267\372\340"
 325      712D7EA8 
 325      9410CA24 
 325      3476B6B7 
 325      FAE0
 326 03de E7AC6FE9 		.ascii	"\347\254o\351\221\343\225Ax\265\017e\306*+\217#\274"
 326      91E39541 
ARM GAS  C:\Users\gjl\AppData\Local\Temp\cc7XGfCR.s 			page 25


 326      78B50F65 
 326      C62A2B8F 
 326      23BC
 327 03f0 9131DFBD 		.ascii	"\2211\337\275\034\035 Kh:\224P7\226\325\320\351\254"
 327      1C1D204B 
 327      683A9450 
 327      3796D5D0 
 327      E9AC
 328 0402 863A9BCE 		.ascii	"\206:\233\316\354\326\343<\012\346\212\\i\313\021\322"
 328      ECD6E33C 
 328      0AE68A5C 
 328      69CB11D2 
 329 0412 45D33A05 		.ascii	"E\323:\005)\325\025\007k\274\031E]P\252\246\213\245"
 329      29D51507 
 329      6BBC1945 
 329      5D50AAA6 
 329      8BA5
 330 0424 AA1D1ADB 		.ascii	"\252\035\032\333\240Q\254\252\217\376B\253j'\204\273"
 330      A051ACAA 
 330      8FFE42AB 
 330      6A2784BB 
 331 0434 43CAE774 		.ascii	"C\312\347t\035\313}CV\307=\035.f:J\006\316\225\205L"
 331      1DCB7D43 
 331      56C73D1D 
 331      2E663A4A 
 331      06CE9585 
 332 0449 AAA36752 		.ascii	"\252\243gR\035Y\253\247\227\221\302z\003ttK::\221\250"
 332      1D59ABA7 
 332      9791C27A 
 332      0374744B 
 332      3A3A91A8 
 333 045d E45E46C9 		.ascii	"\344^F\311S=>\310\274\316k\275\225\031\240\023\313m"
 333      533D3EC8 
 333      BCCE6BBD 
 333      9519A013 
 333      CB6D
 334 046f E64F945B 		.ascii	"\346O\224[\300?\350\254y\245W\324\222[\212Zr\333[K<"
 334      C03FE8AC 
 334      79A557D4 
 334      925B8A5A 
 334      72DB5B4B 
 335 0484 CB3F942D 		.ascii	"\313?\224-\377[\007G\036iq5\323\272\322\335uB\213O3"
 335      FF5B0747 
 335      1E697135 
 335      D3BAD2DD 
 335      75428B4F 
 336 0499 267DCFDA 		.ascii	"&}\317\332mA\370\012c\266\326\015\235\365e\243\264\300"
 336      6D41F80A 
 336      63B6D60D 
 336      9DF565A3 
 336      B4C0
 337 04ab AECB7D56 		.ascii	"\256\313}V\347\217;Y_\213\253`[\000\276\315\230\333"
 337      E78F3B59 
 337      5F8BAB60 
 337      5B00BECD 
 337      98DB
 338 04bd 55234541 		.ascii	"U#EA\3701cn>9\222+\325(6\341\277\277\234\177\303\037"
ARM GAS  C:\Users\gjl\AppData\Local\Temp\cc7XGfCR.s 			page 26


 338      F831636E 
 338      3E39922B 
 338      D52836E1 
 338      BFBF9C7F 
 339 04d3 3F678097 		.ascii	"?g\200\227\027G\017#\274\314\2272kZ\252g\343L\366^\326"
 339      17470F23 
 339      BCCC9732 
 339      6B5AAA67 
 339      E34CF65E 
 340 04e8 7A7D0CE1 		.ascii	"z}\014\341\355\2149?>\320\200\361~\306\354\353Y\321"
 340      ED8C393F 
 340      3ED080F1 
 340      7EC6ECEB 
 340      59D1
 341 04fa E28B9D8C 		.ascii	"\342\213\235\214\331\375jg\225\03671\246q\344\310._"
 341      D9FD6A67 
 341      951E3731 
 341      A671E4C8 
 341      2E5F
 342 050c 7C953119 		.ascii	"|\2251\031\253\367\356\014\306}\214Y\276\246\264\036"
 342      ABF7EE0C 
 342      C67D8C59 
 342      BEA6B41E 
 343 051c E371C634 		.ascii	"\343q\3064\337\250\030\366\303\331~l\007\356\316\372"
 343      DFA818F6 
 343      C3D97E6C 
 343      07EECEFA 
 344 052c 37DECEDE 		.ascii	"7\336\316\336\273N\227\224\222\2316\203\3144\267;D6"
 344      BB4E9794 
 344      92993683 
 344      CC34B73B 
 344      4436
 345 053e D766B0B9 		.ascii	"\327f\260\271vy\375\263\"\177\\B\341\\\343\332\312\212"
 345      7679FDB3 
 345      227F5C42 
 345      E15CE3DA 
 345      CA8A
 346 0550 40695F2E 		.ascii	"@i_.\322\327\222\354\216\201\243\243RvgxwM\226\026\215"
 346      D2D792EC 
 346      8E81A3A3 
 346      52766778 
 346      774D9616 
 347 0565 3727E815 		.ascii	"7'\350\025dr\206\230\311\227\320\370B\334\232\213\262"
 347      64728698 
 347      C997D0F8 
 347      42DC9A8B 
 347      B2
 348 0576 0AFD7015 		.ascii	"\012\375p\025\323\221[\265wD'\333\232?\2423H\340th\\"
 348      D3915BB5 
 348      774427DB 
 348      9A3FA233 
 348      48E07468 
 349 058b D2318626 		.ascii	"\3221\206&W\342VW\322w\345r\226/>\302\374\036\253XY"
 349      57E25657 
 349      D277E572 
 349      962F3EC2 
 349      FC1EAB58 
ARM GAS  C:\Users\gjl\AppData\Local\Temp\cc7XGfCR.s 			page 27


 350 05a0 E7839B19 		.ascii	"\347\203\233\031s\377\364\213\241@|\2131/\217\245\325"
 350      73FFF48B 
 350      A1407C8B 
 350      312F8FA5 
 350      D5
 351 05b1 223CCC98 		.ascii	"\"<\314\230\352c/\316\371\342\014\177\266\226\323J\213"
 351      EA632FCE 
 351      F9E20C7F 
 351      B696D34A 
 351      8B
 352 05c2 10DEC598 		.ascii	"\020\336\305\230\346M\3759\034\256g\314\253\321\354"
 352      E64DFD39 
 352      1CAE67CC 
 352      ABD1EC
 353 05d1 A5BEF822 		.ascii	"\245\276\370\"c\234\235\275e\201\370&c\312\353\323\373"
 353      639C9DBD 
 353      6581F826 
 353      63CAEBD3 
 353      FB
 354 05e2 C5DDCF45 		.ascii	"\305\335\317E>\206\212\327\016\034\327\341\227\264\363"
 354      3E868AD7 
 354      0E1CD7E1 
 354      97B4F3
 355 05f1 B5A5CEF3 		.ascii	"\265\245\316\363\247\374Q\024\371\205EI\277h\240B\342"
 355      A7FC5114 
 355      F9854549 
 355      BF68A042 
 355      E2
 356 0602 594F7EE1 		.ascii	"YO~\341g\365\325\235\202\260BO'S\032\207Q\026\027\346"
 356      67F5D59D 
 356      82B0424F 
 356      27531A87 
 356      511617E6 
 357 0616 59161F90 		.ascii	"Y\026\037\220I\336D\246\272\206\302]\231\227\003\205"
 357      49DE44A6 
 357      BA86C25D 
 357      99970385 
 358 0626 F27F51E8 		.ascii	"\362\177Q\3503\244\200\336\241\013b\266\004\355\274"
 358      33A480DE 
 358      A10B62B6 
 358      04EDBC
 359 0635 E085AE50 		.ascii	"\340\205\256P\221Z+\223\272\345\242\027\272T\005zZ\006"
 359      915A2B93 
 359      BAE5A217 
 359      BA54057A 
 359      5A06
 360 0647 BD2E495D 		.ascii	"\275.I]\251\002\245\372\263\304O?\001\361\032\224\301"
 360      A902A5FA 
 360      B3C44F3F 
 360      01F11A94 
 360      C1
 361 0658 45A25692 		.ascii	"E\242V\222\263U\"\034\222\206\362\270h\224\315E\241"
 361      B355221C 
 361      9286F2B8 
 361      6894CD45 
 361      A1
 362 0669 4CA07540 		.ascii	"L\240u@\033\2016\001\355\000Z\003\264\036h\013\3206"
ARM GAS  C:\Users\gjl\AppData\Local\Temp\cc7XGfCR.s 			page 28


 362      1B813601 
 362      ED005A03 
 362      B41E680B 
 362      D036
 363 067b A05CA01C 		.ascii	"\240\\\240\034\240\355@\005@k\2016\003m\000\332\012"
 363      A0ED4005 
 363      406B8136 
 363      036D00DA 
 363      0A
 364 068c 94CF45D1 		.ascii	"\224\317E\321\217\024f_\216\024\240\001\265\0005\313"
 364      8F14665F 
 364      8E14A001 
 364      B50035CB 
 365 069c 7CB92AF9 		.ascii	"|\271*\371\362\255\212/\263$d\267\204\\\256\202\224"
 365      F2AD8A2F 
 365      B32464B7 
 365      845CAE82 
 365      94
 366 06ad 0B1D90A0 		.ascii	"\013\035\220\240\351*\320J\031tH\012\373\260\322\326"
 366      E92AD04A 
 366      1974480A 
 366      FBB0D2D6 
 367 06bd 5E3431F1 		.ascii	"^41\361\033%\277\236\252\371%Og\376\372\340\\\301\225"
 367      1B25BF9E 
 367      AAF9254F 
 367      67FEFAE0 
 367      5CC195
 368 06d0 8EE98AFA 		.ascii	"\216\351\212\372AD{\327\016\223-s\256\355b\320f\301"
 368      41447BD7 
 368      0E932D73 
 368      AEED62D0 
 368      66C1
 369 06e2 B51453E1 		.ascii	"\265\024S\341\317\325\0149/\023^\263!x\213\340J\303"
 369      CFD50C39 
 369      2F135EB3 
 369      21788BE0 
 369      4AC3
 370 06f4 B4E03F11 		.ascii	"\264\340?\021\321\336}\202\031#w\262E.}DM\272\034\375"
 370      D1DE7D82 
 370      192377B2 
 370      452E7D44 
 370      4DBA1CFD 
 371 0708 83149221 		.ascii	"\203\024\222!5,\233\212\264n\270\234\353\364\202\240"
 371      352C9B8A 
 371      B46EB89C 
 371      EBF482A0 
 372 0718 25188D58 		.ascii	"%\030\215X3\244i0xA\246u\231J\036\344.\325\312]Z\315"
 372      33A46930 
 372      7841A675 
 372      994A1EE4 
 372      2ED5CA5D 
 373 072e A9BA24CF 		.ascii	"\251\272$\317\205[\356\322\240Z6ht\241\026\264\255\337"
 373      855BEED2 
 373      A05A3668 
 373      74A116B4 
 373      ADDF
 374 0740 961B82F3 		.ascii	"\226\033\202\363\265\264\352\235\277\263\325\031\214"
ARM GAS  C:\Users\gjl\AppData\Local\Temp\cc7XGfCR.s 			page 29


 374      B5B4EA9D 
 374      BFB3D519 
 374      8C
 375 074d C2A2D597 		.ascii	"\302\242\325\227\307.X\022?\347\362`1\353jz\217\304"
 375      C72E5812 
 375      3FE7F260 
 375      31EB6A7A 
 375      8FC4
 376 075f AC1014ED 		.ascii	"\254\020\024\355\344\274\245\226\204\220\332\273\263"
 376      E4BCA596 
 376      8490DABB 
 376      B3
 377 076c 78CF5A14 		.ascii	"x\317Z\024&\032\350\232\324@\315\377\334:\320\275\""
 377      261AE89A 
 377      D440CDFF 
 377      DC3AD0BD 
 377      22
 378 077d 63702952 		.ascii	"cp)R\354\365E\262i\253A\337q\236\275~d\337\375N_\\\251"
 378      ECF545B2 
 378      69AB41DF 
 378      719EBD7E 
 378      64DFFD4E 
 379 0794 65FB795E 		.ascii	"e\373y^\346E\216m\341\357\001\233\263j{\217\017\253"
 379      E6458E6D 
 379      E1EF019B 
 379      B36A7B8F 
 379      0FAB
 380 07a6 C63DE458 		.ascii	"\306=\344X\320{w[\243\016;\031\326\331r\340\\\010n\241"
 380      D07B775B 
 380      A30E3B19 
 380      D6D972E0 
 380      5C086EA1 
 381 07ba CCDB9D8F 		.ascii	"\314\333\235\217*j\203\220\242,GE\351\365\021>\3720"
 381      2A6A8390 
 381      A22C4745 
 381      E9F5113E 
 381      FA30
 382 07cc CF5B7454 		.ascii	"\317[tT"
 383 07d0 747434CB 		.ascii	"tt4\313\371\346\253\262\234_\205\234\227I9o\225MMEr"
 383      F9E6ABB2 
 383      9C5F859C 
 383      9749396F 
 383      954D4D45 
 384 07e5 8B21767B 		.ascii	"\213!v{8@\354\346\330\000\222\334\263\020\3073\340\372"
 384      3840ECE6 
 384      D80092DC 
 384      B310C733 
 384      E0FA
 385 07f7 71A06340 		.ascii	"q\240c@G\201\\@\265@\207\200j\200\252\201J\201\276\007"
 385      47815C40 
 385      B5408780 
 385      6A80AA81 
 385      4A81BE07 
 386 080b AA02AA04 		.ascii	"\252\002\252\004\252\000:\010T\016t\000h?\320>E\355"
 386      AA003A08 
 386      540E7400 
 386      683FD03E 
ARM GAS  C:\Users\gjl\AppData\Local\Temp\cc7XGfCR.s 			page 30


 386      45ED
 387 081d ABBFEA5D 		.ascii	"\253\277\352]<%\234\302\302S\023\327\374a\011zV\351"
 387      3C259CC2 
 387      C25313D7 
 387      FC61097A 
 387      56E9
 388 082f CC199933 		.ascii	"\314\031\2313\014{H\302\236S\303\312\227F\265\204\275"
 388      0C7B48C2 
 388      9E53C3CA 
 388      9746B584 
 388      BD
 389 0840 A086952F 		.ascii	"\240\206\225/\273*\011{Q\015+\257\013\025\022\366\222"
 389      BB2A097B 
 389      510D2BAF 
 389      0B1512F6 
 389      92
 390 0851 1A565E81 		.ascii	"\032V^\201\313%\354e5\254\274T\356\220\260-jX\331~\272"
 390      CB25EC65 
 390      35ACBC54 
 390      EE90B02D 
 390      6A58D97E 
 391 0866 45825E51 		.ascii	"E\202^Q\203\312\242\273Q\202^S\233*\362\210e\347\310"
 391      83CAA2BB 
 391      51825E53 
 391      9B2AF288 
 391      65E7C8
 392 0879 8ACF7511 		.ascii	"\212\317u\021\355->\255?\212DV\316k\254\270\303\267"
 392      ED2D3EAD 
 392      3F8A4456 
 392      CE6BACB8 
 392      C3B7
 393 088b 2FBA29E2 		.ascii	"/\272)\342\275\305\275u\242)\356\226\020\006?\314\351"
 393      BDC5BD75 
 393      A229EE96 
 393      10063FCC 
 393      E9
 394 089c D1DD8970 		.ascii	"\321\335\211py\271\226\257\274z.B\002\235\203\011[\007"
 394      79B996AF 
 394      BC7A2E42 
 394      029D8309 
 394      5B07
 395 08ae A359B198 		.ascii	"\243Y\261\230\014\246\221a&=\357\302\000r\336\345\310"
 395      0CA69161 
 395      263DEFC2 
 395      0072DEE5 
 395      C8
 396 08bf E1937C3F 		.ascii	"\341\223|?7\300\220F8\007\312\205:\025\253\276\201\255"
 396      37C09046 
 396      3807CA85 
 396      3A15ABBE 
 396      81AD
 397 08d1 7AF565D5 		.ascii	"z\365e\325\004\226\375\374\313\352U\213^\3104\322\000"
 397      0496FDFC 
 397      CBEA558B 
 397      5EC834D2 
 397      00
 398 08e2 DE570FA0 		.ascii	"\336W\017\240,\336/%\360\203\211`\225\355NB?TG\313D"
ARM GAS  C:\Users\gjl\AppData\Local\Temp\cc7XGfCR.s 			page 31


 398      2CDE2F25 
 398      F0838960 
 398      95ED4E42 
 398      3F5447CB 
 399 08f7 8F6487B3 		.ascii	"\217d\207\263T\236\000x\337D\370\007\352\231l\224g\362"
 399      549E0078 
 399      DF44F807 
 399      EA996C94 
 399      67F2
 400 0909 34C4E8A4 		.ascii	"4\304\350\244j&\033\025\231<\251\226\311\033\212L6\322"
 400      6A261B15 
 400      993CA996 
 400      C91B8A4C 
 400      36D2
 401 091b 4C9E5264 		.ascii	"L\236Rd\362\021d\222m3\303\253_'\333\0141\264_\372\242"
 401      F2116492 
 401      6D33C3AB 
 401      5F27DB0C 
 401      31B45FFA 
 402 0930 3F4973C9 		.ascii	"?Is\311\234\031\316~\2139\003e\035=Vuf\226\264\325?"
 402      9C19CE7E 
 402      8B390365 
 402      1D3D5675 
 402      6696B4D5 
 403 0945 CDA65B7D 		.ascii	"\315\246[}\231r\253g}\035\253\177A\372\310\264\331+"
 403      9972AB67 
 403      7D1DAB7F 
 403      41FAC8B4 
 403      D92B
 404 0957 6D696574 		.ascii	"mietKc\210\301\246\327\010\202D\371\236dM\035\265\006"
 404      4B6388C1 
 404      A6D70882 
 404      44F99E64 
 404      4D1DB506 
 405 096b 7685C165 		.ascii	"v\205\301e\247\256\350\275\267?\177\315\332\265\202"
 405      A7AEE8BD 
 405      B73F7FCD 
 405      DAB582
 406 097a 5C83147C 		.ascii	"\\\203\024|J\247+:.\2158.\277\0079\317\221{\020\341"
 406      4AA72B3A 
 406      2E8D382E 
 406      BF0739CF 
 406      917B10E1 
 407 098e 71A93304 		.ascii	"q\2513\004\267\263\355\345\326\211\264g\354~\203D\203"
 407      B7B3EDE5 
 407      D689B467 
 407      EC7E8344 
 407      83
 408 099f 9D0BBB2B 		.ascii	"\235\013\273+\036w\205Lz\027\323L\243x\221\023/c\236"
 408      1E77854C 
 408      7A17D34C 
 408      A3789113 
 408      2F639E
 409 09b2 0D1EBDE2 		.ascii	"\015\036\275\342\007\226\024\224\303:_\211!@\344\376"
 409      07961494 
 409      C33A5F89 
 409      2140E4FE 
ARM GAS  C:\Users\gjl\AppData\Local\Temp\cc7XGfCR.s 			page 32


 410 09c2 87233074 		.ascii	"\207#0tA\362\015^%;.Q;\362\307\373\272\203\0069,`\015"
 410      41F20D5E 
 410      253B2E51 
 410      3BF2C7FB 
 410      BA830639 
 411 09d9 BA4C5B86 		.ascii	"\272L[\206\267\016D\340\207\314\260JW\377\206\020\342"
 411      B70E44E0 
 411      87CCB04A 
 411      57FF8610 
 411      E2
 412 09ea 219CB676 		.ascii	"!\234\266v\024\316\033\255\020\322}\251\320\026Ih\013"
 412      14CE1BAD 
 412      10D27DA9 
 412      D0164968 
 412      0B
 413 09fb 150A2F57 		.ascii	"\025\012/W\350\360\332\354\202\273\376x\214\215\257"
 413      E8F0DAEC 
 413      82BBFE78 
 413      8C8DAF
 414 0a0a BE77A651 		.ascii	"\276w\246Q\307\366X\201\034q\306\256\366\235@l\223\025"
 414      C7F65881 
 414      1C71C6AE 
 414      F69D406C 
 414      9315
 415 0a1c C8B979EF 		.ascii	"\310\271y\357\256\236\035\342\035\216\233\340/\234\033"
 415      AE9E1DE2 
 415      1D8E9BE0 
 415      2F9C1B
 416 0a2b B49353BE 		.ascii	"\264\223S\276\340\231^\241\362C{\033\007\007;H1\272"
 416      E0995EA1 
 416      F2437B1B 
 416      07073B48 
 416      31BA
 417 0a3d CED1535B 		.ascii	"\316\321S[A\363\331\215\001\241\231\342\012\377\024"
 417      41F3D98D 
 417      01A199E2 
 417      0AFF14
 418 0a4c B1BA096B 		.ascii	"\261\272\011k\374*G\340\355\\\250g\020\335\303\237\274"
 418      FC2A47E0 
 418      ED5CA867 
 418      10DDC39F 
 418      BC
 419 0a5d 788EDEDD 		.ascii	"x\216\336\335%\364\024\220l\275\237K.+\264\004\204Z"
 419      25F41490 
 419      6CBD9F4B 
 419      2E2BB404 
 419      845A
 420 0a6f 9933B2A1 		.ascii	"\2313\262\241\255\304'\324\301\275Kn\310\256\355\033"
 420      ADC427D4 
 420      C1BD4B6E 
 420      C8AEED1B 
 421 0a7f D2293E2F 		.ascii	"\322)>/\310\030\311\252NVh\310\223\034\2553\334\367"
 421      C818C9AA 
 421      4E5668C8 
 421      931CAD33 
 421      DCF7
 422 0a91 43707A00 		.ascii	"Cpz\000u\277f\353\270\313\007g0fE\216\373\226\016\257"
ARM GAS  C:\Users\gjl\AppData\Local\Temp\cc7XGfCR.s 			page 33


 422      75BF66EB 
 422      B8CB0767 
 422      3066458E 
 422      FB960EAF 
 423 0aa5 63CCD0E3 		.ascii	"c\314\320\343\266b?\274Y\204=.\255\011\022\017\202\204"
 423      B6623FBC 
 423      59843D2E 
 423      AD09120F 
 423      8284
 424 0ab7 DF5096B1 		.ascii	"\337P\226\261\014\341b\332\351\267\246\275\273\025>"
 424      0CE162DA 
 424      E9B7A6BD 
 424      BB153E
 425 0ac6 FEE8E18F 		.ascii	"\376\350\341\217\0253\027+f7\301\332^z\305\002\346\337"
 425      1533172B 
 425      6637C1DA 
 425      5E7AC502 
 425      E6DF
 426 0ad8 168B592F 		.ascii	"\026\213Y/,\324\373P\210\356\002\335\001\272'/Hpf\234"
 426      2CD4FB50 
 426      88EE02DD 
 426      01BA272F 
 426      4870669C 
 427 0aec 572B3B33 		.ascii	"W+;3v\211\003'\373\274\255\220N$\335*Py=\252\226\240"
 427      76890327 
 427      FBBCAD90 
 427      4E24DD2A 
 427      50793DAA 
 428 0b02 B754A0F2 		.ascii	"\267T\240\362}\353\340:\361\220A\356no\210\340I\027"
 428      7DEBE03A 
 428      F19041EE 
 428      6E6F88E0 
 428      4917
 429 0b14 701EFB56 		.ascii	"p\036\373V\277\255\\\300\344^ \343\331\253`\274\237"
 429      BFAD5CC0 
 429      E45E20E3 
 429      D9AB60BC 
 429      9F
 430 0b25 06897B55 		.ascii	"\006\211{U\270\252Z\213\242\303\330\230\033MQdL\037"
 430      B8AA5A8B 
 430      A2C3D898 
 430      1B4D5164 
 430      4C1F
 431 0b37 C87D20CD 		.ascii	"\310} \315\323\333ta+\366\003o\010\037B\330~*\204\344"
 431      D3DB7461 
 431      2BF6036F 
 431      081F42D8 
 431      7E2A84E4 
 432 0b4b 1BB17478 		.ascii	"\033\261txS\260b*\364)\366\234G\342TxD\247\302\243\343"
 432      53B0622A 
 432      F429F69C 
 432      47E25478 
 432      44A7C2A3 
 433 0b60 5BC69568 		.ascii	"[\306\225hr-,\241\373Et?E7mj\037\015xg'\275\330\250"
 433      722D2CA1 
 433      FB45743F 
 433      45376D6A 
ARM GAS  C:\Users\gjl\AppData\Local\Temp\cc7XGfCR.s 			page 34


 433      1F0D7867 
 434 0b78 6CF9EA92 		.ascii	"l\371\352\222\320<\005\226<\275\246e\313\3531\367\216"
 434      D03C0596 
 434      3CBDA665 
 434      CBEB31F7 
 434      8E
 435 0b89 E2CA74AE 		.ascii	"\342\312t\256\347\006i|\345\220SQ)\346\312\353\355\000"
 435      E706697C 
 435      E5905351 
 435      29E6CAEB 
 435      ED00
 436 0b9b AD144F3C 		.ascii	"\255\024O<\225\242oe\366\270\362\222}@Q\301\237\212"
 436      95A26F65 
 436      F6B8F292 
 436      7D4051C1 
 436      9F8A
 437 0bad 463DA546 		.ascii	"F=\245F\335+\256,P\272pT\341\3023\021\375\214\242W?"
 437      DD2BAE2C 
 437      50BA7054 
 437      E1C23311 
 437      FD8CA257 
 438 0bc2 D872DF5F 		.ascii	"\330r\337_\201nP\240\007E\364 E\267\357\336;\352\307"
 438      816E50A0 
 438      0745F420 
 438      45B7EFDE 
 438      3BEAC7
 439 0bd5 1CCE1432 		.ascii	"\034\316\02428\015\365\026\212#\363v\210z\3730+\353"
 439      380DF516 
 439      8A23F376 
 439      887AFB30 
 439      2BEB
 440 0be7 BA0FC3B8 		.ascii	"\272\017\303\270\032\37428%f\230b~h\277Y\201EL\373\217"
 440      1AFC3238 
 440      25669862 
 440      7E68BF59 
 440      81454CFB 
 441 0bfc 30CF29E6 		.ascii	"0\317)\346n\336\272J\245\327\315\012\257GD\313\310S"
 441      6EDEBA4A 
 441      A5D7CD0A 
 441      AF4744CB 
 441      C853
 442 0c0e FBA7BFCD 		.ascii	"\373\247\277\315\237\366\373Y\2634\001\006C\252\305"
 442      9FF6FB59 
 442      B3340106 
 442      43AAC5
 443 0c1d CACF31F0 		.ascii	"\312\3171\360K\221\351\223X\233=%\321nL\236\226`I2;"
 443      4B91E993 
 443      589B3D25 
 443      D16E4C9E 
 443      96604932 
 444 0c32 A6452F9E 		.ascii	"\246E/\236\363\361/cMKlv\263\303\021ks\244\230\246\231"
 444      F3F12F63 
 444      4D4B6C76 
 444      B3C3116B 
 444      73A498A6 
 445 0c47 EC66239F 		.ascii	"\354f#\237b\217\375(f\226\262\301\222lK\261\363\261"
 445      628FFD28 
ARM GAS  C:\Users\gjl\AppData\Local\Temp\cc7XGfCR.s 			page 35


 445      6696B2C1 
 445      926C4BB1 
 445      F3B1
 446 0c59 89D6D458 		.ascii	"\211\326\324X\243=9\366W1\004\001o\357[S\254\346\367"
 446      A33D39F6 
 446      57310401 
 446      6FEF5B53 
 446      ACE6F7
 447 0c6c CDC6384B 		.ascii	"\315\3068K\254\305jJJ\2157\307&\033M\013,Vs\254!\336"
 447      ACC56A4A 
 447      4A8D37C7 
 447      261B4D0B 
 447      2C5673AC 
 448 0c82 9C604C4D 		.ascii	"\234`LM\342\015\374\022\233\331\021\263@\343/\232\262"
 448      E20DFC12 
 448      9BD911B3 
 448      40E32F9A 
 448      B2
 449 0c93 F0FF6589 		.ascii	"\360\377e\211c\211#\326\340\340\343A-\250\237\032g\341"
 449      638923D6 
 449      E0E0E341 
 449      2DA89F1A 
 449      67E1
 450 0ca5 938D3683 		.ascii	"\223\2156\203-\311h2\033xP\374VLL,\374\245\316I\374"
 450      2DC96832 
 450      1B7850FC 
 450      564C4C2C 
 450      FCA5CE49 
 451 0cba 30D6E4B0 		.ascii	"0\326\344\260\233\340m\361\034C<\035\222\022c\322\204"
 451      9BE06DF1 
 451      1C433C1D 
 451      921263D2 
 451      84
 452 0ccb 29789BD1 		.ascii	")x\233\321\316\307\314\014\024\2458\026\244,\322\313"
 452      CEC7CC0C 
 452      14A53816 
 452      A42CD2CB 
 453 0cdb FB83E3CD 		.ascii	"\373\203\343\315q)\251V\020\355\340\215\274\371\015"
 453      7129A956 
 453      10EDE08D 
 453      BCF90D
 454 0cea 2F9B6474 		.ascii	"/\233dt\360\006\233\305\312\332\337\364\266{\302\343"
 454      F0069BC5 
 454      CADADFF4 
 454      B67BC2E3 
 455 0cfa ED0A4CB4 		.ascii	"\355\012L\264YR\014\020\002h\325\245\362\011sX3\010"
 455      59520C10 
 455      0268D5A5 
 455      F2097358 
 455      3308
 456 0d0c 5E6801BC 		.ascii	"^h\001\2741>\236\204'\320\362\241\211t\330ys<}\027\333"
 456      313E9E84 
 456      27D0F2A1 
 456      8974D879 
 456      733C7D17 
 457 0d21 C32D0E43 		.ascii	"\303-\016CB\212\2257X\254\013\315v\207\331\220\234\022"
 457      428A9537 
ARM GAS  C:\Users\gjl\AppData\Local\Temp\cc7XGfCR.s 			page 36


 457      58AC0BCD 
 457      7687D990 
 457      9C12
 458 0d33 6FD62E36 		.ascii	"o\326.6\244$$8\314\274\326l5\245@ \022ulF\314\372\330"
 458      A4242438 
 458      CCBCD66C 
 458      35A54020 
 458      12756C46 
 459 0d4a C06B3D2F 		.ascii	"\300k=/>d\334T\252\335h\215\007\303\222\214K\014\246"
 459      3E64DC54 
 459      AADD688D 
 459      07C3928C 
 459      4B0CA6
 460 0d5d B840EA5E 		.ascii	"\270@\352^\262#\021\336\375\343\226\360fx\372\231\214"
 460      B22311DE 
 460      FDE396F0 
 460      6678FA99 
 460      8C
 461 0d6e F1F0D0C5 		.ascii	"\361\360\320\305[\0346\206\362\267\232\027\363\360d"
 461      5B1C3686 
 461      F2B79A17 
 461      F3F064
 462 0d7d C1302D30 		.ascii	"\3010-0\332\011\343\351\267X\023R\002m\226\305\346$"
 462      DA09E3E9 
 462      B7581352 
 462      026D96C5 
 462      E624
 463 0d8f C3224B3C 		.ascii	"\303\"K<\277`jB\222\305F,3x,\233\342\211\203\247!\220"
 463      BF606A42 
 463      92C5462C 
 463      33782C9B 
 463      E28983A7 
 464 0da5 A4C6B0C0 		.ascii	"\244\306\260\300lI\\\300\353\350;\035\031\276\310n\001"
 464      6C495CC0 
 464      EBE83B1D 
 464      19BEC86E 
 464      01
 465 0db6 136CA949 		.ascii	"\023l\251I\016\261\305`u\204\306\033y\243\001\006\245"
 465      0EB1C560 
 465      7584C61B 
 465      79A30106 
 465      A5
 466 0dc7 DA20A3C9 		.ascii	"\332 \243\311fh\012'1\211Ku\030LI)\246\257\015\263f"
 466      66680A27 
 466      31894B75 
 466      184C4929 
 466      A6AF0DB3 
 467 0ddc CEFCFACF 		.ascii	"\316\374\372\317\337h\0356\013\015\210\336\001m\254"
 467      DF681D36 
 467      0B0D88DE 
 467      016DAC
 468 0deb 67C13762 		.ascii	"g\3017b,f\177(\306\202\274\204\022\200R\311TG\374\004"
 468      2C667F28 
 468      C682BC84 
 468      128052C9 
 468      5447FC04 
 469 0dff 1DA1B614 		.ascii	"\035\241\266\024\310)D\335\314\033\026\031-<\004)\234"
ARM GAS  C:\Users\gjl\AppData\Local\Temp\cc7XGfCR.s 			page 37


 469      C82944DD 
 469      CC1B1619 
 469      2D3C0429 
 469      9C
 470 0e10 71F291C9 		.ascii	"q\362\221\311\216\010\230\320\020\022\213\315\000\361"
 470      8E0898D0 
 470      10128BCD 
 470      00F1
 471 0e1e 30C61157 		.ascii	"0\306\021W\010\332\012\035D\000\3551[\345\035\241\012"
 471      08DA0A1D 
 471      4400ED31 
 471      5BE51DA1 
 471      0A
 472 0e2f 749279A1 		.ascii	"t\222y\2419i\252\034F[\"\330\274\223\205\030&\204=\325"
 472      3969AA1C 
 472      465B22D8 
 472      BC938518 
 472      26843DD5 
 473 0e43 C4EB59A4 		.ascii	"\304\353Y\244Y\354\336P\233\335\260\016\302~<\232g\251"
 473      59ECDE50 
 473      9BDDB00E 
 473      C27E3C9A 
 473      67A9
 474 0e55 6642C2BC 		.ascii	"fB\302\2743\224ME2\003\374h?\037B\037_\222P|I\346|\250"
 474      33944D45 
 474      3203FC68 
 474      3F1F421F 
 474      5F92507C 
 475 0e6d C4FF8165 		.ascii	"\304\377\201e\321\341\307\326\207\357b\003\270\210M"
 475      D1E1C7D6 
 475      87EF6203 
 475      B8884D
 476 0e7c 565E4B53 		.ascii	"V^KSh\343\355S\230\014\3021E\276K\010&Pj\346\377\013"
 476      68E3ED53 
 476      980CC231 
 476      45BE4B08 
 476      26506AE6 
 477 0e92 2A4C6069 		.ascii	"*L`i"
 478              		.text
 479              		.section	.gnu.lto_.symtab.1a3e831,"",%progbits
 480 0000 6269746D 		.ascii	"bitmap_place_tile\000"
 480      61705F70 
 480      6C616365 
 480      5F74696C 
 480      6500
 481 0012 00       		.ascii	"\000"
 482 0013 00       		.ascii	"\000"
 483 0014 00       		.ascii	"\000"
 484 0015 00000000 		.ascii	"\000\000\000\000\000\000\000\000"
 484      00000000 
 485 001d BB000000 		.ascii	"\273\000\000\000"
 486 0021 6269746D 		.ascii	"bitmap\000"
 486      617000
 487 0028 00       		.ascii	"\000"
 488 0029 04       		.ascii	"\004"
 489 002a 00       		.ascii	"\000"
 490 002b 80000000 		.ascii	"\200\000\000\000\000\000\000\000"
ARM GAS  C:\Users\gjl\AppData\Local\Temp\cc7XGfCR.s 			page 38


 490      00000000 
 491 0033 5B010000 		.ascii	"[\001\000\000"
 492 0037 6269746D 		.ascii	"bitmap_show\000"
 492      61705F73 
 492      686F7700 
 493 0043 00       		.ascii	"\000"
 494 0044 00       		.ascii	"\000"
 495 0045 00       		.ascii	"\000"
 496 0046 00000000 		.ascii	"\000\000\000\000\000\000\000\000"
 496      00000000 
 497 004e C2000000 		.ascii	"\302\000\000\000"
 498 0052 75387838 		.ascii	"u8x8_d_stdio\000"
 498      5F645F73 
 498      7464696F 
 498      00
 499 005f 00       		.ascii	"\000"
 500 0060 00       		.ascii	"\000"
 501 0061 00       		.ascii	"\000"
 502 0062 00000000 		.ascii	"\000\000\000\000\000\000\000\000"
 502      00000000 
 503 006a 4D010000 		.ascii	"M\001\000\000"
 504 006e 75387838 		.ascii	"u8x8_SetupStdio\000"
 504      5F536574 
 504      75705374 
 504      64696F00 
 505 007e 00       		.ascii	"\000"
 506 007f 00       		.ascii	"\000"
 507 0080 00       		.ascii	"\000"
 508 0081 00000000 		.ascii	"\000\000\000\000\000\000\000\000"
 508      00000000 
 509 0089 51010000 		.ascii	"Q\001\000\000"
 510 008d 75387838 		.ascii	"u8x8_SetupDefaults\000"
 510      5F536574 
 510      75704465 
 510      6661756C 
 510      747300
 511 00a0 00       		.ascii	"\000"
 512 00a1 02       		.ascii	"\002"
 513 00a2 00       		.ascii	"\000"
 514 00a3 00000000 		.ascii	"\000\000\000\000\000\000\000\000"
 514      00000000 
 515 00ab 54010000 		.ascii	"T\001\000\000"
 516              		.text
 517              		.section	.gnu.lto_.opts,"",%progbits
 518 0000 272D666D 		.ascii	"'-fmath-errno' '-fsigned-zeros' '-ftrapping-math' '"
 518      6174682D 
 518      6572726E 
 518      6F272027 
 518      2D667369 
 519 0033 2D666E6F 		.ascii	"-fno-trapv' '-fno-openmp' '-fno-openacc' '-mcpu=cor"
 519      2D747261 
 519      70762720 
 519      272D666E 
 519      6F2D6F70 
 520 0066 7465782D 		.ascii	"tex-m0' '-mthumb' '-g' '-Os' '-ffunction-sections' "
 520      6D302720 
 520      272D6D74 
ARM GAS  C:\Users\gjl\AppData\Local\Temp\cc7XGfCR.s 			page 39


 520      68756D62 
 520      2720272D 
 521 0099 272D6666 		.ascii	"'-ffat-lto-objects' '-flto'\000"
 521      61742D6C 
 521      746F2D6F 
 521      626A6563 
 521      74732720 
 522              		.text
 523              		.cfi_sections	.debug_frame
 524              		.section	.text.bitmap_place_tile,"ax",%progbits
 525              		.align	1
 526              		.global	bitmap_place_tile
 527              		.code	16
 528              		.thumb_func
 529              		.type	bitmap_place_tile, %function
 530              	bitmap_place_tile:
 531              	.LFB1:
 532              		.file 1 "..\\..\\u8g2\\csrc\\u8x8_d_stdio.c"
   1:..\..\u8g2\csrc/u8x8_d_stdio.c **** /*
   2:..\..\u8g2\csrc/u8x8_d_stdio.c **** 
   3:..\..\u8g2\csrc/u8x8_d_stdio.c ****   u8x8_d_stdio.c
   4:..\..\u8g2\csrc/u8x8_d_stdio.c **** 
   5:..\..\u8g2\csrc/u8x8_d_stdio.c ****   Universal 8bit Graphics Library (https://github.com/olikraus/u8g2/)
   6:..\..\u8g2\csrc/u8x8_d_stdio.c **** 
   7:..\..\u8g2\csrc/u8x8_d_stdio.c ****   Copyright (c) 2016, olikraus@gmail.com
   8:..\..\u8g2\csrc/u8x8_d_stdio.c ****   All rights reserved.
   9:..\..\u8g2\csrc/u8x8_d_stdio.c **** 
  10:..\..\u8g2\csrc/u8x8_d_stdio.c ****   Redistribution and use in source and binary forms, with or without modification, 
  11:..\..\u8g2\csrc/u8x8_d_stdio.c ****   are permitted provided that the following conditions are met:
  12:..\..\u8g2\csrc/u8x8_d_stdio.c **** 
  13:..\..\u8g2\csrc/u8x8_d_stdio.c ****   * Redistributions of source code must retain the above copyright notice, this list 
  14:..\..\u8g2\csrc/u8x8_d_stdio.c ****     of conditions and the following disclaimer.
  15:..\..\u8g2\csrc/u8x8_d_stdio.c ****     
  16:..\..\u8g2\csrc/u8x8_d_stdio.c ****   * Redistributions in binary form must reproduce the above copyright notice, this 
  17:..\..\u8g2\csrc/u8x8_d_stdio.c ****     list of conditions and the following disclaimer in the documentation and/or other 
  18:..\..\u8g2\csrc/u8x8_d_stdio.c ****     materials provided with the distribution.
  19:..\..\u8g2\csrc/u8x8_d_stdio.c **** 
  20:..\..\u8g2\csrc/u8x8_d_stdio.c ****   THIS SOFTWARE IS PROVIDED BY THE COPYRIGHT HOLDERS AND 
  21:..\..\u8g2\csrc/u8x8_d_stdio.c ****   CONTRIBUTORS "AS IS" AND ANY EXPRESS OR IMPLIED WARRANTIES, 
  22:..\..\u8g2\csrc/u8x8_d_stdio.c ****   INCLUDING, BUT NOT LIMITED TO, THE IMPLIED WARRANTIES OF 
  23:..\..\u8g2\csrc/u8x8_d_stdio.c ****   MERCHANTABILITY AND FITNESS FOR A PARTICULAR PURPOSE ARE 
  24:..\..\u8g2\csrc/u8x8_d_stdio.c ****   DISCLAIMED. IN NO EVENT SHALL THE COPYRIGHT HOLDER OR 
  25:..\..\u8g2\csrc/u8x8_d_stdio.c ****   CONTRIBUTORS BE LIABLE FOR ANY DIRECT, INDIRECT, INCIDENTAL, 
  26:..\..\u8g2\csrc/u8x8_d_stdio.c ****   SPECIAL, EXEMPLARY, OR CONSEQUENTIAL DAMAGES (INCLUDING, BUT 
  27:..\..\u8g2\csrc/u8x8_d_stdio.c ****   NOT LIMITED TO, PROCUREMENT OF SUBSTITUTE GOODS OR SERVICES; 
  28:..\..\u8g2\csrc/u8x8_d_stdio.c ****   LOSS OF USE, DATA, OR PROFITS; OR BUSINESS INTERRUPTION) HOWEVER 
  29:..\..\u8g2\csrc/u8x8_d_stdio.c ****   CAUSED AND ON ANY THEORY OF LIABILITY, WHETHER IN CONTRACT, 
  30:..\..\u8g2\csrc/u8x8_d_stdio.c ****   STRICT LIABILITY, OR TORT (INCLUDING NEGLIGENCE OR OTHERWISE) 
  31:..\..\u8g2\csrc/u8x8_d_stdio.c ****   ARISING IN ANY WAY OUT OF THE USE OF THIS SOFTWARE, EVEN IF 
  32:..\..\u8g2\csrc/u8x8_d_stdio.c ****   ADVISED OF THE POSSIBILITY OF SUCH DAMAGE.  
  33:..\..\u8g2\csrc/u8x8_d_stdio.c **** 
  34:..\..\u8g2\csrc/u8x8_d_stdio.c **** */
  35:..\..\u8g2\csrc/u8x8_d_stdio.c **** 
  36:..\..\u8g2\csrc/u8x8_d_stdio.c **** #include "u8x8.h"
  37:..\..\u8g2\csrc/u8x8_d_stdio.c **** 
  38:..\..\u8g2\csrc/u8x8_d_stdio.c **** #include <stdio.h>
  39:..\..\u8g2\csrc/u8x8_d_stdio.c **** 
ARM GAS  C:\Users\gjl\AppData\Local\Temp\cc7XGfCR.s 			page 40


  40:..\..\u8g2\csrc/u8x8_d_stdio.c **** #define W 8
  41:..\..\u8g2\csrc/u8x8_d_stdio.c **** #define H 2
  42:..\..\u8g2\csrc/u8x8_d_stdio.c **** 
  43:..\..\u8g2\csrc/u8x8_d_stdio.c **** uint8_t bitmap[W*H*8];
  44:..\..\u8g2\csrc/u8x8_d_stdio.c **** 
  45:..\..\u8g2\csrc/u8x8_d_stdio.c **** void bitmap_place_tile(uint8_t x, uint8_t y, uint8_t *tile)
  46:..\..\u8g2\csrc/u8x8_d_stdio.c **** {
 533              		.loc 1 46 0
 534              		.cfi_startproc
 535              		@ args = 0, pretend = 0, frame = 0
 536              		@ frame_needed = 0, uses_anonymous_args = 0
 537              	.LVL0:
  47:..\..\u8g2\csrc/u8x8_d_stdio.c ****   uint8_t i;
  48:..\..\u8g2\csrc/u8x8_d_stdio.c ****   for(i = 0; i < 8; i++ )
  49:..\..\u8g2\csrc/u8x8_d_stdio.c ****     bitmap[x*8+y*W*8+i] = tile[i];
 538              		.loc 1 49 0
 539 0000 0023     		movs	r3, #0
 540 0002 C900     		lsls	r1, r1, #3
 541              	.LVL1:
  46:..\..\u8g2\csrc/u8x8_d_stdio.c ****   uint8_t i;
 542              		.loc 1 46 0
 543 0004 30B5     		push	{r4, r5, lr}
 544              		.cfi_def_cfa_offset 12
 545              		.cfi_offset 4, -12
 546              		.cfi_offset 5, -8
 547              		.cfi_offset 14, -4
 548              		.loc 1 49 0
 549 0006 0818     		adds	r0, r1, r0
 550              	.LVL2:
 551 0008 044D     		ldr	r5, .L5
 552 000a C000     		lsls	r0, r0, #3
 553              	.LVL3:
 554              	.L2:
 555              		.loc 1 49 0 is_stmt 0 discriminator 3
 556 000c D45C     		ldrb	r4, [r2, r3]
 557 000e 4119     		adds	r1, r0, r5
 558 0010 CC54     		strb	r4, [r1, r3]
 559              	.LVL4:
 560 0012 0133     		adds	r3, r3, #1
 561              	.LVL5:
  48:..\..\u8g2\csrc/u8x8_d_stdio.c ****     bitmap[x*8+y*W*8+i] = tile[i];
 562              		.loc 1 48 0 is_stmt 1 discriminator 3
 563 0014 082B     		cmp	r3, #8
 564 0016 F9D1     		bne	.L2
  50:..\..\u8g2\csrc/u8x8_d_stdio.c **** }
 565              		.loc 1 50 0
 566              		@ sp needed
 567 0018 30BD     		pop	{r4, r5, pc}
 568              	.L6:
 569 001a C046     		.align	2
 570              	.L5:
 571 001c 00000000 		.word	bitmap
 572              		.cfi_endproc
 573              	.LFE1:
 574              		.size	bitmap_place_tile, .-bitmap_place_tile
 575              		.section	.text.bitmap_show,"ax",%progbits
 576              		.align	1
ARM GAS  C:\Users\gjl\AppData\Local\Temp\cc7XGfCR.s 			page 41


 577              		.global	bitmap_show
 578              		.code	16
 579              		.thumb_func
 580              		.type	bitmap_show, %function
 581              	bitmap_show:
 582              	.LFB2:
  51:..\..\u8g2\csrc/u8x8_d_stdio.c **** 
  52:..\..\u8g2\csrc/u8x8_d_stdio.c **** void bitmap_show(void)
  53:..\..\u8g2\csrc/u8x8_d_stdio.c **** {
 583              		.loc 1 53 0
 584              		.cfi_startproc
 585              		@ args = 0, pretend = 0, frame = 8
 586              		@ frame_needed = 0, uses_anonymous_args = 0
 587              	.LVL6:
 588 0000 F7B5     		push	{r0, r1, r2, r4, r5, r6, r7, lr}
 589              		.cfi_def_cfa_offset 32
 590              		.cfi_offset 0, -32
 591              		.cfi_offset 1, -28
 592              		.cfi_offset 2, -24
 593              		.cfi_offset 4, -20
 594              		.cfi_offset 5, -16
 595              		.cfi_offset 6, -12
 596              		.cfi_offset 7, -8
 597              		.cfi_offset 14, -4
  54:..\..\u8g2\csrc/u8x8_d_stdio.c ****   int x, y;
  55:..\..\u8g2\csrc/u8x8_d_stdio.c ****   for( y = 0; y < H*8; y++ )
 598              		.loc 1 55 0
 599 0002 0024     		movs	r4, #0
 600 0004 0727     		movs	r7, #7
 601              	.LVL7:
 602              	.L8:
 603 0006 2300     		movs	r3, r4
 604 0008 0122     		movs	r2, #1
 605 000a 3B40     		ands	r3, r7
 606 000c 9A40     		lsls	r2, r2, r3
  56:..\..\u8g2\csrc/u8x8_d_stdio.c ****   {
  57:..\..\u8g2\csrc/u8x8_d_stdio.c ****     for( x = 0; x < W*8; x++ )
  58:..\..\u8g2\csrc/u8x8_d_stdio.c ****     {
  59:..\..\u8g2\csrc/u8x8_d_stdio.c ****       if ( (bitmap[x+(y/8)*W*8] & (1<<((y&7)))) != 0 )
 607              		.loc 1 59 0
 608 000e 0025     		movs	r5, #0
 609 0010 E610     		asrs	r6, r4, #3
 610 0012 B601     		lsls	r6, r6, #6
 611 0014 0192     		str	r2, [sp, #4]
 612              	.LVL8:
 613              	.L11:
 614 0016 0A4B     		ldr	r3, .L15
 615 0018 019A     		ldr	r2, [sp, #4]
 616 001a F318     		adds	r3, r6, r3
 617 001c 5B5D     		ldrb	r3, [r3, r5]
  60:..\..\u8g2\csrc/u8x8_d_stdio.c ****       {
  61:..\..\u8g2\csrc/u8x8_d_stdio.c **** 	printf("*");
 618              		.loc 1 61 0
 619 001e 2A20     		movs	r0, #42
  59:..\..\u8g2\csrc/u8x8_d_stdio.c ****       {
 620              		.loc 1 59 0
 621 0020 1A42     		tst	r2, r3
ARM GAS  C:\Users\gjl\AppData\Local\Temp\cc7XGfCR.s 			page 42


 622 0022 00D1     		bne	.L14
  62:..\..\u8g2\csrc/u8x8_d_stdio.c ****       }
  63:..\..\u8g2\csrc/u8x8_d_stdio.c ****       else
  64:..\..\u8g2\csrc/u8x8_d_stdio.c ****       {
  65:..\..\u8g2\csrc/u8x8_d_stdio.c **** 	printf(".");
 623              		.loc 1 65 0
 624 0024 2E20     		movs	r0, #46
 625              	.L14:
  57:..\..\u8g2\csrc/u8x8_d_stdio.c ****     {
 626              		.loc 1 57 0
 627 0026 0135     		adds	r5, r5, #1
 628              	.LVL9:
 629              		.loc 1 65 0
 630 0028 FFF7FEFF 		bl	putchar
 631              	.LVL10:
  57:..\..\u8g2\csrc/u8x8_d_stdio.c ****     {
 632              		.loc 1 57 0
 633 002c 402D     		cmp	r5, #64
 634 002e F2D1     		bne	.L11
  66:..\..\u8g2\csrc/u8x8_d_stdio.c ****       }
  67:..\..\u8g2\csrc/u8x8_d_stdio.c ****     }
  68:..\..\u8g2\csrc/u8x8_d_stdio.c ****     printf("\n");
 635              		.loc 1 68 0 discriminator 2
 636 0030 0A20     		movs	r0, #10
  55:..\..\u8g2\csrc/u8x8_d_stdio.c ****   {
 637              		.loc 1 55 0 discriminator 2
 638 0032 0134     		adds	r4, r4, #1
 639              	.LVL11:
 640              		.loc 1 68 0 discriminator 2
 641 0034 FFF7FEFF 		bl	putchar
 642              	.LVL12:
  55:..\..\u8g2\csrc/u8x8_d_stdio.c ****   {
 643              		.loc 1 55 0 discriminator 2
 644 0038 102C     		cmp	r4, #16
 645 003a E4D1     		bne	.L8
  69:..\..\u8g2\csrc/u8x8_d_stdio.c ****   }
  70:..\..\u8g2\csrc/u8x8_d_stdio.c **** }
 646              		.loc 1 70 0
 647              		@ sp needed
 648              	.LVL13:
 649              	.LVL14:
 650 003c F7BD     		pop	{r0, r1, r2, r4, r5, r6, r7, pc}
 651              	.L16:
 652 003e C046     		.align	2
 653              	.L15:
 654 0040 00000000 		.word	bitmap
 655              		.cfi_endproc
 656              	.LFE2:
 657              		.size	bitmap_show, .-bitmap_show
 658              		.section	.text.u8x8_d_stdio,"ax",%progbits
 659              		.align	1
 660              		.global	u8x8_d_stdio
 661              		.code	16
 662              		.thumb_func
 663              		.type	u8x8_d_stdio, %function
 664              	u8x8_d_stdio:
 665              	.LFB3:
ARM GAS  C:\Users\gjl\AppData\Local\Temp\cc7XGfCR.s 			page 43


  71:..\..\u8g2\csrc/u8x8_d_stdio.c **** 
  72:..\..\u8g2\csrc/u8x8_d_stdio.c **** 
  73:..\..\u8g2\csrc/u8x8_d_stdio.c **** uint8_t u8x8_d_stdio(U8X8_UNUSED u8x8_t *u8x8, uint8_t msg, uint8_t arg_int, void *arg_ptr)
  74:..\..\u8g2\csrc/u8x8_d_stdio.c **** {
 666              		.loc 1 74 0
 667              		.cfi_startproc
 668              		@ args = 0, pretend = 0, frame = 0
 669              		@ frame_needed = 0, uses_anonymous_args = 0
 670              	.LVL15:
 671 0000 10B5     		push	{r4, lr}
 672              		.cfi_def_cfa_offset 8
 673              		.cfi_offset 4, -8
 674              		.cfi_offset 14, -4
  75:..\..\u8g2\csrc/u8x8_d_stdio.c ****   switch(msg)
 675              		.loc 1 75 0
 676 0002 0B29     		cmp	r1, #11
 677 0004 07D0     		beq	.L19
 678 0006 0F29     		cmp	r1, #15
 679 0008 09D1     		bne	.L18
 680              	.LVL16:
 681              	.LBB4:
 682              	.LBB5:
  76:..\..\u8g2\csrc/u8x8_d_stdio.c ****   {
  77:..\..\u8g2\csrc/u8x8_d_stdio.c ****     case U8X8_MSG_DISPLAY_INIT:
  78:..\..\u8g2\csrc/u8x8_d_stdio.c ****       break;
  79:..\..\u8g2\csrc/u8x8_d_stdio.c ****     case U8X8_MSG_DISPLAY_SET_POWER_SAVE:
  80:..\..\u8g2\csrc/u8x8_d_stdio.c ****       if ( arg_int == 0 )
  81:..\..\u8g2\csrc/u8x8_d_stdio.c **** 	bitmap_show();
  82:..\..\u8g2\csrc/u8x8_d_stdio.c ****       break;
  83:..\..\u8g2\csrc/u8x8_d_stdio.c ****     case U8X8_MSG_DISPLAY_SET_CONTRAST:
  84:..\..\u8g2\csrc/u8x8_d_stdio.c ****       break;
  85:..\..\u8g2\csrc/u8x8_d_stdio.c ****     case U8X8_MSG_DISPLAY_DRAW_TILE:      
  86:..\..\u8g2\csrc/u8x8_d_stdio.c ****       bitmap_place_tile(((u8x8_tile_t *)arg_ptr)->x_pos, ((u8x8_tile_t *)arg_ptr)->y_pos, ((u8x8_ti
 683              		.loc 1 86 0
 684 000a 9979     		ldrb	r1, [r3, #6]
 685              	.LVL17:
 686 000c 5879     		ldrb	r0, [r3, #5]
 687              	.LVL18:
 688 000e 1A68     		ldr	r2, [r3]
 689              	.LVL19:
 690 0010 FFF7FEFF 		bl	bitmap_place_tile
 691              	.LVL20:
 692 0014 03E0     		b	.L18
 693              	.LVL21:
 694              	.L19:
 695              	.LBE5:
 696              	.LBE4:
  80:..\..\u8g2\csrc/u8x8_d_stdio.c **** 	bitmap_show();
 697              		.loc 1 80 0
 698 0016 002A     		cmp	r2, #0
 699 0018 01D1     		bne	.L18
  81:..\..\u8g2\csrc/u8x8_d_stdio.c ****       break;
 700              		.loc 1 81 0
 701 001a FFF7FEFF 		bl	bitmap_show
 702              	.LVL22:
 703              	.L18:
  87:..\..\u8g2\csrc/u8x8_d_stdio.c ****       break;
ARM GAS  C:\Users\gjl\AppData\Local\Temp\cc7XGfCR.s 			page 44


  88:..\..\u8g2\csrc/u8x8_d_stdio.c ****     default:
  89:..\..\u8g2\csrc/u8x8_d_stdio.c ****       break;
  90:..\..\u8g2\csrc/u8x8_d_stdio.c ****   }
  91:..\..\u8g2\csrc/u8x8_d_stdio.c ****   return 1;
  92:..\..\u8g2\csrc/u8x8_d_stdio.c **** }
 704              		.loc 1 92 0
 705 001e 0120     		movs	r0, #1
 706              		@ sp needed
 707 0020 10BD     		pop	{r4, pc}
 708              		.cfi_endproc
 709              	.LFE3:
 710              		.size	u8x8_d_stdio, .-u8x8_d_stdio
 711              		.section	.text.u8x8_SetupStdio,"ax",%progbits
 712              		.align	1
 713              		.global	u8x8_SetupStdio
 714              		.code	16
 715              		.thumb_func
 716              		.type	u8x8_SetupStdio, %function
 717              	u8x8_SetupStdio:
 718              	.LFB4:
  93:..\..\u8g2\csrc/u8x8_d_stdio.c **** 
  94:..\..\u8g2\csrc/u8x8_d_stdio.c **** 
  95:..\..\u8g2\csrc/u8x8_d_stdio.c **** 
  96:..\..\u8g2\csrc/u8x8_d_stdio.c **** void u8x8_SetupStdio(u8x8_t *u8x8)
  97:..\..\u8g2\csrc/u8x8_d_stdio.c **** {
 719              		.loc 1 97 0
 720              		.cfi_startproc
 721              		@ args = 0, pretend = 0, frame = 0
 722              		@ frame_needed = 0, uses_anonymous_args = 0
 723              	.LVL23:
 724 0000 10B5     		push	{r4, lr}
 725              		.cfi_def_cfa_offset 8
 726              		.cfi_offset 4, -8
 727              		.cfi_offset 14, -4
 728              		.loc 1 97 0
 729 0002 0400     		movs	r4, r0
  98:..\..\u8g2\csrc/u8x8_d_stdio.c ****   u8x8_SetupDefaults(u8x8);
 730              		.loc 1 98 0
 731 0004 FFF7FEFF 		bl	u8x8_SetupDefaults
 732              	.LVL24:
  99:..\..\u8g2\csrc/u8x8_d_stdio.c ****   u8x8->display_cb = u8x8_d_stdio;
 733              		.loc 1 99 0
 734 0008 014B     		ldr	r3, .L22
 100:..\..\u8g2\csrc/u8x8_d_stdio.c **** }
 735              		.loc 1 100 0
 736              		@ sp needed
  99:..\..\u8g2\csrc/u8x8_d_stdio.c ****   u8x8->display_cb = u8x8_d_stdio;
 737              		.loc 1 99 0
 738 000a A360     		str	r3, [r4, #8]
 739              	.LVL25:
 740              		.loc 1 100 0
 741 000c 10BD     		pop	{r4, pc}
 742              	.L23:
 743 000e C046     		.align	2
 744              	.L22:
 745 0010 00000000 		.word	u8x8_d_stdio
 746              		.cfi_endproc
ARM GAS  C:\Users\gjl\AppData\Local\Temp\cc7XGfCR.s 			page 45


 747              	.LFE4:
 748              		.size	u8x8_SetupStdio, .-u8x8_SetupStdio
 749              		.comm	bitmap,128,1
 750              		.text
 751              	.Letext0:
 752              		.file 2 "c:\\program files (x86)\\cypress\\psoc creator\\4.1\\psoc creator\\import\\gnu\\arm\\5.4.
 753              		.file 3 "c:\\program files (x86)\\cypress\\psoc creator\\4.1\\psoc creator\\import\\gnu\\arm\\5.4.
 754              		.file 4 "..\\..\\u8g2\\csrc\\u8x8.h"
 755              		.file 5 "<built-in>"