ARM GAS  C:\Users\gjl\AppData\Local\Temp\ccn4tNxd.s 			page 1


   1              		.syntax unified
   2              		.cpu cortex-m0
   3              		.fpu softvfp
   4              		.eabi_attribute 20, 1
   5              		.eabi_attribute 21, 1
   6              		.eabi_attribute 23, 3
   7              		.eabi_attribute 24, 1
   8              		.eabi_attribute 25, 1
   9              		.eabi_attribute 26, 1
  10              		.eabi_attribute 30, 4
  11              		.eabi_attribute 34, 0
  12              		.eabi_attribute 18, 4
  13              		.thumb
  14              		.syntax unified
  15              		.file	"u8x8_setup.c"
  16              		.text
  17              	.Ltext0:
  18              		.section	.gnu.lto_.profile.ba99b19,"",%progbits
  19 0000 789C6361 		.ascii	"x\234ca`d`a`\000\222Z\242\000\000\323\000J"
  19      60646061 
  19      6000925A 
  19      A20000D3 
  19      004A
  20              		.text
  21              		.section	.gnu.lto_.icf.ba99b19,"",%progbits
  22 0000 789C6361 		.ascii	"x\234ca`d\000\001\021\006\004`f\350\331\267\343 \037"
  22      60640001 
  22      11060460 
  22      66E8D9B7 
  22      E3201F
  23 0013 E3ADDFF3 		.ascii	"\343\255\337\363.p0M\274\177t\015\037\003\000a\200\011"
  23      2E70304D 
  23      BC7F740D 
  23      1F030061 
  23      8009
  24 0025 2B       		.ascii	"+"
  25              		.text
  26              		.section	.gnu.lto_.jmpfuncs.ba99b19,"",%progbits
  27 0000 789C6361 		.ascii	"x\234ca`d\000\001]\006\004`f`a\004\0020\033\304\250"
  27      60640001 
  27      5D060460 
  27      66606104 
  27      02301BC4 
  28 0015 67620551 		.ascii	"gb\005Q\214\362\365 \300\304T\011\222\000Q %\000U\376"
  28      8CF2F520 
  28      C0C45409 
  28      92005120 
  28      250055FE 
  29 0029 0462     		.ascii	"\004b"
  30              		.text
  31              		.section	.gnu.lto_.inline.ba99b19,"",%progbits
  32 0000 789C6361 		.ascii	"x\234ca`d\000\001\017\006\004`\006\"&F\006& \223m\201"
  32      60640001 
  32      0F060460 
  32      06222646 
  32      06262093 
  33 0016 3C88022A 		.ascii	"<\210\002*\342\345\001\212pM\360c\020\330\220\013\026"
ARM GAS  C:\Users\gjl\AppData\Local\Temp\ccn4tNxd.s 			page 2


  33      E2E5018A 
  33      704DF063 
  33      10D8900B 
  33      16
  34 0027 6262E096 		.ascii	"bb\340\226\001\012\261,\220g\340:`\007\021\342\006\252"
  34      010AB12C 
  34      9067E03A 
  34      600711E2 
  34      06AA
  35 0039 9CE007A5 		.ascii	"\234\340\007\245\030\000\345!\007%"
  35      1800E521 
  35      0725
  36              		.text
  37              		.section	.gnu.lto_.pureconst.ba99b19,"",%progbits
  38 0000 789C6361 		.ascii	"x\234ca`d`g```f``\224b\222\002\000\001*\000G"
  38      60646067 
  38      60606066 
  38      60609462 
  38      92020001 
  39              		.text
  40              		.section	.gnu.lto_u8x8_dummy_cb.ba99b19,"",%progbits
  41 0000 789C6361 		.ascii	"x\234ca`d\000\201\237@\312\006HK\0031#3\003#\323\204"
  41      60640081 
  41      9F40CA06 
  41      484B0331 
  41      23330323 
  42 0016 730C0C8D 		.ascii	"s\014\014\215\034L\214\214 F\003\007#C=\023c=\343W\246"
  42      1C4C8C8C 
  42      20460307 
  42      23433D13 
  42      633DE357 
  43 002b BF4C8CA7 		.ascii	"\277L\214\247\277\237\350\341\322\\\336\320\320\324"
  43      BF9FE8E1 
  43      D25CDED0 
  43      D0D4
  44 0039 F0E0E965 		.ascii	"\360\340\351e\236\351+\0160\266230\374gb`4\226a4\220"
  44      9EE92B0E 
  44      30B63233 
  44      30FC6762 
  44      60349661 
  45 004f 0119B19C 		.ascii	"\001\031\261\234Q\023\250\362\304\336\263\325\314\262"
  45      5113A8F2 
  45      C4DEB3D5 
  45      CCB2
  46 005d 8C0C40E6 		.ascii	"\214\014@\346\251\307\317v\260\261\000\225\254\000\032"
  46      A9C7CF76 
  46      B0B10095 
  46      AC001A
  47 006c CF0012B9 		.ascii	"\317\000\022\271\330\262a\016\363\027\246VfFF\026 \367"
  47      D8B2610E 
  47      F317A656 
  47      66464616 
  47      20F7
  48 007e E3D9598F 		.ascii	"\343\331Y\217\371@\\&F\005 w\301\225\305w\330\230U\300"
  48      F9405C26 
  48      46052077 
  48      C195C577 
ARM GAS  C:\Users\gjl\AppData\Local\Temp\ccn4tNxd.s 			page 3


  48      D89855C0 
  49 0092 7A274DDB 		.ascii	"z'M\3333\223W})\310\302\206\355\251\015\234\255\314"
  49      3393577D 
  49      29C8C286 
  49      EDA90D9C 
  49      ADCC
  50 00a4 CC8C6B18 		.ascii	"\314\214k\030\231A\026\256f\224a\\\005\304+\031Y\200"
  50      994116AE 
  50      6694615C 
  50      05C42B19 
  50      5980
  51 00b6 A20C8C6B 		.ascii	"\242\014\214k\031\325\261Zvf\303\316\353,\314\232`\343"
  51      19D5B15A 
  51      7666C3CE 
  51      EB2CCC9A 
  51      60E3
  52 00c8 964D9BDF 		.ascii	"\226M\233\337\317\0125n\3661\356\006\003\240\353\031"
  52      CF0A356E 
  52      F631EE06 
  52      03A0EB19 
  53 00d8 D743CC03 		.ascii	"\327C\314\003{\200q\035\3104\240/6\3400m\306\305\007"
  53      7B80711D 
  53      C834A02F 
  53      36E0306D 
  53      C6C507
  54 00eb BD5CCCBA 		.ascii	"\275\\\314\272`\323\216\267}\356`\206\232\366\027f\332"
  54      60D38EB7 
  54      7DEE6086 
  54      9AF61766 
  54      DA
  55 00fc 2664D336 		.ascii	"&d\3236BM\333\214\303\264\233\317\317^\346b6\005\233"
  55      424DDB8C 
  55      C3B49BCF 
  55      CF5EE662 
  55      36059B
  56 010f B6F4E2C2 		.ascii	"\266\364\342\302\035,P\323>\037\347i\230\000\014Z\026"
  56      1D2C50D3 
  56      3E1FE769 
  56      98000C5A 
  56      16
  57 0120 C6ADA89E 		.ascii	"\306\255\250\236\335\0022\220\205\201q\033\243:H\317"
  57      DD023290 
  57      8581711B 
  57      A33A48CF 
  58 0130 A38DFFA6 		.ascii	"\243\215\377\246\362\262\2654\000\201\002(\026\200V"
  58      F2B2B534 
  58      00810228 
  58      168056
  59 013f 6D676403 		.ascii	"mgd\003\305\353\372\240\003\015\377\37777\034\330\310"
  59      C5EBFAA0 
  59      030DFFFF 
  59      37371CD8 
  59      C8
  60 0150 FA960928 		.ascii	"\372\226\011(\361\001\210A\361\371\021\310\001\322\314"
  60      F1018841 
  60      F1F911C8 
  60      01D2CC
ARM GAS  C:\Users\gjl\AppData\Local\Temp\ccn4tNxd.s 			page 4


  61 015f AF189B0E 		.ascii	"\257\030\233\016l\315\004\251\006\0323\255\365\320y"
  61      6CCD04A9 
  61      061A33AD 
  61      F5D079
  62 016e 76500400 		.ascii	"vP\004\000\223\004\343\016FP4\00250\202\024\002\265"
  62      9304E30E 
  62      46503402 
  62      35308214 
  62      02B5
  63 0180 49E9E9C5 		.ascii	"I\351\351\305\224Z\244\033\305$\027\027%\003Y\025\026"
  63      945AA41B 
  63      C5241717 
  63      25035915 
  63      16
  64 0191 F1C5A925 		.ascii	"\361\305\251%\245\005z\311\014l\245y\245\305\251), "
  64      A5057AC9 
  64      0C6CA579 
  64      A5C5A929 
  64      2C20
  65 01a3 41E6DCE2 		.ascii	"A\346\334\342t\366\304\242\364\370\314\274\0220]PR\004"
  65      74F6C4A2 
  65      F4F8CCBC 
  65      12305D50 
  65      5204
  66 01b5 00E410B9 		.ascii	"\000\344\020\271\361"
  66      F1
  67              		.text
  68              		.section	.gnu.lto_u8x8_SetupDefaults.ba99b19,"",%progbits
  69 0000 789C9594 		.ascii	"x\234\225\224\315k\023A\030\207\3477\263\331M\241\361"
  69      CD6B1341 
  69      1887E737 
  69      B3D94DA1 
  69      F1
  70 0011 0FD00AF5 		.ascii	"\017\320\012\365Tz0\001\275\004\377\000\361\344\301"
  70      547A3001 
  70      BD04FF00 
  70      F1E4C1
  71 0020 9BB42012 		.ascii	"\233\264 \022\212W\265\026\274e\232ti\217\202\350\301"
  71      8A57B516 
  71      BC659A74 
  71      698F82E8 
  71      C1
  72 0031 0F2A4849 		.ascii	"\017*HI\375j7~\305\250M\326X[)\330\"\026=\324\203_\344"
  72      FD6A377E 
  72      C5A84DD6 
  72      585B29D8 
  72      22163DD4 
  73 0048 20222944 		.ascii	" \")D\004\241Y\337w\326\204\226\\\334\201egv\346}\236"
  73      04A159DF 
  73      77D68496 
  73      5CDC8165 
  73      6776E67D 
  74 005d F7DDD959 		.ascii	"\367\335\331YK@p;i\011\261\217\356{\350\202\022\220"
  74      4B40703B 
  74      6909B18F 
  74      EE7BE882 
  74      1290
ARM GAS  C:\Users\gjl\AppData\Local\Temp\ccn4tNxd.s 			page 5


  75 006f 17568518 		.ascii	"\027V\205\030\217K\200;:\016\221\225\310\342\227\334"
  75      8F4B803B 
  75      3A0E9195 
  75      C8E297DC 
  76 007f 92A84DD6 		.ascii	"\222\250M\326\313r\260\240\251}r\257*=\353\303UB\004"
  76      CB72B0A0 
  76      A97D72AF 
  76      2A3DEBC3 
  76      554204
  77 0092 D290040A 		.ascii	"\322\220\004\012\030\244Uo'\274k\252)]\005X4\334|s\345"
  77      18A4556F 
  77      27BC6BAA 
  77      295D0558 
  77      34DC7C73 
  78 00a7 EB2E1E4A 		.ascii	"\353.\036J\364\323\360\306\372\315\217\266\332\013A"
  78      F4D3F0C6 
  78      FACD8FB6 
  78      DA0B41
  79 00b6 FDCB2BEB 		.ascii	"\375\313+\353?\023\0033Z\347\264\2768\242{\\\245p\033"
  79      3F130333 
  79      5AE7B4BE 
  79      38A27B5C 
  79      A5701B
  80 00c9 8A78B885 		.ascii	"\212x\270\205>\314\242O\320#\201;\030\340\345_\212\255"
  80      3ECCA24F 
  80      D023813B 
  80      18E0E55F 
  80      8AAD
  81 00db 4B097B82 		.ascii	"K\011{\202\365\375\241\024was\031\363\307|\035\004y"
  81      F5FDA114 
  81      77617319 
  81      F3C77C1D 
  81      0479
  82 00ed ED6FC43E 		.ascii	"\355o\304>\367&(w\216\020\015Z\302ElJ\311wUG\256\351"
  82      F7262877 
  82      8E100D5A 
  82      C2456C4A 
  82      C9775547 
  83 0103 95D21CC4 		.ascii	"\225\322\034\304r\267\266\346p^\312\344\362{ye\252w"
  83      72B7B6E6 
  83      705ECAE4 
  83      F27B7965 
  83      AA77
  84 0115 1AD7C719 		.ascii	"\032\327\307\031\177\220\274V\2362\276G)\360\354\314"
  84      7F90BC56 
  84      9E32BE47 
  84      29F0ECCC 
  85 0125 B7DC9C93 		.ascii	"\267\334\234\223\332\357\252\030\3460\215\226\251\030"
  85      DAEFAA18 
  85      E6308D96 
  85      A918
  86 0133 F3486D07 		.ascii	"\363Hm\007\305 \340Q\000y\376L\266\352\261\177\242\377"
  86      C520E051 
  86      0079FE4C 
  86      B6EAB17F 
  86      A2FF
  87 0145 24DB281A 		.ascii	"$\333(\0322\327\203\373\206\\.\377\330p\262[z\212\002"
ARM GAS  C:\Users\gjl\AppData\Local\Temp\ccn4tNxd.s 			page 6


  87      32D783FB 
  87      865C2EFF 
  87      D870B25B 
  87      7A8A02
  88 0158 CFB8CA09 		.ascii	"\317\270\312\011x\022\017\220\015\025K\205\310\212\207"
  88      78120F90 
  88      0D154B85 
  88      C88A87
  89 0167 46615EDD 		.ascii	"Fa^\335\243.\305\361\216\342q[\261Z\212\254(\031\205"
  89      A32EC5F1 
  89      8EE2715B 
  89      B15A8AAC 
  89      281985
  90 017a 62C5932E 		.ascii	"b\305\223.\305PGQn+\336\177p\242*\236\032\205\305\212"
  90      C5504751 
  90      6E2BDE7F 
  90      70A22A9E 
  90      1A85C58A 
  91 018e 675D8A6C 		.ascii	"g]\212lG\361<T4\033\013G\242\031\342X0\206\030\033*"
  91      47F13C54 
  91      341B0B47 
  91      A219E258 
  91      3086181B 
  92 01a3 3B37990E 		.ascii	";7\231\016\004\252\341&7\275\312\241\250`\337\200m\006"
  92      04AAE126 
  92      37BDCAA1 
  92      A860DF80 
  92      6D06
  93 01b5 BF40AA43 		.ascii	"\277@\252CjT\222QI5Cr\230\364r\033\311\253\246\242\222"
  93      6A549251 
  93      49354372 
  93      98F4721B 
  93      C9ABA6A2 
  94 01ca 160D29CE 		.ascii	"\026\015)\316\244W\246\330w\371\3055\025\026\033\000"
  94      A457A6D8 
  94      77F9C535 
  94      15161B00 
  95 01da 4BED1CAB 		.ascii	"K\355\034\253G\243\222\227\015\271\207\311\257)G&}G"
  95      47A39297 
  95      0DB987C9 
  95      AF294726 
  95      7D47
  96 01ec CE2F1E66 		.ascii	"\316/\036f\220\371g4h\247\350l\322\027\271;\231\034"
  96      90F96734 
  96      68A7E86C 
  96      D217B93B 
  96      991C
  97 01fe 1E4B9F3A 		.ascii	"\036K\237:0\234\031=\233\241\336\371\364\211\321\221"
  97      309C193D 
  97      9BA1DEF9 
  97      F489D191 
  98 020e 7363A793 		.ascii	"sc\247\223\031a\361\350/g\337\205\213"
  98      1961F1E8 
  98      2F67DF85 
  98      8B
  99              		.text
 100              		.section	.gnu.lto_u8x8_Setup.ba99b19,"",%progbits
ARM GAS  C:\Users\gjl\AppData\Local\Temp\ccn4tNxd.s 			page 7


 101 0000 789C9592 		.ascii	"x\234\225\222MHTQ\024\307\357\377\335\347{\2438}l\313"
 101      4D485451 
 101      14C7EFFF 
 101      DDE77BA3 
 101      387D6CCB 
 102 0014 40DA0C2E 		.ascii	"@\332\014.\324\210\026.\332\267j\323Z\030\306\231A\204"
 102      D488162E 
 102      DAB76AD3 
 102      5A18C699 
 102      4184
 103 0026 A8A15148 		.ascii	"\250\241QHZ\314\235/tQaDV\216\242\0202\366\245N\037"
 103      5ACC9D2F 
 103      74516144 
 103      568EA210 
 103      32F6A54E 
 104 003b DA641F4F 		.ascii	"\332d\037O!\005\241\"r\325\007FM\022!\203S\211\264\320"
 104      2105A122 
 104      72D50746 
 104      4D122183 
 104      5389B4D0 
 105 004f E99C3B63 		.ascii	"\351\234;cA\030\344\205\307\275\347\275\363\373\337"
 105      4118E485 
 105      C7BDE7BD 
 105      F3FBDF
 106 005e 73FEE799 		.ascii	"s\376\347\231\002\202WX\012q\224\366\275\364@\012\030"
 106      02825758 
 106      0A7194F6 
 106      BDF4400A 
 106      18
 107 006f 3D2F8488 		.ascii	"=/\204\210\272\014\200\017\312\005\0211\020\301\252"
 107      BA0C800F 
 107      CA051131 
 107      10C1AA
 108 007e B16E60A6 		.ascii	"\261n`\246k)k\324\245\025\255\017\303\371\003j\304A"
 108      6B296BD4 
 108      A515AD0F 
 108      C3F9036A 
 108      C441
 109 0090 92F0A2A1 		.ascii	"\222\360\242\241\225\004\322\250\243\254W\211\361~\371"
 109      9504D2A8 
 109      A3AC5789 
 109      F17EF9
 110 009f C3484AC0 		.ascii	"\303HJ\300\244\260\360\274\357\323\016\016\015\324R"
 110      A4B0F0BC 
 110      EFD30E0E 
 110      0DD452
 111 00ae 38B470ED 		.ascii	"8\264p\355\235%\367A\320\271w~!\357\366\014+\025S\352"
 111      9D25F741 
 111      D0B9777E 
 111      21EFF60C 
 111      2B1553EA 
 112 00c2 7B405526 		.ascii	"{@U&\245\304\015H\322\303u\324`\0045\202^\011\334\204"
 112      A5C40D48 
 112      D2C375D4 
 112      60043582 
 112      5E09DC84 
 113 00d6 87B25F3B 		.ascii	"\207\262_;C\251J\271_\223\331g]g\312\340d\220A\023\267"
ARM GAS  C:\Users\gjl\AppData\Local\Temp\ccn4tNxd.s 			page 8


 113      43A94AB9 
 113      5F93D967 
 113      5D67CAE0 
 113      64904113 
 114 00eb FE064D81 		.ascii	"\376\006M\201\333\032<\177\365\333\224-\3535x\366M:"
 114      DB1A3C7F 
 114      F5DB942D 
 114      EB3578F6 
 114      4D3A
 115 00fd 6596C9CB 		.ascii	"e\226\311\313\263\325\252\007\314\216n\301\216i6\221"
 115      B3D5AA07 
 115      CC8E6EC1 
 115      8E693691 
 116 010d 3E9772CB 		.ascii	">\227r\313C\232\315\367_y/\313\354\342ov|\0136\243\331"
 116      439ACDF7 
 116      5F792FCB 
 116      ECE26F76 
 116      7C0B36A3 
 117 0122 8F99B565 		.ascii	"\217\231\265e\227<\254\331\213\023\363\275\225e6;\267"
 117      973CACD9 
 117      8B13F3BD 
 117      9565363B 
 117      B7
 118 0133 C9DED982 		.ascii	"\311\336\331\202\275\013\217\320\360\306%\267\225`\257"
 118      BD0B8FD0 
 118      F0C625B7 
 118      9560AF
 119 0142 6B4B0EE3 		.ascii	"kK\016\343\036,\236\331\3301G\025\213q\345\254Z\323"
 119      1E2C9ED9 
 119      D8314715 
 119      8B71E5AC 
 119      5AD3
 120 0154 FDB69B26 		.ascii	"\375\266\233&E\376\230\340f-p\331.p\001U\320Rb\205X"
 120      45FE98E0 
 120      662D70D9 
 120      2E700155 
 120      D0526285 
 121 0169 1E65C130 		.ascii	"\036e\3010x\227_\220p~\316\202\325\264\223\331\345\267"
 121      78975F90 
 121      707ECE82 
 121      D5B493D9 
 121      E5B7
 122 017b 76645D75 		.ascii	"vd]u+\265+)+\212\006]\201\373\210\210\270\244\231Yb"
 122      2BB52B29 
 122      2B8A065D 
 122      81FB8888 
 122      B8A49959 
 123 0190 09B1BEC2 		.ascii	"\011\261\276\302\342t\005\347\363\310\2223/m\236\246"
 123      E27405E7 
 123      F3C89233 
 123      2F6D9EA6 
 124 01a0 D46DADCD 		.ascii	"\324m\255\315\315wW\017b \312u\356LJ\233(LP+\374q8\027"
 124      CD77570F 
 124      6220CA75 
 124      EE4C4A9B 
 124      284C502B 
 125 01b8 1BB51BEB 		.ascii	"\033\265\033\353\271\321I\014bC\377&x\200\3068\365\311"
ARM GAS  C:\Users\gjl\AppData\Local\Temp\ccn4tNxd.s 			page 9


 125      B9D1490C 
 125      6243FF26 
 125      7880C638 
 125      F5C9
 126 01ca BA995C74 		.ascii	"\272\231\\tS\367\177\205\262Z\210m\300C\026*\027\230"
 126      53F77F85 
 126      B25A886D 
 126      C043162A 
 126      1798
 127 01dc BBB05DA1 		.ascii	"\273\260]\241)-\244}}\304B\256RE\2373\3666\205\036k"
 127      292DA47D 
 127      7DC442AE 
 127      52459F33 
 127      F636851E 
 128 01f1 21C9424F 		.ascii	"!\311BOX\250J\260\303\251\271\177;L\227\342\351\037"
 128      58A84AB0 
 128      C3A9B97F 
 128      3B4C97E2 
 128      E91F
 129 0203 87BF22E6 		.ascii	"\207\277\"\346\014\034\321\331\274V\250;\232\023%\355"
 129      0C1CD1D9 
 129      BC56A83B 
 129      9A1325ED 
 130 0213 696868EE 		.ascii	"ihh\356hj=\330\354\017\237\362\323\351t\2237\034l\357"
 130      686A3DD8 
 130      EC0F9FF2 
 130      D3E97493 
 130      371C6CEF 
 131 0227 0835F885 		.ascii	"\0105\370\205\311QU\240-\034:\356\353\364\372[,\277"
 131      C95155A0 
 131      2D1C3AEE 
 131      EBF4FA5B 
 131      2CBF
 132 0239 2F409BDD 		.ascii	"/@\233\335\322\331\036\244}wk\250\355\244\327w\"\340"
 132      D2D91EA4 
 132      7D776BA8 
 132      EDA4D777 
 132      22E0
 133 024b 0D044B09 		.ascii	"\015\004K\011\277\000\351\204:\327"
 133      BF00E984 
 133      3AD7
 134              		.text
 135              		.section	.gnu.lto_.symbol_nodes.ba99b19,"",%progbits
 136 0000 789C55C8 		.ascii	"x\234U\310;\015\200P\020\005\321\271\273\010\001Q\350"
 136      3B0D8050 
 136      1005D1B9 
 136      BB080151 
 136      E8
 137 0011 D9958004 		.ascii	"\331\225\200\004\202\014jj4\200\221\227\367)H\230f\222"
 137      820C6A6A 
 137      34809197 
 137      F7294898 
 137      6692
 138 0023 3321565A 		.ascii	"3!VZF\300v\323w\356K\003\205>\310\016\026\366\003y\370"
 138      46C076D3 
 138      77EE4B03 
 138      853EC80E 
ARM GAS  C:\Users\gjl\AppData\Local\Temp\ccn4tNxd.s 			page 10


 138      16F60379 
 139 0038 00C89CC1 		.ascii	"\000\310\234\301M\034O\221\233s\275ET2F\023\343"
 139      4D1C4F91 
 139      9B73BD45 
 139      54324613 
 139      E3
 140              		.text
 141              		.section	.gnu.lto_.refs.ba99b19,"",%progbits
 142 0000 789C05C1 		.ascii	"x\234\005\301\261\001\0000\010\003 L\343\354\377\337"
 142      B1010030 
 142      0803204C 
 142      E3ECFFDF 
 143 0010 166A1C3A 		.ascii	"\026j\034:\221x\321X\037\002\177\0000"
 143      9178D158 
 143      1F027F00 
 143      30
 144              		.text
 145              		.section	.gnu.lto_.decls.ba99b19,"",%progbits
 146 0000 789CBD58 		.ascii	"x\234\275XmPT\327\031\276\347\236E\226e\001\005\222"
 146      6D5054D7 
 146      19BEE79E 
 146      45966501 
 146      0592
 147 0012 D00C6D1D 		.ascii	"\320\014m\035\207*\235\032\"\232f\230\2663M\233N\333"
 147      872A9D1A 
 147      229A6698 
 147      B6334D9B 
 147      4EDB
 148 0024 4927E98F 		.ascii	"I'\351\217N\362kg\266\313\356\005\266\201\335\235\335"
 148      4EF26B67 
 148      B6CBEE05 
 148      B681DD9D 
 148      DD
 149 0035 8B91FCBA 		.ascii	"\213\221\374\272 \032#AA\015\012\210\237\240\240`\310"
 149      201A2341 
 149      410D0A88 
 149      9FA0A060 
 149      C8
 150 0046 424014DC 		.ascii	"B@\024\334\025\220\250\240\"\304\017\"(\361;\365#(\032"
 150      1590A8A0 
 150      22C40F22 
 150      28F13BF5 
 150      23281A
 151 0059 A2A8F43D 		.ascii	"\242\250\364=\347\334\335{\027/\323?M\357\360\356=\357"
 151      E7DCDD7B 
 151      172FD33F 
 151      4DEFF0EE 
 151      3DEF
 152 006b 7B9EF37E 		.ascii	"{\236\363~\237sv\321q\210#\317\263x\216\373\273\216"
 152      9F7376D1 
 152      718823CF 
 152      B3788EFB 
 152      BB8E
 153 007d E37E07EC 		.ascii	"\343~\007\354\024<0\344\336\343\224\207\360\277\207"
 153      143C30E4 
 153      DEE39487 
 153      F0BF87
ARM GAS  C:\Users\gjl\AppData\Local\Temp\ccn4tNxd.s 			page 11


 154 008c B93781FE 		.ascii	"\2717\201\376\006\3646\342\236{\310|\030\274\275@\261"
 154      06F436E2 
 154      9E7BC87C 
 154      18BCBD40 
 154      B1
 155 009d 40A0925B 		.ascii	"@\240\222[\004\262w\345y$c\246?Dg\204lO\275.\025\350"
 155      04B277E5 
 155      792463A6 
 155      3F446784 
 155      6C4FBD2E 
 156 00b3 25A08540 		.ascii	"%\240\205@\257 \246\327\000\364[\030\277\006\264\004"
 156      AF20A6D7 
 156      00F45B18 
 156      BF06B404 
 157 00c3 6831D0AF 		.ascii	"h1\320\257\200~\012\364\013\240$\240\005@\363\200xY"
 157      807E0AF4 
 157      0BA024A0 
 157      0540F380 
 157      7859
 158 00d5 B7964D12 		.ascii	"\267\226M\022\203^\303&\261\365\016\320\037e\373$\356"
 158      835EC326 
 158      B1F50ED0 
 158      1F65FB24 
 158      EE
 159 00e6 E9B6B0BC 		.ascii	"\351\266\260\274\376\315\031\362\360\224G\375\205=\255"
 159      FECD19F2 
 159      F09447FD 
 159      853DAD
 160 00f5 FA0B6808 		.ascii	"\372\013h\010\361HN0\207\020\373D\2248F\224\205\001"
 160      F1484E30 
 160      8710FB44 
 160      94384694 
 160      8501
 161 0107 4F3FB9A0 		.ascii	"O?\271\240(\370\342\310'\307\360T\246(\243\177\201\367"
 161      28F8E2C8 
 161      27C7F054 
 161      A628A37F 
 161      81F7
 162 0119 54E0A14A 		.ascii	"T\340\241J\024\355H^\204\202\036\260Ul\236\017he/^Y"
 162      14ED485E 
 162      84821EB0 
 162      556C9E0F 
 162      68652F5E 
 163 012e A0D2C7DC 		.ascii	"\240\322\307\334U\371\204BcB\301\240\257\266\274\205"
 163      55F98442 
 163      6342C1A0 
 163      AFB6BC85 
 164 013e 2160185E 		.ascii	"!`\030^zT\373\347\224z\011\236\022I\342\223\225\304"
 164      7A54FBE7 
 164      947A099E 
 164      1249E293 
 164      95C4
 165 0150 ECAB9F6C 		.ascii	"\354\253\237l4\350\2402\350]#J\327\021\321g+\256\326"
 165      34E8A032 
 165      E85D234A 
 165      D711D167 
 165      2BAED6
ARM GAS  C:\Users\gjl\AppData\Local\Temp\ccn4tNxd.s 			page 12


 166 0163 E91FF028 		.ascii	"\351\037\360(\321\200\246\020\341o\267=\212b<\231n\366"
 166      D180A610 
 166      E16FB73D 
 166      8A623C99 
 166      6EF6
 167 0175 8F37E8F0 		.ascii	"\2177\350\360O\310\230?\3354t$\002%\033v\021\315\243"
 167      4FC8983F 
 167      DD347424 
 167      02251B76 
 167      11CDA3
 168 0188 1B1FFE61 		.ascii	"\033\037\376a\271$!\364\0312\240\006\204Q\035J!\356"
 168      B92421F4 
 168      1932A006 
 168      84511D4A 
 168      21EE
 169 019a 24921E59 		.ascii	"$\222\036Y%I\005\322\330\016iV\002\207\226$\242E\211"
 169      254905D2 
 169      D80E6956 
 169      02879624 
 169      A24589
 170 01ad 1CDA8792 		.ascii	"\034\332\207\222\211N\202B\365(\021\355E\211D\177\335"
 170      894E8242 
 170      F52811ED 
 170      4589447F 
 170      DD
 171 01be D6DAEE28 		.ascii	"\326\332\356(\274\013Q\003w6\334Z\205\203\006:\212\022"
 171      BC0B5103 
 171      7736DC5A 
 171      8583063A 
 171      8A12
 172 01d0 F74AD26C 		.ascii	"\367J\322l\344\005\003\215\212\001\260\247m\341sm\013"
 172      E405038D 
 172      8A01B0A7 
 172      6DE1736D 
 172      0B
 173 01e1 1756EEEE 		.ascii	"\027V\356\356\215\2441\023E{\020\215\372\314\371\213"
 173      8DA43113 
 173      457B108D 
 173      FACCF98B 
 174 01f1 672282C2 		.ascii	"g\"\202\302&&<]\330\270\031C\350\261\006\244\003\366"
 174      26263C5D 
 174      D8B81943 
 174      E8B106A4 
 174      03F6
 175 0203 DE898A2B 		.ascii	"\336\211\212+\321\300\306\033\320\\`+\307G\276\215`"
 175      D1C0C61B 
 175      D05C602B 
 175      C747BE8D 
 175      60
 176 0214 B3C9C0D6 		.ascii	"\263\311\300\326^\337\274\306\310f\323T\340X\006\226"
 176      5EDFBCC6 
 176      C866D354 
 176      E0580696 
 177 0224 6E166EE5 		.ascii	"n\026n\345q\015+\307\301\326\366\2360\006]\004\254\357"
 177      710D2BC7 
 177      C1D6F69E 
 177      30065D04 
ARM GAS  C:\Users\gjl\AppData\Local\Temp\ccn4tNxd.s 			page 13


 177      ACEF
 178 0236 66A94F8F 		.ascii	"f\251O\217\233\331\\@k<\323\332\277\373\316\271h\334"
 178      9BD95C40 
 178      6B3CD3DA 
 178      BFFBCEB9 
 178      68DC
 179 0248 C7E66E6E 		.ascii	"\307\346nn\363y\365\370\006c\356\026^\033\215d\300\004"
 179      F379F5F8 
 179      0663EE16 
 179      5E1B8D64 
 179      C004
 180 025a 603FF5AF 		.ascii	"`?\365\257{b\300\343ln`\254\257J\236\233\015\354\261"
 180      7B62C0E3 
 180      6C6E60AC 
 180      AF4A9E9B 
 180      0DECB1
 181 026d B6CB8BF0 		.ascii	"\266\313\213\36036\365}\357W#\030\027c\312\254\355\354"
 181      3336F57D 
 181      EF572318 
 181      1763CAAC 
 181      EDEC
 182 027f E8D2E372 		.ascii	"\350\322\343r\034\2420\226)\354\031\376\372\214\016"
 182      1CA23096 
 182      29EC19FE 
 182      FA8C0E
 183 028e D7B0B9FC 		.ascii	"\327\260\271\374\216\256\246(|\2001G\246&\3741\014\310"
 183      8EAEA628 
 183      7C803147 
 183      A626FC31 
 183      0CC8
 184 02a0 03FBB4A9 		.ascii	"\003\373\264\251\251\013\341.6W\363xr\214\244l>t\317"
 184      A90BE12E 
 184      3657F378 
 184      728CA46C 
 184      3E74CF
 185 02b3 1456B5CF 		.ascii	"\024V\265\317|\326>\276\336c\273\214\270\217\202\371"
 185      7CD63EBE 
 185      DE63BB8C 
 185      B88F82F9 
 186 02c3 6A7FC10A 		.ascii	"j\177\301\012\204\014\311\264v\322r\311P\033\315\241"
 186      840CC9B4 
 186      76D272C9 
 186      501BCDA1 
 187 02d3 4EA8D431 		.ascii	"N\250\3241\250\024:\005\345\233/\227\257\017\204\275"
 187      A8143A05 
 187      E59B2F97 
 187      AF0F84BD 
 188 02e3 20943BED 		.ascii	" \224;\355\316[\264\323NB\251N(\2150\337\300\232\372"
 188      CE5BB4D3 
 188      4E42A94E 
 188      288D30DF 
 188      C09AFA
 189 02f6 50E985EB 		.ascii	"P\351\205\353\006|\216\331\250\033\353\253\217\231\321"
 189      067C8ED9 
 189      A81BEBAB 
 189      8F99D1
 190 0305 C6C08C36 		.ascii	"\306\300\2146:\212\346\327\223f;\0156\372\025\033'\221"
ARM GAS  C:\Users\gjl\AppData\Local\Temp\ccn4tNxd.s 			page 14


 190      3A8AE6D7 
 190      93663B0D 
 190      36FA151B 
 190      2791
 191 0317 6CE4FAEA 		.ascii	"l\344\372\352\272{F<\312\242\256:s\271$\302 \267`\311"
 191      BA7B463C 
 191      CAA2AE3A 
 191      73B924C2 
 191      20B760C9 
 192 032b 7F6FC16F 		.ascii	"\177o\301o\207[\237\030\215\253\011\276d\271\024{4\032"
 192      875B9F18 
 192      8DAB09BE 
 192      64B9147B 
 192      341A
 193 033d 7D05665A 		.ascii	"}\005fZ\000\360\005\0008t\006\031\345\015\032\250d,"
 193      00F00500 
 193      38740619 
 193      E50D1AA8 
 193      642C
 194 034f ABE4E5CF 		.ascii	"\253\344\345\317'n\353\3615f\365\243\251\221n=\236`"
 194      276EEBF1 
 194      3566F5A3 
 194      A9916E3D 
 194      9E60
 195 0361 4CE1EEE2 		.ascii	"L\341\356\342\312(\274\\G\231\212\203\017\216\207\261"
 195      CA28BC5C 
 195      47998A83 
 195      0F8E87B1 
 196 0371 557A60D7 		.ascii	"Uz`\327\224\337?\030\216\213\330\334\240\177[e\004^"
 196      94DF3F18 
 196      8E8BD8DC 
 196      A07F5B65 
 196      045E
 197 0383 C7982BCD 		.ascii	"\307\230+\315\023\325Q\270\2121\337|\327Q\036\036\334"
 197      13D551B8 
 197      8A31DF7C 
 197      D7511E1E 
 197      DC
 198 0394 03EC34F8 		.ascii	"\003\3544\370b`\353\245p\\\303\000\217OM\036@\330\313"
 198      6260EBA5 
 198      705CC300 
 198      8F4F4D1E 
 198      40D8CB
 199 03a7 984F065B 		.ascii	"\230O\006[\226`\037\033\327\2379\377\024\341^\306\234"
 199      96601F1B 
 199      D79F39FF 
 199      14E15EC6 
 199      9C
 200 03b8 78367608 		.ascii	"x6v\010\343\021\3064\214\256\034\014\303w\031\263\353"
 200      E311C634 
 200      8CAE1C0C 
 200      C37719B3 
 200      EB
 201 03c9 C9F66623 		.ascii	"\311\366f#~\314\230\236\211\216\235axE\030eV\027\355"
 201      7ECC989E 
 201      898E9D61 
 201      78451865 
ARM GAS  C:\Users\gjl\AppData\Local\Temp\ccn4tNxd.s 			page 15


 201      5617ED
 202 03dc D91E8D2B 		.ascii	"\331\036\215+\030\263\342\223\275\355\03070\246\377"
 202      18B3E293 
 202      BDED1837 
 202      30A6FF
 203 03eb 92F7E12C 		.ascii	"\222\367\341,\334\311\230K\027K\377\205{\331x\344h\335"
 203      DCC9984B 
 203      174BFF85 
 203      7BD978E4 
 203      68DD
 204 03fd 5ED2690B 		.ascii	"^\322i\013H\247MM\305\250zm\001\353\265\201\265\367"
 204      48A74D4D 
 204      C5A87A6D 
 204      01EBB581 
 204      B5F7
 205 040f ABC3F179 		.ascii	"\253\303\361y\012\347{\212\233\274\221\312YUcl#\325"
 205      0AE77B8A 
 205      9BBC91CA 
 205      5955636C 
 205      23D5
 206 0421 FD0E02BD 		.ascii	"\375\016\002\275\243TwA\360$ae\341\2025Aw\241\222\013"
 206      A3547741 
 206      F0246165 
 206      E1823541 
 206      77A1920B 
 207 0435 E44ADE06 		.ascii	"\344J\336\006\341-\371\270\252.\3351\013_a6\312\233"
 207      E12DF9B8 
 207      AA2EDD31 
 207      0B5F6136 
 207      CA9B
 208 0447 F74C1854 		.ascii	"\367L\030T\307\325k\264\203\356\203\2151\305\306whf"
 208      C7D56BB4 
 208      83EE838D 
 208      31C5C677 
 208      6866
 209 0459 23F7B48D 		.ascii	"#\367\264\215\334\372j\2404\014\337fq?\365~tP\207\247"
 209      DCFA6AA0 
 209      340CDF66 
 209      713FF57E 
 209      745087A7 
 210 046d 1873E3E8 		.ascii	"\030s\343\350\243\007\221\270t\026+OgA\033\302\325\214"
 210      A30791B8 
 210      74162B4F 
 210      67411BC2 
 210      D58C
 211 047f 69E97CD4 		.ascii	"i\351|\324\027\206\333\030s\267`o5\302\003\214\351\377"
 211      1786DB18 
 211      73B7606F 
 211      35C2038C 
 211      E9FF
 212 0491 F44E198F 		.ascii	"\364N\031\217o1\346\311\344\372\3740\374\2141\276\341"
 212      6F31E6C9 
 212      E4FAFC30 
 212      FC8C31BE 
 212      E1
 213 04a2 9BF591B8 		.ascii	"\233\365\221\270$\2342\215\355\205w\344\323\316O\356"
 213      249C328D 
ARM GAS  C:\Users\gjl\AppData\Local\Temp\ccn4tNxd.s 			page 16


 213      ED8577E4 
 213      D3CE4FEE 
 214 04b2 81DAE2B1 		.ascii	"\201\332\342\261.\003\256\243\223/\344\373N|\031\216"
 214      2E03AEA3 
 214      932FE4FB 
 214      4E7C198E 
 215 04c2 92C81397 		.ascii	"\222\310\023\227\244<\311@;Hd\243#\223o\264\267\014"
 215      A43CC940 
 215      3B4864A3 
 215      23936FB4 
 215      B70C
 216 04d4 4BD24A23 		.ascii	"K\322J#m\246\007\020\377r>.\260-^%M~\220\264:G\341\376"
 216      6DA60710 
 216      FF723E2E 
 216      B02D5E25 
 216      4D7E90B4 
 217 04ec 928148A9 		.ascii	"\222\201H\251\361\237\024z5\024z\226n\210%\012t\370"
 217      F19F147A 
 217      35147A96 
 217      6E88250A 
 217      74F8
 218 04fe 6410FA83 		.ascii	"d\020\372\203\206\326N\225\326M\247\202\320q\015\350"
 218      86D64E95 
 218      D64DA782 
 218      D0710DE8 
 219 050e 7E15F4BC 		.ascii	"~\025\364\274\242\365\221\006\224\332/\225/P\011\211"
 219      A2F59106 
 219      94DA2F95 
 219      2F500989 
 220 051e 1C7A02E5 		.ascii	"\034z\002\345\351!5\233\224\341P4\264\226OF+\370$T\000"
 220      E921359B 
 220      94E15034 
 220      B4964F46 
 220      2BF82454 
 221 0533 2401AD04 		.ascii	"$\001\255\004\372\010\250\004\350\031JB\371\360^\015"
 221      FA08A804 
 221      E8194A42 
 221      F9F05E0D 
 222 0543 540C5404 		.ascii	"T\014T\004\264\012h\015\320:\240)\230\377\030\336\205"
 222      B40A680D 
 222      D03AA029 
 222      98FF18DE 
 222      85
 223 0554 409F0095 		.ascii	"@\237\000\225\362I\364\226f\376\225)\011\272\254\225"
 223      F249F496 
 223      66FE9529 
 223      09BAAC95 
 224 0564 20BF2A96 		.ascii	" \277*\226\263J,\2175bIU\220\027\025\344\204\006R\255"
 224      B34A2C8F 
 224      35624955 
 224      901715E4 
 224      840652AD 
 225 0578 744C817E 		.ascii	"tL\201~\257\001mQA\037(i\277\021\012\375\032M/\374\006"
 225      AF016D51 
 225      411F2869 
 225      BF110AFD 
 225      1A4D2FFC 
ARM GAS  C:\Users\gjl\AppData\Local\Temp\ccn4tNxd.s 			page 17


 226 058d 25AE2B5A 		.ascii	"%\256+Zq\251\313\271umt\271\344/\304tG\375[F\007\367"
 226      71A9CBB9 
 226      756D74B9 
 226      E42FC474 
 226      47FD5B46 
 227 05a3 0ED3AD0A 		.ascii	"\016\323\255\012n\350T\324F\311\237\217\251\362\233"
 227      6EE854D4 
 227      46C99F8F 
 227      A9F29B
 228 05b2 5A8E74A8 		.ascii	"Z\216t\250\224\267\256\213\336$\371\0130=\360\277\221"
 228      94B7AE8B 
 228      DE24F90B 
 228      303DF0BF 
 228      91
 229 05c3 D1C17B82 		.ascii	"\321\301{\2029\243\016rP\255\375[-\355j\364\017JJ\256"
 229      39A30E72 
 229      50ADFD5B 
 229      2DED6AF4 
 229      0F4A4AAE 
 230 05d7 6B61592B 		.ascii	"kaY+\322s\303\357[c\224$=\301p\362\231\241\264\301\370"
 230      D273C3EF 
 230      5B639424 
 230      3DC170F2 
 230      99A1B4C1 
 231 05ec 4995D587 		.ascii	"I\225\325\207\032uP\207\324\246\016\351\251vH\352ZL"
 231      1A755087 
 231      D4A60EE9 
 231      A97648EA 
 231      5A4C
 232 05fe A943BAA6 		.ascii	"\251C\272\246U\015\232]8\013\206\326V\226\307\340^z"
 232      550D9A5D 
 232      380B86D6 
 232      5696C7E0 
 232      5E7A
 233 0610 16F027AE 		.ascii	"\026\360'\256V\370\242Q\\\262\366\366\370\024\266\304"
 233      56F8A251 
 233      5CB2F6F6 
 233      F814B6C4 
 234 0620 8FB93D58 		.ascii	"\217\271=X\316Fz\027\222\234m\000C\353\371\340QKRH\375"
 234      CE467A17 
 234      929C6D00 
 234      43EBF9E0 
 234      514B5248 
 235 0635 DD5EBBBB 		.ascii	"\335^\273\273\030\305\311\016\372gt\220\373\237{\007"
 235      18C5C90E 
 235      FA677490 
 235      FB9F7B07 
 236 0645 B657AE1E 		.ascii	"\266W\256\036\317G!w}\231\252m9\264\221\017\334\365"
 236      CF472177 
 236      7D99AA6D 
 236      39B4910F 
 236      DCF5
 237 0657 130D3786 		.ascii	"\023\0157\206\303\360%v\374\026V\225\234\342\331\025"
 237      C3F02576 
 237      FC165695 
 237      9CE2D915 
 238 0667 BE10D8B2 		.ascii	"\276\020\330\262\2177\217\352\330i<J\276t\335\274V\331"
ARM GAS  C:\Users\gjl\AppData\Local\Temp\ccn4tNxd.s 			page 18


 238      8F378FEA 
 238      D8693C4A 
 238      BE74DDBC 
 238      56D9
 239 0679 63C0B718 		.ascii	"c\300\267\030\3267\370Y_\014\236\242\314\274\341\333"
 239      D637F859 
 239      5F0C9EA2 
 239      CCBCE1DB 
 240 0689 DEB62814 		.ascii	"\336\266(\024r,'%\031\215\011:c\\`\224\234\224\234\234"
 240      722C2725 
 240      198D093A 
 240      635C6094 
 240      9C949C9C 
 241 069d CC6ABEF1 		.ascii	"\314j\276\361\254\252\346_B\315\267(5\357Q\265fHq+\370"
 241      ACAAE65F 
 241      42CDB728 
 241      35EF51B5 
 241      6648712B 
 242 06b2 4454CE03 		.ascii	"DT\316\003b\023\317\026\220\342\266C\036\017B\350_\000"
 242      6213CF16 
 242      90E2B643 
 242      1E0F42E8 
 242      5F00
 243 06c4 35033501 		.ascii	"5\0035\001y\201\366\002\355\001\252\003\252\005\252"
 243      7981F602 
 243      ED01AA03 
 243      AA05AA
 244 06d3 02DA0DB4 		.ascii	"\002\332\015\264\013\250\006\250\032h'\320\016\240\355"
 244      0BA806A8 
 244      1A6827D0 
 244      0EA0ED
 245 06e2 40DB80B6 		.ascii	"@\333\200\266\206\234}\355g\203\233\247\222\017\361"
 245      869C7DED 
 245      67839BA7 
 245      920FF1
 246 06f1 B075FA9E 		.ascii	"\260u\372\236?\240@\017\204\006\323\246\012\206a\367"
 246      3FA0400F 
 246      8406D3A6 
 246      0A8661F7 
 247 0701 2BD8762D 		.ascii	"+\330v-\254zk\264(\330CZX\365\266kV\260>-\254\372\\"
 247      AC7A6BB4 
 247      28D8435A 
 247      58F5B66B 
 247      56B03E2D 
 248 0718 F02AD8C3 		.ascii	"\360*\330\303ZX\365\011\334\250`\273\264\260\352\243"
 248      5A58F509 
 248      DCA860BB 
 248      B4B0EAA3 
 249 0728 728B82ED 		.ascii	"r\213\202\355\326\302\252\356\323M\012\364\210\026T"
 249      D6C2AAEE 
 249      D34D0AF4 
 249      881654
 250 0737 95DD0D0A 		.ascii	"\225\335\015\012\364\250V\253\2503\266\276Lu\370\034"
 250      F4A856AB 
 250      A833B6BE 
 250      4C75F81C 
 251 0747 97D1C1C3 		.ascii	"\227\321\301\303\247\347\271L\224\226\275\300\016w\370"
ARM GAS  C:\Users\gjl\AppData\Local\Temp\ccn4tNxd.s 			page 19


 251      A7E7B94C 
 251      9496BDC0 
 251      0E77F8
 252 0756 EE8B0665 		.ascii	"\356\213\006e|\360p\357\231\356\312\324`\014\203\327"
 252      7CF070EF 
 252      99EECAD4 
 252      600C83D7 
 253 0766 F346746E 		.ascii	"\363Ftn:\\}\\\253w\336>>A\001\035\202\206m\200\325\354"
 253      3A5C7D5C 
 253      AB77DE3E 
 253      3E41011D 
 253      82866D80 
 254 077c B09809C6 		.ascii	"\260\230\011\306\2510ed\023\300o\210\271<\315A \032"
 254      A9306564 
 254      13C06F88 
 254      B93CCD41 
 254      201A
 255 078e 8E2C203F 		.ascii	"\216, ?Dy\362\357\011\362\375\271\021\2264\303oH\265"
 255      4479F2EF 
 255      09F2FDB9 
 255      119634C3 
 255      6F48B5
 256 07a1 D2CF4376 		.ascii	"\322\317Cv}#\333\365\332\333\252\003<\373\361\267\325"
 256      7D23DBF5 
 256      DADBAA03 
 256      3CFBF1B7 
 256      D5
 257 07b2 9341A354 		.ascii	"\223A\243Tb\241\011\034\322N\240*\337\217\025\360\205"
 257      62A1091C 
 257      D24EA02A 
 257      DF8F15F0 
 257      85
 258 07c3 E9608DEB 		.ascii	"\351`\215\353NA\017k\243U\252'\326"
 258      4E410F6B 
 258      A355AA27 
 258      D6
 259 07d0 C7B352B6 		.ascii	"\307\263R\266\000|d:\374U\355J\356WW\362\000\344\250"
 259      007C643A 
 259      FC55ED4A 
 259      EE5757F2 
 259      00E4A8
 260 07e3 55B392FB 		.ascii	"U\263\222\373C*\331\252U\311\323!\225\334O+\331\026"
 260      432AD9AA 
 260      55C9D321 
 260      95DC4F2B 
 260      D916
 261 07f5 52C98B50 		.ascii	"R\311\213PIv\315<,z\221\\3\304\321K\3127\372VZK\026"
 261      4976CD3C 
 261      2C7A915C 
 261      33C4D14B 
 261      CA37FA56 
 262 080c CCC3F53F 		.ascii	"\314\303\365?g\301\300\261\216F5\203IU\256\372{\353"
 262      67C1C0B1 
 262      8E463583 
 262      4955AEFA 
 262      7BEB
 263 081e E955BF25 		.ascii	"\351U\277%\364\252gs\027\212~F\346H\333lV\256\264-\364"
ARM GAS  C:\Users\gjl\AppData\Local\Temp\ccn4tNxd.s 			page 20


 263      F4AA6773 
 263      178A7E46 
 263      E648DB6C 
 263      56AEB42D 
 264 0833 4A6388F1 		.ascii	"Jc\210\361\336\027\010\202d\371\274\342M\003\365\206"
 264      DE170882 
 264      64F9BCE2 
 264      4D03F586 
 265 0843 FC8CFAA6 		.ascii	"\374\214\372\246\342\353\230y\333\244\261Fi\264jG\336"
 265      E2EB9879 
 265      DBA4B146 
 265      69B46A47 
 265      DE
 266 0854 869D2BA5 		.ascii	"\206\235+\245~X\366\006mWT\253\254\200!y\355\206\312"
 266      7E58F606 
 266      6D5754AB 
 266      AC802179 
 266      ED86CA
 267 0867 72C8C7CF 		.ascii	"r\310\307\317\203\265\017+\306\022\360v=\275].w\027"
 267      83B50F2B 
 267      C612F076 
 267      3DBD5D2E 
 267      7717
 268 0879 DC67FF1A 		.ascii	"\334g\377\032!\311`?\013/z\357\216\304$\250\262\370"
 268      21C9603F 
 268      0B2F7AEF 
 268      8EC424A8 
 268      B2F8
 269 088b DE8BAA24 		.ascii	"\336\213\252$v\322$\036\246I\004pwk\315\015\03582\332"
 269      76D2241E 
 269      A6490470 
 269      776BCD0D 
 269      1D3832DA 
 270 089f 085FCA86 		.ascii	"\010_\312\206\214\314\013\002B~%0\030*NtQ'V\235\333"
 270      8CCC0B02 
 270      427E2530 
 270      182A4E74 
 270      5127569D 
 271 08b4 29E97133 		.ascii	")\351q3\363bmQ\307>L\275\250\017z\341\355\337P\255\017"
 271      F3626D51 
 271      C73E4CBD 
 271      A80F7AE1 
 271      EDDF50AD 
 272 08c9 CA8EF054 		.ascii	"\312\216\360T\330p\244\364\260.(\354a\302\215\307\375"
 272      D870A4F4 
 272      B02E28EC 
 272      61C28DC7 
 272      FD
 273 08da AB95D55F 		.ascii	"\253\225\325_2\341\252\241\372\366\260``G\231\360\336"
 273      32E1AAA1 
 273      FAF6B060 
 273      604799F0 
 273      DE
 274 08eb 79E942E4 		.ascii	"y\351B\344\214\221\035\247\221\035\013Dv\335{[\012\207"
 274      8C911DA7 
 274      911D0B44 
 274      76DD7B5B 
ARM GAS  C:\Users\gjl\AppData\Local\Temp\ccn4tNxd.s 			page 21


 274      0A87
 275 08fd C8B64164 		.ascii	"\310\266Ad\367{\002\221\001\010u+\221u\253#\353\245"
 275      F77B0291 
 275      0108752B 
 275      9175AB23 
 275      EBA5
 276 090f 91551FBF 		.ascii	"\221U\037\277<\254\303>\026YqeQ'&\351\201\337\214\303"
 276      3CACC33E 
 276      16597165 
 276      512726E9 
 276      81DF8CC3 
 277 0923 936F3CF5 		.ascii	"\223o<\365J\205a4;}\212\216>\252\003\006'\350\372kU"
 277      4A856134 
 277      3B7D8A8E 
 277      3EAA0306 
 277      27E8FA6B 
 278 0938 6B9A2242 		.ascii	"k\232\"B\276St\2064\372Iv\272\320wTn\332\2624\263-7"
 278      BE537486 
 278      34FA4976 
 278      BAD07754 
 278      6EDAB234 
 279 094f 2727CF6C 		.ascii	"''\317lM\327\377\345\235w\347\276\231\232\312E\230\315"
 279      4DD7FFE5 
 279      9D77E7BE 
 279      999ACA45 
 279      98CD
 280 0961 B9768798 		.ascii	"\271v\207\230f\026\363\221\3657&\227\333\231\351\266"
 280      6616F391 
 280      F5372697 
 280      DB99E9B6 
 281 0971 E4CCCDB0 		.ascii	"\344\314\315\260g\013\236\271\311\313\322^\377\245\311"
 281      670B9EB9 
 281      C9CBD25E 
 281      FFA5C9
 282 0980 9AE7720B 		.ascii	"\232\347r\013\036\217\311\345qZ\347Z\335\202Et\272M"
 282      1E8FC9E5 
 282      715AE75A 
 282      DD824574 
 282      BA4D
 283 0992 AFA5A486 		.ascii	"\257\245\244\206\012\3549.\247[4e:rM\026w\216\351\327"
 283      0AEC392E 
 283      A75B3465 
 283      3A724D16 
 283      778EE9D7 
 284 09a6 290401A3 		.ascii	")\004\001\243W\034N\207\360\212`I\267\233\354\016kv"
 284      571C4E87 
 284      F08A6049 
 284      B79BEC0E 
 284      6B76
 285 09b8 AE4D30E5 		.ascii	"\256M0\345X\254Yv\207`2\333\204\014Kn\266h\026\363\\"
 285      58AC5976 
 285      876032DB 
 285      840C4B6E 
 285      B66816F3 
 286 09cd 8227258B 		.ascii	"\202'%\213\013\227]Y\372\377\362\304\223\3471\231=\242"
 286      0B975D59 
 286      FAFFF2C4 
ARM GAS  C:\Users\gjl\AppData\Local\Temp\ccn4tNxd.s 			page 22


 286      93E73199 
 286      3DA2
 287 09df 0DCC82F9 		.ascii	"\015\314\202\371h\233\220\356\314uX\005\020YD\341\245"
 287      689B90EE 
 287      CC755805 
 287      105944E1 
 287      A5
 288 09f0 209B6DF1 		.ascii	" \233m\361\210f\227\335\301\344/\007\345\001\377\203"
 288      886697DD 
 288      C1E42F07 
 288      E501FF83 
 289 0a00 5391992E 		.ascii	"S\221\231.\273\323\014>\202\324\220+f\24411(^j\007\274"
 289      BBD30C3E 
 289      82D4902B 
 289      66A43131 
 289      285E6A07 
 290 0a15 C56623FE 		.ascii	"\305f#\376G\332\027[\311\204[\024lt,\313\343\355\036"
 290      47DA175B 
 290      C9845B14 
 290      6C742CCB 
 290      E3ED1E
 291 0a28 7386D321 		.ascii	"s\206\323!\232\355\216\245\202\333#\230s\2346A\277\314"
 291      9AED8EA5 
 291      82DB2398 
 291      739C3641 
 291      BFCC
 292 0a3a ECCCC8F0 		.ascii	"\354\314\310\360\010\242^pX\235\340i\246\201\225,\365"
 292      08A25E70 
 292      589DE069 
 292      A681952C 
 292      F5
 293 0a4b 75B3A80F 		.ascii	"u\263\250\017\014td\335\034j\335\342\260\201c\331\026"
 293      0C7464DD 
 293      1C6ADDE2 
 293      B08163D9 
 293      16
 294 0a5c 52E6485A 		.ascii	"R\346HZ\364\034O&\214\303\323\363D\001\336\263\254\026"
 294      F41C4F26 
 294      8CC3D3F3 
 294      4401DEB3 
 294      AC16
 295 0a6e 1BBC0C36 		.ascii	"\033\274\0146\273\307\305P\341\016a\231\010o#E[\263"
 295      BBC7C550 
 295      E10E6199 
 295      086F2345 
 295      5BB3
 296 0a80 2C6EC204 		.ascii	",n\302\004\346\355\216\014g\244\313\276L\3106\177`\267"
 296      E6ED8E0C 
 296      67A4CBBE 
 296      4CC8367F 
 296      60B7
 297 0a92 89597332 		.ascii	"\211Ys2\262\355.\342\2319\340\331\354@\036\002\202H"
 297      B2ED2EE2 
 297      9939E0D9 
 297      EC401E02 
 297      8248
 298 0aa4 118A66CE 		.ascii	"\021\212f\316\022\354\231Y\242\201\216\351\312\370\017"
ARM GAS  C:\Users\gjl\AppData\Local\Temp\ccn4tNxd.s 			page 23


 298      12EC9959 
 298      A2818EE9 
 298      CAF80F
 299 0ab3 DC7670C1 		.ascii	"\334vp\301\225\233\355\221%f\207'\326f\021-fX\224\353"
 299      959BED91 
 299      25668727 
 299      D666112D 
 299      665894EB 
 300 0ac7 328BF61C 		.ascii	"2\213\366\034\001D\361$'\351\271\036\2635\333i}\337"
 300      0144F124 
 300      27E9B91E 
 300      B335DB69 
 300      7DDF
 301 0ad9 9CBA68D1 		.ascii	"\234\272h\321\373\177\375P\357q\331iB\214\036\220\261"
 301      FB7FFD50 
 301      EF71D969 
 301      428C1E90 
 301      B1
 302 0aea 99AC0FE5 		.ascii	"\231\254\017\345\\,Y,\347\202\014b\011 \324\310\034"
 302      5C2C592C 
 302      E7820C62 
 302      0920D4C8 
 302      1C
 303 0afb 8F6D9A8D 		.ascii	"\217m\232\215X\227\023j\012Y\027D\363\007\026\273\010"
 303      5897136A 
 303      0A591744 
 303      F30716BB 
 303      08
 304 0b0c 498A679C 		.ascii	"I\212g\234ze\216'\001:\016Rbw\231!\037\226t\022\012"
 304      7A658E27 
 304      013A0E52 
 304      62779921 
 304      1F967412 
 305 0b21 413B6082 		.ascii	"A;`\202(\2403\202C=\021\033\202\316\026\226\012\331"
 305      28A03382 
 305      433D111B 
 305      82CE1696 
 305      0AD9
 306 0b33 73D4302A 		.ascii	"s\3240*I`\273Q\225bh\010w\256U4\262L\263\334\305\247"
 306      4960BB51 
 306      95626808 
 306      77AE5534 
 306      B24CB3DC 
 307 0b49 A49872D3 		.ascii	"\244\230r\3232\027\233\254\036\267\325D\226@\227\306"
 307      32179BAC 
 307      1EB7D544 
 307      964097C6 
 308 0b59 3DBF5464 		.ascii	"=\277Tduf\032\342\202\355\311\372\220\224\177\026\235"
 308      75661AE2 
 308      82EDC9FA 
 308      90947F16 
 308      9D
 309 0b6a 175F7E4E 		.ascii	"\027_~N\037KJ\212\225\213\245\334?\010\367'VM\217A\021"
 309      1F4B4A8A 
 309      958BA5DC 
 309      3F08F727 
 309      564D8F41 
ARM GAS  C:\Users\gjl\AppData\Local\Temp\ccn4tNxd.s 			page 24


 310 0b7f CD56866F 		.ascii	"\315V\206o\0139Nw\336\177\000.#bv"
 310      0B394E77 
 310      DE7F002E 
 310      236276
 311              		.text
 312              		.section	.gnu.lto_.symtab.ba99b19,"",%progbits
 313 0000 75387838 		.ascii	"u8x8_dummy_cb\000"
 313      5F64756D 
 313      6D795F63 
 313      6200
 314 000e 00       		.ascii	"\000"
 315 000f 00       		.ascii	"\000"
 316 0010 00       		.ascii	"\000"
 317 0011 00000000 		.ascii	"\000\000\000\000\000\000\000\000"
 317      00000000 
 318 0019 3F010000 		.ascii	"?\001\000\000"
 319 001d 75387838 		.ascii	"u8x8_SetupDefaults\000"
 319      5F536574 
 319      75704465 
 319      6661756C 
 319      747300
 320 0030 00       		.ascii	"\000"
 321 0031 00       		.ascii	"\000"
 322 0032 00       		.ascii	"\000"
 323 0033 00000000 		.ascii	"\000\000\000\000\000\000\000\000"
 323      00000000 
 324 003b 43010000 		.ascii	"C\001\000\000"
 325 003f 75387838 		.ascii	"u8x8_Setup\000"
 325      5F536574 
 325      757000
 326 004a 00       		.ascii	"\000"
 327 004b 00       		.ascii	"\000"
 328 004c 00       		.ascii	"\000"
 329 004d 00000000 		.ascii	"\000\000\000\000\000\000\000\000"
 329      00000000 
 330 0055 4B010000 		.ascii	"K\001\000\000"
 331 0059 75387838 		.ascii	"u8x8_SetupMemory\000"
 331      5F536574 
 331      75704D65 
 331      6D6F7279 
 331      00
 332 006a 00       		.ascii	"\000"
 333 006b 02       		.ascii	"\002"
 334 006c 00       		.ascii	"\000"
 335 006d 00000000 		.ascii	"\000\000\000\000\000\000\000\000"
 335      00000000 
 336 0075 4D010000 		.ascii	"M\001\000\000"
 337              		.text
 338              		.section	.gnu.lto_.opts,"",%progbits
 339 0000 272D666D 		.ascii	"'-fmath-errno' '-fsigned-zeros' '-ftrapping-math' '"
 339      6174682D 
 339      6572726E 
 339      6F272027 
 339      2D667369 
 340 0033 2D666E6F 		.ascii	"-fno-trapv' '-fno-openmp' '-fno-openacc' '-mcpu=cor"
 340      2D747261 
 340      70762720 
ARM GAS  C:\Users\gjl\AppData\Local\Temp\ccn4tNxd.s 			page 25


 340      272D666E 
 340      6F2D6F70 
 341 0066 7465782D 		.ascii	"tex-m0' '-mthumb' '-g' '-Os' '-ffunction-sections' "
 341      6D302720 
 341      272D6D74 
 341      68756D62 
 341      2720272D 
 342 0099 272D6666 		.ascii	"'-ffat-lto-objects' '-flto'\000"
 342      61742D6C 
 342      746F2D6F 
 342      626A6563 
 342      74732720 
 343              		.text
 344              		.cfi_sections	.debug_frame
 345              		.section	.text.u8x8_dummy_cb,"ax",%progbits
 346              		.align	1
 347              		.global	u8x8_dummy_cb
 348              		.code	16
 349              		.thumb_func
 350              		.type	u8x8_dummy_cb, %function
 351              	u8x8_dummy_cb:
 352              	.LFB0:
 353              		.file 1 "..\\u8g2\\csrc\\u8x8_setup.c"
   1:..\u8g2\csrc/u8x8_setup.c **** /*
   2:..\u8g2\csrc/u8x8_setup.c **** 
   3:..\u8g2\csrc/u8x8_setup.c ****   u8x8_setup.c
   4:..\u8g2\csrc/u8x8_setup.c **** 
   5:..\u8g2\csrc/u8x8_setup.c ****   Universal 8bit Graphics Library (https://github.com/olikraus/u8g2/)
   6:..\u8g2\csrc/u8x8_setup.c **** 
   7:..\u8g2\csrc/u8x8_setup.c ****   Copyright (c) 2016, olikraus@gmail.com
   8:..\u8g2\csrc/u8x8_setup.c ****   All rights reserved.
   9:..\u8g2\csrc/u8x8_setup.c **** 
  10:..\u8g2\csrc/u8x8_setup.c ****   Redistribution and use in source and binary forms, with or without modification, 
  11:..\u8g2\csrc/u8x8_setup.c ****   are permitted provided that the following conditions are met:
  12:..\u8g2\csrc/u8x8_setup.c **** 
  13:..\u8g2\csrc/u8x8_setup.c ****   * Redistributions of source code must retain the above copyright notice, this list 
  14:..\u8g2\csrc/u8x8_setup.c ****     of conditions and the following disclaimer.
  15:..\u8g2\csrc/u8x8_setup.c ****     
  16:..\u8g2\csrc/u8x8_setup.c ****   * Redistributions in binary form must reproduce the above copyright notice, this 
  17:..\u8g2\csrc/u8x8_setup.c ****     list of conditions and the following disclaimer in the documentation and/or other 
  18:..\u8g2\csrc/u8x8_setup.c ****     materials provided with the distribution.
  19:..\u8g2\csrc/u8x8_setup.c **** 
  20:..\u8g2\csrc/u8x8_setup.c ****   THIS SOFTWARE IS PROVIDED BY THE COPYRIGHT HOLDERS AND 
  21:..\u8g2\csrc/u8x8_setup.c ****   CONTRIBUTORS "AS IS" AND ANY EXPRESS OR IMPLIED WARRANTIES, 
  22:..\u8g2\csrc/u8x8_setup.c ****   INCLUDING, BUT NOT LIMITED TO, THE IMPLIED WARRANTIES OF 
  23:..\u8g2\csrc/u8x8_setup.c ****   MERCHANTABILITY AND FITNESS FOR A PARTICULAR PURPOSE ARE 
  24:..\u8g2\csrc/u8x8_setup.c ****   DISCLAIMED. IN NO EVENT SHALL THE COPYRIGHT HOLDER OR 
  25:..\u8g2\csrc/u8x8_setup.c ****   CONTRIBUTORS BE LIABLE FOR ANY DIRECT, INDIRECT, INCIDENTAL, 
  26:..\u8g2\csrc/u8x8_setup.c ****   SPECIAL, EXEMPLARY, OR CONSEQUENTIAL DAMAGES (INCLUDING, BUT 
  27:..\u8g2\csrc/u8x8_setup.c ****   NOT LIMITED TO, PROCUREMENT OF SUBSTITUTE GOODS OR SERVICES; 
  28:..\u8g2\csrc/u8x8_setup.c ****   LOSS OF USE, DATA, OR PROFITS; OR BUSINESS INTERRUPTION) HOWEVER 
  29:..\u8g2\csrc/u8x8_setup.c ****   CAUSED AND ON ANY THEORY OF LIABILITY, WHETHER IN CONTRACT, 
  30:..\u8g2\csrc/u8x8_setup.c ****   STRICT LIABILITY, OR TORT (INCLUDING NEGLIGENCE OR OTHERWISE) 
  31:..\u8g2\csrc/u8x8_setup.c ****   ARISING IN ANY WAY OUT OF THE USE OF THIS SOFTWARE, EVEN IF 
  32:..\u8g2\csrc/u8x8_setup.c ****   ADVISED OF THE POSSIBILITY OF SUCH DAMAGE.  
  33:..\u8g2\csrc/u8x8_setup.c **** 
  34:..\u8g2\csrc/u8x8_setup.c **** */
ARM GAS  C:\Users\gjl\AppData\Local\Temp\ccn4tNxd.s 			page 26


  35:..\u8g2\csrc/u8x8_setup.c **** 
  36:..\u8g2\csrc/u8x8_setup.c **** 
  37:..\u8g2\csrc/u8x8_setup.c **** #include "u8x8.h"
  38:..\u8g2\csrc/u8x8_setup.c **** 
  39:..\u8g2\csrc/u8x8_setup.c **** uint8_t u8x8_dummy_cb(U8X8_UNUSED u8x8_t *u8x8, U8X8_UNUSED uint8_t msg, U8X8_UNUSED uint8_t arg_in
  40:..\u8g2\csrc/u8x8_setup.c **** {
 354              		.loc 1 40 0
 355              		.cfi_startproc
 356              		@ args = 0, pretend = 0, frame = 0
 357              		@ frame_needed = 0, uses_anonymous_args = 0
 358              		@ link register save eliminated.
 359              	.LVL0:
  41:..\u8g2\csrc/u8x8_setup.c ****   /* the dummy callback will not handle any message and will fail for all messages */
  42:..\u8g2\csrc/u8x8_setup.c ****   return 0;
  43:..\u8g2\csrc/u8x8_setup.c **** }
 360              		.loc 1 43 0
 361 0000 0020     		movs	r0, #0
 362              	.LVL1:
 363              		@ sp needed
 364 0002 7047     		bx	lr
 365              		.cfi_endproc
 366              	.LFE0:
 367              		.size	u8x8_dummy_cb, .-u8x8_dummy_cb
 368              		.section	.text.u8x8_SetupDefaults,"ax",%progbits
 369              		.align	1
 370              		.global	u8x8_SetupDefaults
 371              		.code	16
 372              		.thumb_func
 373              		.type	u8x8_SetupDefaults, %function
 374              	u8x8_SetupDefaults:
 375              	.LFB1:
  44:..\u8g2\csrc/u8x8_setup.c **** 
  45:..\u8g2\csrc/u8x8_setup.c **** 
  46:..\u8g2\csrc/u8x8_setup.c **** /*
  47:..\u8g2\csrc/u8x8_setup.c ****   Description:
  48:..\u8g2\csrc/u8x8_setup.c ****     Setup u8x8
  49:..\u8g2\csrc/u8x8_setup.c ****   Args:
  50:..\u8g2\csrc/u8x8_setup.c ****     u8x8	An empty u8x8 structure
  51:..\u8g2\csrc/u8x8_setup.c **** */
  52:..\u8g2\csrc/u8x8_setup.c **** void u8x8_SetupDefaults(u8x8_t *u8x8)
  53:..\u8g2\csrc/u8x8_setup.c **** {
 376              		.loc 1 53 0
 377              		.cfi_startproc
 378              		@ args = 0, pretend = 0, frame = 0
 379              		@ frame_needed = 0, uses_anonymous_args = 0
 380              		@ link register save eliminated.
 381              	.LVL2:
  54:..\u8g2\csrc/u8x8_setup.c ****     u8x8->display_info = NULL;
 382              		.loc 1 54 0
 383 0000 0023     		movs	r3, #0
  55:..\u8g2\csrc/u8x8_setup.c ****     u8x8->display_cb = u8x8_dummy_cb;
 384              		.loc 1 55 0
 385 0002 084A     		ldr	r2, .L3
  56:..\u8g2\csrc/u8x8_setup.c ****     u8x8->cad_cb = u8x8_dummy_cb;
  57:..\u8g2\csrc/u8x8_setup.c ****     u8x8->byte_cb = u8x8_dummy_cb;
  58:..\u8g2\csrc/u8x8_setup.c ****     u8x8->gpio_and_delay_cb = u8x8_dummy_cb;
  59:..\u8g2\csrc/u8x8_setup.c ****     u8x8->is_font_inverse_mode = 0;
ARM GAS  C:\Users\gjl\AppData\Local\Temp\ccn4tNxd.s 			page 27


 386              		.loc 1 59 0
 387 0004 C377     		strb	r3, [r0, #31]
  55:..\u8g2\csrc/u8x8_setup.c ****     u8x8->display_cb = u8x8_dummy_cb;
 388              		.loc 1 55 0
 389 0006 8260     		str	r2, [r0, #8]
  56:..\u8g2\csrc/u8x8_setup.c ****     u8x8->cad_cb = u8x8_dummy_cb;
 390              		.loc 1 56 0
 391 0008 C260     		str	r2, [r0, #12]
  57:..\u8g2\csrc/u8x8_setup.c ****     u8x8->gpio_and_delay_cb = u8x8_dummy_cb;
 392              		.loc 1 57 0
 393 000a 0261     		str	r2, [r0, #16]
  58:..\u8g2\csrc/u8x8_setup.c ****     u8x8->is_font_inverse_mode = 0;
 394              		.loc 1 58 0
 395 000c 4261     		str	r2, [r0, #20]
  60:..\u8g2\csrc/u8x8_setup.c ****     u8x8->device_address = 0;
 396              		.loc 1 60 0
 397 000e C21C     		adds	r2, r0, #3
  54:..\u8g2\csrc/u8x8_setup.c ****     u8x8->display_cb = u8x8_dummy_cb;
 398              		.loc 1 54 0
 399 0010 0360     		str	r3, [r0]
 400              		.loc 1 60 0
 401 0012 D377     		strb	r3, [r2, #31]
  61:..\u8g2\csrc/u8x8_setup.c ****     u8x8->utf8_state = 0;		/* also reset by u8x8_utf8_init */
 402              		.loc 1 61 0
 403 0014 021D     		adds	r2, r0, #4
 404 0016 D377     		strb	r3, [r2, #31]
  62:..\u8g2\csrc/u8x8_setup.c ****     u8x8->i2c_address = 255;
 405              		.loc 1 62 0
 406 0018 421C     		adds	r2, r0, #1
 407 001a FF33     		adds	r3, r3, #255
  63:..\u8g2\csrc/u8x8_setup.c ****     u8x8->debounce_default_pin_state = 255;	/* assume all low active buttons */
 408              		.loc 1 63 0
 409 001c 0630     		adds	r0, r0, #6
 410              	.LVL3:
  62:..\u8g2\csrc/u8x8_setup.c ****     u8x8->i2c_address = 255;
 411              		.loc 1 62 0
 412 001e D377     		strb	r3, [r2, #31]
  64:..\u8g2\csrc/u8x8_setup.c ****   
  65:..\u8g2\csrc/u8x8_setup.c **** #ifdef U8X8_USE_PINS 
  66:..\u8g2\csrc/u8x8_setup.c ****   {
  67:..\u8g2\csrc/u8x8_setup.c ****     uint8_t i;
  68:..\u8g2\csrc/u8x8_setup.c ****     for( i = 0; i < U8X8_PIN_CNT; i++ )
  69:..\u8g2\csrc/u8x8_setup.c ****       u8x8->pins[i] = U8X8_PIN_NONE;
  70:..\u8g2\csrc/u8x8_setup.c ****   }
  71:..\u8g2\csrc/u8x8_setup.c **** #endif
  72:..\u8g2\csrc/u8x8_setup.c **** }
 413              		.loc 1 72 0
 414              		@ sp needed
  63:..\u8g2\csrc/u8x8_setup.c ****     u8x8->debounce_default_pin_state = 255;	/* assume all low active buttons */
 415              		.loc 1 63 0
 416 0020 C377     		strb	r3, [r0, #31]
 417              		.loc 1 72 0
 418 0022 7047     		bx	lr
 419              	.L4:
 420              		.align	2
 421              	.L3:
 422 0024 00000000 		.word	u8x8_dummy_cb
ARM GAS  C:\Users\gjl\AppData\Local\Temp\ccn4tNxd.s 			page 28


 423              		.cfi_endproc
 424              	.LFE1:
 425              		.size	u8x8_SetupDefaults, .-u8x8_SetupDefaults
 426              		.section	.text.u8x8_Setup,"ax",%progbits
 427              		.align	1
 428              		.global	u8x8_Setup
 429              		.code	16
 430              		.thumb_func
 431              		.type	u8x8_Setup, %function
 432              	u8x8_Setup:
 433              	.LFB2:
  73:..\u8g2\csrc/u8x8_setup.c **** 
  74:..\u8g2\csrc/u8x8_setup.c **** 
  75:..\u8g2\csrc/u8x8_setup.c **** /*
  76:..\u8g2\csrc/u8x8_setup.c ****   Description:
  77:..\u8g2\csrc/u8x8_setup.c ****     Setup u8x8 and assign the callback function. The dummy 
  78:..\u8g2\csrc/u8x8_setup.c ****     callback "u8x8_dummy_cb" can be used, if no callback is required.
  79:..\u8g2\csrc/u8x8_setup.c ****     This setup will not communicate with the display itself.
  80:..\u8g2\csrc/u8x8_setup.c ****     Use u8x8_InitDisplay() to send the startup code to the Display.
  81:..\u8g2\csrc/u8x8_setup.c ****   Args:
  82:..\u8g2\csrc/u8x8_setup.c ****     u8x8				An empty u8x8 structure
  83:..\u8g2\csrc/u8x8_setup.c ****     display_cb			Display/controller specific callback function
  84:..\u8g2\csrc/u8x8_setup.c ****     cad_cb				Display controller specific communication callback function
  85:..\u8g2\csrc/u8x8_setup.c ****     byte_cb			Display controller/communication specific callback funtion
  86:..\u8g2\csrc/u8x8_setup.c ****     gpio_and_delay_cb	Environment specific callback function
  87:..\u8g2\csrc/u8x8_setup.c **** 
  88:..\u8g2\csrc/u8x8_setup.c **** */
  89:..\u8g2\csrc/u8x8_setup.c **** void u8x8_Setup(u8x8_t *u8x8, u8x8_msg_cb display_cb, u8x8_msg_cb cad_cb, u8x8_msg_cb byte_cb, u8x8
  90:..\u8g2\csrc/u8x8_setup.c **** {
 434              		.loc 1 90 0
 435              		.cfi_startproc
 436              		@ args = 4, pretend = 0, frame = 0
 437              		@ frame_needed = 0, uses_anonymous_args = 0
 438              	.LVL4:
 439 0000 F8B5     		push	{r3, r4, r5, r6, r7, lr}
 440              		.cfi_def_cfa_offset 24
 441              		.cfi_offset 3, -24
 442              		.cfi_offset 4, -20
 443              		.cfi_offset 5, -16
 444              		.cfi_offset 6, -12
 445              		.cfi_offset 7, -8
 446              		.cfi_offset 14, -4
 447              		.loc 1 90 0
 448 0002 0400     		movs	r4, r0
 449 0004 0F00     		movs	r7, r1
 450 0006 1600     		movs	r6, r2
 451 0008 1D00     		movs	r5, r3
  91:..\u8g2\csrc/u8x8_setup.c ****   /* setup defaults and reset pins to U8X8_PIN_NONE */
  92:..\u8g2\csrc/u8x8_setup.c ****   u8x8_SetupDefaults(u8x8);
 452              		.loc 1 92 0
 453 000a FFF7FEFF 		bl	u8x8_SetupDefaults
 454              	.LVL5:
  93:..\u8g2\csrc/u8x8_setup.c **** 
  94:..\u8g2\csrc/u8x8_setup.c ****   /* setup specific callbacks */
  95:..\u8g2\csrc/u8x8_setup.c ****   u8x8->display_cb = display_cb;
  96:..\u8g2\csrc/u8x8_setup.c ****   u8x8->cad_cb = cad_cb;
  97:..\u8g2\csrc/u8x8_setup.c ****   u8x8->byte_cb = byte_cb;
ARM GAS  C:\Users\gjl\AppData\Local\Temp\ccn4tNxd.s 			page 29


  98:..\u8g2\csrc/u8x8_setup.c ****   u8x8->gpio_and_delay_cb = gpio_and_delay_cb;
 455              		.loc 1 98 0
 456 000e 069B     		ldr	r3, [sp, #24]
  95:..\u8g2\csrc/u8x8_setup.c ****   u8x8->cad_cb = cad_cb;
 457              		.loc 1 95 0
 458 0010 A760     		str	r7, [r4, #8]
  96:..\u8g2\csrc/u8x8_setup.c ****   u8x8->byte_cb = byte_cb;
 459              		.loc 1 96 0
 460 0012 E660     		str	r6, [r4, #12]
  97:..\u8g2\csrc/u8x8_setup.c ****   u8x8->gpio_and_delay_cb = gpio_and_delay_cb;
 461              		.loc 1 97 0
 462 0014 2561     		str	r5, [r4, #16]
 463              		.loc 1 98 0
 464 0016 6361     		str	r3, [r4, #20]
  99:..\u8g2\csrc/u8x8_setup.c **** 
 100:..\u8g2\csrc/u8x8_setup.c ****   /* setup display info */
 101:..\u8g2\csrc/u8x8_setup.c ****   u8x8_SetupMemory(u8x8);
 465              		.loc 1 101 0
 466 0018 2000     		movs	r0, r4
 467 001a FFF7FEFF 		bl	u8x8_SetupMemory
 468              	.LVL6:
 102:..\u8g2\csrc/u8x8_setup.c **** }
 469              		.loc 1 102 0
 470              		@ sp needed
 471              	.LVL7:
 472              	.LVL8:
 473              	.LVL9:
 474              	.LVL10:
 475 001e F8BD     		pop	{r3, r4, r5, r6, r7, pc}
 476              		.cfi_endproc
 477              	.LFE2:
 478              		.size	u8x8_Setup, .-u8x8_Setup
 479              		.text
 480              	.Letext0:
 481              		.file 2 "c:\\program files (x86)\\cypress\\psoc creator\\4.1\\psoc creator\\import\\gnu\\arm\\5.4.
 482              		.file 3 "c:\\program files (x86)\\cypress\\psoc creator\\4.1\\psoc creator\\import\\gnu\\arm\\5.4.
 483              		.file 4 "..\\u8g2\\csrc\\u8x8.h"