ARM GAS  C:\Users\gjl\AppData\Local\Temp\cc2FiCXs.s 			page 1


   1              		.syntax unified
   2              		.cpu cortex-m0
   3              		.fpu softvfp
   4              		.eabi_attribute 20, 1
   5              		.eabi_attribute 21, 1
   6              		.eabi_attribute 23, 3
   7              		.eabi_attribute 24, 1
   8              		.eabi_attribute 25, 1
   9              		.eabi_attribute 26, 1
  10              		.eabi_attribute 30, 4
  11              		.eabi_attribute 34, 0
  12              		.eabi_attribute 18, 4
  13              		.thumb
  14              		.syntax unified
  15              		.file	"u8x8_u8toa.c"
  16              		.text
  17              	.Ltext0:
  18              		.section	.gnu.lto_.profile.1a3ede5,"",%progbits
  19 0000 789C6361 		.ascii	"x\234ca`d`a`\000\222\362\"\000\000\274\000>"
  19      60646061 
  19      600092F2 
  19      220000BC 
  19      003E
  20              		.text
  21              		.section	.gnu.lto_.icf.1a3ede5,"",%progbits
  22 0000 789C6361 		.ascii	"x\234ca`d\000\001I\006\004`aX\366\263{\007\037\343\273"
  22      60640001 
  22      49060460 
  22      6158F6B3 
  22      7B071FE3 
  23 0015 D3934FB2 		.ascii	"\323\223O\2621\365~\354\264d\336\373\360];+\003\000"
  23      31F57EEC 
  23      B464DEFB 
  23      F05D3B2B 
  23      0300
  24 0027 99100B8C 		.ascii	"\231\020\013\214"
  25              		.text
  26              		.section	.gnu.lto_.jmpfuncs.1a3ede5,"",%progbits
  27 0000 789C6361 		.ascii	"x\234ca`d\000\001S\006\004`b`bdd\256\257g\002Q\214\365"
  27      60640001 
  27      53060460 
  27      62606264 
  27      64AEAF67 
  28 0018 2C8C7F99 		.ascii	",\214\177\231\030w\356|s\233\275\376oCGC\203@+3C'3P"
  28      1877EE7C 
  28      739BBDFE 
  28      6F434743 
  28      83402B33 
  29 0030 1DE372C6 		.ascii	"\035\343r\306z\240\352J\260&\000_W\014["
  29      7AA0EA4A 
  29      B026005F 
  29      570C5B
  30              		.text
  31              		.section	.gnu.lto_.inline.1a3ede5,"",%progbits
  32 0000 789C6361 		.ascii	"x\234ca`d\000\001\033\006\004`b`\340\237\311\310\310"
  32      60640001 
  32      1B060460 
ARM GAS  C:\Users\gjl\AppData\Local\Temp\cc2FiCXs.s 			page 2


  32      6260E09F 
  32      C9C8C8
  33 0013 C024FE60 		.ascii	"\300$\376`\213\020\003{\207:\023D\224S\220\221\221\221"
  33      8B10037B 
  33      873A1344 
  33      94539091 
  33      9191
  34 0025 03A89E99 		.ascii	"\003\250\236\231\351\002?\003\333\002y&\006 \203\005"
  34      E9023F03 
  34      DB027926 
  34      06208305 
  35 0035 24C9C20B 		.ascii	"$\311\302\013R0\301\217\001\000\354#\007\016"
  35      5230C18F 
  35      0100EC23 
  35      070E
  36              		.text
  37              		.section	.gnu.lto_.pureconst.1a3ede5,"",%progbits
  38 0000 789C6361 		.ascii	"x\234ca`d`e```b\220b\222\000\000\000\355\000A"
  38      60646065 
  38      60606062 
  38      90629200 
  38      0000ED00 
  39              		.text
  40              		.section	.gnu.lto_u8x8_u8toap.1a3ede5,"",%progbits
  41 0000 789C6D54 		.ascii	"x\234mT\335k\\U\020\2379s?7\273\353\242\276\031!/!\204"
  41      DD6B5C55 
  41      109F3973 
  41      3F37BBEB 
  41      A2BE1921 
  42 0017 42280D6A 		.ascii	"B(\015j\320\027\237\374\003|n\021I\203\224R\372\221"
  42      D0179FFC 
  42      037C6E11 
  42      49839452 
  42      FA91
  43 0029 568A2F7B 		.ascii	"V\212/{\222\273\2735R\241\005\033\323\230\272\017\261"
  43      92BBBB35 
  43      52A1051B 
  43      D398BA0F 
  43      B1
  44 003a 2431FDD8 		.ascii	"$1\375\330m\332\264i\267\315\246\265\246\225\265E\361"
  44      6DDAB469 
  44      B7CDA6B5 
  44      A695B545 
  44      F1
  45 004b 23828A4D 		.ascii	"#\202\212M!hAi\322\250\030\255\353\31497\260B\016{\357"
  45      21684169 
  45      D2A818AD 
  45      EBCC3937 
  45      B0420E7B 
  46 0060 3D67CEFC 		.ascii	"=g\316\374f\346\367\233s\326\001\004\031\317\271\000"
  46      66E6F79B 
  46      73D60104 
  46      19CFB900 
  47 0070 1DFC7D8B 		.ascii	"\035\374}\213\037\014\001\325\221;\000}\201B\337N\010"
  47      1F0C01D5 
  47      913B007D 
  47      8142DF4E 
ARM GAS  C:\Users\gjl\AppData\Local\Temp\cc2FiCXs.s 			page 3


  47      08
  48 0081 5D3B71EC 		.ascii	"];q\354d.p\225sx\036@'\274\234\017:\351Y\317\271\300"
  48      642E7095 
  48      73781E40 
  48      27BC9C0F 
  48      3AE959CF 
  49 0097 57547B91 		.ascii	"WT{\221\315\301'O\2619@\024\263\016\020\262\212\034"
  49      CDC1274F 
  49      B1394014 
  49      B30E10B2 
  49      8A1C
  50 00a9 D7F303CC 		.ascii	"\327\363\003\314\222\017Xu\220\314K\262\273`\307\357"
  50      920F5875 
  50      90CC4BB2 
  50      BB60C7EF 
  51 00b9 EAB1C22F 		.ascii	"\352\261\302/r\245\021ZUy\002tx\271\374\371\360\375"
  51      72A5115A 
  51      55790274 
  51      78B9FCF9 
  51      F0FD
  52 00cb B42C115B 		.ascii	"\264,\021[x\371\201\376r\300o\037\323\272_\377\224\377"
  52      78F981FE 
  52      72C06F1F 
  52      D3BA5FFF 
  52      94FF
  53 00dd 267D7CBC 		.ascii	"&}|\274\352\344IA]\001\216c3\216a\2630\230\300v\366"
  53      EAE44941 
  53      5D018E63 
  53      338E61B3 
  53      3098C076 
  54 00f2 5DFBF0E6 		.ascii	"]\373\360\346\200G-\010</\256\036[\360\333N\012N\037"
  54      80472D08 
  54      3C2FAE1E 
  54      5BF0DB4E 
  54      0A4E1F
  55 0105 EDD1619E 		.ascii	"\355\321a\236\010?Fj\304\261\011p\022\333\330\2730z"
  55      083F466A 
  55      C4B10970 
  55      12DBD8BB 
  55      307A
  56 0117 E3AF14B5 		.ascii	"\343\257\024\265\032dmx\361D2F^\335\246)O\016\236\262"
  56      1A646D78 
  56      F1443246 
  56      5EDDA629 
  56      4F0E9EB2 
  57 012b C8CE66DC 		.ascii	"\310\316f\334,8\007\3604\266\211\363\235\261\223\357"
  57      2C3807F0 
  57      34B689F3 
  57      9DB193EF 
  58 013b 25A8CDA6 		.ascii	"%\250\315\246\034\274\274\020\266\216\012\260:\263\353"
  58      1CBCBC10 
  58      B68E0AB0 
  58      3AB3EB
  59 014a 7D5DED6B 		.ascii	"}]\355k\021\354\231F\254\014v\375\371\333\211\031\227"
  59      11EC9946 
  59      AC0C76FD 
  59      F9DB8919 
ARM GAS  C:\Users\gjl\AppData\Local\Temp\cc2FiCXs.s 			page 4


  59      97
  60 015b DA0DEC87 		.ascii	"\332\015\354\207\357\213\225D\014\233\336\246\243\227"
  60      EF8B9544 
  60      0C9BDEA6 
  60      A397
  61 0169 0554DA00 		.ascii	"\005T\332\000T\374\352\350G>m2\240\277\207\352\363n"
  61      54FCEAE8 
  61      473E6D32 
  61      A0BF87EA 
  61      F36E
  62 017b 0C3ABF0E 		.ascii	"\014:\277\016:\267\001h\261\374\357\261\224\227\323"
  62      3AB70168 
  62      B1FCEFB1 
  62      9497D3
  63 018a 3C5A700A 		.ascii	"<Zp\012[\261\314\317Yl\025\005Y\270\363\350\361\201"
  63      5BB1CCCF 
  63      596C1505 
  63      59B8F3E8 
  63      F181
  64 019c A0C69DB3 		.ascii	"\240\306\235\263\257Vu\275\036\351\352\224\373\013="
  64      AF5675BD 
  64      1EE9EA94 
  64      FB0B3D
  65 01ab 8986AA32 		.ascii	"\211\206\2522o\226\213\375\230<{z(\226\200\305\200\220"
  65      6F968BFD 
  65      983C7B7A 
  65      289680C5 
  65      8090
  66 01bd 5F6E0204 		.ascii	"_n\002\004\333d\374\222\306#\205\"nZd\316\030 \300C"
  66      DB64FC92 
  66      C6238522 
  66      6E5A64CE 
  66      1820C043 
  67 01d1 CE794AC1 		.ascii	"\316yJ\301\262R\374\241E\354\257^\331kJ\340]\256u0\177"
  67      B252FCA1 
  67      45ECAF5E 
  67      D96B4AE0 
  67      5DAE7530 
  68 01e6 FDAE2FAD 		.ascii	"\375\256/\255w8\353\005\323\331eE\220\363\215\353l\217"
  68      7738EB05 
  68      D3D96545 
  68      90F38DEB 
  68      6C8F
  69 01f8 712D1BD7 		.ascii	"q-\033\327\321\322x\201\254\353f\234f\327%\354_9\364"
  69      D1D27881 
  69      ACEB669C 
  69      66D725EC 
  69      5F39F4
  70 020b E9B42F3E 		.ascii	"\351\264/>\021\005\021\367v\011\243\021\317\256\303"
  70      110511F7 
  70      7609A311 
  70      CFAEC3
  71 021a C6E89E51 		.ascii	"\306\350\236Q0Z\233}\224\316>\326CZg\3306@V\257\333"
  71      305A9B7D 
  71      94CE3ED6 
  71      435A67D8 
  71      364056AF 
ARM GAS  C:\Users\gjl\AppData\Local\Temp\cc2FiCXs.s 			page 5


  72 022f C3933B8B 		.ascii	"\303\223;\213x\242\357\2101\373x\011\263xQJ\341\275"
  72      78A2EF88 
  72      31FB7809 
  72      B378514A 
  72      E1BD
  73 0241 FA837367 		.ascii	"\372\203sgB\013\321/I\234\031,\262zx\031\263\234RJX"
  73      420BD12F 
  73      499C192C 
  73      B27A7819 
  73      B39C524A 
  74 0256 7BA78636 		.ascii	"{\247\2066c\2421\243k2\3769\377\331\333I\211-\315x\201"
  74      63A231A3 
  74      6B32FE39 
  74      FFD9DB49 
  74      892DCD78 
  75 026b 75E12A43 		.ascii	"u\341*C\274\"\301\261\"\221\230\245\3564$YJ\016a\370"
  75      BC22C1B1 
  75      229198A5 
  75      EE342459 
  75      4A0E61F8 
  76 027f 3BC0D78E 		.ascii	";\300\327\216\230\313P\341\307Wl\354\246\210P\266\027"
  76      98CB50E1 
  76      C7576CEC 
  76      A68850B6 
  76      17
  77 0290 51196F96 		.ascii	"Q\031o\226\234\215\302w\260\260\364\274\365IF$\267\351"
  77      9C8DC277 
  77      B0B0F4BC 
  77      F5494624 
  77      B7E9
  78 02a2 C2A15A39 		.ascii	"\302\241Z9auB\274\312\251\3261e\311\2204\031\\\340+"
  78      617542BC 
  78      CAA9D631 
  78      65C99034 
  78      195CE02B 
  79 02b6 2B1267C0 		.ascii	"+\022g\300\232\035\260\013\023\027\341\036\346\276\213"
  79      9A1DB00B 
  79      1317E11E 
  79      E6BE8B
  80 02c5 C6EEC7C4 		.ascii	"\306\356\307\304\320\026\006+\3103%\313&\247\362.\256"
  80      D016062B 
  80      C83325CB 
  80      26A7F22E 
  80      AE
  81 02d6 A0237DA0 		.ascii	"\240#}\240\177&%\271S\333\305\201=i\235t\241\360\307"
  81      7F2625B9 
  81      53DBC581 
  81      3D699D74 
  81      A1F0C7
  82 02e9 3459743A 		.ascii	"4Yt:\242T\254\325\340\275\247\305\326\250\023m\254S"
  82      A254ACD5 
  82      E0BDA7C5 
  82      D6A8136D 
  82      AC53
  83 02fb C838BC66 		.ascii	"\3108\274ft\232e\235\244@\303\365\267\257\343vg\270"
  83      749A659D 
  83      A440C3F5 
ARM GAS  C:\Users\gjl\AppData\Local\Temp\cc2FiCXs.s 			page 6


  83      B7AFE376 
  83      67B8
  84 030d DDFF6337 		.ascii	"\335\377c7%42\206\235\017\2450&g\254\324HN\011\271\273"
  84      25343286 
  84      9D0FA530 
  84      2667ACD4 
  84      484E09B9 
  85 0322 51DA8621 		.ascii	"Q\332\206!N^)\036\236\210\005SX5g\220\251\252\210<>"
  85      4E5E291E 
  85      9E880553 
  85      58356790 
  85      A9AA883C 
  86 0337 32C4A157 		.ascii	"2\304\241W\370\177\214\317\246\272E\234\301[\3609E "
  86      F87F8CCF 
  86      A6BA459C 
  86      C15BF039 
  86      4520
  87 0349 A79919AD 		.ascii	"\247\231\031\255\226*\317\304\224\006F\216O\306\224"
  87      962ACFC4 
  87      9406468E 
  87      4FC694
  88 0358 246AED57 		.ascii	"$j\355W\326e\235\322\023\206Q\012\347\014\243\353\314"
  88      D6659DD2 
  88      1386510A 
  88      E70CA3EB 
  88      CC
  89 0369 A8518390 		.ascii	"\250Q\203\220\317\376\015\336y\300G\376\321\016[XJ\252"
  89      CFFE0DDE 
  89      79C047FE 
  89      D10E5B58 
  89      4AAA
  90 037b 78A890F3 		.ascii	"x\250\220\363\360\015z\266\243c+\377\016t\275\261ek"
  90      F00D7AB6 
  90      A3632BFF 
  90      0E74BDB1 
  90      656B
  91 038d 77EFBE6E 		.ascii	"w\357\276n\236\035\354z\355@\327\376\335\257wt\203\263"
  91      9E1DEC7A 
  91      ED40D7FE 
  91      DDAF7774 
  91      83B3
  92 039f BDA7773F 		.ascii	"\275\247w?\276\211\335\270\235\366\354\356\375\017{"
  92      BE89DDB8 
  92      9DF6ECEE 
  92      FD0F7B
  93 03ae 57AA42   		.ascii	"W\252B"
  94              		.text
  95              		.section	.gnu.lto_u8x8_u8toa_tab.1a3ede5,"",%progbits
  96 0000 789C6361 		.ascii	"x\234ca`d\000\201, \206\260\030\030\37621n9r\274\215"
  96      60640081 
  96      2C2086B0 
  96      1818FE32 
  96      316E3972 
  97 0016 E30B532B 		.ascii	"\343\013S+3\003##\220{\364\377\367\003\374 .##\023\220"
  97      33032323 
  97      907BF4FF 
  97      F703FC20 
ARM GAS  C:\Users\gjl\AppData\Local\Temp\cc2FiCXs.s 			page 7


  97      2E232313 
  98 002b FBF7C385 		.ascii	"\373\367\303\205\277<\020Y. \367\324\342o\207X!\334"
  98      BF3C1059 
  98      2E20F7D4 
  98      E26F8758 
  98      21DC
  99 003d 2720CD4D 		.ascii	"' \315M-O\1773[lk\350X\320`\320\312\314\304h(\303\270"
  99      2D4F7F33 
  99      5B6C6BE8 
  99      58D060D0 
  99      CACCC468 
 100 0054 8A5186D1 		.ascii	"\212Q\206\321H\206q%\220Z\001\304\313\031e\030\030W"
 100      48867125 
 100      905A01C4 
 100      CB196518 
 100      1857
 101 0066 335A3000 		.ascii	"3Z0\000\000\002\013$\373"
 101      00020B24 
 101      FB
 102              		.text
 103              		.section	.gnu.lto_u8x8_u8toa.1a3ede5,"",%progbits
 104 0000 789C6552 		.ascii	"x\234eR\317k\023Q\020\236\357\315fw-I\361\356\026\202"
 104      CF6B1351 
 104      109EEFCD 
 104      66772D49 
 104      F1EE1682 
 105 0014 22A19750 		.ascii	"\"\241\227P\364\222\277\303sE$\205\036\013j\213\267"
 105      F492BFC3 
 105      73452485 
 105      1E0B6A8B 
 105      B7
 106 0025 7DE97663 		.ascii	"}\351vcs\253\370\203\266\246T(\245I\177\330V\205\222"
 106      73ABF883 
 106      B6A65428 
 106      A5497FD8 
 106      568592
 107 0038 5B50F154 		.ascii	"[P\361T\025\305\342\301\203\022\241\224\342\241-\355"
 107      15C5E2C1 
 107      8312A194 
 107      E2A12DED 
 108 0048 A1428C33 		.ascii	"\241B\2143\033=H\037\373\366\315\314\3167\363\315\367"
 108      1B3D481F 
 108      FBF6CDCC 
 108      CE37F3CD 
 108      F7
 109 0059 D62190AE 		.ascii	"\326!\220\256\313\206\350\222\234\027d\203\011f\352"
 109      CB86E892 
 109      9C176483 
 109      0966EA
 110 0068 3D51C937 		.ascii	"=Q\3117\200\032\326\007\205\006!NL\333\340\343\304F"
 110      801AD607 
 110      8506214E 
 110      4CDBE0E3 
 110      C446
 111 007a 958F4D2C 		.ascii	"\225\217M,i\216\270\207\357f\177\364\252\013d\305}b"
 111      698EB887 
 111      EF667FF4 
ARM GAS  C:\Users\gjl\AppData\Local\Temp\cc2FiCXs.s 			page 8


 111      AA0B64C5 
 111      7D62
 112 008c 3F55BCFE 		.ascii	"?U\274\376%k\307\355\367\305o\2753\265\246\023\263\241"
 112      256BC7ED 
 112      F7C56FBD 
 112      33B5A613 
 112      B3A1
 113 009e 8E21D410 		.ascii	"\216!\324\020`\011\201\266\250\243_r\313\013\257O3\234"
 113      600981B6 
 113      A8A35F72 
 113      CB0BAF4F 
 113      339C
 114 00b0 0589BD3D 		.ascii	"\005\211\275=\333\232K\347\026\025g\357_\267\0343c\031"
 114      DB9A4BE7 
 114      161567EF 
 114      5FB71C33 
 114      6319
 115 00c2 ACB8AB01 		.ascii	"\254\270\253\001\006\002\222\000a\0059\311\335\373R"
 115      06029200 
 115      610539C9 
 115      DDFB52
 116 00d1 6FA4F862 		.ascii	"o\244\370b\202+\325\036\036\375\303m\375\305\255\236"
 116      822BD51E 
 116      1EFDC36D 
 116      FDC5AD9E 
 117 00e1 C1AD21A7 		.ascii	"\301\255!\247\311\255\315\337\2172\356\204\225\225\255"
 117      C9ADCDDF 
 117      8F32EE84 
 117      9595AD
 118 00f0 30292B21 		.ascii	"0)+!\363\014\256\250\000\011\254_k\332N'\262\315v\252"
 118      F30CAEA8 
 118      0009AC5F 
 118      6BDA4E27 
 118      B2CD76AA 
 119 0104 9E3E0728 		.ascii	"\236>\007(\316$h\007\332\333\225j\306\223\027\371j\021"
 119      CE246807 
 119      DADB956A 
 119      C69317F9 
 119      6A11
 120 0116 1DC85685 		.ascii	"\035\310V\205\016\215\321\223w\021M\227\337N\367h\315"
 120      0E8DD193 
 120      77114D97 
 120      DF4EF768 
 120      CD
 121 0127 8855AD4A 		.ascii	"\210U\255Juf\305Sy\030\214u\004\021\203Z0IS\251+I\264"
 121      7566C553 
 121      79188C75 
 121      0411835A 
 121      304953A9 
 122 013e 87B8F9A0 		.ascii	"\207\270\371\240\234\351b\\\3014\032?\277za\333NZ{>"
 122      9CE9625C 
 122      C1341A3F 
 122      BF7A61DB 
 122      4E5A7B3E 
 123 0152 66A76394 		.ascii	"f\247c\224\336\006B\035\341q\374\352CR/\225\214\377"
 123      DE06421D 
 123      E171FCEA 
ARM GAS  C:\Users\gjl\AppData\Local\Temp\cc2FiCXs.s 			page 9


 123      43522F95 
 123      8CFF
 124 0164 7F6A4A87 		.ascii	"\177jJ\207\322\360\376\366\316\233\236y\314\225l\022"
 124      D2F0FEF6 
 124      CE9B9E79 
 124      CC956C12 
 125 0174 77F15C6E 		.ascii	"w\361\\noS\265\227\217O\177\235\356\244\005\343k\221"
 125      6F53B597 
 125      8F4F7F9D 
 125      EEA405E3 
 125      6B91
 126 0186 17988776 		.ascii	"\027\230\207v&\274D\030\261\\\226G\273\030?\272w\314"
 126      26BC4418 
 126      B15C9647 
 126      BB183FBA 
 126      77CC
 127 0198 5D429E52 		.ascii	"]B\236R\224\271\252\345\317\350F|a)q\332\357\216!\001"
 127      94B9AAE5 
 127      CFE8467C 
 127      612971DA 
 127      EF8E2101 
 128 01ac FD850E84 		.ascii	"\375\205\016\204\245H \202\364\345\363\203\362\214\026"
 128      A5482082 
 128      F4E5F383 
 128      F28C16
 129 01bb 86AF0C16 		.ascii	"\206\257\014\026o\337*\212u\267pc\264pg\344f\276H\030"
 129      6FDF2A8A 
 129      75B77063 
 129      B47067E4 
 129      66BE4818 
 130 01cf C3D01FBB 		.ascii	"\303\320\037\273i\267\371"
 130      69B7F9
 131              		.text
 132              		.section	.gnu.lto_.symbol_nodes.1a3ede5,"",%progbits
 133 0000 789C6361 		.ascii	"x\234ca`d\260a\000\002&\306z\006\206\011\347\030\030"
 133      6064B061 
 133      000226C6 
 133      7A068609 
 133      E71818
 134 0013 80D4AE06 		.ascii	"\200\324\256\006E\006\006V\006\306\006!\006\006f&\246"
 134      45060656 
 134      06C60621 
 134      06066626 
 134      A6
 135 0024 7A465409 		.ascii	"zFT\011f\006\260\0043\023\003\303\243\007\377\030\031"
 135      6606B004 
 135      331303C3 
 135      A307FF18 
 135      19
 136 0035 005A640B 		.ascii	"\000Zd\013\266"
 136      B6
 137              		.text
 138              		.section	.gnu.lto_.refs.1a3ede5,"",%progbits
 139 0000 789C6361 		.ascii	"x\234ca`d\340f`\000\222L\214,\214LL\314\314\014\000"
 139      6064E066 
 139      6000924C 
 139      8C2C8C4C 
ARM GAS  C:\Users\gjl\AppData\Local\Temp\cc2FiCXs.s 			page 10


 139      4CCCCC0C 
 140 0015 017D0024 		.ascii	"\001}\000$"
 141              		.text
 142              		.section	.gnu.lto_.decls.1a3ede5,"",%progbits
 143 0000 789CBD54 		.ascii	"x\234\275TkL\\E\024\276\347\336+\273\275\345\321\220"
 143      6B4C5C45 
 143      14BEE7DE 
 143      2BBBBDE5 
 143      D190
 144 0012 FEE0C79A 		.ascii	"\376\340\307\232lj\232`\264\253h\265\033\377\2501\352"
 144      6C6A9A60 
 144      B4AB68B5 
 144      1BFFA831 
 144      EA
 145 0023 3F7FA9BF 		.ascii	"?\177\251\277n\262Y\226\0056\201\335\315>L11\016/\205"
 145      6EB25996 
 145      053681DD 
 145      CD3E4C31 
 145      310E2F85 
 146 0037 9236288D 		.ascii	"\2226(\215\017R\002\242\261  K\301Rji\227\026h\245P"
 146      0F5202A2 
 146      B120204B 
 146      C1526A69 
 146      971668A5 
 147 004c 17CA2E8F 		.ascii	"\027\312.\217V\241\3216\232\226B\265\246\226\210xf\346"
 147      56A1D136 
 147      9A9642B5 
 147      A6968878 
 147      66E6
 148 005e EEE3368B 		.ascii	"\356\3436\213\376sr\317\23593\347\361\3159g\216,\200"
 148      FE7372CF 
 148      9D3933E7 
 148      F1CD3967 
 148      8E2C80
 149 0071 40876C10 		.ascii	"@\207l\020\204\267\351\022i\023\207\214\31379+\364\011"
 149      84B7E912 
 149      6913878C 
 149      CB37392B 
 149      F409
 150 0083 7C884863 		.ascii	"|\210HcH\023\332z\012)&\350\007=W\220r\221v\"\235C:"
 150      4813DA7A 
 150      0A2926E8 
 150      073D5790 
 150      72917622 
 151 009a 8D740A69 		.ascii	"\215t\012i\016i\036)\2124\213\324\253\351\200\246\007"
 151      0E691E29 
 151      8A348BD4 
 151      ABE980A6 
 151      07
 152 00ab 69EC515E 		.ascii	"i\354Q^B2i\366\242\302\326\203\3422>\340\233\372]\320"
 152      423269F6 
 152      A2C2D683 
 152      E2323EE0 
 152      9BFA5DD0 
 153 00bf EE10421A 		.ascii	"\356\020B\032M\271\313D\212\337\251\007lm\2100]\023"
 153      4DB9CB44 
 153      8ADFA907 
ARM GAS  C:\Users\gjl\AppData\Local\Temp\cc2FiCXs.s 			page 11


 153      6C6D8830 
 153      5D13
 154 00d1 3A22DD15 		.ascii	":\"\335\025!W\001\031\331;S\315?e#\273S\0013\262g\177"
 154      21570119 
 154      D93B53CD 
 154      3F6523BB 
 154      530133B2 
 155 00e7 0B1DCDE4 		.ascii	"\013\035\315\344\247\022\262\253\367\332\353\215J\035"
 155      A712B2AB 
 155      F7DAEB8D 
 155      4A1D
 156 00f5 C1D1584D 		.ascii	"\301\321XMr/d\323\203\0160\301Q@\350\360\025`P\340\011"
 156      722F64D3 
 156      830E30C1 
 156      5140E8F0 
 156      156050E0 
 157 010a 1374228B 		.ascii	"\023t\"\213\342\321?\207\3273%\021p-\367W-}\226\015"
 157      E2D13F87 
 157      D7332511 
 157      702DF757 
 157      2D7D960D 
 158 011e F9264069 		.ascii	"\371&@iP\276d&\010\021\005\350\005\005\272@\212Cj&h"
 158      50BE6426 
 158      081105E8 
 158      0505BA40 
 158      8A436A26 
 159 0133 7EED5DBA 		.ascii	"~\355]\272\215k#\233q\247\212\254\265\223\214<\001\236"
 159      8D6B239B 
 159      71A78AAC 
 159      B5938C3C 
 159      019E
 160 0145 36C19326 		.ascii	"6\301\223&\001\272!\237\035\011\3605\032\354\341\376"
 160      01BA219F 
 160      1D09F035 
 160      1AECE1FE 
 161 0155 424DA161 		.ascii	"BM\241aCn#\263\035&/\000\263\235\204\027\202\3348H*"
 161      436E23B3 
 161      1D262F00 
 161      B39D8417 
 161      82DC3848 
 162 016a 3DF341CF 		.ascii	"=\363A\317\021C\346\001j[\273\014\012\244\210\367A&"
 162      1143E601 
 162      6A5BBB0C 
 162      0AA488F7 
 162      4126
 163 017c CB1BCE28 		.ascii	"\313\033\316(\035\251\031\0374^\201\005\300\353\200"
 163      1DA9191F 
 163      345E8105 
 163      C0EB80
 164 018b 9651E07F 		.ascii	"\226Q\340\177`$pb,.D\366\027\022[\211I\240\177\201\313"
 164      60247062 
 164      2C2E44F6 
 164      17125B89 
 164      49A07F81 
 165 01a0 B3BDA431 		.ascii	"\263\275\2441\366\305\347\315\370\340\365\232\260\016"
 165      F6C5E7CD 
 165      F8E0F59A 
ARM GAS  C:\Users\gjl\AppData\Local\Temp\cc2FiCXs.s 			page 12


 165      B00E
 166 01ae 9A122410 		.ascii	"\232\022$\020p-~.\306\255\362IL*\244\330\343pS0\201"
 166      702D7E2E 
 166      C6ADF249 
 166      4C2AA4D8 
 166      E3705330 
 167 01c3 FE4E102F 		.ascii	"\376N\020/\216\321\305\271vQ2\320\004\302\322\375\216"
 167      8ED1C5B9 
 167      765132D0 
 167      04C2D2FD 
 167      8E
 168 01d4 572CDDF1 		.ascii	"W,\335\361\274=\226\254\240\336\332\237;\215X#&\005"
 168      BC3D96AC 
 168      A0DEDA9F 
 168      3B8D5823 
 168      2605
 169 01e6 3681F2B7 		.ascii	"6\201\362\267\206\356gq\236\036\017\204\177\357\221"
 169      86EE6771 
 169      9E1E0F84 
 169      7FEF91
 170 01f5 25135D8B 		.ascii	"%\023]\213\323\375\013c\333 \237\247\177\271\345\217"
 170      D3FD0B63 
 170      DB209FA7 
 170      7FB9E58F 
 171 0205 17AB0901 		.ascii	"\027\253\011\001\030\302,\015\202\004\003`\241\316M"
 171      18C22C0D 
 171      82040360 
 171      A1CE4D
 172 0214 343F6952 		.ascii	"4?iR~\002S\2166\251\024\034\307,}\303\223\336\331\332"
 172      7E02538E 
 172      36A9141C 
 172      C72C7DC3 
 172      93DED9DA 
 173 0228 319A2575 		.ascii	"1\232%u\002s\260r\370f\235\224pp\271\301\324E\310\016"
 173      0273B072 
 173      F8669D94 
 173      7070B9C1 
 173      D445C80E 
 174 023c 38850E4E 		.ascii	"8\205\016N&\035\014\301\026\036\276M\357\341\332\352"
 174      261D0CC1 
 174      161EBE4D 
 174      EFE1DAEA 
 175 024c F0A70619 		.ascii	"\360\247\006\031\337\0223T(\323\275\246\276/\352\037"
 175      DF123354 
 175      28D3BDA6 
 175      BE2FEA1F 
 176 025c D2158FBE 		.ascii	"\322\025\217\276\326N\363\342A\311\332\367W\257\213"
 176      D64EF3E2 
 176      41C9DAF7 
 176      57AF8B
 177 026b 4C1BF760 		.ascii	"L\033\367`\030\230\372\330\346\275p\016\177W\"-\305"
 177      1898FAD8 
 177      E6BD700E 
 177      7F57222D 
 177      C5
 178 027c B5C996ED 		.ascii	"\265\311\226\355\374\325\355@v\361\374dM\206\242\001"
 178      FCD5ED40 
ARM GAS  C:\Users\gjl\AppData\Local\Temp\cc2FiCXs.s 			page 13


 178      76F1FC64 
 178      4D86A201 
 179 028c 6CFCAFAA 		.ascii	"l\374\257\252\277\331u#\226\255\203rV\007\345\\\002"
 179      BFD97523 
 179      96AD8372 
 179      5607E55C 
 179      02
 180 029d CAD5F73A 		.ascii	"\312\325\367:k\245\274\217hlH51\213\364\010FP0\314\004"
 180      6BA5BC8F 
 180      686C4835 
 180      318BF408 
 180      465030CC 
 181 02b2 47210FFF 		.ascii	"G!\017\377g@\346\322\343\015\007^\336\325F\226Cd\271"
 181      6740E6D2 
 181      E30D075E 
 181      DED54696 
 181      4364B9
 182 02c5 AFE9F196 		.ascii	"\257\351\361\226c\204\324\242\236L\305\240?\031\315"
 182      6384D4A2 
 182      9E4CC5A0 
 182      3F19CD
 183 02d4 7EF676E1 		.ascii	"~\366v\341\030\\\301\"\032\203]\250\331p\355\223\221"
 183      185CC122 
 183      1A835DA8 
 183      D970ED93 
 183      91
 184 02e5 6C699C3D 		.ascii	"li\234=\374\264\321\213\255\327\177('\366\316k1\211"
 184      FCB4D18B 
 184      ADD77F28 
 184      27F6CE6B 
 184      3189
 185 02f7 54A1E92D 		.ascii	"T\241\351-\321}\307\320]\210\243\213\305\016>\217\350"
 185      D17DC7D0 
 185      5D88A38B 
 185      C50E3E8F 
 185      E8
 186 0308 DA4224BC 		.ascii	"\332B$\274\356\324\220\241\010\214'\221\215\247\"\233"
 186      EED490A1 
 186      088C2791 
 186      8DA7229B 
 187 0318 60C80EDD 		.ascii	"`\310\016\335>\0305H\323\034Y\327\335\215\213\262\264"
 187      3E183548 
 187      D31C59D7 
 187      DD8D8BB2 
 187      B4
 188 0329 C899BFBA 		.ascii	"\310\231\277\272\333\3722v\177N\302m$\274\371N%\011"
 188      DBFA3276 
 188      7F4EC26D 
 188      24BCF94E 
 188      2509
 189 033b 579A593F 		.ascii	"W\232Y?\230D{\250\233\022\317\213\324,L\301n\332\020"
 189      98447BA8 
 189      9B12CF8B 
 189      D42C4CC1 
 189      6EDA10
 190 034e 37062764 		.ascii	"7\006'd\351Gn\342v\315\365e-\213y\310~\274\026\231Q"
 190      E9476EE2 
ARM GAS  C:\Users\gjl\AppData\Local\Temp\cc2FiCXs.s 			page 14


 190      76CDF565 
 190      2D8B79C8 
 190      7EBC1699 
 191 0363 B66E9691 		.ascii	"\266n\226\221x\263\014\3634\236h\275\024V\264\346Eh"
 191      78B30CF3 
 191      349E68BD 
 191      1456B4E6 
 191      4568
 192 0375 F3C24AFC 		.ascii	"\363\302J\374\036x/\025`\232\365\256H\274w\325U\015"
 192      1E782F15 
 192      609AF5AE 
 192      48BC77D5 
 192      550D
 193 0387 FD9D23AD 		.ascii	"\375\235#\255p\277KsC\0211?\245\245\242\346L\262\243"
 193      70BF4B73 
 193      4311313F 
 193      A5A5A2E6 
 193      4CB2A3
 194 039a A2C48DE6 		.ascii	"\242\304\215\346\221\303\220\256\240.\247\257\370\223"
 194      91C390AE 
 194      A02EA7AF 
 194      F893
 195 03a8 BF1C3F24 		.ascii	"\277\034?$\247b\231\205\177\0013\325\022\033\310\301"
 195      A7629985 
 195      7F0133D5 
 195      121BC8C1 
 196 03b8 D0453074 		.ascii	"\320E0t\255w\000c\007\020\305\320]\342\251HQ\244;\257"
 196      AD770063 
 196      0710C5D0 
 196      5DE2A948 
 196      51A43BAF 
 197 03cc 23C0180B 		.ascii	"#\300\030\013\336\017\255W\037\321\325\355\254\256n"
 197      DE0FAD57 
 197      1FD1D5ED 
 197      ACAE6E
 198 03db E7B4FE3B 		.ascii	"\347\264\376;\307\372o\373\312\257u\212N:\252\353\326"
 198      C7FA6FFB 
 198      CAAF758A 
 198      4E3AAAEB 
 198      D6
 199 03ec F39AF43C 		.ascii	"\363\232\364<\223>C\206o\351\245i\325&\245\0274i:\313"
 199      933E4386 
 199      6FE9A569 
 199      D526A517 
 199      34693ACB 
 200 0400 8E52BB6F 		.ascii	"\216R\273o{\320\272\337j\013Z\003\036\273\327\370\352"
 200      7BD0BADF 
 200      6A0B5A03 
 200      1EBBD7F8 
 200      EA
 201 0411 6B6F985F 		.ascii	"ko\230_*(\020\266\331lA\227;`\265\005*\301\361\234\352"
 201      2A2810B6 
 201      D96C4197 
 201      3B60B505 
 201      2AC1F19C 
 202 0426 F5794A7C 		.ascii	"\365yJ|\366rs\261\253\314\3517\347\357\267>\373\250"
 202      F67273B1 
ARM GAS  C:\Users\gjl\AppData\Local\Temp\cc2FiCXs.s 			page 15


 202      ABCCE937 
 202      E7EFB73E 
 202      FBA8
 203 0438 EAA8F0FA 		.ascii	"\352\250\360\372\234~\277\352\365{\034f\207\317i\017"
 203      9C7EBFEA 
 203      F57B1C66 
 203      87CF690F 
 204 0448 787CEA5E 		.ascii	"x|\352^K\201~\303U\356\365\370\002j\211;\250\332}\345"
 204      4B817EC3 
 204      55EEF5F8 
 204      026A893B 
 204      A8DA7DE5 
 205 045c EA33162A 		.ascii	"\3523\026*\201\253=n\217\333\271\307i/t\251.\267\243"
 205      81AB3D6E 
 205      8FDBB9C7 
 205      692F74A9 
 205      2EB7A3
 206 046f 2C58E454 		.ascii	",X\344T\313\355\216R\227\333\251\332\212\234\305\366"
 206      CBED8E52 
 206      97DBA9DA 
 206      8A9CC5F6 
 207 047f 6059C016 		.ascii	"`Y\300\026\250\360:\375\226R\301\240Ay\353\377B\342"
 207      A8F03AFD 
 207      9652C1A0 
 207      4179EBFF 
 207      42E2
 208 0491 AFF0AB36 		.ascii	"\257\360\2536\177\240\010\335\242\373\207-\026\025\277"
 208      7FA008DD 
 208      A2FB872D 
 208      1615BF
 209 04a0 A0B5E429 		.ascii	"\240\265\344)\325\341\3679\324d\300,\016AIr\306\302"
 209      D5E1F739 
 209      D464C02C 
 209      0E414972 
 209      C6C2
 210 04b2 60B165AF 		.ascii	"`\261e\257u\337>\011\027\331\311}[\300^\230\025t\373"
 210      75DF3E09 
 210      17D9C97D 
 210      5BC05E98 
 210      1574FB
 211 04c5 5D256E67 		.ascii	"]%ng\221\231\306\374\037Y\245\200\307"
 211      9199C6FC 
 211      1F59A580 
 211      C7
 212              		.text
 213              		.section	.gnu.lto_.symtab.1a3ede5,"",%progbits
 214 0000 75387838 		.ascii	"u8x8_u8toap\000"
 214      5F753874 
 214      6F617000 
 215 000c 00       		.ascii	"\000"
 216 000d 00       		.ascii	"\000"
 217 000e 00       		.ascii	"\000"
 218 000f 00000000 		.ascii	"\000\000\000\000\000\000\000\000"
 218      00000000 
 219 0017 C5000000 		.ascii	"\305\000\000\000"
 220 001b 75387838 		.ascii	"u8x8_u8toa\000"
 220      5F753874 
ARM GAS  C:\Users\gjl\AppData\Local\Temp\cc2FiCXs.s 			page 16


 220      6F6100
 221 0026 00       		.ascii	"\000"
 222 0027 00       		.ascii	"\000"
 223 0028 00       		.ascii	"\000"
 224 0029 00000000 		.ascii	"\000\000\000\000\000\000\000\000"
 224      00000000 
 225 0031 CA000000 		.ascii	"\312\000\000\000"
 226              		.text
 227              		.section	.gnu.lto_.opts,"",%progbits
 228 0000 272D666D 		.ascii	"'-fmath-errno' '-fsigned-zeros' '-ftrapping-math' '"
 228      6174682D 
 228      6572726E 
 228      6F272027 
 228      2D667369 
 229 0033 2D666E6F 		.ascii	"-fno-trapv' '-fno-openmp' '-fno-openacc' '-mcpu=cor"
 229      2D747261 
 229      70762720 
 229      272D666E 
 229      6F2D6F70 
 230 0066 7465782D 		.ascii	"tex-m0' '-mthumb' '-g' '-Os' '-ffunction-sections' "
 230      6D302720 
 230      272D6D74 
 230      68756D62 
 230      2720272D 
 231 0099 272D6666 		.ascii	"'-ffat-lto-objects' '-flto'\000"
 231      61742D6C 
 231      746F2D6F 
 231      626A6563 
 231      74732720 
 232              		.text
 233              		.cfi_sections	.debug_frame
 234              		.section	.text.u8x8_u8toap,"ax",%progbits
 235              		.align	1
 236              		.global	u8x8_u8toap
 237              		.code	16
 238              		.thumb_func
 239              		.type	u8x8_u8toap, %function
 240              	u8x8_u8toap:
 241              	.LFB0:
 242              		.file 1 "..\\..\\u8g2\\csrc\\u8x8_u8toa.c"
   1:..\..\u8g2\csrc/u8x8_u8toa.c **** /*
   2:..\..\u8g2\csrc/u8x8_u8toa.c **** 
   3:..\..\u8g2\csrc/u8x8_u8toa.c ****   u8x8_u8toa.c
   4:..\..\u8g2\csrc/u8x8_u8toa.c **** 
   5:..\..\u8g2\csrc/u8x8_u8toa.c ****   Universal 8bit Graphics Library (https://github.com/olikraus/u8g2/)
   6:..\..\u8g2\csrc/u8x8_u8toa.c **** 
   7:..\..\u8g2\csrc/u8x8_u8toa.c ****   Copyright (c) 2016, olikraus@gmail.com
   8:..\..\u8g2\csrc/u8x8_u8toa.c ****   All rights reserved.
   9:..\..\u8g2\csrc/u8x8_u8toa.c **** 
  10:..\..\u8g2\csrc/u8x8_u8toa.c ****   Redistribution and use in source and binary forms, with or without modification, 
  11:..\..\u8g2\csrc/u8x8_u8toa.c ****   are permitted provided that the following conditions are met:
  12:..\..\u8g2\csrc/u8x8_u8toa.c **** 
  13:..\..\u8g2\csrc/u8x8_u8toa.c ****   * Redistributions of source code must retain the above copyright notice, this list 
  14:..\..\u8g2\csrc/u8x8_u8toa.c ****     of conditions and the following disclaimer.
  15:..\..\u8g2\csrc/u8x8_u8toa.c ****     
  16:..\..\u8g2\csrc/u8x8_u8toa.c ****   * Redistributions in binary form must reproduce the above copyright notice, this 
  17:..\..\u8g2\csrc/u8x8_u8toa.c ****     list of conditions and the following disclaimer in the documentation and/or other 
ARM GAS  C:\Users\gjl\AppData\Local\Temp\cc2FiCXs.s 			page 17


  18:..\..\u8g2\csrc/u8x8_u8toa.c ****     materials provided with the distribution.
  19:..\..\u8g2\csrc/u8x8_u8toa.c **** 
  20:..\..\u8g2\csrc/u8x8_u8toa.c ****   THIS SOFTWARE IS PROVIDED BY THE COPYRIGHT HOLDERS AND 
  21:..\..\u8g2\csrc/u8x8_u8toa.c ****   CONTRIBUTORS "AS IS" AND ANY EXPRESS OR IMPLIED WARRANTIES, 
  22:..\..\u8g2\csrc/u8x8_u8toa.c ****   INCLUDING, BUT NOT LIMITED TO, THE IMPLIED WARRANTIES OF 
  23:..\..\u8g2\csrc/u8x8_u8toa.c ****   MERCHANTABILITY AND FITNESS FOR A PARTICULAR PURPOSE ARE 
  24:..\..\u8g2\csrc/u8x8_u8toa.c ****   DISCLAIMED. IN NO EVENT SHALL THE COPYRIGHT HOLDER OR 
  25:..\..\u8g2\csrc/u8x8_u8toa.c ****   CONTRIBUTORS BE LIABLE FOR ANY DIRECT, INDIRECT, INCIDENTAL, 
  26:..\..\u8g2\csrc/u8x8_u8toa.c ****   SPECIAL, EXEMPLARY, OR CONSEQUENTIAL DAMAGES (INCLUDING, BUT 
  27:..\..\u8g2\csrc/u8x8_u8toa.c ****   NOT LIMITED TO, PROCUREMENT OF SUBSTITUTE GOODS OR SERVICES; 
  28:..\..\u8g2\csrc/u8x8_u8toa.c ****   LOSS OF USE, DATA, OR PROFITS; OR BUSINESS INTERRUPTION) HOWEVER 
  29:..\..\u8g2\csrc/u8x8_u8toa.c ****   CAUSED AND ON ANY THEORY OF LIABILITY, WHETHER IN CONTRACT, 
  30:..\..\u8g2\csrc/u8x8_u8toa.c ****   STRICT LIABILITY, OR TORT (INCLUDING NEGLIGENCE OR OTHERWISE) 
  31:..\..\u8g2\csrc/u8x8_u8toa.c ****   ARISING IN ANY WAY OUT OF THE USE OF THIS SOFTWARE, EVEN IF 
  32:..\..\u8g2\csrc/u8x8_u8toa.c ****   ADVISED OF THE POSSIBILITY OF SUCH DAMAGE.  
  33:..\..\u8g2\csrc/u8x8_u8toa.c ****   
  34:..\..\u8g2\csrc/u8x8_u8toa.c **** */
  35:..\..\u8g2\csrc/u8x8_u8toa.c **** 
  36:..\..\u8g2\csrc/u8x8_u8toa.c **** 
  37:..\..\u8g2\csrc/u8x8_u8toa.c **** #include "u8x8.h"
  38:..\..\u8g2\csrc/u8x8_u8toa.c **** 
  39:..\..\u8g2\csrc/u8x8_u8toa.c **** static const unsigned char u8x8_u8toa_tab[3]  = { 100, 10, 1 } ;
  40:..\..\u8g2\csrc/u8x8_u8toa.c **** const char *u8x8_u8toap(char * dest, uint8_t v)
  41:..\..\u8g2\csrc/u8x8_u8toa.c **** {
 243              		.loc 1 41 0
 244              		.cfi_startproc
 245              		@ args = 0, pretend = 0, frame = 0
 246              		@ frame_needed = 0, uses_anonymous_args = 0
 247              	.LVL0:
 248 0000 0023     		movs	r3, #0
 249 0002 30B5     		push	{r4, r5, lr}
 250              		.cfi_def_cfa_offset 12
 251              		.cfi_offset 4, -12
 252              		.cfi_offset 5, -8
 253              		.cfi_offset 14, -4
  42:..\..\u8g2\csrc/u8x8_u8toa.c ****   uint8_t pos;
  43:..\..\u8g2\csrc/u8x8_u8toa.c ****   uint8_t d;
  44:..\..\u8g2\csrc/u8x8_u8toa.c ****   uint8_t c;
  45:..\..\u8g2\csrc/u8x8_u8toa.c ****   for( pos = 0; pos < 3; pos++ )
  46:..\..\u8g2\csrc/u8x8_u8toa.c ****   {
  47:..\..\u8g2\csrc/u8x8_u8toa.c ****       d = '0';
  48:..\..\u8g2\csrc/u8x8_u8toa.c ****       c = *(u8x8_u8toa_tab+pos);
 254              		.loc 1 48 0
 255 0004 084D     		ldr	r5, .L8
 256              	.LVL1:
 257              	.L4:
  47:..\..\u8g2\csrc/u8x8_u8toa.c ****       c = *(u8x8_u8toa_tab+pos);
 258              		.loc 1 47 0
 259 0006 3022     		movs	r2, #48
 260              		.loc 1 48 0
 261 0008 5C5D     		ldrb	r4, [r3, r5]
 262              	.LVL2:
 263              	.L2:
  49:..\..\u8g2\csrc/u8x8_u8toa.c ****       while( v >= c )
 264              		.loc 1 49 0
 265 000a A142     		cmp	r1, r4
 266 000c 04D3     		bcc	.L7
ARM GAS  C:\Users\gjl\AppData\Local\Temp\cc2FiCXs.s 			page 18


  50:..\..\u8g2\csrc/u8x8_u8toa.c ****       {
  51:..\..\u8g2\csrc/u8x8_u8toa.c **** 	v -= c;
 267              		.loc 1 51 0
 268 000e 091B     		subs	r1, r1, r4
 269              	.LVL3:
  52:..\..\u8g2\csrc/u8x8_u8toa.c **** 	d++;
 270              		.loc 1 52 0
 271 0010 0132     		adds	r2, r2, #1
 272              	.LVL4:
  51:..\..\u8g2\csrc/u8x8_u8toa.c **** 	d++;
 273              		.loc 1 51 0
 274 0012 C9B2     		uxtb	r1, r1
 275              	.LVL5:
 276              		.loc 1 52 0
 277 0014 D2B2     		uxtb	r2, r2
 278              	.LVL6:
 279 0016 F8E7     		b	.L2
 280              	.L7:
  53:..\..\u8g2\csrc/u8x8_u8toa.c ****       }
  54:..\..\u8g2\csrc/u8x8_u8toa.c ****       dest[pos] = d;
 281              		.loc 1 54 0 discriminator 2
 282 0018 C254     		strb	r2, [r0, r3]
 283              	.LVL7:
 284 001a 0133     		adds	r3, r3, #1
 285              	.LVL8:
  45:..\..\u8g2\csrc/u8x8_u8toa.c ****   {
 286              		.loc 1 45 0 discriminator 2
 287 001c 032B     		cmp	r3, #3
 288 001e F2D1     		bne	.L4
  55:..\..\u8g2\csrc/u8x8_u8toa.c ****   }  
  56:..\..\u8g2\csrc/u8x8_u8toa.c ****   dest[3] = '\0';
 289              		.loc 1 56 0
 290 0020 0023     		movs	r3, #0
  57:..\..\u8g2\csrc/u8x8_u8toa.c ****   return dest;
  58:..\..\u8g2\csrc/u8x8_u8toa.c **** }
 291              		.loc 1 58 0
 292              		@ sp needed
  56:..\..\u8g2\csrc/u8x8_u8toa.c ****   return dest;
 293              		.loc 1 56 0
 294 0022 C370     		strb	r3, [r0, #3]
 295              	.LVL9:
 296              		.loc 1 58 0
 297 0024 30BD     		pop	{r4, r5, pc}
 298              	.L9:
 299 0026 C046     		.align	2
 300              	.L8:
 301 0028 00000000 		.word	.LANCHOR0
 302              		.cfi_endproc
 303              	.LFE0:
 304              		.size	u8x8_u8toap, .-u8x8_u8toap
 305              		.section	.text.u8x8_u8toa,"ax",%progbits
 306              		.align	1
 307              		.global	u8x8_u8toa
 308              		.code	16
 309              		.thumb_func
 310              		.type	u8x8_u8toa, %function
 311              	u8x8_u8toa:
ARM GAS  C:\Users\gjl\AppData\Local\Temp\cc2FiCXs.s 			page 19


 312              	.LFB1:
  59:..\..\u8g2\csrc/u8x8_u8toa.c **** 
  60:..\..\u8g2\csrc/u8x8_u8toa.c **** /* v = value, d = number of digits */
  61:..\..\u8g2\csrc/u8x8_u8toa.c **** const char *u8x8_u8toa(uint8_t v, uint8_t d)
  62:..\..\u8g2\csrc/u8x8_u8toa.c **** {
 313              		.loc 1 62 0
 314              		.cfi_startproc
 315              		@ args = 0, pretend = 0, frame = 0
 316              		@ frame_needed = 0, uses_anonymous_args = 0
 317              	.LVL10:
 318 0000 10B5     		push	{r4, lr}
 319              		.cfi_def_cfa_offset 8
 320              		.cfi_offset 4, -8
 321              		.cfi_offset 14, -4
 322              		.loc 1 62 0
 323 0002 0C00     		movs	r4, r1
 324              	.LVL11:
  63:..\..\u8g2\csrc/u8x8_u8toa.c ****   static char buf[4];
  64:..\..\u8g2\csrc/u8x8_u8toa.c ****   d = 3-d;
  65:..\..\u8g2\csrc/u8x8_u8toa.c ****   return u8x8_u8toap(buf, v) + d;
 325              		.loc 1 65 0
 326 0004 0100     		movs	r1, r0
 327 0006 0448     		ldr	r0, .L11
 328              	.LVL12:
 329 0008 FFF7FEFF 		bl	u8x8_u8toap
 330              	.LVL13:
 331 000c 0321     		movs	r1, #3
 332 000e 091B     		subs	r1, r1, r4
 333 0010 C9B2     		uxtb	r1, r1
 334 0012 4018     		adds	r0, r0, r1
  66:..\..\u8g2\csrc/u8x8_u8toa.c **** }
 335              		.loc 1 66 0
 336              		@ sp needed
 337              	.LVL14:
 338 0014 10BD     		pop	{r4, pc}
 339              	.L12:
 340 0016 C046     		.align	2
 341              	.L11:
 342 0018 00000000 		.word	.LANCHOR1
 343              		.cfi_endproc
 344              	.LFE1:
 345              		.size	u8x8_u8toa, .-u8x8_u8toa
 346              		.section	.rodata
 347              		.set	.LANCHOR0,. + 0
 348              		.type	u8x8_u8toa_tab, %object
 349              		.size	u8x8_u8toa_tab, 3
 350              	u8x8_u8toa_tab:
 351 0000 64       		.byte	100
 352 0001 0A       		.byte	10
 353 0002 01       		.byte	1
 354              		.bss
 355              		.set	.LANCHOR1,. + 0
 356              		.type	buf.4877, %object
 357              		.size	buf.4877, 4
 358              	buf.4877:
 359 0000 00000000 		.space	4
 360              		.text
ARM GAS  C:\Users\gjl\AppData\Local\Temp\cc2FiCXs.s 			page 20


 361              	.Letext0:
 362              		.file 2 "c:\\program files (x86)\\cypress\\psoc creator\\4.1\\psoc creator\\import\\gnu\\arm\\5.4.
 363              		.file 3 "c:\\program files (x86)\\cypress\\psoc creator\\4.1\\psoc creator\\import\\gnu\\arm\\5.4.