ARM GAS  C:\Users\gjl\AppData\Local\Temp\ccl60RTN.s 			page 1


   1              		.syntax unified
   2              		.cpu cortex-m0
   3              		.fpu softvfp
   4              		.eabi_attribute 20, 1
   5              		.eabi_attribute 21, 1
   6              		.eabi_attribute 23, 3
   7              		.eabi_attribute 24, 1
   8              		.eabi_attribute 25, 1
   9              		.eabi_attribute 26, 1
  10              		.eabi_attribute 30, 4
  11              		.eabi_attribute 34, 0
  12              		.eabi_attribute 18, 4
  13              		.thumb
  14              		.syntax unified
  15              		.file	"u8x8_input_value.c"
  16              		.text
  17              	.Ltext0:
  18              		.section	.gnu.lto_.profile.1a3eed8,"",%progbits
  19 0000 789C6361 		.ascii	"x\234ca`d`e`\000\222/\0303\001\003\241\001^"
  19      60646065 
  19      6000922F 
  19      18330103 
  19      A1015E
  20              		.text
  21              		.section	.gnu.lto_.icf.1a3eed8,"",%progbits
  22 0000 789C6361 		.ascii	"x\234ca`d\000\001\016\006\004`d\230\360e\341[>\006\000"
  22      60640001 
  22      0E060460 
  22      6498F065 
  22      E15B3E06 
  23 0015 0ED9032F 		.ascii	"\016\331\003/"
  24              		.text
  25              		.section	.gnu.lto_.jmpfuncs.1a3eed8,"",%progbits
  26 0000 789C6361 		.ascii	"x\234ca`d\000\201\227\014\010\300\310\300\301\010\005"
  26      60640081 
  26      970C08C0 
  26      C8C0C108 
  26      05
  27 0011 FF19EB99 		.ascii	"\377\031\353\231\230\352\201\200\211\203\251\222\001"
  27      98EA8180 
  27      8983A992 
  27      01
  28 001e 19B00031 		.ascii	"\031\260\0001S%\033\220\304-\303\004\221!R+S%;\246\020"
  28      53251B90 
  28      C42DC304 
  28      9121522B 
  28      53253BA6 
  29 0033 1390E402 		.ascii	"\023\220\344\002\01112\376`\374\313\3048\255\365\320"
  29      093132FE 
  29      60FCCBC4 
  29      38ADF5D0 
  30 0043 79F62F4C 		.ascii	"y\366/L\255\314@W2.g\224\001\212\203H\270zF\204\265"
  30      ADCC4057 
  30      322E6794 
  30      018A8348 
  30      B87A4684 
  31 0058 2C100A62 		.ascii	",\020\012b,\234\303\004Q\300\010R\010\000\352\225\025"
ARM GAS  C:\Users\gjl\AppData\Local\Temp\ccl60RTN.s 			page 2


  31      2C9CC304 
  31      51C00852 
  31      0800EA95 
  31      15
  32 0069 CD       		.ascii	"\315"
  33              		.text
  34              		.section	.gnu.lto_.inline.1a3eed8,"",%progbits
  35 0000 789C554E 		.ascii	"x\234UN\301\015\302@\014\263\357\322\026\211^\257\023"
  35      C10DC240 
  35      0CB3EFD2 
  35      16895EAF 
  35      13
  36 0011 74A3E6C1 		.ascii	"t\243\346\301b\344[\261\011\033\360\357\223\001\220"
  36      62E45BB1 
  36      091BF0EF 
  36      930190
  37 0020 F8300297 		.ascii	"\3700\002\227\236T\212-E\261\235(\021\020\216;~(\316"
  37      9E548A2D 
  37      45B19D28 
  37      11108E3B 
  37      7E28CE
  38 0033 1B4F21E3 		.ascii	"\033O!\343\211\210\220\371\366\030\221\256\227\000\276"
  38      898890F9 
  38      F61891AE 
  38      9700BE
  39 0042 3AA9D5E7 		.ascii	":\251\325\347\232\201\220er\232J\"\202\3512m\356\232"
  39      9A819065 
  39      729A4A22 
  39      82E9326D 
  39      EE9A
  40 0054 9DBBBBE6 		.ascii	"\235\273\273\346\330\023\374\264\315\000\210i\245$x"
  40      D813FCB4 
  40      CD008869 
  40      A52478
  41 0063 68FAE7B6 		.ascii	"h\372\347\266\371 \272\261\2341EU\341\\\236;\354\355"
  41      F920BAB1 
  41      9C314555 
  41      E15C9E3B 
  41      ECED
  42 0075 4DECB700 		.ascii	"M\354\267\000_Xu(\005"
  42      5F587528 
  42      05
  43              		.text
  44              		.section	.gnu.lto_.pureconst.1a3eed8,"",%progbits
  45 0000 789C6361 		.ascii	"x\234ca`d`f`\000\222R\000\000r\000$"
  45      60646066 
  45      60009252 
  45      00007200 
  45      24
  46              		.text
  47              		.section	.gnu.lto_u8x8_UserInterfaceInputValue.1a3eed8,"",%progbits
  48 0000 789C9557 		.ascii	"x\234\225WmPT\347\025~\317}w\357~\262\273\260\254\237"
  48      6D5054E7 
  48      157ECF7D 
  48      77EF7EB2 
  48      BBB0AC9F 
  49 0014 4451A30C 		.ascii	"DQ\243\014V0\232Q\251ul\223_\375\323?\315\344_:\031"
ARM GAS  C:\Users\gjl\AppData\Local\Temp\ccl60RTN.s 			page 3


  49      56309A51 
  49      A9756C93 
  49      5FFDD33F 
  49      CDE45F3A 
  50 0029 0719656A 		.ascii	"\007\031ej\243UL\355/W\327\005\306\252\245\2151j\032"
  50      A3554CED 
  50      2F57D705 
  50      C6AAA58D 
  50      316A1A
  51 003c 21C93898 		.ascii	"!\3118\230\206\004\267\232DE\314\226 \030X\225/%~$\006"
  51      8604B79A 
  51      4445CC96 
  51      20185895 
  51      2F257E24 
  52 0051 4CD0A6D1 		.ascii	"L\320\246\321\000j\211\031\311\366\234\363\336\313\262"
  52      006A8919 
  52      C9F69CF3 
  52      DECBB2
  53 0060 2C4EE90E 		.ascii	",N\351\016{\271\367\274\317s\316y\237s\316{\301\"@\320"
  53      7BB9F7BC 
  53      CF73CE79 
  53      9F73CE7B 
  53      C12240D0 
  54 0074 C7EB13E2 		.ascii	"\307\353\023\342\367\370;\023\037a\222\000\255\342\202"
  54      F7F83B13 
  54      1F619200 
  54      ADE282
  55 0083 10DBEC9A 		.ascii	"\020\333\354\232&\313sD\320i\241\253[\202E\231-\232"
  55      26CB7344 
  55      D069A1AB 
  55      5B824599 
  55      2D9A
  56 0095 95CD3A9B 		.ascii	"\225\315:\233\255\240+\263\016\001ucS7\317\0044{\203"
  56      ADA02BB3 
  56      0E017563 
  56      5337CF04 
  56      347B83
  57 00a8 449CE342 		.ascii	"D\234\343B\213@\240\0352\325\272C\313d\273S\331\235"
  57      8B40A01D 
  57      32D5BA43 
  57      CB64BB53 
  57      D99D
  58 00ba 9ABB3F80 		.ascii	"\232\273?\200\217\256\252\002|r\031O^~rk\036\016\225"
  58      8FAEAA02 
  58      7C72194F 
  58      5E7E726B 
  58      1E0E95
  59 00cd C6A1D2C0 		.ascii	"\306\241\322\300\243<x\300\246n\274Z:\243}\214\366\031"
  59      A33C78C0 
  59      A66EBC5A 
  59      3AA37D8C 
  59      F619
  60 00df 4F367E4A 		.ascii	"O6~J\327\374\314\315`n\006\370\025\305or3\001\350&h"
  60      D7FCCCCD 
  60      606E06F8 
  60      15C56F72 
  60      3301E826 
ARM GAS  C:\Users\gjl\AppData\Local\Temp\ccl60RTN.s 			page 4


  61 00f4 07B15593 		.ascii	"\007\261U\223\026\253n\013\330\035N\227;\315\343\365"
  61      16AB6E0B 
  61      D81D4E97 
  61      3BCDE3F5 
  62 0104 A567F833 		.ascii	"\245g\3703a\253\026\020\352\363@\033\326\240u\350\334"
  62      61AB1610 
  62      EAF3401B 
  62      D6A075E8 
  62      DC
  63 0115 2E676E75 		.ascii	".gnu0\270=\370e\270\333\375\332\221(\204\245\020qM\300"
  63      30B83DF8 
  63      65B8DBFD 
  63      DA912884 
  63      A510714D 
  64 012a D359F054 		.ascii	"\323Y\360T\026\342\240\032r\021\331\276\343\350\337"
  64      16E2A01A 
  64      7211D9BE 
  64      E3E8DF
  65 0139 E47D2D2C 		.ascii	"\344}-,\001,\3708p\376\340M\017=j\220\215\217U]o_\327"
  65      012CF838 
  65      70FEE04D 
  65      0F3D6A90 
  65      8D8F555D 
  66 0150 E53C1078 		.ascii	"\345<\020x\277\257\245\353nZ\316a\362\031\254/\012:"
  66      BFAFA5EB 
  66      6E5ACE61 
  66      F219AC2F 
  66      0A3A
  67 0162 C252C2DF 		.ascii	"\302R\302\337A\222\317w \013\216@\226@\223\200w!\007"
  67      4192CF77 
  67      200B8E40 
  67      96409380 
  67      772107
  68 0175 D1C1BDC7 		.ascii	"\321\301\275\307:\244\374\0113\007\332**\034\006\363"
  68      3AA4FC09 
  68      3307DA2A 
  68      2A1C06F3 
  69 0185 2F4DEE60 		.ascii	"/M\356`\005&c\201\232\261\\\213\200\367\230\373iC\347"
  69      05266381 
  69      9AB15C8B 
  69      80F798FB 
  69      6943E7
  70 0198 6E8F5CC4 		.ascii	"n\217\\\304\334\241\226\273\355`p\273G\270\357\217\303"
  70      DCA196BB 
  70      ED6070BB 
  70      47B8EF8F 
  70      C3
  71 01a9 AD65EEAD 		.ascii	"\255e\356\255\323e] \22707R\273\247J3\270\2574+\256"
  71      D3655D20 
  71      97303752 
  71      BBA74A33 
  71      B8AF342B 
  72 01be 158E8EE5 		.ascii	"\025\216\216\345Z\005D\230[\025\251\371\271\374\031"
  72      5A054498 
  72      5B15A9F9 
  72      B9FC19
  73 01cd 53FF147B 		.ascii	"S\377\024{Xm7\250\355\315\256\340S(\037\374C1\225\202"
ARM GAS  C:\Users\gjl\AppData\Local\Temp\ccl60RTN.s 			page 5


  73      586D37A8 
  73      EDCDAEE0 
  73      53281FFC 
  73      43319582 
  74 01e1 A4271C63 		.ascii	"\244'\034c^\371\243\326\317\035r%\023\217t\036x\335"
  74      5EF9A3D6 
  74      CF1D7225 
  74      138F741E 
  74      78DD
  75 01f3 69101F9A 		.ascii	"i\020\037\232\304\343)\304\017\230x\263wW\247K>\303"
  75      C4E329C4 
  75      0F9878B3 
  75      7757A74B 
  75      3EC3
  76 0205 C4573B8E 		.ascii	"\304W;\216}o\312\033i1\210\037\246\020?bb\244%\332h"
  76      7D6FCA1B 
  76      6931881F 
  76      A6103F62 
  76      62A425DA 
  77 021a 91BF64E2 		.ascii	"\221\277d\342\201C\23513\325\207-\246B'\306Q\350$\344"
  77      81439D31 
  77      33D5872D 
  77      A64227C6 
  77      51E824E4 
  78 022e 1061FFB6 		.ascii	"\020a\377\266\341J\217\374\025\223/\266\357z\3131\367"
  78      E14A8FFC 
  78      15932FB6 
  78      EF7ACB31 
  78      F7
  79 023f 6D2247AF 		.ascii	"m\"G\257\374\356\265`t[6\305=5:.}\020z\351xK\023\310"
  79      FCEEB560 
  79      745B36C5 
  79      3D353A2E 
  79      7D107AE9 
  80 0257 E79876B2 		.ascii	"\347\230v\262\362\263\203\272A\273\374\233`\350\027"
  80      F2B383BA 
  80      41BBFC9B 
  80      60E817
  81 0266 443A3D0E 		.ascii	"D:=\016\351n}\343^\257|\236I5\247\206v{\014R\227I:3"
  81      E96E7DE3 
  81      5EAF7C9E 
  81      4935A786 
  81      767B0C52 
  82 027e 0EE9E0A9 		.ascii	"\016\351\340\251\262\355N\271\212I\241\023\335u^\203"
  82      B2ED4EB9 
  82      8A49A113 
  82      DD755E83 
  83 028e D46192A2 		.ascii	"\324a\222\242\343\220j\366\177\207]Q\310\244k\367z\257"
  83      E3906AF6 
  83      7F875D51 
  83      C8A46BF7 
  83      7AAF
  84 02a0 9B91DA4C 		.ascii	"\233\221\332LR\3038\244\323;[\037\331e1\223\366\234"
  84      52C338A4 
  84      D33B5B1F 
  84      D9653193 
  84      F69C
ARM GAS  C:\Users\gjl\AppData\Local\Temp\ccl60RTN.s 			page 6


  85 02b2 ADF01B9C 		.ascii	"\255\360\033\2343&\247q\034\316\271\352\301\235 \177"
  85      3326A771 
  85      1CCEB9EA 
  85      C19D207F 
  86 02c2 CB9C8F1F 		.ascii	"\313\234\217\037\226?ipN\233\234\246q8\275\221\037_"
  86      963F6970 
  86      4E9B9CA6 
  86      7138BD91 
  86      1F5F
  87 02d4 4DD37704 		.ascii	"M\323w\004\361\223\015\3150\027\316\342\367\023\374"
  87      F1930DCD 
  87      3017CEE2 
  87      F713FC
  88 02e3 FE13BF1F 		.ascii	"\376\023\277\037\343\267\036\277u0\227&\024\213|\016"
  88      E3B71EBF 
  88      75309726 
  88      148B7C0E 
  89 02f3 743CDDF4 		.ascii	"t<\335\364\024\244\201\252\375u4\030\217\207\202\321"
  89      14A481AA 
  89      FD753418 
  89      8F8782D1 
  90 0303 3AEB1DEF 		.ascii	":\353\035\357\263 \010\203\021\021!\271%-|\265\362U"
  90      B3200883 
  90      111121B9 
  90      252D7CB5 
  90      F255
  91 0315 17C47202 		.ascii	"\027\304r\002\265\270\213-n\2401\363`K\350^A!|@3\233"
  91      B5B88B2D 
  91      6EA031F3 
  91      604BE85E 
  91      41217C40 
  92 032b 8E065B06 		.ascii	"\216\006[\006Y\375\014\013\260\333I|\235\0144]S\005"
  92      59FD0C0B 
  92      B0DB497C 
  92      9D0C345D 
  92      5305
  93 033d 25320DA8 		.ascii	"%2\015\250\007\247\363}\026PO\315 \322L6d\223\223Y\364"
  93      07A7F37D 
  93      16504FCD 
  93      20D24C36 
  93      64939359 
  94 0352 3C9BF399 		.ascii	"<\233\363\231\303\327yd\315!k.]\346\263\317\005t\233"
  94      C3D77964 
  94      CD216B2E 
  94      5DE6B3CF 
  94      05749B
  95 0365 C7EBF974 		.ascii	"\307\353\371t\273\230zt\211\240\375-\005J`\031\320\224"
  95      BB987A74 
  95      89A0FD2D 
  95      054A6019 
  95      D094
  96 0377 147032CB 		.ascii	"\024p2\313iq\005\337\256\344^\026\375(T\277.\0064\015"
  96      697105DF 
  96      AEE45E16 
  96      FD2854BF 
  96      2E06340D 
  97 038b 7FC93ED8 		.ascii	"\177\311>\330\376\303\316\313\037JR.$]tZ\205\033.\332"
ARM GAS  C:\Users\gjl\AppData\Local\Temp\ccl60RTN.s 			page 7


  97      FEC3CECB 
  97      1F4A522E 
  97      245D745A 
  97      851B2EDA 
  98 039f E820B3AA 		.ascii	"\350 \263\252c\244\271\245\334]\011ol\243\022l\242Q"
  98      63A4B9A5 
  98      DC5D096F 
  98      6CA3126C 
  98      A251
  99 03b1 0A49277C 		.ascii	"\012I'|\212\223!\240\005*A\364\302\366\3402\026\036"
  99      8A9321A0 
  99      052A41F4 
  99      C2F6E032 
  99      161E
 100 03c3 CB812EC8 		.ascii	"\313\201.\310\020\275Q\314\026\324\010]|P\026\2138\311"
 100      10BD51CC 
 100      16D4085D 
 100      7C50168B 
 100      38C9
 101 03d5 A3008056 		.ascii	"\243\000\200Vd\336\206\035\321\201\315*\244\207\206"
 101      64DE861D 
 101      D181CD2A 
 101      A48786
 102 03e4 E2E4B7D7 		.ascii	"\342\344\267\327l[\207\203\345\301\240/,\355q\215\336"
 102      6C5B8783 
 102      E5C1A02F 
 102      2CED718D 
 102      DE
 103 03f5 5031D88A 		.ascii	"P1\330\212\241\334a\351\020}\020\332W\332\005\212\340"
 103      A1DC61E9 
 103      107D10DA 
 103      57DA058A 
 103      E0
 104 0406 450E7BE9 		.ascii	"E\016{\351\005\315\014\202V\016;\024`\313Y\016;\262"
 104      05CD0C82 
 104      560E3B14 
 104      60CB590E 
 104      3BB2
 105 0418 117CFFC1 		.ascii	"\021|\377\301y$\340^OE\316\344*7\351\243\0212i\253x"
 105      7924E05E 
 105      4F45CEE4 
 105      2A37E9A3 
 105      113269AB 
 106 042d 0C3843D2 		.ascii	"\0148C\322\007\027h\223h?\374\325\366\367m\013\363\260"
 106      07176893 
 106      683FFCD5 
 106      F6F76D0B 
 106      F3B0
 107 043f 14701177 		.ascii	"\024p\021w\374#u\232\2006X\310\036\215\2642F\373\263"
 107      FC23759A 
 107      803658C8 
 107      1E8DB432 
 107      46FBB3
 108 0452 8DF5E7C2 		.ascii	"\215\365\347\302\200\320n\370;\264\377\304=\317\302"
 108      80D06EF8 
 108      3BB4FFC4 
 108      3DCFC2
ARM GAS  C:\Users\gjl\AppData\Local\Temp\ccl60RTN.s 			page 8


 109 0461 F768AF6E 		.ascii	"\367h\257n\350`\217\364\206\206N\364\330\003;.\204\246"
 109      E8608FF4 
 109      86864EF4 
 109      D8033B2E 
 109      84A6
 110 0473 8DEC3483 		.ascii	"\215\3544\203\347`@\223\342\204\224\264\303\341'\314"
 110      E7604093 
 110      E28494B4 
 110      C3E127CC 
 111 0483 1DD2220A 		.ascii	"\035\322\"\012\263\277\364\007\233\202\007\320\242\204"
 111      B3BFF407 
 111      9B8207D0 
 111      A284
 112 0491 D0129800 		.ascii	"\320\022\230\000a\216\2266LQ\230Ih\301\014\316\306\207"
 112      618E9636 
 112      4C519849 
 112      68C10CCE 
 112      C687
 113 04a3 A25E4A54 		.ascii	"\242^JTGl\327(-\2313\211CZ\250=0\244O(+W:z\240I\001"
 113      476CD728 
 113      2D993389 
 113      435AA83D 
 113      30A44F28 
 114 04be 69A8CE73 		.ascii	"i\250\316s)\303\321\327\233\334\312\373\324\224Z\246"
 114      29C3D1D7 
 114      9BDCCAFB 
 114      D4945AA6 
 115 04ce C5B1CD04 		.ascii	"\305\261\315\004\\\342Z\372BrrXzF\202}Bn\247\252\352"
 115      5CE25AFA 
 115      42727258 
 115      7A46827D 
 115      426EA7AA 
 116 04e3 0E1A094E 		.ascii	"\016\032\011NGKHNK\306L\3470\225\245\036\205\231\361"
 116      474B484E 
 116      4BC64CE7 
 116      3095A51E 
 116      8599F1
 117 04f6 B83097CD 		.ascii	"\2700\227\3150Y\024\206\375\306\214\362\314d\3273\222"
 117      30591486 
 117      FDC68CF2 
 117      CC64D733 
 117      92
 118 0507 FDCE542D 		.ascii	"\375\316T-\021\333fU\240\354\2115Aw\242\011>Kn\202Y"
 118      11DB6655 
 118      A0EC8935 
 118      4177A209 
 118      3E4B6E82 
 119 051c 2955CF1E 		.ascii	")U\317\036\277\352W\330\005\037YW\307T\0353\235E\276"
 119      BFEA57D8 
 119      051F5957 
 119      C7541D33 
 119      9D45BE
 120 052f 07715850 		.ascii	"\007qXPa\355t-`I\344\256H\026\026\305j\366\301q\335"
 120      61ED742D 
 120      6049E4AE 
 120      481616C5 
 120      6AF6C171 
ARM GAS  C:\Users\gjl\AppData\Local\Temp\ccl60RTN.s 			page 9


 121 0544 2C03C1B9 		.ascii	",\003\301\271\017\256NU\016f\243\205\366fn\2251\263"
 121      0FAE4E55 
 121      0E66A385 
 121      F6666E95 
 121      31B3
 122 0556 551FF41A 		.ascii	"U\037\364\032\2309hI*<\203\346p\341\365D\341\331\252"
 122      98396849 
 122      2A3C83E6 
 122      70E1F544 
 122      E1D9AA
 123 0569 F1BCB637 		.ascii	"\361\274\2667\361\036E\212\366\336\270F\257\327kJ\373"
 123      F11E458A 
 123      F6DEB846 
 123      AFD76B4A 
 123      FB
 124 057a B0F49120 		.ascii	"\260\364\221 \367\333\324\270NDP\001\327Y\015Ij|\016"
 124      F7DBD4B8 
 124      4E445001 
 124      D7590D49 
 124      6A7C0E
 125 058d 0B13B37A 		.ascii	"\013\023\263zi\300\241\322\2357\261\302|\221(\314\015"
 125      69C0A1D2 
 125      9D37B1C2 
 125      7C9128CC 
 125      0D
 126 059e A3306F1A 		.ascii	"\2430o\032\255\2313\366(\303\223\213\0134/\245@\025"
 126      AD9933F6 
 126      28C3938B 
 126      0B342FA5 
 126      4015
 127 05b0 B8BA888A 		.ascii	"\270\272\210\212\364e\242H=\350\3566\030=\232\233\242"
 127      F465A248 
 127      3DE8EE36 
 127      183D9A9B 
 127      A2
 128 05c1 417A1CC7 		.ascii	"Az\034\307E@\257\322\2006\200\363\202A\371\374\312P"
 128      4540AFD2 
 128      803680F3 
 128      8241F9FC 
 128      CA50
 129 05d3 9DB84091 		.ascii	"\235\270@\221\347\363Jn\362\304\315G\347e\321\356R#"
 129      E7F34A6E 
 129      F2C4CD47 
 129      E765D1EE 
 129      5223
 130 05e5 D9052901 		.ascii	"\331\005)\001\374q,\275\200\233f\203k\354\010\247)3"
 130      FC712CBD 
 130      809B6683 
 130      6BEC08A7 
 130      2933
 131 05f7 C9791EAF 		.ascii	"\311y\036\257,H\256j\236\202\364\035\324\025(\037\347"
 131      2C48AE6A 
 131      9E82F41D 
 131      D415281F 
 131      E7
 132 0608 8BACB7C1 		.ascii	"\213\254\267\3016~E\215`_\231\301\3629X\226\012\206"
 132      367E458D 
ARM GAS  C:\Users\gjl\AppData\Local\Temp\ccl60RTN.s 			page 10


 132      605F99C1 
 132      F2395896 
 132      0A86
 133 061a A5BDFC7F 		.ascii	"\245\275\374\177\224\366\353Di\373\260\264\255\306\221"
 133      94F6EB44 
 133      69FBB0B4 
 133      ADC691
 134 0629 D16FE4B2 		.ascii	"\321o\344\2628%x \216\015(\340\026\007\307\372L\013"
 134      38257820 
 134      8E0D28E0 
 134      1607C7FA 
 134      4C0B
 135 063b E379F4BF 		.ascii	"\343y\364\277R\275m\246\232\307\251.\246Tq\2004\252"
 135      52BD6DA6 
 135      9AC7A92E 
 135      A6547180 
 135      34AA
 136 064d 842516C9 		.ascii	"\204%\026\311\304\326\266\306\216\321\000\331DU\263"
 136      C4D6B6C6 
 136      8ED100D9 
 136      4455B3
 137 065c 90B8E60F 		.ascii	"\220\270\346\017I\253\037+\201i\207\244\305\003\270"
 137      49AB1F2B 
 137      816987A4 
 137      C503B8
 138 066b 1610F8AF 		.ascii	"\026\020\370\257\002\250\316\347w\231\344\316\037jJ"
 138      02A8CEE7 
 138      7799E4CE 
 138      1F6A4A
 139 067a 53C92E49 		.ascii	"S\311.I\011?9\216\016\005\374\313\354\375)#\312\327"
 139      093F398E 
 139      0E05FCCB 
 139      ECFD2923 
 139      CAD7
 140 068c 117F090D 		.ascii	"\021\177\011\015\366\325\320\275\335S\022\016:\373\336"
 140      F6D5D0BD 
 140      DD53120E 
 140      3AFBDE
 141 069b DCE15647 		.ascii	"\334\341VGo\233\200o K\315\272\014I\277\0153q\3515w"
 141      6F9B806F 
 141      204BCDBA 
 141      0C49BF0D 
 141      3371E935 
 142 06b0 E8E56C17 		.ascii	"\350\345l\027\015\222^\316\373\"7z\344\030\271\271\177"
 142      0D925ECE 
 142      FB22377A 
 142      E418B9B9 
 142      7F
 143 06c1 BD496FE2 		.ascii	"\275Io\342\177\243\314\224/\035\015qu\034\363\337<\255"
 143      7FA3CC94 
 143      2F1D0D71 
 143      751CF3DF 
 143      3CAD
 144 06d3 EC7F4073 		.ascii	"\354\177@s\010\3747Lr6\357\356y\"\221\315\225S\301z"
 144      08FC374C 
 144      7236EFEE 
 144      792291CD 
ARM GAS  C:\Users\gjl\AppData\Local\Temp\ccl60RTN.s 			page 11


 144      9553C17A 
 145 06e7 50D9740A 		.ascii	"P\331t\012\370Ve\203x'\313\304\370zO\002\336\330S[c"
 145      F8566583 
 145      7827CBC4 
 145      F87A4F02 
 145      DED8535B 
 146 06fc C0DB05DC 		.ascii	"\300\333\005\334\031\201\273D\365\323\012\375\226L\240"
 146      1981BB44 
 146      F5D30AFD 
 146      964CA0
 147 070b CFD5FEF5 		.ascii	"\317\325\376\365\013c\253]\002\356\216\240\335\342\310"
 147      0B63AB5D 
 147      02EE8EA0 
 147      DDE2C8
 148 071a 6C425F09 		.ascii	"lB_\011\335\332c\034z\270\375e\306j\232\330\233.U\307"
 148      DDDA631C 
 148      7AB8FD65 
 148      C66A9AD8 
 148      9B2E55C7 
 149 072e BEB15CAD 		.ascii	"\276\261\\\255\256@@\322+\237\253\263\202\341\036r6"
 149      AE4040D2 
 149      2B9FABB3 
 149      82E11E72 
 149      36
 150 073f AA6616EE 		.ascii	"\252f\026\356\257\272f#\217\225\217k\260\357\270f\226"
 150      AFBA6623 
 150      8F958F6B 
 150      B0EFB866 
 150      96
 151 0750 0936587F 		.ascii	"\0116X\177r\203\2554\032\014\351K\3355u[0\231\264X]"
 151      7283AD34 
 151      1A0CE94B 
 151      DD35755B 
 151      3099B458 
 152 0765 09A6E315 		.ascii	"\011\246\343\025\337?\251\224\030\036\245\333;U-glJ"
 152      DF3FA994 
 152      181EA5DB 
 152      3B552D67 
 152      6C4A
 153 0777 890E0103 		.ascii	"\211\016\001\003#J\370DlZ\252n=\207_\331\353P\350K\002"
 153      234AF844 
 153      6C5AAA6E 
 153      3D875FD9 
 153      EB50E84B 
 154 078c 0647D0E9 		.ascii	"\006G\320\351\342\353tB_\014U\3779\241\333Rc5C\014\332"
 154      E2EB7442 
 154      5F0C55FF 
 154      39A1DB52 
 154      6335430C 
 155 07a1 0DDD0E19 		.ascii	"\015\335\016\031\272\025 \200Z.\324xQ\252?\204\342\000"
 155      BA152080 
 155      5A2ED478 
 155      51AA3F84 
 155      E200
 156 07b3 F7C6EA58 		.ascii	"\367\306\352X\300t?9\037\245\243\225u\274f\352\270\374"
 156      C0743F39 
 156      1FA5A395 
ARM GAS  C:\Users\gjl\AppData\Local\Temp\ccl60RTN.s 			page 12


 156      75BC66EA 
 156      B8FC
 157 07c5 713ADE67 		.ascii	"q:\336ge\254\023\324\361A\262"
 157      65AC13D4 
 157      F141B2
 158 07d0 8ECB0D1D 		.ascii	"\216\313\015\035\221\276,\275\246\036u,\310\210\325"
 158      91BE2CBD 
 158      A61E752C 
 158      C888D5
 159 07df 938E9989 		.ascii	"\223\216\231\211\227P=\245\243\363\321\323\377h\321"
 159      97503DA5 
 159      A3F3D1D3 
 159      FF68D1
 160 07ee C48F9EFF 		.ascii	"\304\217\236\377$\216\236!\343\255\362\015\216\307\203"
 160      248E9E21 
 160      E3ADF20D 
 160      8EC783
 161 07fd 32639C75 		.ascii	"2c\234u\036<\235\032\313\376\350\243\325\004p4\376\024"
 161      1E3C9D1A 
 161      CBFEE8A3 
 161      D5047034 
 161      FE14
 162 080f FF3E068C 		.ascii	"\377>\006\214\215\247\376\234\374\374\027\360gs\301"
 162      8DA7FE9C 
 162      FCFC17F0 
 162      6773C1
 163 081e 9AC52F14 		.ascii	"\232\305/\024n\332X\210w[\012^,~i\303\346\222\027_^"
 163      6EDA5888 
 163      775B0A5E 
 163      2C7E69C3 
 163      E692175F 
 164 0833 B56E7351 		.ascii	"\265nsQ~\241\260\220\315ZR\\\262\256Hn\330Xde\273\266"
 164      7EA1B090 
 164      CD5A525C 
 164      B2AE486E 
 164      D8586465 
 165 0849 6EBDB6B6 		.ascii	"n\275\266\266X_]\274\246\270d\223e\303\372M%\326\242"
 165      585F5DBC 
 165      A6B86493 
 165      65C3FA4D 
 165      25D6A2
 166 085c 978B5E2A 		.ascii	"\227\213^*\201\215\256u\353\013W\255Sl\330b\375C\361"
 166      818DAE75 
 166      EB0B57AD 
 166      536CD862 
 166      FD43F1
 167 086f EA92B5F0 		.ascii	"\352\222\265\360G}mQ\361\232\265%\377\005\211.*\370"
 167      477D6D51 
 167      F19AB525 
 167      FF05892E 
 167      2AF8
 168              		.text
 169              		.section	.gnu.lto_.symbol_nodes.1a3eed8,"",%progbits
 170 0000 789C55C9 		.ascii	"x\234U\311=\012\002A\014\206\341/\363[x\010\365\014"
 170      3D0A0241 
 170      0C86E12F 
 170      F35B7808 
ARM GAS  C:\Users\gjl\AppData\Local\Temp\ccl60RTN.s 			page 13


 170      F50C
 171 0012 1E3053A4 		.ascii	"\0360S\244r\033AP\260\336SXom-X\210:\262,XXZ\211\233"
 171      721B4150 
 171      B0DE5358 
 171      6F6D2D58 
 171      883AB22C 
 172 002b 11C149F3 		.ascii	"\021\301I\363\344M\034\010/\214c\300\300\352\000e\237"
 172      E44D1C08 
 172      2F8C63C0 
 172      C0EA0065 
 172      9F
 173 003c E60079A6 		.ascii	"\346\000y\246r\000R\232\215\035\330T\035\331V\355\330"
 173      7200529A 
 173      8D1DD854 
 173      1DD956ED 
 173      D8
 174 004d 556DD957 		.ascii	"Um\331Wm8TM\034\377\333\"B.o\262\010\310\313\307\264"
 174      6D38544D 
 174      1CFFDB22 
 174      422E6FB2 
 174      08C8CBC7 
 175 0062 D8A81EB2 		.ascii	"\330\250\036\262V\035d\243\022\362\317\255j\320\356"
 175      561D64A3 
 175      12F2CFAD 
 175      6AD0EE
 176 0071 BEDD152D 		.ascii	"\276\335\025-\272\323}\360\372\310\327\347y\241\037"
 176      BAD37DF0 
 176      FAC8D7E7 
 176      79A11F
 177 0080 B995C540 		.ascii	"\271\225\305@\372c3\321K\253\013>?n@\005"
 177      FA6333D1 
 177      4BAB0B3E 
 177      3F6E4005 
 178              		.text
 179              		.section	.gnu.lto_.refs.1a3eed8,"",%progbits
 180 0000 789C6361 		.ascii	"x\234ca`\004B \000\000\0009\000\007"
 180      60044220 
 180      00000039 
 180      0007
 181              		.text
 182              		.section	.gnu.lto_.decls.1a3eed8,"",%progbits
 183 0000 789CBD58 		.ascii	"x\234\275X{PT\327\031\337s\317\002\313\262@DLl\206i"
 183      7B5054D7 
 183      19DF73CF 
 183      02CBB240 
 183      444C6C86 
 184 0015 6C6A95CE 		.ascii	"lj\225\316$Fc\232a:\323i:I\223&\323v2\323j;Sf6\353r"
 184      2446639A 
 184      613AD369 
 184      3A499326 
 184      D37632D3 
 185 0030 916D70D9 		.ascii	"\221mp\331\356\336\365\221v\332\005\361\021\361\001"
 185      EEDEF591 
 185      76DA05F1 
 185      11F101
 186 003f 8A203E82 		.ascii	"\212 >\202\017TPP\004|\240 (\212\017@\021\004_ \370"
 186      0F545050 
ARM GAS  C:\Users\gjl\AppData\Local\Temp\ccl60RTN.s 			page 14


 186      047CA020 
 186      288A0F40 
 186      11045F20 
 187 0054 46114545 		.ascii	"F\021EE\221\207\322\357\234s\237\344\322\364\217\246"
 187      9187D2EF 
 187      9C739FE4 
 187      D2F48FA6 
 188 0064 77F8B8F7 		.ascii	"w\370\270\367\373\316\357\234\357y\276s\367\032\015"
 188      FBCEEF9C 
 188      EF79BE73 
 188      F71A0D
 189 0073 C840AE7F 		.ascii	"\310@\256\177\276n0\3543\032\014\203\360<\004\027\007"
 189      BE6E30EC 
 189      331A0C83 
 189      F03C0417 
 189      07
 190 0084 F7E94064 		.ascii	"\367\351@dt\267\201]&\240\317A\360'\240h\240/\200\342"
 190      74B7815D 
 190      26A0CF41 
 190      F027A068 
 190      A02F80E2 
 191 0098 80E281FE 		.ascii	"\200\342\201\376\006\344E\206o]\004\377\003q\2150\240"
 191      06E44586 
 191      6F5D04FF 
 191      03718D30 
 191      A0
 192 00a9 70A05F82 		.ascii	"p\240_\202\354 \334+\200\"\200&\000?\033H\000\372\000"
 192      EC20DC2B 
 192      80228026 
 192      003F1B48 
 192      00FA00
 193 00bc E82740ED 		.ascii	"\350'@\355 \237\003w\027\320\\\240/\201\346\001\315"
 193      209F0377 
 193      17D05CA0 
 193      2F81E601 
 193      CD
 194 00cd 04FA0A68 		.ascii	"\004\372\012h:\320\337\201\376\002\364\017 +\020\230"
 194      3AD0DF81 
 194      FE02F40F 
 194      202B1098 
 195 00dd 6FF80CEE 		.ascii	"o\370\014\356!@?\002z\013)6{E\033\343E\233\325>\014"
 195      21403F02 
 195      7A0B2936 
 195      7B451BE3 
 195      459BD53E 
 196 00f2 BF5E7068 		.ascii	"\277^ph\367\202\233y\246\036\016E\230\321\020\"\374"
 196      F7829B79 
 196      A61E0E45 
 196      98D11022 
 196      FC
 197 0103 FDD2BE60 		.ascii	"\375\322\276`\306\223\341\266\276\334\217'\345\373\340"
 197      C693E1B6 
 197      BEDC8F27 
 197      E5FBE0
 198 0112 4AF5F938 		.ascii	"J\365\3718N\231WR\371\244\300\210\203\010\210;W|\351"
 198      4E995752 
 198      F9A4C088 
ARM GAS  C:\Users\gjl\AppData\Local\Temp\ccl60RTN.s 			page 15


 198      8308883B 
 198      577CE9
 199 0125 78208A34 		.ascii	"x \2124o#\270\366+=\277\232\357\363!\224\217\314h\007"
 199      6F23B8F6 
 199      2B3DBF9A 
 199      EFF32194 
 199      8FCC6807 
 200 0139 C2280F4D 		.ascii	"\302(\017M\"\341\2150\303\377\305>_\222\257{\263\317"
 200      22E18D30 
 200      C3FFC53E 
 200      5F92AF7B 
 200      B3CF
 201 014b 7FAC014D 		.ascii	"\177\254\001M\215@\223#\014h'\212$\312\010\012\345\242"
 201      8D409323 
 201      0C68278A 
 201      24CA080A 
 201      E5A2
 202 015d 08B41D45 		.ascii	"\010\264\035E\220\365\363\262s\217\005\3435\210*\350"
 202      90F5F3B2 
 202      738F05E3 
 202      35882AE8 
 203 016d 4AEF5C8C 		.ascii	"J\357\\\214e\005i)\021;}\276W\320nPP\240(\000}\372\032"
 203      65056929 
 203      113B7DBE 
 203      57D06E50 
 203      50A02800 
 204 0184 76E96820 		.ascii	"v\351h \223AK}r\365~\323\025t\011qH,\017\003B\354?\242"
 204      93414B7D 
 204      72F57ED3 
 204      15740971 
 204      482C0F03 
 205 019c 64604459 		.ascii	"d`DYx\340\350\177\203,\222o\006\362\337\300\360T\246"
 205      78E0E87F 
 205      832C926F 
 205      06F2DFC0 
 205      F054A6
 206 01af 2C46FFA4 		.ascii	",F\377\244\373\220t\321E\224\325\2218\011\311\026\260"
 206      FB9074D1 
 206      4594D591 
 206      3809C916 
 206      B0
 207 01c0 596C9C93 		.ascii	"Yl\234\223Ve7N\231\240Z\217\231\253\262\011i}BR\352"
 207      5665374E 
 207      99A05A8F 
 207      99ABB209 
 207      697D4252 
 208 01d5 FA5B4F66 		.ascii	"\372[Of\030q&G\023|.\271p=\206|\207\231\221\021\330"
 208      18712647 
 208      137C2EB9 
 208      703D867C 
 208      87999111 
 209 01ea 47756B6F 		.ascii	"Guko\204\000\033nF\343\200mz^\336o\301%\024j,Nj\333"
 209      84001B6E 
 209      46E3806D 
 209      7A5EDE6F 
 209      C125146A 
 210 0202 14822223 		.ascii	"\024\202\"#\020\304\020\261\\\220\2420\240\003\220\210"
ARM GAS  C:\Users\gjl\AppData\Local\Temp\ccl60RTN.s 			page 16


 210      10C410B1 
 210      5C90A230 
 210      A0039088 
 211 0212 1284A5AA 		.ascii	"\022\204\245\252Z\353\203$t\377\213\210\341\331D\357"
 211      5AEB8324 
 211      74FF8B88 
 211      E1D944EF 
 212 0222 3A69D90B 		.ascii	":i\331\013i!C\006\264\037\026\334\307\322~\371Dm\262"
 212      69214306 
 212      B41F16DC 
 212      C7D27EF9 
 212      446DB2
 213 0235 BF5944A7 		.ascii	"\277YD\247~\027\272s\347\355\346\020\313\022\202N\235"
 213      7E17BA73 
 213      E7EDE610 
 213      CB12824E 
 213      9D
 214 0246 EF0B3B19 		.ascii	"\357\013;\031\202J\301\224b\000\024\001\300\200\016"
 214      824AC194 
 214      62001401 
 214      C0800E
 215 0255 228BE8F3 		.ascii	"\"\213\350\363\251\252\232$l\344\230\014\3150\022\331"
 215      A9AA9A24 
 215      6CE4980C 
 215      CD3012D9 
 216 0265 86AE6B35 		.ascii	"\206\256k5~TF*\351\020\242\302\355\015\367\"dY\031\223"
 216      7E54462A 
 216      E910A2C2 
 216      ED0DF722 
 216      64591993 
 217 0279 0DB65F6F 		.ascii	"\015\266_o2\312\302r&L\3578\021\250Q\275[\243\272BV"
 217      32CAC272 
 217      264CEF38 
 217      11A851BD 
 217      5BA3BA42 
 218 028e 5D36B0E4 		.ascii	"]6\260\344\241\211\316\006\031:\314f\247\035\331V\022"
 218      A189CE06 
 218      193ACC66 
 218      A71DD956 
 218      12
 219 029f 22DB53C9 		.ascii	"\"\333S\311\204E\273\252\322Ce\341\021&\\\367\244\365"
 219      8445BBAA 
 219      D24365E1 
 219      11265CF7 
 219      A4F5
 220 02b1 6E204B50 		.ascii	"n KP$\260\271\267\327/\267\260\004E\251\362\025\306"
 220      24B0B9B7 
 220      D72FB7B0 
 220      0445A9F2 
 220      15C6
 221 02c3 F2E5EB48 		.ascii	"\362\345\353H\316\346p)K\355\241\375e\325~\014:\031"
 221      CEE67029 
 221      4BEDA1FD 
 221      65D57E0C 
 221      3A19
 222 02d5 D88A8EB4 		.ascii	"\330\212\216\264\012\023>\311\306\244U\303\331\252\365"
 222      0A133EC9 
ARM GAS  C:\Users\gjl\AppData\Local\Temp\ccl60RTN.s 			page 17


 222      C6A455C3 
 222      D9AAF5
 223 02e4 DBBB2E84 		.ascii	"\333\273.\204\340v6\326\261\261\242\310\204\007\030"
 223      E07636D6 
 223      B1B1A2C8 
 223      840718
 224 02f3 F320F956 		.ascii	"\363 \371V{\020\003\216\005vu\345\312A3^\204\351XCw"
 224      7B10038E 
 224      057675E5 
 224      CA41335E 
 224      84E95843 
 225 0308 ED0671EC 		.ascii	"\355\006q\354\025\022\343\322\353\223\361J6\364\254"
 225      1512E3D2 
 225      EB93F14A 
 225      36F4AC
 226 0317 E67C2BC6 		.ascii	"\346|+\306\233\030\263\342hy\225\011\027`\315\202al"
 226      9B18B3E2 
 226      68799509 
 226      1760CD82 
 226      616C
 227 0329 C1EA96CB 		.ascii	"\301\352\226\313MF\\\312\306\022\313\253\212\203\361"
 227      4D465CCA 
 227      C612CBAB 
 227      8A83F1
 228 0338 19C61C1F 		.ascii	"\031\306\034\037\352\255\014e@\016\330\027\305\305U"
 228      EAAD0C65 
 228      400ED817 
 228      C5C555
 229 0347 085F6063 		.ascii	"\010_`c[\373\007\272I\325N\200\2565\204Umk\002k[\025"
 229      5BFB07BA 
 229      49D54E80 
 229      AE358455 
 229      6D6B026B 
 230 035d 35A7B659 		.ascii	"5\247\266Yp;\005s9\225I\013\240`#iU\371\346\373\314"
 230      703B0573 
 230      3995490B 
 230      A0602369 
 230      55F9E6FB 
 231 0372 B9210674 		.ascii	"\271!\006t\0062\325D\032\301\025(\254\011bw\270\010"
 231      0632D544 
 231      1AC11528 
 231      AC096277 
 231      B808
 232 0384 C20B2014 		.ascii	"\302\013 \024\033\331\375\317h#\273\014\211\275\244"
 232      1BD9FDCF 
 232      6823BB0C 
 232      89BDA4
 233 0393 F4990966 		.ascii	"\364\231\011f\226\327\303iWn\233q'\323\221\327]\233"
 233      96D7C369 
 233      576E9B71 
 233      27D391D7 
 233      5D9B
 234 03a5 1F3AA28E 		.ascii	"\037:\242\216\253#\352HK\231\220OzY+\350hQt\\F\242\222"
 234      AB23EA48 
 234      4B99904F 
 234      7A592BE8 
 234      6851745C 
ARM GAS  C:\Users\gjl\AppData\Local\Temp\ccl60RTN.s 			page 18


 235 03bc DB4BF21E 		.ascii	"\333K\362\036Yp\017\363zC\323\365\324@\275\315\241\327"
 235      59700FF3 
 235      7A43D3F5 
 235      D440BDCD 
 235      A1D7
 236 03ce E1007FB7 		.ascii	"\341\000\177\267e\377\240ES\243\355\232\032\275&\327"
 236      65FFA045 
 236      53A3ED9A 
 236      1ABD26D7 
 237 03de A894C930 		.ascii	"\250\224\3110\226\311\353{z\357\233p\037\323\272+\177"
 237      96C9EB7B 
 237      7AEF9B70 
 237      1FD3BA2B 
 237      7F
 238 03ef A0D04CAB 		.ascii	"\240\320L\253r\232\264s\256,\334^\023$o\210\233\254"
 238      729AB473 
 238      AE2CDC5E 
 238      13246F88 
 238      9BAC
 239 0401 509B2E5E 		.ascii	"P\233.^m\012\224\205\267\230p\321P\3531\023N1\322\225"
 239      6D0A9485 
 239      B79870D1 
 239      50EB3113 
 239      4E31D295 
 240 0415 92B72F5B 		.ascii	"\222\267/[\027\2143\031\263\366P\317i?\246\322\004\354"
 240      178C3319 
 240      B3F650CF 
 240      693FA6D2 
 240      04EC
 241 0427 F2ACC787 		.ascii	"\362\254\307\207\002p6\033k\254\334\270.\020oc\314\215"
 241      0270361B 
 241      6BACDCB8 
 241      2E106F63 
 241      CC8D
 242 0439 92DE9C60 		.ascii	"\222\336\234`\274\2071\327\036\226g\005\310J\2305{\033"
 242      BC8731D7 
 242      1E966705 
 242      C84A9835 
 242      7B1B
 243 044b B2DB0270 		.ascii	"\262\333\002p)\003\364\237\0358\210p5c\2266\356\233"
 243      2903F49F 
 243      1D388870 
 243      35639636 
 243      EE9B
 244 045d 8A1BD973 		.ascii	"\212\033\331s~\323\305\027\010\2671\246\356e\367a\214"
 244      7ED3C517 
 244      08B731A6 
 244      EE65F761 
 244      8C
 245 046e 1F31A6A0 		.ascii	"\0371\246\240}a\243\037N\362\243\314\266\301M%\026\274"
 245      7D61A31F 
 245      4EF2A3CC 
 245      B6C14D25 
 245      16BC
 246 0480 9C31D5BD 		.ascii	"\2341\325\275\345[\374p\026c\226\244\354\330\024\202"
 246      E55BFC70 
 246      166396A4 
ARM GAS  C:\Users\gjl\AppData\Local\Temp\ccl60RTN.s 			page 19


 246      ECD81482 
 247 0490 773166C1 		.ascii	"w1f\301\322\235e\030\037aL}[\321S\177\334\314\230\266"
 247      D29D6518 
 247      1F614C7D 
 247      5BD1537F 
 247      DCCC98B6 
 248 04a4 AB697FC5 		.ascii	"\253i\177\305m\354\271\365d\336NR\246\023I\231\016\015"
 248      6DECB9F5 
 248      64DE4E52 
 248      A6134999 
 248      0E0D
 249 04b6 85AA0A75 		.ascii	"\205\252\012u\"+\324\206\025\217s\002\360}\012\347\252"
 249      222BD486 
 249      158F7302 
 249      F07D0AE7 
 249      AA
 250 04c7 97151705 		.ascii	"\227\025\027\005)\347h\216\245\224\224\306KptP)\215"
 250      29E7688E 
 250      A59494C6 
 250      4B707450 
 250      298D
 251 04d9 89F229C7 		.ascii	"\211\362)\307rj\220\023\212^@\031L\024\313`\000\204"
 251      726A9013 
 251      8A5E4019 
 251      4C14CB60 
 251      0084
 252 04eb FDE2519A 		.ascii	"\375\342Q\232\223\266\331\037\3672\035Y%;z\315\252\243"
 252      93B6D91F 
 252      F7321D59 
 252      253B7ACD 
 252      AAA3
 253 04fd F43D5A7E 		.ascii	"\364=Z~\211\0349\376e\035/\321\310J|\234\256\222\316"
 253      891C39FE 
 253      651D2FD1 
 253      C84A7C9C 
 253      AE92CE
 254 0510 F30D697E 		.ascii	"\363\015i~\330\347O\275zQ\264\350\220\021\257b\314\235"
 254      D8E74FBD 
 254      7A51B4E8 
 254      9011AF62 
 254      CC9D
 255 0522 937D3D41 		.ascii	"\223}=Ax+c\372\217&\225\"|\2001\373\216\366\325\372"
 255      782B63FA 
 255      8F269522 
 255      7C8031FB 
 255      8EF6D5FA 
 256 0536 E13AC63C 		.ascii	"\341:\306<H\332\231\203\360m\306\324\257\356\312\340"
 256      48DA9983 
 256      F06DC6D4 
 256      AFEECAE0 
 257 0546 F0106306 		.ascii	"\360\020c\006\007V%\372\341\225\001lg\267t\344\007\341"
 257      075625FA 
 257      E195016C 
 257      67B774E4 
 257      07E1
 258 0558 1CC61496 		.ascii	"\034\306\024\226%w\211\247U%yy\311]\326]e\306\345tp"
 258      257789A7 
ARM GAS  C:\Users\gjl\AppData\Local\Temp\ccl60RTN.s 			page 20


 258      55257979 
 258      C95DD65D 
 258      65C6E574 
 259 056d 4C6245DD 		.ascii	"LbE\335\211\0004\236\\\243\307+W$\320f\342Y\373\336"
 259      8900349E 
 259      5CA3C72B 
 259      5724D066 
 259      E259FBDE 
 260 0581 971F94ED 		.ascii	"\227\037\224\355k\361\371\026Zh1\315\3470Z\311\215\226"
 260      6BF1F916 
 260      5A6831CD 
 260      E7305AC9 
 260      8D96
 261 0593 F6D43B64 		.ascii	"\366\324;d\207\234 \373\304@\341\225\251\015A\276\302"
 261      879C20FB 
 261      C440E195 
 261      A90D41BE 
 261      C2
 262 05a4 2F28F409 		.ascii	"/(\364\011\322@\257\323\3354U\201\266\234\221\241\213"
 262      D240AFD3 
 262      DD345581 
 262      B69C91A1 
 262      8B
 263 05b5 74563DA3 		.ascii	"tV=\243Zu\315Y\031\232\244\003=\246\202^TV]\254\003"
 263      5A75CD59 
 263      199AA403 
 263      3DA6825E 
 263      54565DAC 
 264 05ca A5FAD3C4 		.ascii	"\245\372\323\304S\331\207\004\003J\341\"P\003\311\331"
 264      53D98704 
 264      034AE122 
 264      5003C9D9 
 265 05da 12110E49 		.ascii	"\022\021\016IC\337@\376\322\271\361(\015h\005\320j\240"
 265      43DF40FE 
 265      D2B9F128 
 265      0D6805D0 
 265      6AA0
 266 05ec 0CA06CA0 		.ascii	"\014\240l\240e@\251@Y@\353\201\326\002e\002m\000\332"
 266      6540A940 
 266      5940EB81 
 266      D6026502 
 266      6D00DA
 267 05ff 04B41C68 		.ascii	"\004\264\034h\015\320*\240u@\033\271\361\364\304g\366"
 267      0DD02AA0 
 267      75401BB9 
 267      F1F4C467 
 267      F6
 268 0610 6528017A 		.ascii	"e(\001z\244\027\240Z\225/\315\212/_\353\3702EA^U\220"
 268      A417A05A 
 268      952FCD8A 
 268      2F5FEBF8 
 268      3245415E 
 269 0626 0B7590EA 		.ascii	"\013u\220\352E\273\025\350\002\035h\261\012\332\243"
 269      45BB15E8 
 269      021D68B1 
 269      0ADAA3
 270 0635 84FD99D6 		.ascii	"\204\375\231\326\326\273hx\342\323\025\277\036\353\371"
ARM GAS  C:\Users\gjl\AppData\Local\Temp\ccl60RTN.s 			page 21


 270      D6BB6878 
 270      E2D315BF 
 270      1EEBF9
 271 0644 A54E67F6 		.ascii	"\245Ng\366\212\220,_e2\246;\252OD\313{\207\255\255r"
 271      8A902C5F 
 271      6532A63B 
 271      AA4F44CB 
 271      7B87ADAD 
 272 0659 EED2D9E0 		.ascii	"\356\322\331\340L_e\"\246\213\367\352\031rJ\265\370"
 272      4C5F6522 
 272      A68BF7EA 
 272      19724AB5 
 272      F8
 273 066a FE95216B 		.ascii	"\376\225!k|\225I\230\236\026\335\"Z>d\2301j'\033\325"
 273      7C954998 
 273      9E16DD22 
 273      5A3E6498 
 273      316A271B 
 274 067f AB3FD75B 		.ascii	"\253?\327[]\215~\256\204\344\251\036\226\225\"\355\033"
 274      5D8D7EAE 
 274      84E4A91E 
 274      969522ED 
 274      1B
 275 0690 9515CB2D 		.ascii	"\225\025\313->x\263\003\214A\354\031J\031<9\243\322"
 275      3E78B303 
 275      8C41EC19 
 275      4A193C39 
 275      A3D2
 276 06a2 9AAC9307 		.ascii	"\232\254\223\007\265K\245j\227\226r\272.\251s1\244v"
 276      B54BA56A 
 276      979672BA 
 276      2EA97331 
 276      A476
 277 06b4 A9472F1B 		.ascii	"\251G/\0334\272\320\013.\255X\227\025\212\257\323^\300"
 277      34BAD00B 
 277      2EAD5897 
 277      158AAFD3 
 277      5EC0
 278 06c6 D5DD5C5B 		.ascii	"\325\335\\[\021\202FG\352o\217\034\330\022\337\347\366"
 278      11824647 
 278      EA6F8F1C 
 278      D812DFE7 
 278      F6
 279 06d7 60316BAD 		.ascii	"`1k\255y\213\304l\013(\332\314\311\255\226\204\220\332"
 279      798BC46C 
 279      0B28DACC 
 279      C9AD9684 
 279      90DA
 280 06e9 BB2977FB 		.ascii	"\273)w\37324Z4\260rD\003\015\377s\353@\367\302%O\022"
 280      32345A34 
 280      B0724403 
 280      0DFF73EB 
 280      40F7C225 
 281 06ff 91E64561 		.ascii	"\221\346Ea\253\252l\015h\033'\275(\364\026\334i\361"
 281      ABAA6C0D 
 281      681B27BD 
 281      28F416DC 
ARM GAS  C:\Users\gjl\AppData\Local\Temp\ccl60RTN.s 			page 22


 281      69F1
 282 0711 C3CF58FB 		.ascii	"\303\317X\373M\336\220z\226cG\370[\300f|\275\276\335"
 282      4DDE907A 
 282      966347F8 
 282      5BC0667C 
 282      BDBEDD
 283 0724 C8BA713B 		.ascii	"\310\272q;yc\353\270\265\256\332\214\223L\254o7\356"
 283      7963EBB8 
 283      B5AEDA8C 
 283      934CAC6F 
 283      37EE
 284 0736 AE0DC519 		.ascii	"\256\015\305\031\224y\263\345~Qi0\322\264\345\361\343"
 284      9479B3E5 
 284      7E516930 
 284      D2B4E5F1 
 284      E3
 285 0747 2D96B146 		.ascii	"-\226\261F\313h\351)r|dd$\313yf\263*\347\215\220\363"
 285      CB68E929 
 285      727C6464 
 285      24CB7966 
 285      B32AE78D 
 286 075d 0225E70D 		.ascii	"\002%\347\015\252\322\324$7\017b\227\313\001b;\307&"
 286      AAD2D424 
 286      370F6297 
 286      CB01623B 
 286      C726
 287 076f 90E4D640 		.ascii	"\220\344\326@\034O\203\353\307\200\252\200\216\002\035"
 287      1C4F83EB 
 287      C780AA80 
 287      8E021D
 288 077e 013A0854 		.ascii	"\001:\010T\012t\000h?P>\320>\240\275@%@\305@E@{\200"
 288      0A740068 
 288      3F503ED0 
 288      3EA0BD40 
 288      2540C540 
 289 0796 0A817603 		.ascii	"\012\201v\003\355\322\364\276\262fy\363\354\3404\026"
 289      EDD2F4BE 
 289      B26679F3 
 289      ECE03416 
 290 07a6 560DDFF3 		.ascii	"V\015\337\363\007\025h\265\326\231\343*g\030\366\200"
 290      071568B5 
 290      D699E32A 
 290      6718F680 
 291 07b6 823DA987 		.ascii	"\202=\251\207Uo\215}\012\366\264\036V\275\355J\024l"
 291      556F8D7D 
 291      0AF6B41E 
 291      56BDED4A 
 291      146C
 292 07c8 8D1E56DD 		.ascii	"\215\036V\335\027\212\024l"
 292      178A146C 
 293 07d0 9D1E56DD 		.ascii	"\235\036V\335\201\013\025\354Y=\254\272U~\243`\353\365"
 293      810B15EC 
 293      593DACBA 
 293      557EA360 
 293      EBF5
 294 07e2 B0AAF374 		.ascii	"\260\252\363t\215\002=\247\007UE7]\201\236\327+\025"
 294      8D023DA7 
ARM GAS  C:\Users\gjl\AppData\Local\Temp\ccl60RTN.s 			page 23


 294      07554537 
 294      5D819ED7 
 294      2B15
 295 07f4 75C45665 		.ascii	"u\304Ve\250\232O\263\210\226\233O\303\267\"\221\226"
 295      A89A4FB3 
 295      88969B4F 
 295      C3B72291 
 295      96
 296 0805 31863577 		.ascii	"1\2065wxqFm\"^n\356\015\303M\031j\014e\360C\234\005"
 296      7871466D 
 296      225E6EEE 
 296      0DC34D19 
 296      6A0C65F0 
 297 081c DD180E57 		.ascii	"\335\030\016W\267k\365\316+\347\306*\240:(\3302\230"
 297      B76BF5CE 
 297      2BE7C62A 
 297      A03A28D8 
 297      3298
 298 082e CD9AC548 		.ascii	"\315\232\305H0\203\012\223A6\001\374\000\031\307\321"
 298      30830A93 
 298      413601FC 
 298      0019C7D1 
 299 083e 1848DE18 		.ascii	"\030H\336\030\310\004\370\177\230#\337\216\350\217Q"
 299      C804F87F 
 299      9823DF8E 
 299      E88F51
 300 084d 98721B5E 		.ascii	"\230r\033^\322\325\213Vjv}\005\333\365\372\333\252\026"
 300      D2D58B56 
 300      6A767D05 
 300      DBF5FADB 
 300      AA16
 301 085f 2CFBFEB7 		.ascii	",\373\376\267\325`\243\305\227j\243\001\354\320\017"
 301      D560A3C5 
 301      976AA301 
 301      ECD00F
 302 086e A02ADEFD 		.ascii	"\240*\336\375\012\370\336p\260\316q\247\240;\365\321"
 302      0AF8DE70 
 302      B0CE71A7 
 302      A03BF5D1 
 303 087e AAA57B57 		.ascii	"\252\245{W\205\263T\036\007\370\375\341\360w\3643yB"
 303      85B3541E 
 303      07F8FDE1 
 303      F077F433 
 303      7942
 304 0890 9DC95310 		.ascii	"\235\311S\020\243j\335L\236\320d\262Z/\223\255\232L"
 304      A36ADD4C 
 304      9ED064B2 
 304      5A2F93AD 
 304      9A4C
 305 08a2 9EA0993C 		.ascii	"\236\240\231<\251\311d\027d\222\0353OS^%\307\0141\364"
 305      A9C96417 
 305      64921D33 
 305      4F535E25 
 305      C70C31F4 
 306 08b6 81F2465F 		.ascii	"\201\362F_Ms\311\234y\272\352\015\346\014\264u\364P"
 306      4D73C99C 
 306      79BAEA0D 
ARM GAS  C:\Users\gjl\AppData\Local\Temp\ccl60RTN.s 			page 24


 306      E60CB475 
 306      F450
 307 08c8 D79929CA 		.ascii	"\327\231)\312Q\377h\025=\352\013\264G=\033\273\222\362"
 307      51FF6815 
 307      3DEA0BB4 
 307      473D1BBB 
 307      92F2
 308 08da 433246CA 		.ascii	"C2F\312f\247r\244\025\320#\215!\236\324\214!\010\022"
 308      66A772A4 
 308      15D0238D 
 308      219ED48C 
 308      210812
 309 08ed E53B8A35 		.ascii	"\345;\2125e\324\0328\025\016\244_Z\355o\224\2348\312"
 309      65D41A38 
 309      150EA45F 
 309      5AED6F94 
 309      9C38CA
 310 0900 7E333E58 		.ascii	"~3>X\264\364\224\377\330\021\013\371,u\377\014u\237"
 310      B4F494FF 
 310      D8110BF9 
 310      2C75FF0C 
 310      759F
 311 0912 BCF3D7A6 		.ascii	"\274\363\327\246?\015zs\243oc\241\257}`\263m\365\226"
 311      3F0D7A73 
 311      A36F63A1 
 311      AF7D60B3 
 311      6DF596
 312 0925 85BE7A98 		.ascii	"\205\276z\230\370\001\005\242=\212\322=\364\013\025"
 312      F80105A2 
 312      3D8AD23D 
 312      F40B15
 313 0934 2A845FFC 		.ascii	"*\204_\374\006T\317\275\011s\357e\325\317\267\340#\354"
 313      0654CFBD 
 313      0973EF65 
 313      D5CFB7E0 
 313      23EC
 314 0946 84FAEE4F 		.ascii	"\204\372\356OD\015\334\267?\02152\331\272ueE\301\262"
 314      440DDCB7 
 314      3F113532 
 314      D9BA7565 
 314      45C1B2
 315 0959 23E79970 		.ascii	"#\347\231pka\3353ndG\232\251#M\222#7:\236\375\002\374"
 315      6B61DD33 
 315      6E64479A 
 315      A9234D92 
 315      23373A9E 
 316 0970 68879F65 		.ascii	"h\207\237e%/\377\\\263ea\345\347\024\203\316)\241\205"
 316      252FFF5C 
 316      B36561E5 
 316      E71483CE 
 316      29A185
 317 0983 47F641EF 		.ascii	"G\366A\357\002\265?\345\332\232#!\370\254i\304\237\306"
 317      02B53FE5 
 317      DA9A2321 
 317      F8AC69C4 
 317      9FC6
 318 0995 CDFD5FAF 		.ascii	"\315\375_\257T\276\\]bf\035\257O:\206\324f\021\177\025"
ARM GAS  C:\Users\gjl\AppData\Local\Temp\ccl60RTN.s 			page 25


 318      54BE5C5D 
 318      62661DAF 
 318      4F3A86D4 
 318      66117F15 
 319 09a9 B3AE50B3 		.ascii	"\263\256P\263.Kf\035\316n<hdvUf>\211K\233\2771\222@"
 319      2E4B661D 
 319      CE6E3C68 
 319      64765566 
 319      3E894B9B 
 320 09c1 D045C5AA 		.ascii	"\320E\305\252\213\222U-\324\252\305+J\267p\3702\263"
 320      8B92552D 
 320      D4AAC52B 
 320      4AB770F8 
 320      32B3
 321 09d3 EAFAB1A4 		.ascii	"\352\372\261\244\307\201r`\230Ug+j\327\033G\216K\033"
 321      C7817260 
 321      9855672B 
 321      6AD71B47 
 321      8E4B1B
 322 09e6 35E0AA64 		.ascii	"5\340\252d@W\301\303^\311\200\276\316\337P\003\000\202"
 322      4057C1C3 
 322      5EC980BE 
 322      CEDF5003 
 322      0082
 323 09f8 5A15035A 		.ascii	"Z\025\003Z%\003\332\251\001\3357kj\203\360\375\3776"
 323      2503DAA9 
 323      01DD376B 
 323      6A83F0FD 
 323      FF36
 324 0a0a ADD775D2 		.ascii	"\255\327u\322z\203\323\371\362w\223\011\363\026<K7\313"
 324      7A83D3F9 
 324      F2779309 
 324      F3163C4B 
 324      37CB
 325 0a1c 2EDD62C2 		.ascii	".\335b\302\333\351)\031\377!\327w\250O\267%\237v-i\272"
 325      DBE92919 
 325      FF21D777 
 325      A84FB725 
 325      9F762D69 
 326 0a31 E827FA54 		.ascii	"\350'\372T\357\311\362\035\345\010\002]S\\\272&\271"
 326      EFC9F21D 
 326      E508025D 
 326      535CBA26 
 326      B9
 327 0a42 D4415DDA 		.ascii	"\324A]\332\221\326\016;lh\344\230^-z\320\032\252\326"
 327      91D60E3B 
 327      6C68E498 
 327      5E2D7AD0 
 327      1AAAD6
 328 0a55 3FFD5595 		.ascii	"?\375U\225\372N\252\376\236\244\376^\336\222f)\244\255"
 328      FA4EAAFE 
 328      9EA4FE5E 
 328      DE926629 
 328      A4AD
 329 0a67 D998EA07 		.ascii	"\331\230\352\007\010\272\253\350\277+\351\277O\365\357"
 329      08BAABE8 
 329      BF2BE9BF 
ARM GAS  C:\Users\gjl\AppData\Local\Temp\ccl60RTN.s 			page 26


 329      4FF5EF
 330 0a76 DF7AE14E 		.ascii	"\337z\341N\020N\013\0341\244\325O\3337\204\3126=`A9"
 330      104E0B1C 
 330      31A4D54F 
 330      DB3784CA 
 330      363D6041 
 331 0a8b BD367D57 		.ascii	"\2756}W\350\310A\351\246V=\224\254Z\226W\272\010\211"
 331      E8C841E9 
 331      A6563D94 
 331      AC5A9657 
 331      BA0889
 332 0a9e 56BD78CC 		.ascii	"V\275x\314\022\015\020\324\245X\325%Y\365\210Z\325\230"
 332      120D10D4 
 332      A558D525 
 332      59F5885A 
 332      D598
 333 0ab0 F832CF1F 		.ascii	"\3702\317\037o\032\331\252\372}\337\034\301#\033\320"
 333      6F1AD9AA 
 333      FA7DDF1C 
 333      C1231BD0 
 334 0ac0 430D7822 		.ascii	"C\015x\"\031\360ra\346Z\263h@\011\313\012 \320cE\377"
 334      19F07261 
 334      E65AB368 
 334      4009CB0A 
 334      20D06345 
 335 0ad5 6349FF53 		.ascii	"cI\377S\252\177\376\263\232\213\234\346\275\271G\323"
 335      AA7FFEB3 
 335      9A8B9CE6 
 335      BDB947D3 
 336 0ae5 CC9FB113 		.ascii	"\314\237\261\023\224\334\001}\360VYM\250\006\335\255"
 336      94DC017D 
 336      F056594D 
 336      A806DDAD 
 337 0af5 41F78AE8 		.ascii	"A\367\212\350^\212\276\265ay\261\366\003s\247\006\375"
 337      5E8ABEB5 
 337      6179B1F6 
 337      0373A706 
 337      FD
 338 0b06 5C443FA7 		.ascii	"\\D?\247\350\253\305\0255\001\032\364\035\015\272OD"
 338      E8ABC515 
 338      35011AF4 
 338      1D0DBA4F 
 338      44
 339 0b17 F751F49D 		.ascii	"\367Q\364\235\306\314:\355\332\315\032t\277\210\356"
 339      C6CC3AED 
 339      DACD1A74 
 339      BF88EE
 340 0b26 A7E8D4D4 		.ascii	"\247\350\324\324\23674\340+\032\360\200\010\036\240"
 340      9E3734E0 
 340      2B1AF080 
 340      081EA0
 341 0b35 E0CE4755 		.ascii	"\340\316GU]~\032t\233\006=(\242\311\335\364\311\357"
 341      5D7E1A74 
 341      9B063D28 
 341      A2C9DDF4 
 341      C9EF
 342 0b47 A78DFB70 		.ascii	"\247\215\373p\312\024C\240\325\352u8\205(\253\220\210"
ARM GAS  C:\Users\gjl\AppData\Local\Temp\ccl60RTN.s 			page 27


 342      CA1443A0 
 342      D5EA7538 
 342      8528AB90 
 342      88
 343 0b58 EC3F8F76 		.ascii	"\354?\217v\271\023f\272m\263\306\305:\342y\317\270\310"
 343      B91366BA 
 343      6DB3C6C5 
 343      3AE279CF 
 343      B8C8
 344 0b6a B951EFFF 		.ascii	"\271Q\357\3774\332>\317\345\346=\236h\227'\301>\316"
 344      34DA3ECF 
 344      E5E63D9E 
 344      689727C1 
 344      3ECE
 345 0b7c EEE66D42 		.ascii	"\356\346mB\202;\372\275IS\264\002\307,W\202[\210\236"
 345      823BFABD 
 345      4953B402 
 345      C72C5782 
 345      5B889E
 346 0b8f E9F446DB 		.ascii	"\351\364F\333\334\263\242\1776\211 \340\351mg\202\223"
 346      DCB3A27F 
 346      368920E0 
 346      E96D6782 
 346      93
 347 0ba0 7F9BB7CD 		.ascii	"\177\233\267\315pD;\234\366xo\014\037=\313f\217s8\371"
 347      70443B9C 
 347      F6786F0C 
 347      1F3DCB66 
 347      8F7338F9 
 348 0bb4 686B0C1F 		.ascii	"hk\014\037k\363\306\013Va\236\213\367L\2123\004\210"
 348      6BF3C60B 
 348      56619E8B 
 348      F74C8A33 
 348      0488
 349 0bc6 A6CCFE7F 		.ascii	"\246\314\376\177Y\342\231\347\211\266z\204\030P\013"
 349      59E299E7 
 349      89B67A84 
 349      18500B
 350 0bd5 EA23BC51 		.ascii	"\352#\274Qs\243\254\323<\274\373S\247\300\273cmv\376"
 350      73A3ACD3 
 350      3CBCFB53 
 350      A7C0BB63 
 350      6D76FE
 351 0be8 53A7CB2B 		.ascii	"S\247\313+L\267\305{y\243=\316\346\016\211\341g$x\235"
 351      4CB7C57B 
 351      79A33DCE 
 351      E60E89E1 
 351      6724789D 
 352 0bfc 761E26D9 		.ascii	"v\036&\331\004\3765\231\215\267y\004\253\313\341d\362"
 352      04FE3599 
 352      8DB77904 
 352      ABCBE164 
 352      F2
 353 0c0d D765B9E4 		.ascii	"\327e\271\344\241<\0244\323\345H\260\202\027 5{\205"
 353      A13C1434 
 353      D3E548B0 
 353      82172035 
ARM GAS  C:\Users\gjl\AppData\Local\Temp\ccl60RTN.s 			page 28


 353      7B85
 354 0c1f D8282686 		.ascii	"\330(&\206\205g;\000o\213\211!\036\0069\336\265\223"
 354      85673B00 
 354      6F8B8921 
 354      1E0639DE 
 354      B593
 355 0c31 01B7C0C7 		.ascii	"\001\267\300\307\320gQ\036\356\360Xc\023\234\202\325"
 355      D067511E 
 355      EEF05863 
 355      139C82D5 
 356 0c41 E19CCDBB 		.ascii	"\341\234\315\273=\274uVB\014o\232kM\210\215\365\360"
 356      3DBC7556 
 356      420C6F9A 
 356      6B4D888D 
 356      F5F0
 357 0c53 828977DA 		.ascii	"\202\211w\332\023\300\227\231f\226\324)\357[\005\223"
 357      13C09799 
 357      6696D429 
 357      EF5B0593 
 358 0c63 F46024F3 		.ascii	"\364`$\363FQ\3556g\014\030\026o\233g\265\317\010\242"
 358      4651ED36 
 358      670C1816 
 358      6F9B67B5 
 358      CF08A2
 359 0c76 3ECFF2CC 		.ascii	">\317\362\314\204\347\200\031\363\004\036\356\376v["
 359      84E78019 
 359      F3041EEE 
 359      FE765B
 360 0c85 0CDCCC31 		.ascii	"\014\334\3141\016\217\213\241\002\234\374\\\001\356"
 360      0E8F8BA1 
 360      029CFC5C 
 360      01EE
 361 0c93 168A2691 		.ascii	"\026\212&\221 \2144\356p\306&\004\271\034s\371x\353"
 361      208C34EE 
 361      70C62604 
 361      B91C73F9 
 361      78EB
 362 0ca5 1C478C10 		.ascii	"\034G\214\0207*6\336\341\"\226Y%\313^\221\342 \011\202"
 362      372A36DE 
 362      E1229659 
 362      25CB5E91 
 362      E2200982 
 363 0cb9 0448AB35 		.ascii	"\004H\2535\216w\314\214\023\314\364\231\316\014\237"
 363      8E77CC8C 
 363      13CCF499 
 363      CE0C9F
 364 0cc8 E3768009 		.ascii	"\343v\200\011.o\274G\224X\235\236\260\030\233`\263\302"
 364      2E6FBC47 
 364      94589D9E 
 364      B0189B60 
 364      B3C2
 365 0cda 24AFCB2A 		.ascii	"$\257\313*8f\361 \012'1\231\341\365X\355\361\011\366"
 365      3866F120 
 365      0A273199 
 365      E1F558ED 
 365      F109F6
 366 0ced 2FAD5326 		.ascii	"/\255S&O\376\3627_\231<.\007\015\210\305\00326\022\367"
ARM GAS  C:\Users\gjl\AppData\Local\Temp\ccl60RTN.s 			page 29


 366      4FFEF237 
 366      5F993C2E 
 366      070D88C5 
 366      03323612 
 367 0d02 95188BA9 		.ascii	"\225\030\213\251\357\212\261 \017a\004\240U2\312\023"
 367      EF8AB120 
 367      0F6104A0 
 367      5532CA13 
 368 0d12 334C4798 		.ascii	"3LG\230+\001r\012Q\347\005\353\034\233C\200 \2053N="
 368      2B01720A 
 368      51E705EB 
 368      1C9B4380 
 368      2085334E 
 369 0d27 7396672C 		.ascii	"s\226g,\324$\204\304\341\262B<l3\210+\004\355\204\001"
 369      D42484C4 
 369      E1B2423C 
 369      6C33882B 
 369      04ED8401 
 370 0d3b B2001DE1 		.ascii	"\262\000\035\341\235\352\2010\015:\236\237\315\307\217"
 370      9DEA8130 
 370      0D3A9E9F 
 370      CDC78F
 371 0d4a 52C3A864 		.ascii	"R\303\250d,\015\265:\304P\020n\257]\260\260H\263\330"
 371      2C0DB53A 
 371      C450106E 
 371      AF5DB0B0 
 371      48B3D8
 372 0d5d BD366952 		.ascii	"\2756iR4\374y\243f\276\033m\367\270\355\321d\026\224"
 372      34FC79A3 
 372      66BE1B6D 
 372      F7B8EDD1 
 372      641694
 373 0d70 F2E86FCF 		.ascii	"\362\350o\317\026X\252\331\"\243\345\012e\245H*\300"
 373      1658AAD9 
 373      22A3E50A 
 373      65A5482A 
 373      C0
 374 0d81 9F8E0B3F 		.ascii	"\237\216\013?\326[\022\226\200\215`\235Mv\302$\273!"
 374      D65B1296 
 374      808D609D 
 374      4D76C224 
 374      BB21
 375 0d93 98CA3E72 		.ascii	"\230\312>r\333\346L\373\343\307Qf\312y\243\204\004\333"
 375      DBE64CFB 
 375      E3C75166 
 375      CA79A384 
 375      04DB
 376 0da5 28FAF809 		.ascii	"(\372\370\011/\374\216wz\177=\233w\012a\032\350oa\337"
 376      2FFC8E77 
 376      7A7F3D9B 
 376      770A611A 
 376      E86F61DF 
 377 0db9 7B18E8C3 		.ascii	"{\030\350\303x\336\346\376\210Y\030*M\243\030\3369F"
 377      78DEE6FE 
 377      8859182A 
 377      4DA318DE 
 377      3946
ARM GAS  C:\Users\gjl\AppData\Local\Temp\ccl60RTN.s 			page 30


 378 0dcb E2FF20B8 		.ascii	"\342\377 \270\241\236\311\254\017\235\302\277\001OP"
 378      A19EC9AC 
 378      0F9DC2BF 
 378      014F50
 379 0dda 2D08     		.ascii	"-\010"
 380              		.text
 381              		.section	.gnu.lto_.symtab.1a3eed8,"",%progbits
 382 0000 75387838 		.ascii	"u8x8_UserInterfaceInputValue\000"
 382      5F557365 
 382      72496E74 
 382      65726661 
 382      6365496E 
 383 001d 00       		.ascii	"\000"
 384 001e 00       		.ascii	"\000"
 385 001f 00       		.ascii	"\000"
 386 0020 00000000 		.ascii	"\000\000\000\000\000\000\000\000"
 386      00000000 
 387 0028 50010000 		.ascii	"P\001\000\000"
 388 002c 75387838 		.ascii	"u8x8_DrawUTF8\000"
 388      5F447261 
 388      77555446 
 388      3800
 389 003a 00       		.ascii	"\000"
 390 003b 02       		.ascii	"\002"
 391 003c 00       		.ascii	"\000"
 392 003d 00000000 		.ascii	"\000\000\000\000\000\000\000\000"
 392      00000000 
 393 0045 57010000 		.ascii	"W\001\000\000"
 394 0049 75387838 		.ascii	"u8x8_u8toa\000"
 394      5F753874 
 394      6F6100
 395 0054 00       		.ascii	"\000"
 396 0055 02       		.ascii	"\002"
 397 0056 00       		.ascii	"\000"
 398 0057 00000000 		.ascii	"\000\000\000\000\000\000\000\000"
 398      00000000 
 399 005f 5C010000 		.ascii	"\\\001\000\000"
 400 0063 75387838 		.ascii	"u8x8_GetMenuEvent\000"
 400      5F476574 
 400      4D656E75 
 400      4576656E 
 400      7400
 401 0075 00       		.ascii	"\000"
 402 0076 02       		.ascii	"\002"
 403 0077 00       		.ascii	"\000"
 404 0078 00000000 		.ascii	"\000\000\000\000\000\000\000\000"
 404      00000000 
 405 0080 60010000 		.ascii	"`\001\000\000"
 406 0084 75387838 		.ascii	"u8x8_DrawUTF8Lines\000"
 406      5F447261 
 406      77555446 
 406      384C696E 
 406      657300
 407 0097 00       		.ascii	"\000"
 408 0098 02       		.ascii	"\002"
 409 0099 00       		.ascii	"\000"
 410 009a 00000000 		.ascii	"\000\000\000\000\000\000\000\000"
ARM GAS  C:\Users\gjl\AppData\Local\Temp\ccl60RTN.s 			page 31


 410      00000000 
 411 00a2 68010000 		.ascii	"h\001\000\000"
 412 00a6 75387838 		.ascii	"u8x8_ClearDisplay\000"
 412      5F436C65 
 412      61724469 
 412      73706C61 
 412      7900
 413 00b8 00       		.ascii	"\000"
 414 00b9 02       		.ascii	"\002"
 415 00ba 00       		.ascii	"\000"
 416 00bb 00000000 		.ascii	"\000\000\000\000\000\000\000\000"
 416      00000000 
 417 00c3 6C010000 		.ascii	"l\001\000\000"
 418 00c7 75387838 		.ascii	"u8x8_GetUTF8Len\000"
 418      5F476574 
 418      55544638 
 418      4C656E00 
 419 00d7 00       		.ascii	"\000"
 420 00d8 02       		.ascii	"\002"
 421 00d9 00       		.ascii	"\000"
 422 00da 00000000 		.ascii	"\000\000\000\000\000\000\000\000"
 422      00000000 
 423 00e2 71010000 		.ascii	"q\001\000\000"
 424 00e6 75387838 		.ascii	"u8x8_GetStringLineCnt\000"
 424      5F476574 
 424      53747269 
 424      6E674C69 
 424      6E65436E 
 425 00fc 00       		.ascii	"\000"
 426 00fd 02       		.ascii	"\002"
 427 00fe 00       		.ascii	"\000"
 428 00ff 00000000 		.ascii	"\000\000\000\000\000\000\000\000"
 428      00000000 
 429 0107 75010000 		.ascii	"u\001\000\000"
 430              		.text
 431              		.section	.gnu.lto_.opts,"",%progbits
 432 0000 272D666D 		.ascii	"'-fmath-errno' '-fsigned-zeros' '-ftrapping-math' '"
 432      6174682D 
 432      6572726E 
 432      6F272027 
 432      2D667369 
 433 0033 2D666E6F 		.ascii	"-fno-trapv' '-fno-openmp' '-fno-openacc' '-mcpu=cor"
 433      2D747261 
 433      70762720 
 433      272D666E 
 433      6F2D6F70 
 434 0066 7465782D 		.ascii	"tex-m0' '-mthumb' '-g' '-Os' '-ffunction-sections' "
 434      6D302720 
 434      272D6D74 
 434      68756D62 
 434      2720272D 
 435 0099 272D6666 		.ascii	"'-ffat-lto-objects' '-flto'\000"
 435      61742D6C 
 435      746F2D6F 
 435      626A6563 
 435      74732720 
 436              		.text
ARM GAS  C:\Users\gjl\AppData\Local\Temp\ccl60RTN.s 			page 32


 437              		.cfi_sections	.debug_frame
 438              		.section	.text.u8x8_UserInterfaceInputValue,"ax",%progbits
 439              		.align	1
 440              		.global	u8x8_UserInterfaceInputValue
 441              		.code	16
 442              		.thumb_func
 443              		.type	u8x8_UserInterfaceInputValue, %function
 444              	u8x8_UserInterfaceInputValue:
 445              	.LFB0:
 446              		.file 1 "..\\..\\u8g2\\csrc\\u8x8_input_value.c"
   1:..\..\u8g2\csrc/u8x8_input_value.c **** /*
   2:..\..\u8g2\csrc/u8x8_input_value.c **** 
   3:..\..\u8g2\csrc/u8x8_input_value.c ****   u8x8_input_value.c
   4:..\..\u8g2\csrc/u8x8_input_value.c ****   
   5:..\..\u8g2\csrc/u8x8_input_value.c ****   Universal 8bit Graphics Library (https://github.com/olikraus/u8g2/)
   6:..\..\u8g2\csrc/u8x8_input_value.c **** 
   7:..\..\u8g2\csrc/u8x8_input_value.c ****   Copyright (c) 2016, olikraus@gmail.com
   8:..\..\u8g2\csrc/u8x8_input_value.c ****   All rights reserved.
   9:..\..\u8g2\csrc/u8x8_input_value.c **** 
  10:..\..\u8g2\csrc/u8x8_input_value.c ****   Redistribution and use in source and binary forms, with or without modification, 
  11:..\..\u8g2\csrc/u8x8_input_value.c ****   are permitted provided that the following conditions are met:
  12:..\..\u8g2\csrc/u8x8_input_value.c **** 
  13:..\..\u8g2\csrc/u8x8_input_value.c ****   * Redistributions of source code must retain the above copyright notice, this list 
  14:..\..\u8g2\csrc/u8x8_input_value.c ****     of conditions and the following disclaimer.
  15:..\..\u8g2\csrc/u8x8_input_value.c ****     
  16:..\..\u8g2\csrc/u8x8_input_value.c ****   * Redistributions in binary form must reproduce the above copyright notice, this 
  17:..\..\u8g2\csrc/u8x8_input_value.c ****     list of conditions and the following disclaimer in the documentation and/or other 
  18:..\..\u8g2\csrc/u8x8_input_value.c ****     materials provided with the distribution.
  19:..\..\u8g2\csrc/u8x8_input_value.c **** 
  20:..\..\u8g2\csrc/u8x8_input_value.c ****   THIS SOFTWARE IS PROVIDED BY THE COPYRIGHT HOLDERS AND 
  21:..\..\u8g2\csrc/u8x8_input_value.c ****   CONTRIBUTORS "AS IS" AND ANY EXPRESS OR IMPLIED WARRANTIES, 
  22:..\..\u8g2\csrc/u8x8_input_value.c ****   INCLUDING, BUT NOT LIMITED TO, THE IMPLIED WARRANTIES OF 
  23:..\..\u8g2\csrc/u8x8_input_value.c ****   MERCHANTABILITY AND FITNESS FOR A PARTICULAR PURPOSE ARE 
  24:..\..\u8g2\csrc/u8x8_input_value.c ****   DISCLAIMED. IN NO EVENT SHALL THE COPYRIGHT HOLDER OR 
  25:..\..\u8g2\csrc/u8x8_input_value.c ****   CONTRIBUTORS BE LIABLE FOR ANY DIRECT, INDIRECT, INCIDENTAL, 
  26:..\..\u8g2\csrc/u8x8_input_value.c ****   SPECIAL, EXEMPLARY, OR CONSEQUENTIAL DAMAGES (INCLUDING, BUT 
  27:..\..\u8g2\csrc/u8x8_input_value.c ****   NOT LIMITED TO, PROCUREMENT OF SUBSTITUTE GOODS OR SERVICES; 
  28:..\..\u8g2\csrc/u8x8_input_value.c ****   LOSS OF USE, DATA, OR PROFITS; OR BUSINESS INTERRUPTION) HOWEVER 
  29:..\..\u8g2\csrc/u8x8_input_value.c ****   CAUSED AND ON ANY THEORY OF LIABILITY, WHETHER IN CONTRACT, 
  30:..\..\u8g2\csrc/u8x8_input_value.c ****   STRICT LIABILITY, OR TORT (INCLUDING NEGLIGENCE OR OTHERWISE) 
  31:..\..\u8g2\csrc/u8x8_input_value.c ****   ARISING IN ANY WAY OUT OF THE USE OF THIS SOFTWARE, EVEN IF 
  32:..\..\u8g2\csrc/u8x8_input_value.c ****   ADVISED OF THE POSSIBILITY OF SUCH DAMAGE.  
  33:..\..\u8g2\csrc/u8x8_input_value.c ****   
  34:..\..\u8g2\csrc/u8x8_input_value.c **** */
  35:..\..\u8g2\csrc/u8x8_input_value.c **** 
  36:..\..\u8g2\csrc/u8x8_input_value.c **** #include "u8x8.h"
  37:..\..\u8g2\csrc/u8x8_input_value.c **** 
  38:..\..\u8g2\csrc/u8x8_input_value.c **** /*
  39:..\..\u8g2\csrc/u8x8_input_value.c ****   return:
  40:..\..\u8g2\csrc/u8x8_input_value.c ****     0: value is not changed (HOME/Break Button pressed)
  41:..\..\u8g2\csrc/u8x8_input_value.c ****     1: value has been updated
  42:..\..\u8g2\csrc/u8x8_input_value.c **** */
  43:..\..\u8g2\csrc/u8x8_input_value.c **** 
  44:..\..\u8g2\csrc/u8x8_input_value.c **** uint8_t u8x8_UserInterfaceInputValue(u8x8_t *u8x8, const char *title, const char *pre, uint8_t *val
  45:..\..\u8g2\csrc/u8x8_input_value.c **** {
 447              		.loc 1 45 0
 448              		.cfi_startproc
ARM GAS  C:\Users\gjl\AppData\Local\Temp\ccl60RTN.s 			page 33


 449              		@ args = 16, pretend = 0, frame = 24
 450              		@ frame_needed = 0, uses_anonymous_args = 0
 451              	.LVL0:
 452 0000 F0B5     		push	{r4, r5, r6, r7, lr}
 453              		.cfi_def_cfa_offset 20
 454              		.cfi_offset 4, -20
 455              		.cfi_offset 5, -16
 456              		.cfi_offset 6, -12
 457              		.cfi_offset 7, -8
 458              		.cfi_offset 14, -4
 459 0002 89B0     		sub	sp, sp, #36
 460              		.cfi_def_cfa_offset 56
 461              		.loc 1 45 0
 462 0004 0593     		str	r3, [sp, #20]
 463 0006 0EAB     		add	r3, sp, #56
 464              	.LVL1:
 465 0008 1B78     		ldrb	r3, [r3]
 466              	.LVL2:
 467 000a 0400     		movs	r4, r0
 468 000c 0693     		str	r3, [sp, #24]
 469 000e 0FAB     		add	r3, sp, #60
 470              	.LVL3:
 471 0010 1B78     		ldrb	r3, [r3]
 472              	.LVL4:
  46:..\..\u8g2\csrc/u8x8_input_value.c ****   uint8_t height;
  47:..\..\u8g2\csrc/u8x8_input_value.c ****   uint8_t y;
  48:..\..\u8g2\csrc/u8x8_input_value.c ****   uint8_t width;
  49:..\..\u8g2\csrc/u8x8_input_value.c ****   uint8_t x;
  50:..\..\u8g2\csrc/u8x8_input_value.c ****   uint8_t local_value = *value;
  51:..\..\u8g2\csrc/u8x8_input_value.c ****   uint8_t r;
  52:..\..\u8g2\csrc/u8x8_input_value.c ****   uint8_t event;
  53:..\..\u8g2\csrc/u8x8_input_value.c **** 
  54:..\..\u8g2\csrc/u8x8_input_value.c ****   /* calculate overall height of the input value box */
  55:..\..\u8g2\csrc/u8x8_input_value.c ****   height = 1;	/* button line */
  56:..\..\u8g2\csrc/u8x8_input_value.c ****   height += u8x8_GetStringLineCnt(title);
 473              		.loc 1 56 0
 474 0012 0800     		movs	r0, r1
 475              	.LVL5:
  45:..\..\u8g2\csrc/u8x8_input_value.c ****   uint8_t height;
 476              		.loc 1 45 0
 477 0014 0793     		str	r3, [sp, #28]
 478 0016 10AB     		add	r3, sp, #64
 479              	.LVL6:
 480 0018 1B78     		ldrb	r3, [r3]
 481              	.LVL7:
 482 001a 0391     		str	r1, [sp, #12]
 483 001c 0293     		str	r3, [sp, #8]
  50:..\..\u8g2\csrc/u8x8_input_value.c ****   uint8_t r;
 484              		.loc 1 50 0
 485 001e 059B     		ldr	r3, [sp, #20]
  45:..\..\u8g2\csrc/u8x8_input_value.c ****   uint8_t height;
 486              		.loc 1 45 0
 487 0020 0492     		str	r2, [sp, #16]
  50:..\..\u8g2\csrc/u8x8_input_value.c ****   uint8_t r;
 488              		.loc 1 50 0
 489 0022 1D78     		ldrb	r5, [r3]
 490              	.LVL8:
ARM GAS  C:\Users\gjl\AppData\Local\Temp\ccl60RTN.s 			page 34


 491              		.loc 1 56 0
 492 0024 FFF7FEFF 		bl	u8x8_GetStringLineCnt
 493              	.LVL9:
  57:..\..\u8g2\csrc/u8x8_input_value.c ****   
  58:..\..\u8g2\csrc/u8x8_input_value.c ****   /* calculate offset from top */
  59:..\..\u8g2\csrc/u8x8_input_value.c ****   y = 0;
  60:..\..\u8g2\csrc/u8x8_input_value.c ****   if ( height < u8x8_GetRows(u8x8)  )
 494              		.loc 1 60 0
 495 0028 2368     		ldr	r3, [r4]
  56:..\..\u8g2\csrc/u8x8_input_value.c ****   
 496              		.loc 1 56 0
 497 002a 0130     		adds	r0, r0, #1
 498              		.loc 1 60 0
 499 002c 5B7C     		ldrb	r3, [r3, #17]
  56:..\..\u8g2\csrc/u8x8_input_value.c ****   
 500              		.loc 1 56 0
 501 002e C0B2     		uxtb	r0, r0
 502              	.LVL10:
  59:..\..\u8g2\csrc/u8x8_input_value.c ****   if ( height < u8x8_GetRows(u8x8)  )
 503              		.loc 1 59 0
 504 0030 0027     		movs	r7, #0
 505              		.loc 1 60 0
 506 0032 9842     		cmp	r0, r3
 507 0034 02D2     		bcs	.L2
 508              	.LVL11:
  61:..\..\u8g2\csrc/u8x8_input_value.c ****   {
  62:..\..\u8g2\csrc/u8x8_input_value.c ****     y = u8x8_GetRows(u8x8);
  63:..\..\u8g2\csrc/u8x8_input_value.c ****     y -= height;
 509              		.loc 1 63 0
 510 0036 1B1A     		subs	r3, r3, r0
 511              	.LVL12:
 512 0038 D8B2     		uxtb	r0, r3
 513              	.LVL13:
  64:..\..\u8g2\csrc/u8x8_input_value.c ****     y /= 2;
 514              		.loc 1 64 0
 515 003a 4708     		lsrs	r7, r0, #1
 516              	.LVL14:
 517              	.L2:
  65:..\..\u8g2\csrc/u8x8_input_value.c ****   }
  66:..\..\u8g2\csrc/u8x8_input_value.c ****   
  67:..\..\u8g2\csrc/u8x8_input_value.c ****   /* calculate offset from left for the label */
  68:..\..\u8g2\csrc/u8x8_input_value.c ****   x = 0;
  69:..\..\u8g2\csrc/u8x8_input_value.c ****   width = u8x8_GetUTF8Len(u8x8, pre);
 518              		.loc 1 69 0
 519 003c 0499     		ldr	r1, [sp, #16]
 520 003e 2000     		movs	r0, r4
 521 0040 FFF7FEFF 		bl	u8x8_GetUTF8Len
 522              	.LVL15:
  70:..\..\u8g2\csrc/u8x8_input_value.c ****   width += digits;
  71:..\..\u8g2\csrc/u8x8_input_value.c ****   width += u8x8_GetUTF8Len(u8x8, post);
 523              		.loc 1 71 0
 524 0044 1199     		ldr	r1, [sp, #68]
  69:..\..\u8g2\csrc/u8x8_input_value.c ****   width += digits;
 525              		.loc 1 69 0
 526 0046 0600     		movs	r6, r0
 527              	.LVL16:
 528              		.loc 1 71 0
ARM GAS  C:\Users\gjl\AppData\Local\Temp\ccl60RTN.s 			page 35


 529 0048 2000     		movs	r0, r4
 530 004a FFF7FEFF 		bl	u8x8_GetUTF8Len
 531              	.LVL17:
 532 004e 029B     		ldr	r3, [sp, #8]
 533 0050 3618     		adds	r6, r6, r0
 534              	.LVL18:
 535 0052 F618     		adds	r6, r6, r3
  72:..\..\u8g2\csrc/u8x8_input_value.c ****   if ( width < u8x8_GetCols(u8x8) )
 536              		.loc 1 72 0
 537 0054 2368     		ldr	r3, [r4]
  71:..\..\u8g2\csrc/u8x8_input_value.c ****   if ( width < u8x8_GetCols(u8x8) )
 538              		.loc 1 71 0
 539 0056 F0B2     		uxtb	r0, r6
 540              	.LVL19:
 541              		.loc 1 72 0
 542 0058 1B7C     		ldrb	r3, [r3, #16]
  68:..\..\u8g2\csrc/u8x8_input_value.c ****   width = u8x8_GetUTF8Len(u8x8, pre);
 543              		.loc 1 68 0
 544 005a 0026     		movs	r6, #0
 545              		.loc 1 72 0
 546 005c 9842     		cmp	r0, r3
 547 005e 02D2     		bcs	.L3
 548              	.LVL20:
  73:..\..\u8g2\csrc/u8x8_input_value.c ****   {
  74:..\..\u8g2\csrc/u8x8_input_value.c ****     x = u8x8_GetCols(u8x8);
  75:..\..\u8g2\csrc/u8x8_input_value.c ****     x -= width;
 549              		.loc 1 75 0
 550 0060 1E1A     		subs	r6, r3, r0
 551 0062 F6B2     		uxtb	r6, r6
 552              	.LVL21:
  76:..\..\u8g2\csrc/u8x8_input_value.c ****     x /= 2;
 553              		.loc 1 76 0
 554 0064 7608     		lsrs	r6, r6, #1
 555              	.LVL22:
 556              	.L3:
  77:..\..\u8g2\csrc/u8x8_input_value.c ****   }
  78:..\..\u8g2\csrc/u8x8_input_value.c ****   
  79:..\..\u8g2\csrc/u8x8_input_value.c ****   /* render */
  80:..\..\u8g2\csrc/u8x8_input_value.c ****   u8x8_ClearDisplay(u8x8);   /* required, because not everything is filled */
 557              		.loc 1 80 0
 558 0066 2000     		movs	r0, r4
 559              	.LVL23:
 560 0068 FFF7FEFF 		bl	u8x8_ClearDisplay
 561              	.LVL24:
  81:..\..\u8g2\csrc/u8x8_input_value.c ****   u8x8_SetInverseFont(u8x8, 0);  
 562              		.loc 1 81 0
 563 006c 0021     		movs	r1, #0
  82:..\..\u8g2\csrc/u8x8_input_value.c ****   y += u8x8_DrawUTF8Lines(u8x8, 0, y, u8x8_GetCols(u8x8), title);
 564              		.loc 1 82 0
 565 006e 039A     		ldr	r2, [sp, #12]
 566 0070 2368     		ldr	r3, [r4]
  81:..\..\u8g2\csrc/u8x8_input_value.c ****   u8x8_SetInverseFont(u8x8, 0);  
 567              		.loc 1 81 0
 568 0072 E177     		strb	r1, [r4, #31]
 569              		.loc 1 82 0
 570 0074 1B7C     		ldrb	r3, [r3, #16]
 571 0076 2000     		movs	r0, r4
ARM GAS  C:\Users\gjl\AppData\Local\Temp\ccl60RTN.s 			page 36


 572 0078 0092     		str	r2, [sp]
 573 007a 3A00     		movs	r2, r7
 574 007c FFF7FEFF 		bl	u8x8_DrawUTF8Lines
 575              	.LVL25:
 576 0080 3818     		adds	r0, r7, r0
 577 0082 C7B2     		uxtb	r7, r0
 578              	.LVL26:
  83:..\..\u8g2\csrc/u8x8_input_value.c ****   x += u8x8_DrawUTF8(u8x8, x, y, pre);
 579              		.loc 1 83 0
 580 0084 3100     		movs	r1, r6
 581 0086 049B     		ldr	r3, [sp, #16]
 582 0088 3A00     		movs	r2, r7
 583 008a 2000     		movs	r0, r4
 584 008c FFF7FEFF 		bl	u8x8_DrawUTF8
 585              	.LVL27:
  84:..\..\u8g2\csrc/u8x8_input_value.c ****   u8x8_DrawUTF8(u8x8, x+digits, y, post);
 586              		.loc 1 84 0
 587 0090 029B     		ldr	r3, [sp, #8]
  83:..\..\u8g2\csrc/u8x8_input_value.c ****   x += u8x8_DrawUTF8(u8x8, x, y, pre);
 588              		.loc 1 83 0
 589 0092 3618     		adds	r6, r6, r0
 590              	.LVL28:
 591 0094 F6B2     		uxtb	r6, r6
 592              	.LVL29:
 593              		.loc 1 84 0
 594 0096 9919     		adds	r1, r3, r6
 595 0098 C9B2     		uxtb	r1, r1
 596 009a 119B     		ldr	r3, [sp, #68]
 597 009c 3A00     		movs	r2, r7
 598 009e 2000     		movs	r0, r4
 599 00a0 FFF7FEFF 		bl	u8x8_DrawUTF8
 600              	.LVL30:
  85:..\..\u8g2\csrc/u8x8_input_value.c ****   u8x8_SetInverseFont(u8x8, 1);
 601              		.loc 1 85 0
 602 00a4 0123     		movs	r3, #1
 603 00a6 E377     		strb	r3, [r4, #31]
 604              	.L24:
  86:..\..\u8g2\csrc/u8x8_input_value.c ****   
  87:..\..\u8g2\csrc/u8x8_input_value.c ****   /* event loop */
  88:..\..\u8g2\csrc/u8x8_input_value.c ****   u8x8_DrawUTF8(u8x8, x, y, u8x8_u8toa(local_value, digits));
 605              		.loc 1 88 0
 606 00a8 0299     		ldr	r1, [sp, #8]
 607 00aa 2800     		movs	r0, r5
 608 00ac FFF7FEFF 		bl	u8x8_u8toa
 609              	.LVL31:
 610 00b0 3A00     		movs	r2, r7
 611 00b2 0300     		movs	r3, r0
 612 00b4 3100     		movs	r1, r6
 613 00b6 2000     		movs	r0, r4
 614 00b8 FFF7FEFF 		bl	u8x8_DrawUTF8
 615              	.LVL32:
 616              	.L4:
  89:..\..\u8g2\csrc/u8x8_input_value.c ****   for(;;)
  90:..\..\u8g2\csrc/u8x8_input_value.c ****   {
  91:..\..\u8g2\csrc/u8x8_input_value.c ****     event = u8x8_GetMenuEvent(u8x8);
 617              		.loc 1 91 0
 618 00bc 2000     		movs	r0, r4
ARM GAS  C:\Users\gjl\AppData\Local\Temp\ccl60RTN.s 			page 37


 619 00be FFF7FEFF 		bl	u8x8_GetMenuEvent
 620              	.LVL33:
  92:..\..\u8g2\csrc/u8x8_input_value.c ****     if ( event == U8X8_MSG_GPIO_MENU_SELECT )
 621              		.loc 1 92 0
 622 00c2 5028     		cmp	r0, #80
 623 00c4 03D1     		bne	.L5
  93:..\..\u8g2\csrc/u8x8_input_value.c ****     {
  94:..\..\u8g2\csrc/u8x8_input_value.c ****       *value = local_value;
 624              		.loc 1 94 0
 625 00c6 059B     		ldr	r3, [sp, #20]
  95:..\..\u8g2\csrc/u8x8_input_value.c ****       r = 1;
 626              		.loc 1 95 0
 627 00c8 4F38     		subs	r0, r0, #79
 628              	.LVL34:
  94:..\..\u8g2\csrc/u8x8_input_value.c ****       r = 1;
 629              		.loc 1 94 0
 630 00ca 1D70     		strb	r5, [r3]
 631              	.LVL35:
  96:..\..\u8g2\csrc/u8x8_input_value.c ****       break;
 632              		.loc 1 96 0
 633 00cc 19E0     		b	.L6
 634              	.LVL36:
 635              	.L5:
  97:..\..\u8g2\csrc/u8x8_input_value.c ****     }
  98:..\..\u8g2\csrc/u8x8_input_value.c ****     else if ( event == U8X8_MSG_GPIO_MENU_HOME )
 636              		.loc 1 98 0
 637 00ce 5328     		cmp	r0, #83
 638 00d0 16D0     		beq	.L15
  99:..\..\u8g2\csrc/u8x8_input_value.c ****     {
 100:..\..\u8g2\csrc/u8x8_input_value.c ****       r = 0;
 101:..\..\u8g2\csrc/u8x8_input_value.c ****       break;
 102:..\..\u8g2\csrc/u8x8_input_value.c ****     }
 103:..\..\u8g2\csrc/u8x8_input_value.c ****     else if ( event == U8X8_MSG_GPIO_MENU_NEXT || event == U8X8_MSG_GPIO_MENU_UP )
 639              		.loc 1 103 0
 640 00d2 5128     		cmp	r0, #81
 641 00d4 01D0     		beq	.L7
 642              		.loc 1 103 0 is_stmt 0 discriminator 1
 643 00d6 5428     		cmp	r0, #84
 644 00d8 06D1     		bne	.L8
 645              	.L7:
 104:..\..\u8g2\csrc/u8x8_input_value.c ****     {
 105:..\..\u8g2\csrc/u8x8_input_value.c ****       if ( local_value >= hi )
 646              		.loc 1 105 0 is_stmt 1
 647 00da 079B     		ldr	r3, [sp, #28]
 648 00dc 9D42     		cmp	r5, r3
 649 00de 01D2     		bcs	.L16
 106:..\..\u8g2\csrc/u8x8_input_value.c **** 	local_value = lo;
 107:..\..\u8g2\csrc/u8x8_input_value.c ****       else
 108:..\..\u8g2\csrc/u8x8_input_value.c **** 	local_value++;
 650              		.loc 1 108 0
 651 00e0 0135     		adds	r5, r5, #1
 652              	.LVL37:
 653 00e2 09E0     		b	.L25
 654              	.LVL38:
 655              	.L16:
 106:..\..\u8g2\csrc/u8x8_input_value.c **** 	local_value = lo;
 656              		.loc 1 106 0
ARM GAS  C:\Users\gjl\AppData\Local\Temp\ccl60RTN.s 			page 38


 657 00e4 069D     		ldr	r5, [sp, #24]
 658              	.LVL39:
 659 00e6 DFE7     		b	.L24
 660              	.L8:
 109:..\..\u8g2\csrc/u8x8_input_value.c ****       u8x8_DrawUTF8(u8x8, x, y, u8x8_u8toa(local_value, digits));
 110:..\..\u8g2\csrc/u8x8_input_value.c ****     }
 111:..\..\u8g2\csrc/u8x8_input_value.c ****     else if ( event == U8X8_MSG_GPIO_MENU_PREV || event == U8X8_MSG_GPIO_MENU_DOWN )
 661              		.loc 1 111 0
 662 00e8 5228     		cmp	r0, #82
 663 00ea 01D0     		beq	.L11
 664              		.loc 1 111 0 is_stmt 0 discriminator 1
 665 00ec 5528     		cmp	r0, #85
 666 00ee E5D1     		bne	.L4
 667              	.L11:
 112:..\..\u8g2\csrc/u8x8_input_value.c ****     {
 113:..\..\u8g2\csrc/u8x8_input_value.c ****       if ( local_value <= lo )
 668              		.loc 1 113 0 is_stmt 1
 669 00f0 069B     		ldr	r3, [sp, #24]
 670 00f2 9D42     		cmp	r5, r3
 671 00f4 02D9     		bls	.L17
 114:..\..\u8g2\csrc/u8x8_input_value.c **** 	local_value = hi;
 115:..\..\u8g2\csrc/u8x8_input_value.c ****       else
 116:..\..\u8g2\csrc/u8x8_input_value.c **** 	local_value--;
 672              		.loc 1 116 0
 673 00f6 013D     		subs	r5, r5, #1
 674              	.LVL40:
 675              	.L25:
 676 00f8 EDB2     		uxtb	r5, r5
 677              	.LVL41:
 678 00fa D5E7     		b	.L24
 679              	.L17:
 114:..\..\u8g2\csrc/u8x8_input_value.c **** 	local_value = hi;
 680              		.loc 1 114 0
 681 00fc 079D     		ldr	r5, [sp, #28]
 682              	.LVL42:
 683 00fe D3E7     		b	.L24
 684              	.L15:
 100:..\..\u8g2\csrc/u8x8_input_value.c ****       break;
 685              		.loc 1 100 0
 686 0100 0020     		movs	r0, #0
 687              	.LVL43:
 688              	.L6:
 117:..\..\u8g2\csrc/u8x8_input_value.c ****       u8x8_DrawUTF8(u8x8, x, y, u8x8_u8toa(local_value, digits));
 118:..\..\u8g2\csrc/u8x8_input_value.c ****     }        
 119:..\..\u8g2\csrc/u8x8_input_value.c ****   }
 120:..\..\u8g2\csrc/u8x8_input_value.c ****   
 121:..\..\u8g2\csrc/u8x8_input_value.c ****   u8x8_SetInverseFont(u8x8, 0);
 689              		.loc 1 121 0
 690 0102 0023     		movs	r3, #0
 691 0104 E377     		strb	r3, [r4, #31]
 122:..\..\u8g2\csrc/u8x8_input_value.c ****   return r;  
 123:..\..\u8g2\csrc/u8x8_input_value.c **** }
 692              		.loc 1 123 0
 693 0106 09B0     		add	sp, sp, #36
 694              		@ sp needed
 695              	.LVL44:
 696              	.LVL45:
ARM GAS  C:\Users\gjl\AppData\Local\Temp\ccl60RTN.s 			page 39


 697              	.LVL46:
 698              	.LVL47:
 699 0108 F0BD     		pop	{r4, r5, r6, r7, pc}
 700              		.cfi_endproc
 701              	.LFE0:
 702              		.size	u8x8_UserInterfaceInputValue, .-u8x8_UserInterfaceInputValue
 703              		.text
 704              	.Letext0:
 705              		.file 2 "c:\\program files (x86)\\cypress\\psoc creator\\4.1\\psoc creator\\import\\gnu\\arm\\5.4.
 706              		.file 3 "c:\\program files (x86)\\cypress\\psoc creator\\4.1\\psoc creator\\import\\gnu\\arm\\5.4.
 707              		.file 4 "..\\..\\u8g2\\csrc\\u8x8.h"