ARM GAS  C:\Users\gjl\AppData\Local\Temp\ccIDcqvh.s 			page 1


   1              		.syntax unified
   2              		.cpu cortex-m0
   3              		.fpu softvfp
   4              		.eabi_attribute 20, 1
   5              		.eabi_attribute 21, 1
   6              		.eabi_attribute 23, 3
   7              		.eabi_attribute 24, 1
   8              		.eabi_attribute 25, 1
   9              		.eabi_attribute 26, 1
  10              		.eabi_attribute 30, 4
  11              		.eabi_attribute 34, 0
  12              		.eabi_attribute 18, 4
  13              		.thumb
  14              		.syntax unified
  15              		.file	"u8x8_string.c"
  16              		.text
  17              	.Ltext0:
  18              		.section	.gnu.lto_.profile.1a3f9e0,"",%progbits
  19 0000 789C6361 		.ascii	"x\234ca`d`e`\000\222;\031\223\000\003\015\001("
  19      60646065 
  19      6000923B 
  19      19930003 
  19      0D0128
  20              		.text
  21              		.section	.gnu.lto_.icf.1a3f9e0,"",%progbits
  22 0000 789C6361 		.ascii	"x\234ca`d\000\0015\006\004`c\370;\375\350g&\306\351"
  22      60640001 
  22      35060460 
  22      63F83BFD 
  22      E86726C6 
  23 0015 E73E3CE1 		.ascii	"\347><\341c\272\177r\303mV\346\337\013\236\237\343`"
  23      63BA7F72 
  23      C36D56E6 
  23      DF0B9E9F 
  23      E360
  24 0027 79B9F6E5 		.ascii	"y\271\366\345\017F\326\033/f\277bd\000\000\213\363\024"
  24      0F46D61B 
  24      2F66BF62 
  24      6400008B 
  24      F314
  25 0039 24       		.ascii	"$"
  26              		.text
  27              		.section	.gnu.lto_.jmpfuncs.1a3f9e0,"",%progbits
  28 0000 789C8D50 		.ascii	"x\234\215P9\022\3020\014\324\31260\251\370\001\3613"
  28      3912C230 
  28      0CD4CA36 
  28      30A9F801 
  28      F133
  29 0012 53C91469 		.ascii	"S\311\024i)\231t\224\034\177\340\013\324\374\201\231"
  29      29997494 
  29      1C7FE00B 
  29      D4FC8199 
  30 0022 FC2033AC 		.ascii	"\374 3\254\355\220\002\032TH\232]i\327\262\027H\216"
  30      ED90021A 
  30      54489A5D 
  30      69D7B217 
  30      488E
ARM GAS  C:\Users\gjl\AppData\Local\Temp\ccIDcqvh.s 			page 2


  31 0034 C8E2A4C6 		.ascii	"\310\342\244\306J\024pf`\230\326\336k\227)\355\220\007"
  31      4A147066 
  31      6098D6DE 
  31      6B9729ED 
  31      9007
  32 0046 1D993579 		.ascii	"\035\2315y\242(\250\262\370\220\027\260\363\346L7u\276"
  32      A228A8B2 
  32      F89017B0 
  32      F3E64C37 
  32      75BE
  33 0058 92CC9814 		.ascii	"\222\314\230\024\207\375\353\030\"Nih{z\021y\216\367"
  33      87FDEB18 
  33      224E6968 
  33      7B7A1179 
  33      8EF7
  34 006a 4763531A 		.ascii	"GcS\032R\332\366\024=#r\364\002\023\371\026\320\316"
  34      52DAF614 
  34      3D2372F4 
  34      0213F916 
  34      D0CE
  35 007c CB2FFA9F 		.ascii	"\313/\372\237\354\265\310\336\262l\276\003E\2159\314"
  35      ECB5C8DE 
  35      B26CBE03 
  35      458D39CC 
  36 008c 2FE699D0 		.ascii	"/\346\231\320f\271\360c0\377\207_\334\265\256\211\266"
  36      66B9F063 
  36      30FF875F 
  36      DCB5AE89 
  36      B6
  37 009d F2061531 		.ascii	"\362\006\0251/~"
  37      2F7E
  38              		.text
  39              		.section	.gnu.lto_.inline.1a3f9e0,"",%progbits
  40 0000 789C6D90 		.ascii	"x\234m\220\277J\003A\020\306\277\231\335\273\335\300"
  40      BF4A0341 
  40      10C6BF99 
  40      DDBBDDC0 
  41 0010 FD110916 		.ascii	"\375\021\011\026\022H\032_\347\036\304k|\205\200\327"
  41      12481A5F 
  41      E71EC46B 
  41      7C8580D7 
  42 0020 5F212A56 		.ascii	"_!*V\207 &EH\235.\244\264\361\012\333{\003KA,\204\314"
  42      87202645 
  42      489D2EA4 
  42      B4F10ADB 
  42      7B034B41 
  43 0037 DC1E6A88 		.ascii	"\334\036j\210\263\305\300\354|\277\357c,\010ZW\241\365"
  43      B3C5C0EC 
  43      7CBFEF63 
  43      2C085A57 
  43      A1F5
  44 0049 1503C9A7 		.ascii	"\025\003\311\247\314\371\364\261\311\0207S\326)!\331"
  44      CCF9F4B1 
  44      C9103753 
  44      D62921D9 
  45 0059 820C6697 		.ascii	"\202\014f\227\337L\267\325\356\325}pe\230@\3174\001"
  45      DF4CB7D5 
ARM GAS  C:\Users\gjl\AppData\Local\Temp\ccIDcqvh.s 			page 3


  45      EED57D70 
  45      659840CF 
  45      3401
  46 006b 66E5D005 		.ascii	"f\345\320\005d\025\2422\333LO\220=<9\257\004\306(\021"
  46      6415A232 
  46      DB4C4F90 
  46      3D3C39AF 
  46      04C62811 
  47 007f 8057C0FA 		.ascii	"\200W\300\372}\363\225*\300\010`\241B_\016]\000\346"
  47      7DF3952A 
  47      C00860A1 
  47      425F0E5D 
  47      00E6
  48 0091 00206553 		.ascii	"\000 eSxp]\324\205\301\370\3458\206\025\312r\210\261"
  48      78705DD4 
  48      85C1F8E5 
  48      388615CA 
  48      7288B1
  49 00a4 FC3FC6D9 		.ascii	"\374?\306\331\365*\304\370eY\\\314\015\261QK\352}\317"
  49      F52AC4F8 
  49      65595CCC 
  49      0DB1514B 
  49      EA7DCF
  50 00b7 6F5A1F34 		.ascii	"oZ\0374\334\346\211nG\031\301v\256.:\2078\027\265\012"
  50      DCE6896E 
  50      4719C176 
  50      AE2E3A87 
  50      3817B50A 
  51 00cb F5FDFD10 		.ascii	"\365\375\375\020d F\030\277\311I\330\337\337E?\227\213"
  51      64204618 
  51      BFC949D8 
  51      DFDF453F 
  51      978B
  52 00dd 7342D4B9 		.ascii	"sB\324\271\260+\256)\351r\347\214\030P]`\017\002\230"
  52      B02BAE29 
  52      E972E78C 
  52      18505D60 
  52      0F0298
  53 00f0 4215     		.ascii	"B\025"
  54              		.text
  55              		.section	.gnu.lto_.pureconst.1a3f9e0,"",%progbits
  56 0000 789C6361 		.ascii	"x\234ca`d\340e```c0e4e\022a\226b\221`\225\000\000\007"
  56      6064E065 
  56      60606063 
  56      30653465 
  56      12619662 
  57 001a 7F00F0   		.ascii	"\177\000\360"
  58              		.text
  59              		.section	.gnu.lto_u8x8_GetStringLineStart.part.0.1a3f9e0,"",%progbits
  60 0000 789C6D52 		.ascii	"x\234mROHTa\020\377\346\233\267\357\317\372\326\204"
  60      4F485461 
  60      10FFE69B 
  60      B7EFCFFA 
  60      D684
  61 0012 0A2A96B0 		.ascii	"\012*\226\260\203\210\035\226\250C{\012\272u\356l\030"
  61      83881D96 
  61      A8437B0A 
ARM GAS  C:\Users\gjl\AppData\Local\Temp\ccIDcqvh.s 			page 4


  61      BA75EE6C 
  61      18
  62 0023 ACA28278 		.ascii	"\254\242\202xP\013\017\201O\237k\177P0\252\025\377\204"
  62      500B0F81 
  62      4F9F6B7F 
  62      5030AA15 
  62      FF84
  63 0035 46949AE5 		.ascii	"F\224\232\345\272\331\026f\220\010\251\211i\005\025"
  63      BAD91666 
  63      9008A989 
  63      690515
  64 0044 448752D8 		.ascii	"D\207R\330C\205\270\213%\211f3\337[\263C\037\273of\276"
  64      4385B88B 
  64      25896633 
  64      DF5BB343 
  64      1FBB6F66 
  65 0059 99DFFCE6 		.ascii	"\231\337\374\346\233\031M\200\340s\015\205\010\223<"
  65      9B194D80 
  65      E0730D85 
  65      08933C
  66 0068 4F7FF00B 		.ascii	"O\177\360\013\260\332\347I\261@*)AS\022=yR\223\346$"
  66      B0DAE749 
  66      B1402A29 
  66      4153123D 
  66      795293E6 
  67 007d 0AC7EF9B 		.ascii	"\012\307\357\233\237\025\302\261}R_\331K&\366\205\311"
  67      9F15C2B1 
  67      7D525FD9 
  67      4B26F685 
  67      C9
  68 008e D2B34EC3 		.ascii	"\322\263N\303s\032\200\214i4M\000V\034\023D\203%Q\363"
  68      731A808C 
  68      69344D00 
  68      561C1344 
  68      832551F3 
  69 00a2 E986090D 		.ascii	"\351\206\011\015R\023\336\371!7%\274i\036\351\301U\031"
  69      5213DEF9 
  69      213725BC 
  69      691EE9C1 
  69      5519
  70 00b4 45011A99 		.ascii	"E\001\032\231\351W]K\271l\002\344\223\331\355\274\275"
  70      E9575D4B 
  70      B96C02E4 
  70      93D9EDBC 
  70      BD
  71 00c5 6C14F53B 		.ascii	"l\024\365;N\223\363\371\305b\305U7z*\212RlI\001\003"
  71      4E93F3F9 
  71      C562C555 
  71      377A2A8A 
  71      526C4901 
  72 00da 10847E08 		.ascii	"\020\204~\010r\365\203PD\261\303\203\313?%\036\002A"
  72      72F58350 
  72      44B1C383 
  72      CB3F251E 
  72      0241
  73 00ec FAF442EF 		.ascii	"\372\364B\357\214\277\360\016\343\234\3613\016F\021"
  73      8CBFF00E 
ARM GAS  C:\Users\gjl\AppData\Local\Temp\ccIDcqvh.s 			page 5


  73      E39CF133 
  73      0E4611
  74 00fb E11E20E3 		.ascii	"\341\036 \343\216\005\341HP\320\205\200!(\244\330wk"
  74      8E05E148 
  74      50D08580 
  74      2128A4D8 
  74      776B
  75 010d 1FE2361E 		.ascii	"\037\3426\036V\270\246\276\326oz\026\3271e;\355@tp\337"
  75      56B8A6BE 
  75      D66F7A16 
  75      D731653B 
  75      ED407470 
  76 0122 436E3372 		.ascii	"Cn3r\005\360\000\012\031\020\033p3\2730\244\300\317"
  76      05F0000A 
  76      19101B70 
  76      33BB30A4 
  76      C0CF
  77 0134 97636381 		.ascii	"\227cc\201\202\333\014\236\350\236\012t8\023\215\371"
  77      82DB0C9E 
  77      E89E0A74 
  77      38138DF9 
  78 0144 4C3CFC2F 		.ascii	"L<\374/1\037\212m[\035\2301\360\270\302\335\035\277"
  78      311F8A6D 
  78      5B1D9831 
  78      F0B8C2DD 
  78      1DBF
  79 0156 3E6E6471 		.ascii	">ndq\235-v\026\247\301\310\177p\213\211\3377\002z\263"
  79      9D2D7616 
  79      A7C1C87F 
  79      708B89DF 
  79      37027AB3 
  80 016a 43271F12 		.ascii	"C'\037\022P\000q(\340vP\027\036\202N\223\225|\303\236"
  80      50007128 
  80      E0765017 
  80      1E824E93 
  80      957CC39E 
  81 017e F869C7D9 		.ascii	"\370i\307\331\332r\235\366\245\000\344\202*\230\222"
  81      DA729DF6 
  81      A500E482 
  81      2A9892
  82 018d 910395AE 		.ascii	"\221\003\225\256\011\016\364\0017AW\272\301\0173\225"
  82      090EF401 
  82      374157BA 
  82      C10F3395 
  83 019d D302FEFA 		.ascii	"\323\002\376\372\325u\216\272\261\225.\304\012Q=\325"
  83      D5758EBA 
  83      B1952EC4 
  83      0A513DD5 
  84 01ad 48582430 		.ascii	"HX$0-%\013\221\001\323E\313\202\014\370\251\306\344"
  84      2D250B91 
  84      01D345CB 
  84      820CF8A9 
  84      C6E4
  85 01bf C5B9849F 		.ascii	"\305\271\204\237gHC\204Q\010Z\237\022U\"-Q\274\177)"
  85      67484384 
  85      51085A9F 
  85      1255222D 
ARM GAS  C:\Users\gjl\AppData\Local\Temp\ccIDcqvh.s 			page 6


  85      51BC7F29 
  86 01d3 3836C745 		.ascii	"86\307E\364m\214\236%a\220i\273\264\031\340\242n\314"
  86      F46D8C9E 
  86      25619069 
  86      BBB419E0 
  86      A26ECC
  87 01e6 252F509C 		.ascii	"%/P\234&hip\021\232\362\024'y\205gP\031.\202HA\323\372"
  87      26686970 
  87      119AF214 
  87      27798567 
  87      50192E82 
  88 01fe 9554672E 		.ascii	"\225Tg.?\330E\336\241Xtr\301`B\251\372\2716={\311\356"
  88      3FD845DE 
  88      A1587472 
  88      C16042A9 
  88      FAB9363D 
  89 0215 859B8DD4 		.ascii	"\205\233\215\324\244\274(\372\010\004\217xS \011\275"
  89      A4BC28FA 
  89      08048F78 
  89      532009BD 
  90 0225 40C9A4EA 		.ascii	"@\311\244\352U\202sK\361\005\232?\272k\255\373v\322"
  90      5582734B 
  90      F1059A3F 
  90      BA6BADFB 
  90      76D2
  91 0237 C5BF8FFD 		.ascii	"\305\277\217\375\012p:\352'<V+FeR\205\246\244O\016\322"
  91      0A703AEA 
  91      273C562B 
  91      46655285 
  91      A6A44F0E 
  92 024c 333517FD 		.ascii	"35\027\375l\330TOZ\372\004->\246\300\355iY\337\357\345"
  92      6CD8544F 
  92      5AFA042D 
  92      3EA6C0ED 
  92      6959DFEF 
  93 0261 4126A5B1 		.ascii	"A&\245\261m\223\251\332\321#\273\025\330\341\332\\y"
  93      6D93A9DA 
  93      D123BB15 
  93      D8E1DA5C 
  93      79
  94 0272 BD697B5C 		.ascii	"\275i{\\~x\342qQF]d\366\240\012\036j;\340E\023\245/"
  94      7E78E271 
  94      51465D64 
  94      F6A00A1E 
  94      6A3BE045 
  95 0289 EB35C4FA 		.ascii	"\3535\304\372n\246\213\265\244\272Nx^\016\340^\377%"
  95      6EA68BB5 
  95      A4BA4E78 
  95      5E0EE05E 
  95      FF25
  96 029b 549DD355 		.ascii	"T\235\323U\270\3113\372\312-t\251\341\374\026\203\373"
  96      B8C933FA 
  96      CA2D74A9 
  96      E1FC1683 
  96      FB
  97 02ac A16D242B 		.ascii	"\241m$+\250&\375Y\262\224\346\011\024D\263=\030\012"
  97      A826FD59 
ARM GAS  C:\Users\gjl\AppData\Local\Temp\ccIDcqvh.s 			page 7


  97      B294E609 
  97      1444B33D 
  97      180A
  98 02be 15D3EF5C 		.ascii	"\025\323\357\\\270\374hq\244\266&BZ}\270\244\266\256"
  98      B8FC6871 
  98      A4B62642 
  98      5A7DB8A4 
  98      B6AE
  99 02d0 A6B2BA3C 		.ascii	"\246\262\272<\024\021fUeuYIei=\322\225gD\252\353\240"
  99      14116655 
  99      65755949 
  99      65693DD2 
  99      956744AA 
 100 02e6 EC0FC227 		.ascii	"\354\017\302',\007"
 100      2C07
 101              		.text
 102              		.section	.gnu.lto_u8x8_GetStringLineCnt.1a3f9e0,"",%progbits
 103 0000 789C6D53 		.ascii	"x\234mS\315KTQ\024\277\277{\337\347\314\233\014\242"
 103      CD4B5451 
 103      14BFBF7B 
 103      DFE7CC9B 
 103      0CA2
 104 0012 DD10B618 		.ascii	"\335\020\266\030\304\315\024\272q\333\277\320Z\220\030"
 104      C4CD14BA 
 104      71DBBFD0 
 104      5A9018
 105 0021 44849A85 		.ascii	"D\204\232\205Z\264\3639o\306\242\024Z\224\202\030\012"
 105      5AB4F339 
 105      6FC6A214 
 105      5A948218 
 105      0A
 106 0032 514E9FE3 		.ascii	"QN\237\343d&\242\320P\240R\331\307\242\002q\221\006"
 106      6426A2D0 
 106      50A052D9 
 106      C7A20271 
 106      9106
 107 0044 2EB4C499 		.ascii	".\264\304\231L)2;\347>\255\026]f\356\275\347\373\367"
 107      4C29323B 
 107      E73EAD16 
 107      5D66EEBD 
 107      E7FBF7
 108 0057 3BE73E43 		.ascii	";\347>C@\360J+!\216\361I\177\270\002\362\312+!\272\034"
 108      40F04A2B 
 108      218EF149 
 108      7FB802F2 
 108      CA2B21BA 
 109 006c 29AD2D5B 		.ascii	")\255-[\370\021{`F\010\337\263\341\260\036*<O8\322\312"
 109      F8117B60 
 109      4608DFB3 
 109      E1B01E2A 
 109      3C4F38D2 
 110 0081 B2D9E899 		.ascii	"\262\331\350\231e\263!\315\215\303$\252\341\006\222"
 110      65B321CD 
 110      8DC324AA 
 110      E10692
 111 0090 4CA83089 		.ascii	"L\2500\211\005\360\305w :\245\255\034\303\264\320)\035"
 111      05F0C577 
ARM GAS  C:\Users\gjl\AppData\Local\Temp\ccIDcqvh.s 			page 8


 111      203AA5AD 
 111      1CC3B4D0 
 111      291D
 112 00a2 11AE6F72 		.ascii	"\021\256orG\342\305\366\\O\244v\304\3673\376\307\334"
 112      47E2C5F6 
 112      5C4FA476 
 112      C4F733FE 
 112      C7DC
 113 00b4 7BAF3F5F 		.ascii	"{\257?_B\216\020\355J\201\3728\216\307\031\325\010j"
 113      428E10ED 
 113      4A81FA38 
 113      8EC719D5 
 113      086A
 114 00c6 C9F36D76 		.ascii	"\311\363mvtPm\312\234\002\014\022\313\363\003\237\016"
 114      74506DCA 
 114      9C020C12 
 114      CBF3039F 
 114      0E
 115 00d7 B028514D 		.ascii	"\260(QM\342\273\355\017\005O\035\205\240{f\270g\315"
 115      E2BBED0F 
 115      054F1D85 
 115      A07B66B8 
 115      67CD
 116 00e9 AAB9C939 		.ascii	"\252\271\3119\375\211f\337\315)\205;P\234\3636\342\310"
 116      FD8966DF 
 116      CD29853B 
 116      509CF336 
 116      E2C8
 117 00fb 232E4825 		.ascii	"#.H%p\0275\354\336\227\017*U*\241C\237\254\367M\306"
 117      701735EC 
 117      DE970F2A 
 117      552AA143 
 117      9FACF74D 
 118 0110 123738B4 		.ascii	"\02278\2644q\246\337/uU\023\034\334\013\243\367\021"
 118      3471A6DF 
 118      2F755513 
 118      1CDC0BA3 
 118      F711
 119 0122 0976EDDD 		.ascii	"\011v\355\335\314\317\331*\251\303nM]\235\262\367\302"
 119      CCCFD92A 
 119      A9C36E4D 
 119      5D9DB2F7 
 119      C2
 120 0133 C64FED85 		.ascii	"\306O\355\205\031x\360\237\260\345\342\257k1+\353\323"
 120      1978F09F 
 120      B0E5E2AF 
 120      6B312BEB 
 120      D3
 121 0144 AA460109 		.ascii	"\252F\001\011\334G\202\351\022\317QX4\023\271\257-\234"
 121      DC4782E9 
 121      12CF5158 
 121      3413B9AF 
 121      2D9C
 122 0156 2CF9BBBB 		.ascii	",\371\273\273\201_\0323\227T\014\032/e#\213\"\374\302"
 122      815F1A33 
 122      97540C1A 
 122      2F65238B 
ARM GAS  C:\Users\gjl\AppData\Local\Temp\ccIDcqvh.s 			page 9


 122      22FCC2
 123 0169 D00A13BC 		.ascii	"\320\012\023\274[Z\355\010\016u\265>\242\367\250\326"
 123      5B5AED08 
 123      0E75B53E 
 123      A2F7A8D6 
 124 0179 7B7A1762 		.ascii	"{z\027b\203\252\254\332\242,%\035j\031\031\242\250\213"
 124      83AAACDA 
 124      A22C251D 
 124      6A1919A2 
 124      A88B
 125 018b 9295908D 		.ascii	"\222\225\220\215_xY\214pG\005\200\"5i\011\331\205\340"
 125      5F78598C 
 125      70470580 
 125      22356909 
 125      D985E0
 126 019e 6B1DBB04 		.ascii	"k\035\273\004\312\344N\345\236\276\266\331C\021\232"
 126      CAE44EE5 
 126      9EBEB6D9 
 126      43119A
 127 01ad 87083995 		.ascii	"\207\0109\225\245-\2626D\005\006yIT(!E\313\3515\213"
 127      A52DB236 
 127      44050679 
 127      49542821 
 127      45CBE935 
 128 01c2 6C4AD00B 		.ascii	"lJ\320\013Qd\214\004\3125\246{)\223k\222\350\005J\032"
 128      51648C04 
 128      CA35A67B 
 128      29936B92 
 128      E8054A1A 
 129 01d6 0854D45C 		.ascii	"\010T\324\\\374\302\220\034A/\005\204\351\240\006KV"
 129      FCC2901C 
 129      412F0584 
 129      E9A0064B 
 129      56
 130 01e7 110AC422 		.ascii	"\021\012\304\"\240r+\310\374\2704s.\304\342\020\226"
 130      A0722BC8 
 130      FCB83473 
 130      2EC4E210 
 130      96
 131 01f8 EDD9E717 		.ascii	"\355\331\347\027\275!\\\357\342N\326SCLr\013Aa\014C"
 131      BD215CEF 
 131      E24ED653 
 131      434C720B 
 131      41610C43 
 132 020c E070BF4A 		.ascii	"\340p\277J\323+p>'\2443\362\014\177s\024>O~\2171\037"
 132      D32B703E 
 132      27A433F2 
 132      0C7F7314 
 132      3E4F7E8F 
 133 0222 EA3B1E85 		.ascii	"\352;\036\205|* T\206M[D\021\027\031(\213\005\2170\224"
 133      7C2A2054 
 133      864D5B44 
 133      11171928 
 133      8B058F30 
 134 0237 A5A1D9AC 		.ascii	"\245\241\331\254 \030\354^\260\302<.\227\245\361.C\352"
 134      2018EC5E 
 134      B0C23C2E 
ARM GAS  C:\Users\gjl\AppData\Local\Temp\ccIDcqvh.s 			page 10


 134      97A5F12E 
 134      43EA
 135 0249 621AAF1B 		.ascii	"b\032\257\033\026+\252\277\265v6\336\354xa\255\010\306"
 135      162BAABF 
 135      B57636DE 
 135      EC7861AD 
 135      08C6
 136 025b FFF4CE14 		.ascii	"\377\364\316\024\233\2078a_\367\372\326\236w\224\310"
 136      9B873861 
 136      5FF7FAD6 
 136      9E7794C8 
 137 026b EBFEEFA7 		.ascii	"\353\376\357\247\324\375\210jw\213'\267\312\215\011"
 137      D4FD886A 
 137      778B27B7 
 137      CA8D09
 138 027a E805335A 		.ascii	"\350\0053Z\365\357\\\350\233\306c\352\375\342e\233\222"
 138      F5EF5CE8 
 138      9BC663EA 
 138      FDE2659B 
 138      92
 139 028b 383FE72D 		.ascii	"8?\347-\032:(\206&\177$\231l\244\337\331\206\226\272"
 139      1A3A2886 
 139      267F2499 
 139      6CA4DFD9 
 139      8696BA
 140 029e C6547B5B 		.ascii	"\306T{[\212n\347\033\232\332;\332Z\323-\311\224PtsN"
 140      8A6EE71B 
 140      9ADA3BDA 
 140      5AD32DC9 
 140      94507473 
 141 02b3 B7A69B9B 		.ascii	"\267\246\233\233R\351\0164\377\006Y\200\033\213"
 141      52E90E34 
 141      FF065980 
 141      1B8B
 142              		.text
 143              		.section	.gnu.lto_u8x8_GetStringLineStart.1a3f9e0,"",%progbits
 144 0000 789C6D52 		.ascii	"x\234mRKk\023Q\024>\337\275\323\231\020\022\315\017"
 144      4B6B1351 
 144      143EDFBD 
 144      D3991012 
 144      CD0F
 145 0012 08252E42 		.ascii	"\010%.B\250\213(*\230\237\340\332u\244\213Xj\240\004"
 145      A88B282A 
 145      989FE0DA 
 145      75A48B58 
 145      6AA004
 146 0025 692B7497 		.ascii	"i+t\227\333L\306\007DhA\033\264\202\202hR\037Mc\355"
 146      DB4CC607 
 146      4468411B 
 146      B4828268 
 146      521F4D63 
 147 003a 2246685C 		.ascii	"\"Fh\\X\273\360\201\242\010\352B\343F\264\224&T\305"
 147      58BBF081 
 147      A208EA42 
 147      E346B494 
 147      2654C5
 148 004d 458DE724 		.ascii	"E\215\347$\021\\x\231\341\336s\346{\234s\356X\004\222"
ARM GAS  C:\Users\gjl\AppData\Local\Temp\ccIDcqvh.s 			page 11


 148      115C7899 
 148      E1DE73E6 
 148      7B9C73EE 
 148      580492
 149 0060 95544409 		.ascii	"\225TD\011\336\017\361\213\001\202\232yN4\355S\312z"
 149      DE0FF18B 
 149      01829A79 
 149      4E34ED53 
 149      CA7A
 150 0072 3848C6AF 		.ascii	"8H\306\257_\357#\023\320\260$\015\013\220\335\370@Y"
 150      5FEF2313 
 150      D0B0240D 
 150      0B90DDF8 
 150      4059
 151 0084 A52D6455 		.ascii	"\245-dU\366\273\332Qx\231_\272\242\267\225\247\031\302"
 151      F6BBDA51 
 151      78995FBA 
 151      A2B795A7 
 151      19C2
 152 0096 61EBD9E5 		.ascii	"a\353\331\345\317\273$\004\"\034\316\233W\347\234\241"
 152      CFBB2404 
 152      221CCE9B 
 152      57E79CA1 
 153 00a6 923139F3 		.ascii	"\22219\363\361q\363\304\254\353\035\361\264\242\216"
 153      F171F3C4 
 153      ACEB1DF1 
 153      B4A28E
 154 00b5 22941146 		.ascii	"\"\224\021F\011a\361^\300\020c\027\0276\177(\275\007"
 154      0961F15E 
 154      C0106317 
 154      17367F28 
 154      BD07
 155 00c7 C4E7272F 		.ascii	"\304\347'/\256\256\373c7\204g\352\307\214\366\264\306"
 155      AEAEFB63 
 155      378467EA 
 155      C78CF6B4 
 155      C6
 156 00d8 2D68E11D 		.ascii	"-h\341\035\014c\177\2308A\270\215\030c\337\374|[\011"
 156      0C637F98 
 156      3841B88D 
 156      1863DFFC 
 156      7C5B09
 157 00eb E8BD5D5E 		.ascii	"\350\275]^\356Z\341\233\335\347\025\327\002f\006l\207"
 157      EE5AE19B 
 157      DDE715D7 
 157      0266066C 
 157      87
 158 00fc 3B3DE65F 		.ascii	";=\346_G\251\000w\021\023\302\\\331m\357\326\361.yu"
 158      47A90077 
 158      1113C25C 
 158      D96DEFD6 
 158      F12E7975 
 159 0110 73AE168C 		.ascii	"s\256\026\214^\027rc~-X4\215\351\210\030/\376k,\213"
 159      5E177263 
 159      7E2D5834 
 159      8DE98818 
 159      2FFE6B2C 
ARM GAS  C:\Users\gjl\AppData\Local\Temp\ccIDcqvh.s 			page 12


 160 0125 B1E7B7CB 		.ascii	"\261\347\267\313\353\216>\334\345\335\254_\250;}\336"
 160      EB8E3EDC 
 160      E5DDAC5F 
 160      A83B7DDE 
 161 0135 A5D3813E 		.ascii	"\245\323\201>\317\302\322\177x\315\352\357\213A;oxE"
 161      CFC2D27F 
 161      78CDEAEF 
 161      8B413B6F 
 161      7845
 162 0147 50451415 		.ascii	"PE\024\025De\034<\205{\260\371^ \231\312\321\206\351"
 162      44651C3C 
 162      857BB0F9 
 162      5E2099CA 
 162      D186E9
 163 015a 745CD328 		.ascii	"t\\\323(\332\217\266l\0369\227\314J\374\205\347\312"
 163      DA8FB66C 
 163      1E3997CC 
 163      4AFC85E7 
 163      CA
 164 016b 5DF36570 		.ascii	"]\363ep\375v\267\013\247\333\017m\361[r\250\305\270"
 164      FD76B70B 
 164      A7DB0F6D 
 164      F15B72A8 
 164      C5B8
 165 017d 92A39BC8 		.ascii	"\222\243\233\310I\013]Mf\261\361\312\231\247U\277\\"
 165      490B5D4D 
 165      66B1F1CA 
 165      99A755BF 
 165      5C
 166 018e 0C2B6099 		.ascii	"\014+`\231\247\360\011\371w\356j\301\026\214\2535C*"
 166      A7F009F9 
 166      77EE6AC1 
 166      168CAB35 
 166      432A
 167 01a0 1BB55F41 		.ascii	"\033\265_A\201\014\200p\037\275\232[J\323\003K\177\201"
 167      810C8070 
 167      1FBD9A5B 
 167      4AD3034B 
 167      7F81
 168 01b2 17EA211D 		.ascii	"\027\352!\035F\326j\033\357\235\354\2169kL\310\323v"
 168      46D66A1B 
 168      EF9DEC8E 
 168      396B4CC8 
 168      D376
 169 01c4 4749E12B 		.ascii	"GI\341+\310\022\013\271\332\362\264C\324\026\260\245"
 169      C8120BB9 
 169      DAF2B443 
 169      D416B0A5 
 170 01d4 D086123F 		.ascii	"\320\206\022?\365\241:\306b\226T\367\025\271\020C\345"
 170      F5A13AC6 
 170      629654F7 
 170      15B91043 
 170      E5
 171 01e5 2F6C0382 		.ascii	"/l\003\202*,\237de\316l\261T\311\341^\006\343\361$?"
 171      2A2C9F64 
 171      65CE6CB1 
 171      54C9E15E 
ARM GAS  C:\Users\gjl\AppData\Local\Temp\ccIDcqvh.s 			page 13


 171      06E3F124 
 172 01fa A712A307 		.ascii	"\247\022\243\007\222\251\211\361\024\237\246\022\303"
 172      92A989F1 
 172      149FA612 
 172      C3
 173 0207 1393E3E9 		.ascii	"\023\223\343\351\314h<E\276\261tfd8}|Js\252\027\244"
 173      CC683C45 
 173      BEB17466 
 173      64387D7C 
 173      4A73AA17 
 174 021c 329318F9 		.ascii	"2\223\030\371\003\337\025\322\246"
 174      03DF15D2 
 174      A6
 175              		.text
 176              		.section	.gnu.lto_u8x8_CopyStringLine.1a3f9e0,"",%progbits
 177 0000 789C6D52 		.ascii	"x\234mRKkSA\024>g\316}\3456\211\011n\203\350\306\342"
 177      4B6B5341 
 177      143E67CE 
 177      7DE53689 
 177      096E83E8 
 178 0016 A61615D1 		.ascii	"\246\026\025\321\205\177\242k\245\213Z\264\".\254\202"
 178      857FA26B 
 178      A58B5AB4 
 178      222EAC82 
 179 0026 BB8CB98D 		.ascii	"\273\214\271\215\326'\025QPR\343F4V\215\365\035\252"
 179      D6271551 
 179      5052E346 
 179      34568DF5 
 179      1DAA
 180 0038 10031A11 		.ascii	"\020\003\032\021\254v\341\003u\241\025D\264h\022R\213"
 180      AC76E103 
 180      75A11544 
 180      B4681252 
 180      8B
 181 0049 8518CFCC 		.ascii	"\205\030\317\314\3046\210C2w\316\231\357\314\367\235"
 181      C4368843 
 181      3277CE99 
 181      EFCCF79D 
 182 0059 8705086A 		.ascii	"\207\005\010j\315\022\300\032\376&\371\217>\240\030"
 182      CD12C01A 
 182      FE26F98F 
 182      3EA018
 183 0068 9904D8EF 		.ascii	"\231\004\330\357\011\021\252\307@\372\224\331\0042L"
 183      0911AAC7 
 183      40FA94D9 
 183      04324C
 184 0077 C2BA5502 		.ascii	"\302\272U\0026\275\367\035lZh+\024\332\302+\021{\235"
 184      36BDF71D 
 184      6C5A682B 
 184      14DAC22B 
 184      117B9D
 185 008a C9A77C19 		.ascii	"\311\247|\031vZ\246kL\327\240\036z\036\206\314\243!"
 185      765AA66B 
 185      4CD7A01E 
 185      7A1E86CC 
 185      A321
 186 009c 4475901E 		.ascii	"Du\220\036BR\220e;.\273\222\302\006\263fEC`\351\340"
ARM GAS  C:\Users\gjl\AppData\Local\Temp\ccIDcqvh.s 			page 14


 186      42529065 
 186      3B2EBB92 
 186      C206B366 
 186      454360E9 
 187 00b1 E7825875 		.ascii	"\347\202XuQ\362\372p\341G\267\274T\3044Kl\012\203\301"
 187      51F2FA70 
 187      E147B7BC 
 187      54C4344B 
 187      6C0A83C1 
 188 00c5 8BB88A51 		.ascii	"\213\270\212QSC\3273T\027iB\264\330\254>;\373)\252L"
 188      5343D733 
 188      54176942 
 188      B4D8AC3E 
 188      3BFB29AA 
 189 00da 81CBD99C 		.ascii	"\201\313\331\234?\367\350\220C+\020\370\234\255\237"
 189      3FF7E890 
 189      432B10F8 
 189      9CAD9F
 190 00e9 7AE3765E 		.ascii	"z\343v^\2202%\345\211~\031J\023\341e$~\017s\230\300"
 190      903225E5 
 190      897E194A 
 190      13E16524 
 190      7E0F7398 
 191 00fe 4B980076 		.ascii	"K\230\000v\001\216a'\243\257\345\276\377\024\264RG\226"
 191      018E6127 
 191      A3AFE5BE 
 191      FF14B452 
 191      4796
 192 0110 9F679FF8 		.ascii	"\237g\237\370\255\310\007[$\245\311\302+&rm\002\273"
 192      ADC8075B 
 192      24A5C9C2 
 192      2B26726D 
 192      02BB
 193 0122 559C0578 		.ascii	"U\234\005xU\307\275\234{\235\017\323j\035\227:\177\364"
 193      55C7BD9C 
 193      7B9D0FD3 
 193      6A1D973A 
 193      7FF4
 194 0134 9BD38A3B 		.ascii	"\233\323\212;\3638,G8\001\033\257\375\313i\003\346\261"
 194      F3382C47 
 194      38011BAF 
 194      FDCB6903 
 194      E6B1
 195 0146 53054C8F 		.ascii	"S\005L\217\377>\025q\206T\312\313M\242x\035\035\325"
 195      FF3E1571 
 195      8654CACB 
 195      4DA2781D 
 195      1DD5
 196 0158 9E7C4F51 		.ascii	"\236|OQ6\233\201,6\234\207\367\335\245\250e\012\275"
 196      369B812C 
 196      369C87F7 
 196      DDA5A865 
 196      0ABD
 197 016a 930E7751 		.ascii	"\223\016wQ\235\271\256,\303G\345\351\320\3760\0238\021"
 197      9DB9AE2C 
 197      C347E5E9 
 197      D0FE3013 
ARM GAS  C:\Users\gjl\AppData\Local\Temp\ccIDcqvh.s 			page 15


 197      3811
 198 017c 0D8C6A47 		.ascii	"\015\214jGL\237\343\206\023*L\222\363\241*\004\177\350"
 198      4C9FE386 
 198      132A4C92 
 198      F3A12A04 
 198      7FE8
 199 018e 230EBD0D 		.ascii	"#\016\275\015\232\307\034\305\032\220\313\212N\247K"
 199      9AC71CC5 
 199      1A90CB8A 
 199      4EA74B
 200 019d CF5D554F 		.ascii	"\317]UOb\312q\226\253VU\020\034\361\350\013\246\213"
 200      62CA7196 
 200      AB565510 
 200      1CF1E80B 
 200      A68B
 201 01af 27CB64C0 		.ascii	"'\313d\300\035\014.\024f\336\271\311\206\034\2262\226"
 201      1D0C2E14 
 201      66DEB9C9 
 201      861C9632 
 201      96
 202 01c0 26B72958 		.ascii	"&\267)X9\336\300$\004\024\012\310O\223\007\323(tJL\316"
 202      39DEC024 
 202      04140AC8 
 202      4F9307D3 
 202      28744A4C 
 203 01d5 31C084EF 		.ascii	"1\300\204\357\202\261\343\316\342\033\013\2046\023\336"
 203      82B1E3CE 
 203      E21B0B84 
 203      3613DE
 204 01e4 5C20B4A0 		.ascii	"\\ \264\240\342\020\3240\302\262\010k\030e4e\012\011"
 204      E210D430 
 204      C2B2086B 
 204      18653465 
 204      0A09
 205 01f6 BEB28147 		.ascii	"\276\262\201G\011\2471\025\003\363,\2011\306\224\201"
 205      09A73115 
 205      03F32C81 
 205      31C69481 
 206 0206 F01953F3 		.ascii	"\360\031S\363\207\177fz\014G\2309\346\312O\207\303Y"
 206      877F667A 
 206      0C479839 
 206      E6CA4F87 
 206      C359
 207 0218 1CE576B0 		.ascii	"\034\345v\260.24x\013\263\010\272\002;\026\241\215\312"
 207      2E323478 
 207      0BB308BA 
 207      023B16A1 
 207      8DCA
 208 022a 8B4658C9 		.ascii	"\213FX\311\361\321\307\333FN\0151\240\210\305[\314\315"
 208      F1D1C7DB 
 208      464E0D31 
 208      A088C55B 
 208      CCCD
 209 023c 4CECAC21 		.ascii	"L\354\254!\005\024Uf\334\2752\261\235\0259\300so\212"
 209      05145566 
 209      DCBD32B1 
 209      9D1539C0 
ARM GAS  C:\Users\gjl\AppData\Local\Temp\ccIDcqvh.s 			page 16


 209      736F8A
 210 024f 39717CE3 		.ascii	"9q|\343\342c\371\231\302\257\210y\014\360\316Bn.\234"
 210      E263F999 
 210      C2AF8879 
 210      0CF0CE42 
 210      6E2E9C
 211 0262 2F03B1CC 		.ascii	"/\003\261\314\323\3433S\272\234m\032\367\253aX\302="
 211      D3E33353 
 211      BA9C6D1A 
 211      F7AB6158 
 211      C23D
 212 0274 E4544C03 		.ascii	"\344TL\003\360.\013\345\0079\261 s`rt\275!\210)\000"
 212      F02E0BE5 
 212      0739B120 
 212      73607274 
 212      BD218829 
 213 0289 CFE2DF0A 		.ascii	"\317\342\337\012\353\354c\006\364jt\235\001\305U\272"
 213      EBEC6306 
 213      F46A749D 
 213      01C555BA 
 214 0299 6D205DAF 		.ascii	"m ]\257\270V\341\251\226\266\025N\250\302\325+\337O"
 214      B856E1A9 
 214      96B6154E 
 214      A8C2D52B 
 214      DF4F
 215 02ab FC5791AB 		.ascii	"\374W\221\253\025\211\226\242{\254\250\275w<\262XP7"
 215      158996A2 
 215      7BACA8BD 
 215      773CB258 
 215      5037
 216 02bd 3514BA61 		.ascii	"5\024\272a\254\315V\033_TEH\215\332W\305\244W\205\307"
 216      ACCD561B 
 216      5F544548 
 216      8DDA57C5 
 216      A45785C7 
 217 02d1 24E7F31C 		.ascii	"$\347\363\034.\353\352\332\314\277\275\033\266\255\331"
 217      2EEBEADA 
 217      CCBFBD1B 
 217      B6ADD9
 218 02e0 DC37B8BB 		.ascii	"\3347\270\273\217O\3736\364\016\356\331=\260k[W\037"
 218      8F4FFB36 
 218      F40EEED9 
 218      3DB06B5B 
 218      571F
 219 02f2 585BFB07 		.ascii	"X[\373\007\367x;\007v\365\367\016l\335G\354\377\003"
 219      F7783B07 
 219      76F5F70E 
 219      6CDD47EC 
 219      FF03
 220 0304 1A454E84 		.ascii	"\032EN\204"
 221              		.text
 222              		.section	.gnu.lto_u8x8_DrawUTF8Line.1a3f9e0,"",%progbits
 223 0000 789C8D54 		.ascii	"x\234\215T_L\034E\034\236\337\314\336\356\336r\177\010"
 223      5F4C1C45 
 223      1C9EDFCC 
 223      DEEEDE72 
 223      7F08
ARM GAS  C:\Users\gjl\AppData\Local\Temp\ccIDcqvh.s 			page 17


 224 0012 0172988B 		.ascii	"\001r\230\213\201\007\244\030C\2526\261\306\027\037"
 224      8107A418 
 224      43AA36B1 
 224      C6171F
 225 0021 7DF619E3 		.ascii	"}\366\031\343\0035\215\211\361\241h\212O\267pw\034\""
 225      03358D89 
 225      F1A1688A 
 225      4FB77077 
 225      1C22
 226 0033 31A8F58A 		.ascii	"1\250\365\212TC\023b\020\212r\250'\205\036\366\300\366"
 226      54431362 
 226      108A72A8 
 226      27851EF6 
 226      C0F6
 227 0045 6800A948 		.ascii	"h\000\251H\375\007\324Xj\033\242\265\341\252\244V=\317"
 227      FD07D458 
 227      6A1BA2B5 
 227      E1AAA456 
 227      3DCF
 228 0057 DF6F664F 		.ascii	"\337ofO\217\003\243\233\333\275\231\331\357\373\346"
 228      8F03A39B 
 228      DBBD99D9 
 228      EFFBE6
 229 0066 FB7D33B3 		.ascii	"\373}3\263\032\003F\327\206\316\330#\370\037\307\033"
 229      1A0346D7 
 229      86CED823 
 229      F81FC71B 
 230 0076 CA18F0DE 		.ascii	"\312\030\360\336%\306\332M\316EW\003\263-\215\236\036"
 230      25C6DA4D 
 230      CE455703 
 230      B32D8D9E 
 230      1E
 231 0087 019A1AD6 		.ascii	"\001\232\032\326@W\015\227j\314\230:w\365\3141D\032"
 231      40570D97 
 231      6ACC983A 
 231      77F5CC31 
 231      441A
 232 0099 11039106 		.ascii	"\021\003\221\006\270\025\300T\215\031\323\315M\005\260"
 232      B815C054 
 232      8D19D3CD 
 232      4D05B0
 233 00a8 24C002A0 		.ascii	"$\300\002\240q\333\004\026\342Bs\351\206\351\266 $t"
 233      71DB0416 
 233      E24273E9 
 233      86E9B620 
 233      2474
 234 00ba 06690DF2 		.ascii	"\006i\015\362\312\224\273\270\263\315s\034\026n_\350"
 234      CA94BBB8 
 234      B3CD731C 
 234      166E5FE8 
 235 00ca B11A876C 		.ascii	"\261\032\207l\273\303\376\356\332\357\217e;\242\201"
 235      BBC3FEEE 
 235      DAEF8F65 
 235      3BA281
 236 00d9 A8602CCF 		.ascii	"\250`,\317\031<\030\204\375Ar?\004\215\210\\\216$\336"
 236      193C1884 
 236      FD41723F 
ARM GAS  C:\Users\gjl\AppData\Local\Temp\ccIDcqvh.s 			page 18


 236      048D885C 
 236      8E24DE
 237 00ec 14BFF0A8 		.ascii	"\024\277\360\250\000\320\260\233\375\264\377\252\217"
 237      00D0B09B 
 237      FDB4FFAA 
 237      8F
 238 00f9 BA1C6AB1 		.ascii	"\272\034j\261{\362\322\340\272.\352\200a;>\177\351\246"
 238      7BF2D2E0 
 238      BA2EEA80 
 238      613B3E7F 
 238      E9A6
 239 010b B7E16DD2 		.ascii	"\267\341m\322\264\217?e\273\243B\300\010\010\322\034"
 239      B48F3F65 
 239      BBA342C0 
 239      0808D21C 
 240 011b 8620BC03 		.ascii	"\206 \274\003A\206C\014NA\003\242\373\247b\035\226\270"
 240      4186430C 
 240      4E4103A2 
 240      FBA7621D 
 240      96B8
 241 012d 47328F9D 		.ascii	"G2\217\235\372\365\204\3510W\236\260\005Z\201Q\305T"
 241      FAF584E9 
 241      30579EB0 
 241      055A8151 
 241      C554
 242 013f 6EC81BBC 		.ascii	"n\310\033\274+y\251\356\205?L\261O\362^\\\315l\351\016"
 242      2B79A9EE 
 242      853F4CB1 
 242      4FF25E5C 
 242      CD6CE90E 
 243 0153 EF8EC37B 		.ascii	"\357\216\303{o\027oL\362\276\371,\361\222O\334+y\247"
 243      6F176F4C 
 243      F2BEF92C 
 243      F1924FDC 
 243      2B79A7
 244 0166 7BDFE82F 		.ascii	"{\337\350/8\035\310\224\331\373\211\230\330E\034\227"
 244      381DC894 
 244      D9FB8998 
 244      D8451C97 
 245 0176 C4D9CC89 		.ascii	"\304\331\314\2111C\334'\211S\253\337\017\273\035\342"
 245      3143DC27 
 245      8953ABDF 
 245      0FBB1DE2 
 246 0186 E58CC7EE 		.ascii	"\345\214\307\356\205\250\320\340\375\322\"5\006\037"
 246      85A8D0E0 
 246      FDD22235 
 246      061F
 247 0194 400311AE 		.ascii	"@\003\021\256\015nW\213&\311M\304.\274\352\253\037$"
 247      0D6E578B 
 247      26C94DC4 
 247      2EBCEAAB 
 247      1F24
 248 01a6 6E7A7BCE 		.ascii	"nz{\316\177\334N\267\327\322\274\037\026\317K\027b\333"
 248      7FDC4EB7 
 248      D7D2BC1F 
 248      16CF4B17 
 248      62DB
ARM GAS  C:\Users\gjl\AppData\Local\Temp\ccIDcqvh.s 			page 19


 249 01b8 930B3F09 		.ascii	"\223\013?\011q\277\344\365_\234\356\362+\236=\321l\207"
 249      71BFE4F5 
 249      5F9CEEF2 
 249      2B9E3DD1 
 249      6C87
 250 01ca 1F25D247 		.ascii	"\037%\322G{\220z\256\234\034r\213\003\222\264\226\033"
 250      7B907AAE 
 250      9C1C728B 
 250      0392B496 
 250      1B
 251 01db 5D0467B2 		.ascii	"]\004g\262\237c\377Lvz\017\336\346W\303\223.\361\220"
 251      9F63FF4C 
 251      767A0FDE 
 251      E657C393 
 251      2EF190
 252 01ee E45D5E1F 		.ascii	"\344]^\037HY\245\223M\355A\332\030\377\363u\257\036"
 252      4859A593 
 252      4DED41DA 
 252      18FFF375 
 252      AF1E
 253 0200 B1F1AA85 		.ascii	"\261\361\252\2053P\017\223xO\340\235\204z\332F\030_"
 253      33500F93 
 253      784FE09D 
 253      847ADA46 
 253      185F
 254 0212 0A74DC71 		.ascii	"\012t\334qZ\351\333\261\307\323v>\037\266\323Ycf\335"
 254      5AE9DBB1 
 254      C7D3763E 
 254      1FB6D359 
 254      6366DD
 255 0225 BA0B1801 		.ascii	"\272\013\030\001\270\\^\234\013A\006\320\0261\2012\264"
 255      B85C5E9C 
 255      0B4106D0 
 255      16318132 
 255      B4
 256 0236 1851CB80 		.ascii	"\030Q\313\200\326\302#\221^\371\364\001\341\375\214"
 256      D6C22391 
 256      5EF9F401 
 256      E1FD8C
 257 0245 04CB8196 		.ascii	"\004\313\201\226\270B*Tb\372\256*)S-_\006d\273F>\031"
 257      B8422A54 
 257      62FAAE2A 
 257      29532D5F 
 257      0664BB46 
 258 025b DB426378 		.ascii	"\333Bcxl\262\234\343\237\330\200\216\364\2359.\215\242"
 258      6CB29CE3 
 258      9FD8808E 
 258      F49D392E 
 258      8DA2
 259 026d 266DE1E8 		.ascii	"&m\341\350\354E\203v7\236f\230\306\265\334\204h:\027"
 259      EC458376 
 259      379E6698 
 259      C6B5DC84 
 259      683A17
 260 0280 1304090B 		.ascii	"\023\004\011\013\013\021\223\2237\326\214P\316\356\262"
 260      0B119393 
 260      37D68C50 
ARM GAS  C:\Users\gjl\AppData\Local\Temp\ccIDcqvh.s 			page 20


 260      CEEEB2
 261 028f EDF2A8D0 		.ascii	"\355\362\250\320\363\034K\204\217!\304\302\302\010\013"
 261      F31C4B84 
 261      8F21C4C2 
 261      C2080B
 262 029e 332A0CB6 		.ascii	"3*\014\266\001J\022\215#\207]\201\310R8\347w$\302\242"
 262      014A128D 
 262      23875D81 
 262      C85238E7 
 262      7724C2A2 
 263 02b2 4C4698E5 		.ascii	"LF\230\345\202\315\012i\341\265yQ\260@o\257C\270\257"
 263      82CD0A69 
 263      E1B57951 
 263      B0406FAF 
 263      43B8AF
 264 02c5 F3F37D0A 		.ascii	"\363\363}\012\357\301\021\022)hJ\214\2070\211\316U\007"
 264      EFC11112 
 264      29684A8C 
 264      873089CE 
 264      5507
 265 02d7 E3C51174 		.ascii	"\343\305\021tv>\177;\355'\357.\304\236E\357;8^9\247"
 265      763E7F3B 
 265      ED27EF2E 
 265      C49E45EF 
 265      3B385E39 
 266 02ec E6945DCE 		.ascii	"\346\224]\316\324(02\360V\26720AC>\022\217w\376\346"
 266      D4283032 
 266      F056B732 
 266      3041433E 
 266      128F77FE 
 267 0301 88FB1144 		.ascii	"\210\373\021D\203\005\261$a\374\214\335\002\240\200"
 267      8305B124 
 267      61FC8CDD 
 267      02A080
 268 0310 F8E2D94A 		.ascii	"\370\342\331J\024\027\251\345 \312\273\030~\232\304"
 268      1417A9E5 
 268      20CABB18 
 268      7E9AC4
 269 031f 26C4D2C9 		.ascii	"&\304\322\311y\011g\273\0223\363\230=~\216\012\211\361"
 269      790967BB 
 269      1233F398 
 269      3D7E8E0A 
 269      89F1
 270 0331 B02847D0 		.ascii	"\260(G\320\313\355?\306]u\017\017\330}\270M\335D\373"
 270      CBED3FC6 
 270      5D750F0F 
 270      D87DB84D 
 270      DD44FB
 271 0344 FAE6F492 		.ascii	"\372\346\364\222\205\264>\334a\257\3401\263`\006\352"
 271      85B43EDC 
 271      61AFE031 
 271      B36006EA 
 272 0354 A426CC42 		.ascii	"\244&\314B(\252\202\212w~;\354SF+P\013i\311\330\342"
 272      28AA828A 
 272      777E3BEC 
 272      53462B50 
 272      0B69C9D8 
ARM GAS  C:\Users\gjl\AppData\Local\Temp\ccIDcqvh.s 			page 21


 273 0369 B8A55610 		.ascii	"\270\245V\020\340\223\242\024dq\0252\005\235\341'\323"
 273      E093A214 
 273      64711532 
 273      059DE127 
 273      D3
 274 037a 89410E73 		.ascii	"\211A\016s\265HW\217\005\224\026\227%R\221\330\362i"
 274      B548578F 
 274      05941697 
 274      255291D8 
 274      F269
 275 038c 37960348 		.ascii	"7\226\003Hu\245V\250F\203\"\244\022\317\314{\024\272"
 275      75A556A8 
 275      468322A4 
 275      12CFCC7B 
 275      14BA
 276 039e F2DF8A3C 		.ascii	"\362\337\212<W\\\244\334\034\216\351\003\212X%\337T"
 276      575CA4DC 
 276      1C8EE903 
 276      8A5825DF 
 276      54
 277 03af EEB458A5 		.ascii	"\356\264X\245 \267\032\025\246Zn\200\222\374\253e\031"
 277      20B71A15 
 277      A65A6E80 
 277      92FCAB65 
 277      19
 278 03c0 E6DF69AF 		.ascii	"\346\337i\257\374G\332\347\013F\304\377O;SH{\256(\355"
 278      FC47DAE7 
 278      0B46C4FF 
 278      4F3B5348 
 278      7BAE28ED 
 279 03d4 2F479CB4 		.ascii	"/G\234\2641\020\261;\336\200\364\345.\215W\250x\363"
 279      3110B13B 
 279      DE80F4E5 
 279      2E8D57A8 
 279      78F3
 280 03e6 857885AA 		.ascii	"\205x\205\252\000\343\305V\225\261\276\202j\001s\364"
 280      00E3C556 
 280      95B1BE82 
 280      6A0173F4 
 281 03f6 0B8AD7A2 		.ascii	"\013\212\327\242x\345\021\270>\342\344[#\031\276\235"
 281      78E511B8 
 281      3EE2E45B 
 281      2319BE9D 
 282 0406 53D5B01F 		.ascii	"S\325\260\037p\347\256u{\035\014\351m\341a\214\030X"
 282      70E7AE75 
 282      7B1D0CE9 
 282      6DE1618C 
 282      1858
 283 0418 F0DD4D4D 		.ascii	"\360\335MM\315\370{\376\340\341\007\232[Z\217\264`\253"
 283      CDF87BFE 
 283      E0E1079A 
 283      5B5A8FB4 
 283      60AB
 284 042a EDE093AD 		.ascii	"\355\340\223\255\317\035y\372\331\303M-L\243.\264\301"
 284      CF1D79FA 
 284      D9C34D2D 
 284      4CA32EB4 
ARM GAS  C:\Users\gjl\AppData\Local\Temp\ccIDcqvh.s 			page 22


 284      C1
 285 043b 0B70145A 		.ascii	"\013p\024Z\371\2416\336\322\306\2379\012\207x-\373\013"
 285      F9A136DE 
 285      D2C69F39 
 285      0A87782D 
 285      FB0B
 286 044d 1DEE32FA 		.ascii	"\035\3562\372"
 287              		.text
 288              		.section	.gnu.lto_u8x8_DrawUTF8Lines.1a3f9e0,"",%progbits
 289 0000 789C6D93 		.ascii	"x\234m\223\317OSA\020\307wv^\333\327\226V\022/\034\032"
 289      CF4F5341 
 289      10C77776 
 289      5EDBD796 
 289      56122F1C 
 290 0015 8307448C 		.ascii	"\203\007D\214i\010\\\370\027L<y\306xh\014r\341\000\030"
 290      69085CF8 
 290      174C3C79 
 290      C678680C 
 290      72E10018 
 291 0029 F1D4A5AF 		.ascii	"\361\324\245\257\317_p@\303\017)\032M\220 \277l+ ?D"
 291      CF5F7040 
 291      C30F291A 
 291      4D9020BF 
 291      6C2B203F 
 292 003e F3C0A41A 		.ascii	"\363\300\244\032\213\250\011\036@\023\025\025\0111\206"
 292      8BA8091E 
 292      40131515 
 292      093186
 293 004d 128D2602 		.ascii	"\022\215&\002uv_I\324\272\351\217\335y\363\231\371\316"
 293      75765F49 
 293      D4BAE98F 
 293      DD79F399 
 293      F9CE
 294 005f CC3E8D01 		.ascii	"\314>\215\001\223k\257\306X%\375\037\245/8\031\360\266"
 294      936BAFC6 
 294      5825FD1F 
 294      A52F3819 
 294      F0B6
 295 0071 05C69A75 		.ascii	"\005\306\232u\016\232\275A{3\253k\034[\0373&<\216\250"
 295      0E9ABD41 
 295      7B33AB6B 
 295      1C5B1F33 
 295      263C8EA8 
 296 0085 8B890207 		.ascii	"\213\211\002\007\200\264\013\035X\230\243\346\2000\327"
 296      80B40B1D 
 296      5898A3E6 
 296      8030D7
 297 0094 18581A64 		.ascii	"\030X\032d\355\270\337\3716\207\364\217'\255\236\262"
 297      EDB8DFF9 
 297      3687F48F 
 297      27AD9EB2 
 298 00a4 7E2122E2 		.ascii	"~!\"\342\335\247\370\221L\304,2\221\261,gP\031\200\362"
 298      DDA7F891 
 298      4CC42C32 
 298      91B12C67 
 298      501980F2 
 299 00b8 80CCD90F 		.ascii	"\200\314\331\017e\344\3712\232\270\206\337\270\211\000"
ARM GAS  C:\Users\gjl\AppData\Local\Temp\ccIDcqvh.s 			page 23


 299      65E4F932 
 299      9AB886DF 
 299      B88900
 300 00c7 1A1D33CF 		.ascii	"\032\0353\317b\037\374\362\310\241\230\2167\027{\337"
 300      621FFCF2 
 300      C8A1988E 
 300      37177BDF 
 301 00d7 38713F30 		.ascii	"8q?0\332w>]\374\352+\355\2231E\367I\3416\021a\020P\306"
 301      DA773E5D 
 301      FCEA2BED 
 301      933145F7 
 301      49E13611 
 302 00ef 1C8000DC 		.ascii	"\034\200\000\334\206\000#\023\203!(%\357\330\364\371"
 302      86002313 
 302      83212825 
 302      EFD8F4F9 
 303 00ff 88070F28 		.ascii	"\210\007\017(\262}\350g\217\236#_\035\027HR`\330&m5"
 303      B27DE867 
 303      8F9E235F 
 303      1D174852 
 303      60D8266D 
 304 0114 521B8C28 		.ascii	"R\033\214(n\346RzK\307\203\212\273\270\234\332p\346"
 304      6EE6527A 
 304      4BC7838A 
 304      BBB89CDA 
 304      70E6
 305 0126 B85F39EE 		.ascii	"\270_9\356N\036\027W\334\322\213D\213\037\017)n\262"
 305      4E1E1757 
 305      DCD28B44 
 305      8B1F0F29 
 305      6EB2
 306 0138 AD3BB6AB 		.ascii	"\255;\266\2534\231\362\212r\011&\362\300\244\002\347"
 306      3499F28A 
 306      720926F2 
 306      C0A402E7 
 307 0148 523D7117 		.ascii	"R=q\027\036V\340\364\362\307\001w\016|\233*\020m`\242"
 307      1E56E0F4 
 307      F2C70177 
 307      0E7C9B2A 
 307      106D60A2 
 308 015c 0677FF2D 		.ascii	"\006w\377-\222\372=\012\245\022\230\210\355X\032\006"
 308      92FA3D0A 
 308      A5129888 
 308      ED581A06 
 309 016c 153C38B2 		.ascii	"\025<8\262\376Y+\351\225\260\325\221\366u\011\253\271"
 309      FE592BE9 
 309      95B0D591 
 309      F67509AB 
 309      B9
 310 017d 58261EFB 		.ascii	"X&\036\3733\261\\\344\333\227~\364\320\217\025\212\273"
 310      33B15CE4 
 310      DB977EF4 
 310      D08F158A 
 310      BB
 311 018e B572A31D 		.ascii	"\265r\243\035s\334\225\264W$\204.\261{\377\301V\222"
 311      73DC95B4 
 311      5724842E 
ARM GAS  C:\Users\gjl\AppData\Local\Temp\ccIDcqvh.s 			page 24


 311      B17BFFC1 
 311      5692
 312 01a0 3B1D3E67 		.ascii	";\035>gT\320*\206\011(\201q(\221C\245b&\301I\363\347"
 312      54D02A86 
 312      09288171 
 312      289143A5 
 312      6226C149 
 313 01b6 BBD6F831 		.ascii	"\273\326\3701Kd\263\206\260.{g\307\274{@\265\211\302"
 313      4B64B386 
 313      B02E7B67 
 313      C7BC7B40 
 313      B589C2
 314 01c9 D163BA40 		.ascii	"\321c\272@\244\236n\034\271\271@\332uY\223\033\344\344"
 314      A49E6E1C 
 314      B9B940DA 
 314      7559931B 
 314      E4E4
 315 01db 3C20E7E0 		.ascii	"< \347\340\005\331\034\237\202\374\012bl\203\322\320"
 315      05D91C9F 
 315      82FC0A62 
 315      6C83D2D0 
 316 01eb 05CC704E 		.ascii	"\005\314pN\177\270\006Q\253+\2152\255\201N\22265\365"
 316      7FB80651 
 316      AB2B8D32 
 316      AD814E92 
 316      3635F5
 317 01fe E5B52BBC 		.ascii	"\345\265+\274-.\010Qh\242#\313I\015LA\230\031\3500\321"
 317      2D2E0851 
 317      68A223CB 
 317      490D4C41 
 317      9819E830 
 318 0213 C956802B 		.ascii	"\311V\200+\215\224\324P\307\210\325\335\342S&\012/\257"
 318      8D94D450 
 318      C788D5DD 
 318      E253260A 
 318      2FAF
 319 0225 9739F7DC 		.ascii	"\2279\367\334%o\036\275\0370\015\262\346\014GFW\237"
 319      256F1EBD 
 319      1F300DB2 
 319      E60C4746 
 319      579F
 320 0237 9299D6F5 		.ascii	"\222\231\326\3654\267\223\351y\311\\Y\322\304\340\276"
 320      34B793E9 
 320      79C95C59 
 320      D2C4E0BE 
 321 0247 4AC6553E 		.ascii	"J\306U>\235\255A\221\364gy\336\356,\227\303\237Q\336"
 321      9DAD4191 
 321      F46779DE 
 321      EE2C97C3 
 321      9F51DE
 322 025a 6E033D06 		.ascii	"n\003=\006\202\201^\012l\242\207\255\202\321yng\270"
 322      82815E0A 
 322      6CA287AD 
 322      82D1796E 
 322      67B8
 323 026c C0CEE5A3 		.ascii	"\300\316\345\243g\024`\374\374|\322cK\003x@\322v\213"
 323      671460FC 
ARM GAS  C:\Users\gjl\AppData\Local\Temp\ccIDcqvh.s 			page 25


 323      FC7CD263 
 323      4B037840 
 323      D2768B
 324 027f A1F69093 		.ascii	"\241\366\220\223\015\255\016\327\333\220\237D\374\345"
 324      0DAD0ED7 
 324      DB909F44 
 324      FCE5
 325 028d 35214BF6 		.ascii	"5!K\366\253z4F\357.R\361\205\3146sf\037T$`\357!\272"
 325      AB7A3446 
 325      EF2E52F1 
 325      85CC3673 
 325      661F5424 
 326 02a5 60F8ED38 		.ascii	"`\370\3558\\\366\211\326&\220>\027\247\037\037n-\025"
 326      5CF689D6 
 326      26903E17 
 326      A71F1F6E 
 326      2D15
 327 02b7 6D52546A 		.ascii	"mRTj\017\237_:EQ\361\252\034\211C\216d\235Z:j\2674G"
 327      0F9F5F3A 
 327      4551F1AA 
 327      1C89438E 
 327      649D5A3A 
 328 02cf 6ED010A2 		.ascii	"n\320\020\242.\352\315\276`\260\232>\247\253j*\252C"
 328      2EEACDBE 
 328      60B09A3E 
 328      A7AB6A2A 
 328      AA43
 329 02e1 0DF521DA 		.ascii	"\015\365!\3325U\235hh\254\257\255\253\011\206\230&\217"
 329      35559D68 
 329      68ACAFAD 
 329      AB098698 
 329      268F
 330 02f3 D00467E1 		.ascii	"\320\004g\341\0144`\250\256\021j\177\003\250\233O\265"
 330      0C3460A8 
 330      AE116A7F 
 330      03A89B4F 
 330      B5
 331              		.text
 332              		.section	.gnu.lto_.symbol_nodes.1a3f9e0,"",%progbits
 333 0000 789C55CD 		.ascii	"x\234U\315?\012\2021\014\005\360\227\244i\217\241\316"
 333      3F0A8231 
 333      0C05F097 
 333      A4698FA1 
 333      CE
 334 0011 1E3245DC 		.ascii	"\0362E\334\\\274\202E\017\241\340\"\037\270u\362\000"
 334      5CBC8245 
 334      0FA1E022 
 334      1FB875F2 
 334      00
 335 0022 0EDF2878 		.ascii	"\016\337(x\001\377\245\342`\263\274\227\037\201\004"
 335      01FFA5E2 
 335      60B3BC97 
 335      1F8104
 336 0031 102EF0E1 		.ascii	"\020.\360\341d\300\272\002\006\332/7y\352\004\243\037"
 336      64C0BA02 
 336      06DA2F37 
 336      79EA04A3 
ARM GAS  C:\Users\gjl\AppData\Local\Temp\ccIDcqvh.s 			page 26


 336      1F
 337 0042 E190670E 		.ascii	"\341\220g\016d\334\003\233\364 \026z\010\246\035P\264"
 337      64DC039B 
 337      F420167A 
 337      08A61D50 
 337      B4
 338 0053 F80520B7 		.ascii	"\370\005 \267'\244\226\376wa\240\354*\211\227\323c$"
 338      27A496FE 
 338      7761A0EC 
 338      2A8997D3 
 338      6324
 339 0065 0909C3F5 		.ascii	"\011\011\303\365\345\0311\236\337Gme\273\272MZ\016\265"
 339      E519319E 
 339      DF476D65 
 339      BBBA4D5A 
 339      0EB5
 340 0077 81124ABB 		.ascii	"\201\022J\273P\306\342y\237\213\006\024O|\000-H7\021"
 340      50C6E279 
 340      9F8B0614 
 340      4F7C002D 
 340      483711
 341              		.text
 342              		.section	.gnu.lto_.refs.1a3f9e0,"",%progbits
 343 0000 789C6361 		.ascii	"x\234ca`\004B \000\000\0009\000\007"
 343      60044220 
 343      00000039 
 343      0007
 344              		.text
 345              		.section	.gnu.lto_.decls.1a3f9e0,"",%progbits
 346 0000 789CBD59 		.ascii	"x\234\275Y{LTW\032\237s\317\000\303\314\000\025\260"
 346      7B4C5457 
 346      1A9F73CF 
 346      00C3CC00 
 346      15B0
 347 0012 350DE99A 		.ascii	"5\015\351\232\306X6i\361\325m\310&\233\264\351n\273"
 347      C6583669 
 347      F1D56DC8 
 347      269BB4E9 
 347      6EBB
 348 0024 D96C369B 		.ascii	"\331l6\233t\333d\023\222\35183\340la\230\235\271\370"
 348      74DB6413 
 348      92E93833 
 348      E06C6198 
 348      9DB9F8
 349 0037 E83F3B3C 		.ascii	"\350?;<D\353\033A,\340\033T\020D\004\204\242 \003(\242"
 349      44EB1B41 
 349      2CE01B54 
 349      10440484 
 349      A2200328 
 350 004c 80A0083E 		.ascii	"\200\240\010>@\301'\250hA\301\361\201\262\3379\347\316"
 350      40C127A8 
 350      6841C1F1 
 350      81B2DF39 
 350      E7CE
 351 005e DC7BF1B2 		.ascii	"\334{\361\262\353\037\333\275\361\343\336\357\234\337"
 351      EB1FDBBD 
 351      F1E3DEEF 
ARM GAS  C:\Users\gjl\AppData\Local\Temp\ccIDcqvh.s 			page 27


 351      9CDF
 352 006c F9BEDFF9 		.ascii	"\371\276\337\371\276\357\234s\347\252V!\025\271\222"
 352      BEEF9C73 
 352      E7AA5621 
 352      15B992
 353 007b DE55A91A 		.ascii	"\336U\251\032\325*\325\207\234J5\011W\000\264}\003\342"
 353      D52AD587 
 353      9C4A3509 
 353      5700B47D 
 353      03E2
 354 008d 077218A4 		.ascii	"\007r\030\244\034\244\022$\002\344\210\212]\032\220"
 354      1CA41224 
 354      02E4888A 
 354      5D1A90
 355 009c 13202D20 		.ascii	"\023 - \355 ] f0\027\013\222\000\342@\252\327.\202'"
 355      ED205D20 
 355      6630170B 
 355      9200E240 
 355      AAD72E82 
 356 00b1 B64341C2 		.ascii	"\266CA\302\005\233\015 e \025\202}r!\001;\365j\021\306"
 356      059B0D20 
 356      65201582 
 356      7D722101 
 356      3BF56A11 
 357 00c6 374CB1A1 		.ascii	"7L\261\2414\276Ea|\273\300[\311?\031\353\204\201M\002"
 357      34BE4561 
 357      7CBBC05B 
 357      C93F19EB 
 357      84814D02 
 358 00da 9613F04A 		.ascii	"\226\023\360J<\310\\uB\214\274\266\216\010\266\274|"
 358      3CC85C75 
 358      428CBCB6 
 358      8E08B6BC 
 358      7C
 359 00eb 78B0D536 		.ascii	"x\260\3256\205\027'\214mW\260Ib\247\2372\267\257\220"
 359      8517278C 
 359      6D57B049 
 359      62A79F32 
 359      B7AF90
 360 00fe 18F72478 		.ascii	"\030\367$x\376'\310R$\346$^\2101\026\306;\204\330O\275"
 360      FE27C852 
 360      24E6245E 
 360      883116C6 
 360      3B84D84F 
 361 0113 484E74D3 		.ascii	"HNt\323\330^\006\367S\022\276\313\341n\022l\250\205"
 361      D85E06F7 
 361      5312BECB 
 361      E16E126C 
 361      A885
 362 0125 B1DE1C9B 		.ascii	"\261\336\034\233\025l\277\344\320\271\264\262mx\214"
 362      156CBFE4 
 362      D0B9B4B2 
 362      6D788C
 363 0134 43A15AA4 		.ascii	"C\241Z\244\006u\264=\367f0\250\341Z4\033\324#\333{v"
 363      0675B43D 
 363      F76630A8 
 363      E15A341B 
ARM GAS  C:\Users\gjl\AppData\Local\Temp\ccIDcqvh.s 			page 28


 363      D423DB7B 
 364 0149 E8B4AB5D 		.ascii	"\350\264\253]pmJu\205\266\004\023\\!\212@\373\021\314"
 364      706D4A75 
 364      85B60413 
 364      5C218A40 
 364      FB11CC
 365 015c 0B15212D 		.ascii	"\013\025!-\374\235\027\201\346G\020[''=\356\020f\213"
 365      FC9D1781 
 365      E647105B 
 365      27273DEE 
 365      10668B
 366 016f 03F5FC48 		.ascii	"\003\365\374H\333v\035\263\365\026\250\335O\353\236"
 366      DB761DB3 
 366      F516A8DD 
 366      4FEB9E
 367 017e EB318700 		.ascii	"\3531\207\000\251\256H\351\337\035\214\"#\020\230B\332"
 367      A9AE48E9 
 367      DF1D8C22 
 367      23109842 
 367      DA
 368 018f 7DD4BECB 		.ascii	"}\324\276\313\305\251P\031\322\242\022\204\275\004s"
 368      C5A95019 
 368      D2A21284 
 368      BD0473
 369 019e 5DE07BE4 		.ascii	"]\340{\344_\244\031\2365\364\016-)\256\221=.\377Y*\264"
 369      5FA4199E 
 369      35F40E2D 
 369      29AE913D 
 369      2EFF592A 
 370 01b3 88BA4607 		.ascii	"\210\272F\007Q$\355R\241C`\260\024Q6\227<\375\236\240"
 370      5124ED52 
 370      A14360B0 
 370      14513697 
 370      3CFD9EA0 
 371 01c7 D04DD4B6 		.ascii	"\320M\324\266\333\365)\242\266\213\241\377\000\345~"
 371      DBF529A2 
 371      B68BA1FF 
 371      00E57E
 372 01d6 18857A67 		.ascii	"\030\205zg@\025\030\321\230\3339\244\321\257!\366\205"
 372      401518D1 
 372      98DB39A4 
 372      D1AF21F6 
 372      85
 373 01e7 D942BB64 		.ascii	"\331B\273d\272\345\210$\231\336\001}\345T[\232\277V"
 373      BAE58824 
 373      99DE017D 
 373      E5545B9A 
 373      BF56
 374 01f9 60B3E9BF 		.ascii	"`\263\351\277\261\271_|\247'Xf\273\002ICY)\330\256\244"
 374      B1B95F7C 
 374      A7275866 
 374      BB024943 
 374      5929D8AE 
 375 020e B6330F17 		.ascii	"\2663\017\027\374\340'C\227\311\320G\004\364\021\212"
 375      FCE02743 
 375      97C9D047 
 375      04F4118A 
ARM GAS  C:\Users\gjl\AppData\Local\Temp\ccIDcqvh.s 			page 29


 376 021e EE4C6BAE 		.ascii	"\356Lk\256\326\364\242\313\010\202+d\031!\366\027QQ"
 376      D6F4A2CB 
 376      08822B64 
 376      1921F617 
 376      5151
 377 0230 31A12A3C 		.ascii	"1\241*<p\364\257\312\327\344\273\251\310_\025\303\323"
 377      70F4AFCA 
 377      D7E4BBA9 
 377      C85F15C3 
 377      D3
 378 0241 36D118FD 		.ascii	"6\321\030\375\347\275Oz/jD\264\216\204A\310\307\200"
 378      E7BD4F7A 
 378      2F6A44B4 
 378      8E8441C8 
 378      C780
 379 0253 8D62FD9C 		.ascii	"\215b\375\234\327*\273q\342\000\211=FW\302\011\311\347"
 379      D72ABB71 
 379      E200893D 
 379      4657C209 
 379      C9E7
 380 0265 84BC85BB 		.ascii	"\204\274\205\2739\367\372z\015\016 \345\204\372\237"
 380      39F7FA7A 
 380      0D0E20E5 
 380      84FA9F
 381 0274 157E1155 		.ascii	"\025~\021U\342\255\242\277\210\325}\272\2515\005\253"
 381      E2ADA2BF 
 381      88D57DBA 
 381      A93505AB 
 382 0284 391657B4 		.ascii	"9\026W\264XM\332\016\255\274U\244\201\262\214\320\242"
 382      584DDA0E 
 382      ADBC55A4 
 382      81B28CD0 
 382      A2
 383 0295 4944F4E1 		.ascii	"ID\364\341\232gAL'\335\225\356\307\007\325x\036y\346"
 383      9A67414C 
 383      27DD95EE 
 383      C707D578 
 383      1E79E6
 384 02a8 CE555C3E 		.ascii	"\316U\\>\031\210\"Y\201\016<\036\377,\325\345B\3508"
 384      19882259 
 384      810E3C1E 
 384      FF2CD5E5 
 384      42E838
 385 02bb A4A21661 		.ascii	"\244\242\026a\364\023\212\"\204\"H\005)\024e\035\224"
 385      F4138A22 
 385      84224805 
 385      2914651D 
 385      94
 386 02cc 01D82428 		.ascii	"\001\330$(t\0142w\224\025B\321\316\302\023A\270\026"
 386      740C3277 
 386      941542D1 
 386      CEC21341 
 386      B816
 387 02de 51070FB2 		.ascii	"Q\007\017\262\356\257\306>\0079\033\"\212]\256\267P"
 387      EEAFC63E 
 387      07391B22 
 387      8A5DAEB7 
ARM GAS  C:\Users\gjl\AppData\Local\Temp\ccIDcqvh.s 			page 30


 387      50
 388 02ef 0338A817 		.ascii	"\0038\250\027\035\034G\323xp+{\330\376\340z\253\037"
 388      1D1C47D3 
 388      78702B7B 
 388      D8FEE07A 
 388      AB1F
 389 0301 9D343154 		.ascii	"\23541T\203\350\254S\307\272\2624\263\262\211\037W\252"
 389      83E8AC53 
 389      C7BAB234 
 389      B3B2891F 
 389      57AA
 390 0313 6B364703 		.ascii	"k6G\003\"\256\206&4\013\3766\"5\213[q\307\263\202\220"
 390      22AE8626 
 390      340BFE36 
 390      22358B5B 
 390      71C7B382 
 391 0328 F777B9DC 		.ascii	"\367w\271\334e\256\001O\346\037\316\345\247\257\356"
 391      65AE014F 
 391      E61FCEE5 
 391      A7AFEE
 392 0337 8481DFFA 		.ascii	"\204\201\337\372\023 \252\026\271U\323\265\212\252P"
 392      1320AA16 
 392      B955D3B5 
 392      8AAA50
 393 0346 2FA4E904 		.ascii	"/\244\351\004z\037\306v%\277*\362\307W\350BWL@g\325"
 393      7A1FC676 
 393      25BF2AF2 
 393      C757E842 
 393      574C4067 
 394 035b 8E062CA5 		.ascii	"\216\006,\245\322 [\230\247(\225f/\225\255\243#\207"
 394      D2205B98 
 394      A7289566 
 394      2F95ADA3 
 394      2387
 395 036d 8381CA40 		.ascii	"\203\201\312@\231\313}\330\222\343r\247\300\260\205"
 395      99CB7DD8 
 395      92E372A7 
 395      C0B085
 396 037c 04854E8A 		.ascii	"\004\205N\212<NJy\264P\036Y\2435MAxdz\036\3628\235y"
 396      3C4E4A79 
 396      B4501E59 
 396      A3354D41 
 396      78647A1E 
 397 0394 A338B551 		.ascii	"\2438\265Qr\255^r\035k\323\033\374\005r[\232\203\031"
 397      72AD5E72 
 397      1D6BD31B 
 397      FC05725B 
 397      9A8319
 398 03a7 BBE48504 		.ascii	"\273\344\205\004\206N\213\354NK\331\265Sv\231\231i\315"
 398      864E8BEC 
 398      4E4BD9B5 
 398      53769999 
 398      69CD
 399 03b9 6A0CC97F 		.ascii	"j\014\311\1773v\035\214]\366XFO\000m\204\225\217:\205"
 399      33761D8C 
 399      5DF65846 
 399      4F006D84 
ARM GAS  C:\Users\gjl\AppData\Local\Temp\ccIDcqvh.s 			page 31


 399      958F3A85 
 400 03cd C69DD75E 		.ascii	"\306\235\327^\004I)\177\363\266\204\361y\312\370\234"
 400      0449297F 
 400      F3B684F1 
 400      79CAF89C 
 401 03dd 97716AFE 		.ascii	"\227qj\376\213\325z`\274\013\030\277H\307B<9\002CgE"
 401      8BD57A60 
 401      BC0B18BF 
 401      48C7423C 
 401      39024367 
 402 03f2 C667A58C 		.ascii	"\306g\245\214\273(\343\222\376\321J\015\336\366\246"
 402      BB28E392 
 402      FED14A0D 
 402      DEF6A6
 403 0401 8CBB19B9 		.ascii	"\214\273\031\271\375\347\357E\370\332zX\333\304\300"
 403      FDE7EF45 
 403      F8DA7A58 
 403      DBC4C0
 404 0410 8D6EB5AF 		.ascii	"\215n\265\257\361\"k\314{|\365n ;<\"A-\274\263m\203"
 404      F1226BCC 
 404      7B7CF56E 
 404      203B3C22 
 404      412DBCB3 
 405 0426 9E1D1ED1 		.ascii	"\236\035\036\321\222s)\224\235K\256\241\264\235\034"
 405      92732994 
 405      9D4BAEA1 
 405      B49D1C
 406 0435 2E655C8E 		.ascii	".e\\\216U\3276\3731\350|P\353\2072\3525\270\216\365"
 406      55D736FB 
 406      31E87C50 
 406      EB8732EA 
 406      35B88EF5 
 407 0449 79AD8633 		.ascii	"y\255\2063\253\235\373\037\\\014\306\335\254ohW}\271"
 407      AB9DFB1F 
 407      5C0CC6DD 
 407      AC6F6857 
 407      7DB9
 408 045b 068F30E5 		.ascii	"\006\2170\345a\332\355\001\341\260\232\005\352\026\367"
 408      61DAED01 
 408      E1B09A05 
 408      EA16F7
 409 046a E6092D9E 		.ascii	"\346\011-\236\020&[sc>^\245\246\317OZ/\\\3058\233)\033"
 409      10265B73 
 409      633E5EA5 
 409      A6CF4F5A 
 409      2F5CC538 
 410 0481 1BEB9A34 		.ascii	"\033\353\2324x\217Zf!\224Yh\356\273\322\255\306\245"
 410      788F5A66 
 410      21945968 
 410      EEBBD2AD 
 410      C6A5
 411 0493 AC2FB9AE 		.ascii	"\254/\271\256\251\"\01071\345eEE\023\302mL\331\373\374"
 411      A9220837 
 411      31E56545 
 411      4513C26D 
 411      4CD9FBFC 
 412 04a7 C508397F 		.ascii	"\305\0109\177\347\302n4\211%\333\321\\\266\035\325\267"
ARM GAS  C:\Users\gjl\AppData\Local\Temp\ccIDcqvh.s 			page 32


 412      E7C26E34 
 412      8925DBD1 
 412      5CB61DD5 
 412      B7
 413 04b8 9EDEA7C7 		.ascii	"\236\336\247\307\335\024\314\025\270SV\302y\031I\367"
 413      DD14CC15 
 413      B85356C2 
 413      791949F7 
 414 04c8 02C8B5B6 		.ascii	"\002\310\265\2660X\345K5\372\031\266\203\271\302v0\014"
 414      3058E54B 
 414      35FA19B6 
 414      83B9C276 
 414      300C
 415 04da 8DF7A151 		.ascii	"\215\367\241Q\330\271\036\374\211\356\\\017!\334\017"
 415      D8B91EFC 
 415      89EE5C0F 
 415      21DC0F
 416 04e9 C424CFD5 		.ascii	"\304$\317\325\262\2328\236\321{G\213\007\230\217\242"
 416      B29A389E 
 416      D17B478B 
 416      07988FA2 
 417 04f9 91B69290 		.ascii	"\221\266\222\220i}<\232\326G\316\206\271%d\363\032\005"
 417      697D3C9A 
 417      D647CE86 
 417      B92564F3 
 417      1A05
 418 050b 1F23A28F 		.ascii	"\037#\242\217\207HprgM\321\250\036\337e\263\336\336"
 418      87487072 
 418      674DD1A8 
 418      1EDF65B3 
 418      DEDE
 419 051d 7D6353A0 		.ascii	"}cS\240\322\3319\315\226v\267\257zB/;\017\307d\347\341"
 419      D2D939CD 
 419      9676B7AF 
 419      7A422F3B 
 419      0FC764E7 
 420 0532 383B0F25 		.ascii	"8;\017%/\035\241\354\245\343\306a\317\260\006?d^KK^"
 420      2F1DA1EC 
 420      A5E3C661 
 420      CFB0063F 
 420      645E4B4B 
 421 0547 946969DD 		.ascii	"\224ii\335}\355\255\331\336\364\375\255:_)>e\245\330"
 421      7DEDADD9 
 421      DEF4FDAD 
 421      3A5F293E 
 421      65A5D8
 422 055a 7DE95A77 		.ascii	"}\351Zw\240\257\361\031k\\5y\365\204\006\273\374\250"
 422      A0AFF119 
 422      6B5C3579 
 422      F58406BB 
 422      FCA8
 423 056c A5B4FDEB 		.ascii	"\245\264\375\353\363\202\360:\246\344\036\033;\343\307"
 423      F382F03A 
 423      A6E41E1B 
 423      3BE3C7
 424 057b 5C6A40DD 		.ascii	"\\j@\335\220\363\350X\000\316b}]\356]y\2018\217)7+="
 424      90F3E858 
ARM GAS  C:\Users\gjl\AppData\Local\Temp\ccIDcqvh.s 			page 33


 424      00CE627D 
 424      5DEE5D79 
 424      81388F29 
 425 0592 0541781F 		.ascii	"\005Ax\037S\256\377\\\227\023\340s\302\330\0349\277"
 425      53AEFF5C 
 425      9713E073 
 425      C2D81C39 
 425      BF
 426 05a3 B33F0097 		.ascii	"\263?\000\2272\300\363\216\027G\021>\306\224u]U\213"
 426      32C0F38E 
 426      1747113E 
 426      C694755D 
 426      558B
 427 05b5 700B7B2E 		.ascii	"p\013{.\351\276\364\022\341\013Li\1775r\034\343;L98"
 427      E9BEF412 
 427      E10B4C69 
 427      7F35721C 
 427      E33B4C39 
 428 05ca 90DEE587 		.ascii	"\220\336\345\207=L\3317\261\273R\217S\375\251\322\354"
 428      3D4CD937 
 428      B1BB528F 
 428      53FDA9D2 
 428      EC
 429 05db A9CBF7C3 		.ascii	"\251\313\367\303\033\230\262f\355\201\335\3018\237)"
 429      1B98B266 
 429      ED81DDC1 
 429      389F29
 430 05ea 2BD715D7 		.ascii	"+\327\025\327b\\\305\224\316\376\362q\177\334\312\224"
 430      625CC594 
 430      CEFEF271 
 430      7FDCCA94 
 431 05fa FE6B19FF 		.ascii	"\376k\031\377\300\027\330\363\325\226\242bR\246\037"
 431      C017D8F3 
 431      D596A262 
 431      52A61F
 432 0609 90329D9C 		.ascii	"\2202\235\234\014\221\024\352\007\254P\317o|T\020\200"
 432      0C9114EA 
 432      07AC50CF 
 432      6F7C5410 
 432      80
 433 061a AF5338D7 		.ascii	"\257S8\327\274\276\242\\'\036\234{\3655\24446sZ\264"
 433      BCBEA25C 
 433      271E9C7B 
 433      F535A434 
 433      36735AB4 
 434 062e 89F395C6 		.ascii	"\211\363\225\306\007\276c\215\345T\345K(\312\340\"\211"
 434      07BE638D 
 434      E554E54B 
 434      28CAE022 
 434      89
 435 063f 5D5A061B 		.ascii	"]Z\006\033\271\010\264\201cggA\306\036\177<\314|\344"
 435      B908B481 
 435      63676741 
 435      C61E7F3C 
 435      CC7CE4
 436 0652 541EF068 		.ascii	"T\036\360h%g\347\307\264\374\266\200\217L\321\007\270"
 436      2567E7C7 
ARM GAS  C:\Users\gjl\AppData\Local\Temp\ccIDcqvh.s 			page 34


 436      B4FCB680 
 436      8F4CD107 
 436      B8
 437 0663 9CD64996 		.ascii	"\234\326I\226\262\223\373\027\316g\370\341q6\357\227"
 437      B293FB17 
 437      CE67F8E1 
 437      7136EF97 
 438 0673 E5AB8EC1 		.ascii	"\345\253\216\3016\315^3\006[\236\215\351p.S\2367\246"
 438      36CD5E33 
 438      065B9E8D 
 438      E9702E53 
 438      9E37A6
 439 0686 D4207C90 		.ascii	"\324 |\220)U\215\317\332\374p#S\036\246\024\027 \334"
 439      29558DCF 
 439      DAFC7023 
 439      531EA614 
 439      1720DC
 440 0699 CB94CE2D 		.ascii	"\313\224\316-\017\2629<\306\224\211\027\231\311~x\225"
 440      0FB2393C 
 440      C6948917 
 440      99C97E78 
 440      95
 441 06aa 86ADECBE 		.ascii	"\206\255\354\276\241\022\035\316aJYm\332\003\341\275"
 441      A1121DCE 
 441      614A596D 
 441      DA03E1BD 
 442 06ba DB4D5E4A 		.ascii	"\333M^J\012\327\2174iq9\355\234\231\\\337~*\000\315"
 442      0AD78F34 
 442      697139ED 
 442      9C995CDF 
 442      7E2A00CD 
 443 06ce 2157D81C 		.ascii	"!W\330\034\361\212\004\331Cf60\231\377YmU\237\313\225"
 443      F18A04D9 
 443      43663630 
 443      99FF596D 
 443      559FCB95 
 444 06e2 AEA7C5B4 		.ascii	"\256\247\305\264\025\346\277\217\013\363\256\251yd\205"
 444      15E6BF8F 
 444      0BF3AEA9 
 444      796485
 445 06f1 5C25EB44 		.ascii	"\\%\353DE\341\356M\347u\256\262o)t\225\034\372\204\256"
 445      45E1EE4D 
 445      E775AEB2 
 445      6F297495 
 445      1CFA84AE 
 446 0705 A64522B4 		.ascii	"\246E\"\264\357\254\017\232\247`\265Xb\365\307\016\037"
 446      EFAC0F9A 
 446      A760B558 
 446      62F5C70E 
 446      1F
 447 0716 345B017A 		.ascii	"4[\001zE\002\275$Z\335\246\000\245\3763\204\3279\027"
 447      4502BD24 
 447      5ADDA600 
 447      A5FE3384 
 447      D73917
 448 0729 E2556827 		.ascii	"\342Uh'\244g\220\344l\207\000\207\244\241r\310_!7\007"
 448      A46790E4 
ARM GAS  C:\Users\gjl\AppData\Local\Temp\ccIDcqvh.s 			page 35


 448      6C870087 
 448      A4A172C8 
 448      5F213707 
 449 073d ED05C907 		.ascii	"\355\005\311\007)\0029\000R\001\262\033\244\000\344"
 449      29023900 
 449      5201B21B 
 449      A400E4
 450 074c 20481948 		.ascii	" H\031H)H1\310a\220# {@J@\366\203\034\002\251\344\346"
 450      294831C8 
 450      61902320 
 450      7B404A40 
 450      F6831C02 
 451 0763 D07746C6 		.ascii	"\320wF\306/[\014\320J\245\000\335\220\314\245G\234\313"
 451      2F5B0CD0 
 451      4AA500DD 
 451      90CCA547 
 451      9CCB
 452 0775 7685B92C 		.ascii	"v\205\271,\020\221\327Dd\256\002RjtD\204\346(@\013%"
 452      1091D744 
 452      64AE0252 
 452      6A744484 
 452      E628400B 
 453 078a D03131EC 		.ascii	"\32011\354k\344\320\227hj\342\263\304y\245+\315K\232"
 453      6BE4D097 
 453      686AE2B3 
 453      C479A52B 
 453      CD4B9A
 454 079d CE9D1BC9 		.ascii	"\316\235\033\311\353L\032\246+j\275\200\366\255\035"
 454      EB4C1AA6 
 454      2B6ABD80 
 454      F6AD1D
 455 07ac 665B32B9 		.ascii	"f[2\271\313\035A[]\356dL\215\257U\"\322/1^\2759\370"
 455      CB1D415B 
 455      5DEE644C 
 455      8DAF5522 
 455      D22F315E 
 456 07c3 4778F3C0 		.ascii	"Gx\363\300\364\264H\023\320\276C\206\221"
 456      F4B44813 
 456      D0BE4386 
 456      91
 457 07d0 914EB24B 		.ascii	"\221N\262Kj}\235\222u)\372\251\030\222\037\224\260\254"
 457      6A7D9D92 
 457      7529FAA9 
 457      18921F94 
 457      B0AC
 458 07e2 14E9BEE1 		.ascii	"\024\351\276\341\256\337\240w\301\017K\300\250\204="
 458      AEDFA077 
 458      C10F4BC0 
 458      A8843D
 459 07f1 432C83C7 		.ascii	"C,\203\307g%^\177T\310\203tJ5\322)\355R\236\2224\027"
 459      67255E7F 
 459      54C88374 
 459      4A35D229 
 459      ED529E92 
 460 0807 93D229AD 		.ascii	"\223\322)\255V\312\006\215.\354\005\2277\346\345\204"
 460      56CA068D 
 460      2EEC0597 
ARM GAS  C:\Users\gjl\AppData\Local\Temp\ccIDcqvh.s 			page 36


 460      37E6E584 
 461 0817 E08B742F 		.ascii	"\340\213t/\340\332o\345\326\007\243\260H\345\345\361"
 461      E0DA6FE5 
 461      D607A3B0 
 461      48E5E5F1 
 462 0827 132C895F 		.ascii	"\023,\211_ry\260\230]m\375\220\304\254\032\034U\211"
 462      7279B098 
 462      5D6DFD90 
 462      C4AC1A1C 
 462      5589
 463 0839 5B2D0921 		.ascii	"[-\011!\345\273\273p\377z\024&\020tOKP\365?g\007\276"
 463      E5BBBB70 
 463      FF7A1426 
 463      10744F4B 
 463      50F53F67 
 464 084f D3D73C4E 		.ascii	"\323\327<NF\262\027\205\032I\331\252\320Q\316\373\242"
 464      46B21785 
 464      1A49D9AA 
 464      D051CEFB 
 464      A2
 465 0860 E03938D8 		.ascii	"\34098\330\347\207\357\263\3557m\373\246\016\216\035"
 465      E787EFB3 
 465      ED376DFB 
 465      A60E8E1D 
 466 0870 E11F9237 		.ascii	"\341\037\2227\352\037\266\015\250\331n<@\276d\014\335"
 466      EA1FB60D 
 466      A8D96E3C 
 466      40BE640C 
 466      DD
 467 0881 CE6BD662 		.ascii	"\316k\326b\217\260ow\035j\013\301k\003\211\362~\337"
 467      8FB06F77 
 467      1D6A0BC1 
 467      6B0389F2 
 467      7EDF
 468 0893 70794D10 		.ascii	"pyM\020\222m\313s\346\350\365\263\324\3720\357S\344"
 468      926DCB73 
 468      E6E8F5B3 
 468      D4FA30EF 
 468      53E4
 469 08a5 9CC8C848 		.ascii	"\234\310\310H\226\363\255=\222\234\017\301KR\203\230"
 469      96F3AD3D 
 469      929C0FC1 
 469      4B528398 
 470 08b5 F3414969 		.ascii	"\363AIi\312\222[\007\261\253\205\243\011\035\343\330"
 470      CA925B07 
 470      B1AB85A3 
 470      091DE3D8 
 471 08c5 0092DC7E 		.ascii	"\000\222\334~\210\3435\230\372%\220\213 = \335 gA\332"
 471      88E33598 
 471      FA25908B 
 471      203D20DD 
 471      206741DA 
 472 08d9 41DA405A 		.ascii	"A\332@ZA\334 g@N\203\264\200\234\002i\0069\011r\002"
 472      41DC2067 
 472      404E83B4 
 472      809C0269 
 472      06390972 
ARM GAS  C:\Users\gjl\AppData\Local\Temp\ccIDcqvh.s 			page 37


 473 08ee A409A451 		.ascii	"\244\011\244Q\266\367\325\366\370\026\317qN\306\360"
 473      B6F7D5F6 
 473      F816CF71 
 473      4EC6F0
 474 08fd F2D4357F 		.ascii	"\362\3245\177T\204\366\311'\323+\231\014\303\376$b\257"
 474      5484F6C9 
 474      27D32B99 
 474      0CC3FE24 
 474      62AF
 475 090f 2961A54B 		.ascii	")a\245K\243J\304\016(a\245\313\256R\304^W\302J\367\205"
 475      A34AC40E 
 475      2861A5CB 
 475      AE52C45E 
 475      57C24AF7 
 476 0924 72117B53 		.ascii	"r\021{S\011+\335\201\313D\354-%\254t\253\334!bo+a%\347"
 476      092BDD81 
 476      CB44EC2D 
 476      25AC74AB 
 476      DC21626F 
 477 093c E98F22F4 		.ascii	"\351\217\"\364\216\022T\022\335,\021zW\251T\244\021"
 477      8E125412 
 477      DD2C117A 
 477      57A954A4 
 477      11
 478 094d CBCC966C 		.ascii	"\313\314\226l>\367\004\264o\363\031|-\022\031\3313\331"
 478      3EF704B4 
 478      6FF3197C 
 478      2D1219D9 
 478      33D9
 479 095f E60E2FCE 		.ascii	"\346\016/\316\350\261\200\367m\356\203S\251Lv\2050x"
 479      E8B180F7 
 479      6DEE8353 
 479      A94C7685 
 479      3078
 480 0971 07A7479E 		.ascii	"\007\247G\236\251p\351v-]y\347\270Y\"\350:\024l'\214"
 480      A970E976 
 480      2D5D79E7 
 480      B85922E8 
 480      3A146C27 
 481 0986 669BC574 		.ascii	"f\233\305t0\225\0043\355\007\002\030@~\327r\344\027"
 481      30950433 
 481      ED070218 
 481      407ED772 
 481      E417
 482 0998 2D797FEE 		.ascii	"-y\177\356\202!\317\341%]j\364\202l\325w\261U\257\274"
 482      8221CFE1 
 482      255D6AF4 
 482      826CD577 
 482      B155AFBC 
 483 09ac AC0680D9 		.ascii	"\254\006\200\331/\277\254&\272\364\256MF\032\300\011"
 483      2FBFAC26 
 483      BAF4AE4D 
 483      461AC009 
 484 09bc E5004AE2 		.ascii	"\345\000J\342\375\\\004\277\232\012V8\356D\364\2442"
 484      FD5C04BF 
 484      9A0A5638 
 484      EE44F4A4 
ARM GAS  C:\Users\gjl\AppData\Local\Temp\ccIDcqvh.s 			page 38


 484      32
 485 09cd 5A62DA93 		.ascii	"Zb\332\223\031\316Ry\031\340.n\012|\236r&{\245\231\274"
 485      19CE5279 
 485      19E02E6E 
 485      0A7C9E72 
 485      267BA599 
 486 09e2 0A31BAA2 		.ascii	"\0121\272\242\230\311^Y&\257(erT\226\311^\232\311>Y"
 486      98C95E59 
 486      26AF2865 
 486      725496C9 
 486      5E9AC93E 
 487 09f7 26934163 		.ascii	"&\223Ac\307\314\370\332\267\3111C\210\246\210\307\314"
 487      C7CCF8DA 
 487      B7C93143 
 487      88A688C7 
 487      CC
 488 0a08 159A4B36 		.ascii	"\025\232K6\231\361\314_\261\311\300\266\216R\025'\263"
 488      99F1CC5F 
 488      B1C9C0B6 
 488      8E521527 
 488      B3
 489 0a19 403CEA47 		.ascii	"@<\352G3\351Q\337 ?\352Y_\357\332\367H\037)\233z\321"
 489      33E951DF 
 489      203FEA59 
 489      5FEFDAF7 
 489      481F299B 
 490 0a2f 57033DD2 		.ascii	"W\003=\322\030\342q\353L\202 Q~!\376\274\355\244l\310"
 490      18E271EB 
 490      4C822051 
 490      7E21FEBC 
 490      EDA46CC8 
 491 0a43 4F93954F 		.ascii	"O\223\225O\262\330oK2\211K\3547\343\235\254\265\331"
 491      B2D86F4B 
 491      32894BEC 
 491      37E39DAC 
 491      B5D9
 492 0a55 DCF45FBA 		.ascii	"\334\364_\272n\322\351\337\340\204O3\275\367F\257b\366"
 492      6ED2E9DF 
 492      E0844F33 
 492      BDF746AF 
 492      62F6
 493 0a67 3169C0D3 		.ascii	"1i\300\323\265,#?\335E>\272}J\201\350\202\350\364\202"
 493      B52C233F 
 493      DD453EBA 
 493      7D4A81E8 
 493      82E8F482 
 494 0a7b F4E3CC2D 		.ascii	"\364\343\314-\216|\234\031\271\325\332\246\303\233\003"
 494      8E7C9C19 
 494      B9D5DAA6 
 494      C39B03
 495 0a8a D98F89E1 		.ascii	"\331\217\211\341\272u\301\3027\236Wg\364\314\0125r["
 495      BA75C1C2 
 495      379E5767 
 495      F4CC0A35 
 495      725B
 496 0a9c 9C1B3C8A 		.ascii	"\234\033<\212F\356P#\367r:S\365xo\340\033~\341\031\342"
 496      46EE5023 
ARM GAS  C:\Users\gjl\AppData\Local\Temp\ccIDcqvh.s 			page 39


 496      F7723A53 
 496      F5786FE0 
 496      1B7EE119 
 497 0ab1 5EFFC273 		.ascii	"^\377\302s\227\265\345\345\325\226\007\371\242q\217"
 497      97B5E5E5 
 497      D59607F9 
 497      A2718F
 498 0ac0 35EE2D6B 		.ascii	"5\356-k\177\362\037\2421L\243q\337\033\215\233CO~G\202"
 498      7FF21FA2 
 498      314CA371 
 498      DF1B8D9B 
 498      434F7E47 
 499 0ad5 01BFED5E 		.ascii	"\001\277\355^\345\377\2755?\335\375W\212A\203\342\034"
 499      E5FFBD35 
 499      3FDDFD57 
 499      8A4183E2 
 499      1C
 500 0ae6 0639F63F 		.ascii	"\0069\366?\005\350\001\345_\275\367\342\240\016WL\317"
 500      05E801E5 
 500      5FBDF7E2 
 500      A00E574C 
 500      CF
 501 0af7 BF797C60 		.ascii	"\277y|`{\210\217\326\317\214\326\231\334\254\322\220"
 501      7B888FD6 
 501      CF8CD699 
 501      DCACD290 
 502 0b07 E9698D52 		.ascii	"\351i\215RZ#^Z\353\213jV!\306\313=\341\310q5r\004\201"
 502      5A235E5A 
 502      EB8B6A56 
 502      21C6CB3D 
 502      E1C87135 
 503 0b1e 1E8AA41E 		.ascii	"\036\212\244\036zI=\242\244\\}\307K9\331\033\011\371"
 503      7A493DA2 
 503      A45C7DC7 
 503      4B39D91B 
 503      09F9
 504 0b30 842A2E93 		.ascii	"\204*.\223\307lo\"wEt\233\014=&\240\307(\372\350\355"
 504      C76C6F22 
 504      7745749B 
 504      0C3D26A0 
 504      C728FAE8 
 505 0b45 DAD61019 		.ascii	"\332\326\020\031zT\266\004\307\005\3648E\017vmm\017"
 505      7A54B604 
 505      C705F438 
 505      450F766D 
 505      6D0F
 506 0b57 94A18765 		.ascii	"\224\241\207e\350'\002\372\011E\247>i\275$grJ\306\304"
 506      E82702FA 
 506      0945A73E 
 506      69BD2467 
 506      724AC6C4 
 507 0b6b 23A03D14 		.ascii	"#\240=\024}\255\242\2765@\206\276)\263\375T@\223\273"
 507      7DADA2BE 
 507      354086BE 
 507      29B3FD54 
 507      4093BB
 508 0b7e DAB4C4E8 		.ascii	"\332\264\304\350x/)zy\264\341K\013\377\025\357\260\332"
ARM GAS  C:\Users\gjl\AppData\Local\Temp\ccIDcqvh.s 			page 40


 508      782F297A 
 508      79B4E14B 
 508      0BFF15EF 
 508      B0DA
 509 0b90 E2FE6CB5 		.ascii	"\342\376l\265Y\276\342\215\016>\312N\376\314\327|\371"
 509      59BEE28D 
 509      0E3ECA4E 
 509      FECCD77C 
 509      F9
 510 0ba1 97AF677F 		.ascii	"\227\257g\177\276`\201*\320`H\262\332\370h\003\237\214"
 510      BE60812A 
 510      D06048B2 
 510      DAF86803 
 510      9F8C
 511 0bb3 4CBF8DB1 		.ascii	"L\277\215\261;\022\343\034\306\204\331\261\326x\213"
 511      3B12E31C 
 511      C684D9B1 
 511      D6788B
 512 0bc2 7376E4F2 		.ascii	"sv\344\362\350O~\035cZawX\234\316\030\2733\3214\333"
 512      E84F7E1D 
 512      635A6177 
 512      589CCE18 
 512      BB33D134 
 513 0bd7 E4B018F9 		.ascii	"\344\260\030\371DG\314\307Q\013\344\015\326\004{\242"
 513      4447CCC7 
 513      510BE40D 
 513      D6047BA2 
 514 0be7 838F89B3 		.ascii	"\203\217\211\263%\305\030\035\0111\277\211\"\010x\372"
 514      25C5181D 
 514      0931BF89 
 514      220878FA 
 515 0bf7 C89668B3 		.ascii	"\310\226h\263|d1.\266\306Xm\246\370$\263%&\301hZ\002"
 515      7C64312E 
 515      B6C6586D 
 515      A6F824B3 
 515      2526C168 
 516 0c0d 7C620C66 		.ascii	"|b\014fK\2541)\2367\360+\354\026g\324\022U\200@e\351"
 516      4BAC3129 
 516      9E37F02B 
 516      EC1667D4 
 516      12558040 
 517 0c23 FF8B8973 		.ascii	"\377\213\211s\2053\306\340\344\315\340\026\334\277\027"
 517      8533C6E0 
 517      E4CDE016 
 517      DCBF17
 518 0c32 151503FF 		.ascii	"\025\025\003\377\222\242\343\026\306\230\234\016S\014"
 518      92A2E316 
 518      C6989C0E 
 518      530C
 519 0c40 8DA19306 		.ascii	"\215\241\223\0060\312\244\232\371zH?\267\361\357L\023"
 519      30CAA49A 
 519      F97A483F 
 519      B7F1EF4C 
 519      13
 520 0c51 E830DAFE 		.ascii	"\3500\332\376y\242}\205\3301\203\266\375\336a\\\366"
 520      79A27D85 
 520      D83183B6 
ARM GAS  C:\Users\gjl\AppData\Local\Temp\ccIDcqvh.s 			page 41


 520      FDDE615C 
 520      F6
 521 0c62 F5DFBE88 		.ascii	"\365\337\276\210&-\301f\313\342\304$\233\311\002n\214"
 521      262DC166 
 521      CBE2C424 
 521      9BC9026E 
 521      8C
 522 0c73 BCE51D9F 		.ascii	"\274\345\035\237\032ot\362\006\273\325\306\332\337\365"
 522      1A6F74F2 
 522      06BBD5C6 
 522      DADFF5
 523 0c82 B57B43E6 		.ascii	"\265{C\346\353\322\305\331\255\211\006\010\013\264j"
 523      EBD2C5D9 
 523      AD890608 
 523      0BB46A
 524 0c91 93F8D868 		.ascii	"\223\370\330h\326\014\206\227Z\001o4\233I\310t\326\205"
 524      D60C8697 
 524      5A016F34 
 524      9B49C874 
 524      D685
 525 0ca3 26D2E1E0 		.ascii	"&\322\341\340-f\372,\264\207[\235\206\330D\033o\260"
 525      2D66FA2C 
 525      B4875B9D 
 525      86D8441B 
 525      6FB0
 526 0cb5 DA965A1C 		.ascii	"\332\226Z\034N\213!!\321l\321,7$\306\306:-\274\306b"
 526      4E8B2121 
 526      D16CD12C 
 526      3724C6C6 
 526      3A2DBCC6 
 527 0cca 33254270 		.ascii	"3%Bp\342\264\254J\026|b\3405\336\0075\0317\203z7\332"
 527      E2B4AC4A 
 527      167C62E0 
 527      35DE0735 
 527      1937837A 
 528 0ce0 CC402CDE 		.ascii	"\314@,\336\270\302`Z\254\243sLp\306\301s\300\342\025"
 528      B8C2605A 
 528      ACA3734C 
 528      70C6C173 
 528      C0E215
 529 0cf3 BC05EEFE 		.ascii	"\274\005\356\376&\243\031nZ\263\325ig\250\000\233e9"
 529      26A3196E 
 529      5AB3D569 
 529      67A8009B 
 529      6539
 530 0d05 0F773D45 		.ascii	"\017w=E\223\202%\212\267\337j\213M\324\331\255\313-"
 530      9382258A 
 530      B7DF6A8B 
 530      4DD4D9AD 
 530      CB2D
 531 0d17 F1866556 		.ascii	"\361\206eV3\277dFl\274\325N\230\031\274\314\336\362"
 531      33BF6446 
 531      6CBCD54E 
 531      9819BCCC 
 531      DEF2
 532 0d29 C6C1DBA0 		.ascii	"\306\301\333\240\343\241N\014K,\326\270%\274\226>\323"
 532      E3A14E0C 
ARM GAS  C:\Users\gjl\AppData\Local\Temp\ccIDcqvh.s 			page 42


 532      4B2CD6B8 
 532      25BC963E 
 532      D3
 533 0d3a 91E1CB1C 		.ascii	"\221\341\313\034V\240`O\212w\012-\006\2333\324l\344"
 533      56A0604F 
 533      8A770A2D 
 533      069B33D4 
 533      6CE4
 534 0d4c 8D061894 		.ascii	"\215\006\030\224d7\360\326\004\0134\205\223\230,Nr\032"
 534      6437F0D6 
 534      040B3485 
 534      93982C4E 
 534      721A
 535 0d5e 4CF189A6 		.ascii	"L\361\211\246\357\014\013\346\317\377\356\217\337k\234"
 535      EF0C0BE6 
 535      CFFFEE8F 
 535      DF6B9C
 536 0d6d 762B0D88 		.ascii	"v+\015\210\336\011m\254g\311\367B,\026-\024bA\036B\011"
 536      DE096DAC 
 536      67C9F742 
 536      2C162D14 
 536      62411E42 
 537 0d82 40EE6486 		.ascii	"@\356d\206\323<\305G\250=\021r\012Q\267\360\206eF+\017"
 537      D33CC547 
 537      A83D1172 
 537      0A51B7F0 
 537      8665462B 
 538 0d97 410A679A 		.ascii	"A\012g\232td\202s\026\0249\204\304j7@<\214\213\311T"
 538      74648273 
 538      16143984 
 538      C46A3740 
 538      3C8C8BC9 
 539 0dac 08DA061D 		.ascii	"\010\332\006\035\304\000\355\261\330\244\035\2412t\274"
 539      C400EDB1 
 539      D8A41DA1 
 539      3274BC
 540 0dbb 65A9257E 		.ascii	"e\251%~\206\024F[f\321PKCLJ;\311\304\353Y\244Y\354\336"
 540      8614465B 
 540      66D1504B 
 540      434C4A3B 
 540      C9C4EB59 
 541 0dd3 515A03B0 		.ascii	"QZ\003\2606\302^\037\315\353\274\353\003\214\204\371"
 541      36C25E1F 
 541      CDEBBCEB 
 541      038C84F9 
 542 0de3 2A949522 		.ascii	"*\224\225\"\251\000\177\332\317\207\276V\365\316 YS"
 542      A9007FDA 
 542      CF87BE56 
 542      F5CE2059 
 542      53
 543 0df4 887709D1 		.ascii	"\210w\011\321~\213\355\337\210YY\022"
 543      7E8BEDDF 
 543      88595912 
 544              		.text
 545              		.section	.gnu.lto_.symtab.1a3f9e0,"",%progbits
 546 0000 75387838 		.ascii	"u8x8_GetStringLineCnt\000"
 546      5F476574 
ARM GAS  C:\Users\gjl\AppData\Local\Temp\ccIDcqvh.s 			page 43


 546      53747269 
 546      6E674C69 
 546      6E65436E 
 547 0016 00       		.ascii	"\000"
 548 0017 00       		.ascii	"\000"
 549 0018 00       		.ascii	"\000"
 550 0019 00000000 		.ascii	"\000\000\000\000\000\000\000\000"
 550      00000000 
 551 0021 C8000000 		.ascii	"\310\000\000\000"
 552 0025 75387838 		.ascii	"u8x8_GetStringLineStart\000"
 552      5F476574 
 552      53747269 
 552      6E674C69 
 552      6E655374 
 553 003d 00       		.ascii	"\000"
 554 003e 00       		.ascii	"\000"
 555 003f 00       		.ascii	"\000"
 556 0040 00000000 		.ascii	"\000\000\000\000\000\000\000\000"
 556      00000000 
 557 0048 CD000000 		.ascii	"\315\000\000\000"
 558 004c 75387838 		.ascii	"u8x8_CopyStringLine\000"
 558      5F436F70 
 558      79537472 
 558      696E674C 
 558      696E6500 
 559 0060 00       		.ascii	"\000"
 560 0061 00       		.ascii	"\000"
 561 0062 00       		.ascii	"\000"
 562 0063 00000000 		.ascii	"\000\000\000\000\000\000\000\000"
 562      00000000 
 563 006b D3000000 		.ascii	"\323\000\000\000"
 564 006f 75387838 		.ascii	"u8x8_DrawUTF8Line\000"
 564      5F447261 
 564      77555446 
 564      384C696E 
 564      6500
 565 0081 00       		.ascii	"\000"
 566 0082 00       		.ascii	"\000"
 567 0083 00       		.ascii	"\000"
 568 0084 00000000 		.ascii	"\000\000\000\000\000\000\000\000"
 568      00000000 
 569 008c 64010000 		.ascii	"d\001\000\000"
 570 0090 75387838 		.ascii	"u8x8_DrawUTF8Lines\000"
 570      5F447261 
 570      77555446 
 570      384C696E 
 570      657300
 571 00a3 00       		.ascii	"\000"
 572 00a4 00       		.ascii	"\000"
 573 00a5 00       		.ascii	"\000"
 574 00a6 00000000 		.ascii	"\000\000\000\000\000\000\000\000"
 574      00000000 
 575 00ae 66010000 		.ascii	"f\001\000\000"
 576 00b2 75387838 		.ascii	"u8x8_DrawUTF8\000"
 576      5F447261 
 576      77555446 
 576      3800
ARM GAS  C:\Users\gjl\AppData\Local\Temp\ccIDcqvh.s 			page 44


 577 00c0 00       		.ascii	"\000"
 578 00c1 02       		.ascii	"\002"
 579 00c2 00       		.ascii	"\000"
 580 00c3 00000000 		.ascii	"\000\000\000\000\000\000\000\000"
 580      00000000 
 581 00cb 6D010000 		.ascii	"m\001\000\000"
 582 00cf 75387838 		.ascii	"u8x8_GetUTF8Len\000"
 582      5F476574 
 582      55544638 
 582      4C656E00 
 583 00df 00       		.ascii	"\000"
 584 00e0 02       		.ascii	"\002"
 585 00e1 00       		.ascii	"\000"
 586 00e2 00000000 		.ascii	"\000\000\000\000\000\000\000\000"
 586      00000000 
 587 00ea 72010000 		.ascii	"r\001\000\000"
 588              		.text
 589              		.section	.gnu.lto_.opts,"",%progbits
 590 0000 272D666D 		.ascii	"'-fmath-errno' '-fsigned-zeros' '-ftrapping-math' '"
 590      6174682D 
 590      6572726E 
 590      6F272027 
 590      2D667369 
 591 0033 2D666E6F 		.ascii	"-fno-trapv' '-fno-openmp' '-fno-openacc' '-mcpu=cor"
 591      2D747261 
 591      70762720 
 591      272D666E 
 591      6F2D6F70 
 592 0066 7465782D 		.ascii	"tex-m0' '-mthumb' '-g' '-Os' '-ffunction-sections' "
 592      6D302720 
 592      272D6D74 
 592      68756D62 
 592      2720272D 
 593 0099 272D6666 		.ascii	"'-ffat-lto-objects' '-flto'\000"
 593      61742D6C 
 593      746F2D6F 
 593      626A6563 
 593      74732720 
 594              		.text
 595              		.cfi_sections	.debug_frame
 596              		.section	.text.u8x8_GetStringLineCnt,"ax",%progbits
 597              		.align	1
 598              		.global	u8x8_GetStringLineCnt
 599              		.code	16
 600              		.thumb_func
 601              		.type	u8x8_GetStringLineCnt, %function
 602              	u8x8_GetStringLineCnt:
 603              	.LFB0:
 604              		.file 1 "..\\..\\u8g2\\csrc\\u8x8_string.c"
   1:..\..\u8g2\csrc/u8x8_string.c **** /*
   2:..\..\u8g2\csrc/u8x8_string.c **** 
   3:..\..\u8g2\csrc/u8x8_string.c ****   u8x8_string.c
   4:..\..\u8g2\csrc/u8x8_string.c ****   
   5:..\..\u8g2\csrc/u8x8_string.c ****   string line procedures
   6:..\..\u8g2\csrc/u8x8_string.c ****   
   7:..\..\u8g2\csrc/u8x8_string.c ****   Universal 8bit Graphics Library (https://github.com/olikraus/u8g2/)
   8:..\..\u8g2\csrc/u8x8_string.c **** 
ARM GAS  C:\Users\gjl\AppData\Local\Temp\ccIDcqvh.s 			page 45


   9:..\..\u8g2\csrc/u8x8_string.c ****   Copyright (c) 2016, olikraus@gmail.com
  10:..\..\u8g2\csrc/u8x8_string.c ****   All rights reserved.
  11:..\..\u8g2\csrc/u8x8_string.c **** 
  12:..\..\u8g2\csrc/u8x8_string.c ****   Redistribution and use in source and binary forms, with or without modification, 
  13:..\..\u8g2\csrc/u8x8_string.c ****   are permitted provided that the following conditions are met:
  14:..\..\u8g2\csrc/u8x8_string.c **** 
  15:..\..\u8g2\csrc/u8x8_string.c ****   * Redistributions of source code must retain the above copyright notice, this list 
  16:..\..\u8g2\csrc/u8x8_string.c ****     of conditions and the following disclaimer.
  17:..\..\u8g2\csrc/u8x8_string.c ****     
  18:..\..\u8g2\csrc/u8x8_string.c ****   * Redistributions in binary form must reproduce the above copyright notice, this 
  19:..\..\u8g2\csrc/u8x8_string.c ****     list of conditions and the following disclaimer in the documentation and/or other 
  20:..\..\u8g2\csrc/u8x8_string.c ****     materials provided with the distribution.
  21:..\..\u8g2\csrc/u8x8_string.c **** 
  22:..\..\u8g2\csrc/u8x8_string.c ****   THIS SOFTWARE IS PROVIDED BY THE COPYRIGHT HOLDERS AND 
  23:..\..\u8g2\csrc/u8x8_string.c ****   CONTRIBUTORS "AS IS" AND ANY EXPRESS OR IMPLIED WARRANTIES, 
  24:..\..\u8g2\csrc/u8x8_string.c ****   INCLUDING, BUT NOT LIMITED TO, THE IMPLIED WARRANTIES OF 
  25:..\..\u8g2\csrc/u8x8_string.c ****   MERCHANTABILITY AND FITNESS FOR A PARTICULAR PURPOSE ARE 
  26:..\..\u8g2\csrc/u8x8_string.c ****   DISCLAIMED. IN NO EVENT SHALL THE COPYRIGHT HOLDER OR 
  27:..\..\u8g2\csrc/u8x8_string.c ****   CONTRIBUTORS BE LIABLE FOR ANY DIRECT, INDIRECT, INCIDENTAL, 
  28:..\..\u8g2\csrc/u8x8_string.c ****   SPECIAL, EXEMPLARY, OR CONSEQUENTIAL DAMAGES (INCLUDING, BUT 
  29:..\..\u8g2\csrc/u8x8_string.c ****   NOT LIMITED TO, PROCUREMENT OF SUBSTITUTE GOODS OR SERVICES; 
  30:..\..\u8g2\csrc/u8x8_string.c ****   LOSS OF USE, DATA, OR PROFITS; OR BUSINESS INTERRUPTION) HOWEVER 
  31:..\..\u8g2\csrc/u8x8_string.c ****   CAUSED AND ON ANY THEORY OF LIABILITY, WHETHER IN CONTRACT, 
  32:..\..\u8g2\csrc/u8x8_string.c ****   STRICT LIABILITY, OR TORT (INCLUDING NEGLIGENCE OR OTHERWISE) 
  33:..\..\u8g2\csrc/u8x8_string.c ****   ARISING IN ANY WAY OUT OF THE USE OF THIS SOFTWARE, EVEN IF 
  34:..\..\u8g2\csrc/u8x8_string.c ****   ADVISED OF THE POSSIBILITY OF SUCH DAMAGE.    
  35:..\..\u8g2\csrc/u8x8_string.c **** 
  36:..\..\u8g2\csrc/u8x8_string.c **** */
  37:..\..\u8g2\csrc/u8x8_string.c **** 
  38:..\..\u8g2\csrc/u8x8_string.c **** #include "u8x8.h"
  39:..\..\u8g2\csrc/u8x8_string.c **** 
  40:..\..\u8g2\csrc/u8x8_string.c **** uint8_t u8x8_GetStringLineCnt(const char *str)
  41:..\..\u8g2\csrc/u8x8_string.c **** {
 605              		.loc 1 41 0
 606              		.cfi_startproc
 607              		@ args = 0, pretend = 0, frame = 0
 608              		@ frame_needed = 0, uses_anonymous_args = 0
 609              		@ link register save eliminated.
 610              	.LVL0:
  42:..\..\u8g2\csrc/u8x8_string.c ****   char e;
  43:..\..\u8g2\csrc/u8x8_string.c ****   uint8_t line_cnt = 1;
  44:..\..\u8g2\csrc/u8x8_string.c ****   if ( str == NULL )
  45:..\..\u8g2\csrc/u8x8_string.c ****     return 0;
 611              		.loc 1 45 0
 612 0000 031E     		subs	r3, r0, #0
  44:..\..\u8g2\csrc/u8x8_string.c ****     return 0;
 613              		.loc 1 44 0
 614 0002 09D0     		beq	.L2
 615 0004 0123     		movs	r3, #1
 616              	.LVL1:
 617              	.L3:
  46:..\..\u8g2\csrc/u8x8_string.c ****   for(;;)
  47:..\..\u8g2\csrc/u8x8_string.c ****   {
  48:..\..\u8g2\csrc/u8x8_string.c ****     e = *str;
 618              		.loc 1 48 0
 619 0006 0278     		ldrb	r2, [r0]
 620              	.LVL2:
ARM GAS  C:\Users\gjl\AppData\Local\Temp\ccIDcqvh.s 			page 46


  49:..\..\u8g2\csrc/u8x8_string.c ****     if ( e == '\0' )
 621              		.loc 1 49 0
 622 0008 002A     		cmp	r2, #0
 623 000a 05D0     		beq	.L2
  50:..\..\u8g2\csrc/u8x8_string.c ****       break;
  51:..\..\u8g2\csrc/u8x8_string.c ****     str++;
 624              		.loc 1 51 0
 625 000c 0130     		adds	r0, r0, #1
 626              	.LVL3:
  52:..\..\u8g2\csrc/u8x8_string.c ****     if ( e == '\n' )
 627              		.loc 1 52 0
 628 000e 0A2A     		cmp	r2, #10
 629 0010 F9D1     		bne	.L3
  53:..\..\u8g2\csrc/u8x8_string.c ****       line_cnt++;
 630              		.loc 1 53 0
 631 0012 0133     		adds	r3, r3, #1
 632              	.LVL4:
 633 0014 DBB2     		uxtb	r3, r3
 634              	.LVL5:
 635 0016 F6E7     		b	.L3
 636              	.LVL6:
 637              	.L2:
  54:..\..\u8g2\csrc/u8x8_string.c ****   }
  55:..\..\u8g2\csrc/u8x8_string.c ****   return line_cnt;
  56:..\..\u8g2\csrc/u8x8_string.c **** }
 638              		.loc 1 56 0
 639 0018 1800     		movs	r0, r3
 640              	.LVL7:
 641              		@ sp needed
 642 001a 7047     		bx	lr
 643              		.cfi_endproc
 644              	.LFE0:
 645              		.size	u8x8_GetStringLineCnt, .-u8x8_GetStringLineCnt
 646              		.section	.text.u8x8_GetStringLineStart,"ax",%progbits
 647              		.align	1
 648              		.global	u8x8_GetStringLineStart
 649              		.code	16
 650              		.thumb_func
 651              		.type	u8x8_GetStringLineStart, %function
 652              	u8x8_GetStringLineStart:
 653              	.LFB1:
  57:..\..\u8g2\csrc/u8x8_string.c **** 
  58:..\..\u8g2\csrc/u8x8_string.c **** 
  59:..\..\u8g2\csrc/u8x8_string.c **** /*
  60:..\..\u8g2\csrc/u8x8_string.c ****     Assumes strings, separated by '\n' in "str".
  61:..\..\u8g2\csrc/u8x8_string.c ****     Returns the string at index "line_idx". First strng has line_idx = 0
  62:..\..\u8g2\csrc/u8x8_string.c ****     Example:
  63:..\..\u8g2\csrc/u8x8_string.c ****       Returns "xyz" for line_idx = 1 with str = "abc\nxyz"
  64:..\..\u8g2\csrc/u8x8_string.c ****     Support both UTF8 and normal strings.
  65:..\..\u8g2\csrc/u8x8_string.c **** */
  66:..\..\u8g2\csrc/u8x8_string.c **** const char *u8x8_GetStringLineStart(uint8_t line_idx, const char *str )
  67:..\..\u8g2\csrc/u8x8_string.c **** {
 654              		.loc 1 67 0
 655              		.cfi_startproc
 656              		@ args = 0, pretend = 0, frame = 0
 657              		@ frame_needed = 0, uses_anonymous_args = 0
 658              	.LVL8:
ARM GAS  C:\Users\gjl\AppData\Local\Temp\ccIDcqvh.s 			page 47


 659 0000 10B5     		push	{r4, lr}
 660              		.cfi_def_cfa_offset 8
 661              		.cfi_offset 4, -8
 662              		.cfi_offset 14, -4
 663              		.loc 1 67 0
 664 0002 0400     		movs	r4, r0
  68:..\..\u8g2\csrc/u8x8_string.c ****   char e;
  69:..\..\u8g2\csrc/u8x8_string.c ****   uint8_t line_cnt = 1;
  70:..\..\u8g2\csrc/u8x8_string.c ****   
  71:..\..\u8g2\csrc/u8x8_string.c ****   if ( line_idx == 0 )
  72:..\..\u8g2\csrc/u8x8_string.c ****     return str;
 665              		.loc 1 72 0
 666 0004 0800     		movs	r0, r1
 667              	.LVL9:
  71:..\..\u8g2\csrc/u8x8_string.c ****     return str;
 668              		.loc 1 71 0
 669 0006 002C     		cmp	r4, #0
 670 0008 0ED0     		beq	.L9
 671 000a 0122     		movs	r2, #1
 672              	.LVL10:
 673              	.L10:
 674              	.LBB4:
 675              	.LBB5:
  73:..\..\u8g2\csrc/u8x8_string.c **** 
  74:..\..\u8g2\csrc/u8x8_string.c ****   for(;;)
  75:..\..\u8g2\csrc/u8x8_string.c ****   {
  76:..\..\u8g2\csrc/u8x8_string.c ****     e = *str;
 676              		.loc 1 76 0
 677 000c 0B78     		ldrb	r3, [r1]
 678              	.LVL11:
  77:..\..\u8g2\csrc/u8x8_string.c ****     if ( e == '\0' )
 679              		.loc 1 77 0
 680 000e 002B     		cmp	r3, #0
 681 0010 07D0     		beq	.L13
  78:..\..\u8g2\csrc/u8x8_string.c ****       break;
  79:..\..\u8g2\csrc/u8x8_string.c ****     str++;
 682              		.loc 1 79 0
 683 0012 0131     		adds	r1, r1, #1
 684              	.LVL12:
  80:..\..\u8g2\csrc/u8x8_string.c ****     if ( e == '\n' )
 685              		.loc 1 80 0
 686 0014 0A2B     		cmp	r3, #10
 687 0016 F9D1     		bne	.L10
  81:..\..\u8g2\csrc/u8x8_string.c ****     {
  82:..\..\u8g2\csrc/u8x8_string.c ****       if ( line_cnt == line_idx )
 688              		.loc 1 82 0
 689 0018 9442     		cmp	r4, r2
 690 001a 04D0     		beq	.L14
  83:..\..\u8g2\csrc/u8x8_string.c **** 	return str;
  84:..\..\u8g2\csrc/u8x8_string.c ****       line_cnt++;
 691              		.loc 1 84 0
 692 001c 0132     		adds	r2, r2, #1
 693              	.LVL13:
 694 001e D2B2     		uxtb	r2, r2
 695              	.LVL14:
 696 0020 F4E7     		b	.L10
 697              	.L13:
ARM GAS  C:\Users\gjl\AppData\Local\Temp\ccIDcqvh.s 			page 48


  85:..\..\u8g2\csrc/u8x8_string.c ****     }
  86:..\..\u8g2\csrc/u8x8_string.c ****   }
  87:..\..\u8g2\csrc/u8x8_string.c ****   return NULL;	/* line not found */
 698              		.loc 1 87 0
 699 0022 1800     		movs	r0, r3
 700              	.LVL15:
 701 0024 00E0     		b	.L9
 702              	.LVL16:
 703              	.L14:
  79:..\..\u8g2\csrc/u8x8_string.c ****     if ( e == '\n' )
 704              		.loc 1 79 0
 705 0026 0800     		movs	r0, r1
 706              	.LVL17:
 707              	.L9:
 708              	.LBE5:
 709              	.LBE4:
  88:..\..\u8g2\csrc/u8x8_string.c **** }
 710              		.loc 1 88 0
 711              		@ sp needed
 712 0028 10BD     		pop	{r4, pc}
 713              		.cfi_endproc
 714              	.LFE1:
 715              		.size	u8x8_GetStringLineStart, .-u8x8_GetStringLineStart
 716              		.section	.text.u8x8_CopyStringLine,"ax",%progbits
 717              		.align	1
 718              		.global	u8x8_CopyStringLine
 719              		.code	16
 720              		.thumb_func
 721              		.type	u8x8_CopyStringLine, %function
 722              	u8x8_CopyStringLine:
 723              	.LFB2:
  89:..\..\u8g2\csrc/u8x8_string.c **** 
  90:..\..\u8g2\csrc/u8x8_string.c **** /* copy until first '\n' or '\0' in str */
  91:..\..\u8g2\csrc/u8x8_string.c **** /* Important: There is no string overflow check, ensure */
  92:..\..\u8g2\csrc/u8x8_string.c **** /* that the destination buffer is large enough */
  93:..\..\u8g2\csrc/u8x8_string.c **** void u8x8_CopyStringLine(char *dest, uint8_t line_idx, const char *str)
  94:..\..\u8g2\csrc/u8x8_string.c **** {
 724              		.loc 1 94 0
 725              		.cfi_startproc
 726              		@ args = 0, pretend = 0, frame = 0
 727              		@ frame_needed = 0, uses_anonymous_args = 0
 728              	.LVL18:
 729 0000 10B5     		push	{r4, lr}
 730              		.cfi_def_cfa_offset 8
 731              		.cfi_offset 4, -8
 732              		.cfi_offset 14, -4
 733              		.loc 1 94 0
 734 0002 0400     		movs	r4, r0
 735 0004 0800     		movs	r0, r1
 736              	.LVL19:
  95:..\..\u8g2\csrc/u8x8_string.c ****   if ( dest == NULL )
 737              		.loc 1 95 0
 738 0006 002C     		cmp	r4, #0
 739 0008 0FD0     		beq	.L16
  96:..\..\u8g2\csrc/u8x8_string.c ****     return;
  97:..\..\u8g2\csrc/u8x8_string.c ****   str = u8x8_GetStringLineStart( line_idx, str );
 740              		.loc 1 97 0
ARM GAS  C:\Users\gjl\AppData\Local\Temp\ccIDcqvh.s 			page 49


 741 000a 1100     		movs	r1, r2
 742              	.LVL20:
 743 000c FFF7FEFF 		bl	u8x8_GetStringLineStart
 744              	.LVL21:
  98:..\..\u8g2\csrc/u8x8_string.c ****   if ( str != NULL )
 745              		.loc 1 98 0
 746 0010 0028     		cmp	r0, #0
 747 0012 08D0     		beq	.L18
 748              	.L19:
  99:..\..\u8g2\csrc/u8x8_string.c ****   {
 100:..\..\u8g2\csrc/u8x8_string.c ****     for(;;)
 101:..\..\u8g2\csrc/u8x8_string.c ****     {
 102:..\..\u8g2\csrc/u8x8_string.c ****       if ( *str == '\n' || *str == '\0' )
 749              		.loc 1 102 0
 750 0014 0378     		ldrb	r3, [r0]
 751 0016 0A2B     		cmp	r3, #10
 752 0018 05D0     		beq	.L18
 753              		.loc 1 102 0 is_stmt 0 discriminator 1
 754 001a 002B     		cmp	r3, #0
 755 001c 03D0     		beq	.L18
 103:..\..\u8g2\csrc/u8x8_string.c **** 	break;
 104:..\..\u8g2\csrc/u8x8_string.c ****       *dest = *str;
 756              		.loc 1 104 0 is_stmt 1
 757 001e 2370     		strb	r3, [r4]
 105:..\..\u8g2\csrc/u8x8_string.c ****       dest++;
 106:..\..\u8g2\csrc/u8x8_string.c ****       str++;
 758              		.loc 1 106 0
 759 0020 0130     		adds	r0, r0, #1
 760              	.LVL22:
 105:..\..\u8g2\csrc/u8x8_string.c ****       dest++;
 761              		.loc 1 105 0
 762 0022 0134     		adds	r4, r4, #1
 763              	.LVL23:
 107:..\..\u8g2\csrc/u8x8_string.c ****     }
 764              		.loc 1 107 0
 765 0024 F6E7     		b	.L19
 766              	.L18:
 108:..\..\u8g2\csrc/u8x8_string.c ****   }
 109:..\..\u8g2\csrc/u8x8_string.c ****   *dest = '\0';
 767              		.loc 1 109 0
 768 0026 0023     		movs	r3, #0
 769 0028 2370     		strb	r3, [r4]
 770              	.LVL24:
 771              	.L16:
 110:..\..\u8g2\csrc/u8x8_string.c **** }
 772              		.loc 1 110 0
 773              		@ sp needed
 774              	.LVL25:
 775 002a 10BD     		pop	{r4, pc}
 776              		.cfi_endproc
 777              	.LFE2:
 778              		.size	u8x8_CopyStringLine, .-u8x8_CopyStringLine
 779              		.section	.text.u8x8_DrawUTF8Line,"ax",%progbits
 780              		.align	1
 781              		.global	u8x8_DrawUTF8Line
 782              		.code	16
 783              		.thumb_func
ARM GAS  C:\Users\gjl\AppData\Local\Temp\ccIDcqvh.s 			page 50


 784              		.type	u8x8_DrawUTF8Line, %function
 785              	u8x8_DrawUTF8Line:
 786              	.LFB3:
 111:..\..\u8g2\csrc/u8x8_string.c **** 
 112:..\..\u8g2\csrc/u8x8_string.c **** /*
 113:..\..\u8g2\csrc/u8x8_string.c ****   Draw a string
 114:..\..\u8g2\csrc/u8x8_string.c ****   Extend the string to size "w"
 115:..\..\u8g2\csrc/u8x8_string.c ****   Center the string within "w"
 116:..\..\u8g2\csrc/u8x8_string.c ****   return the size of the string
 117:..\..\u8g2\csrc/u8x8_string.c **** 
 118:..\..\u8g2\csrc/u8x8_string.c **** */
 119:..\..\u8g2\csrc/u8x8_string.c **** uint8_t u8x8_DrawUTF8Line(u8x8_t *u8x8, uint8_t x, uint8_t y, uint8_t w, const char *s)
 120:..\..\u8g2\csrc/u8x8_string.c **** {
 787              		.loc 1 120 0
 788              		.cfi_startproc
 789              		@ args = 4, pretend = 0, frame = 8
 790              		@ frame_needed = 0, uses_anonymous_args = 0
 791              	.LVL26:
 792 0000 F7B5     		push	{r0, r1, r2, r4, r5, r6, r7, lr}
 793              		.cfi_def_cfa_offset 32
 794              		.cfi_offset 0, -32
 795              		.cfi_offset 1, -28
 796              		.cfi_offset 2, -24
 797              		.cfi_offset 4, -20
 798              		.cfi_offset 5, -16
 799              		.cfi_offset 6, -12
 800              		.cfi_offset 7, -8
 801              		.cfi_offset 14, -4
 802              		.loc 1 120 0
 803 0002 0F00     		movs	r7, r1
 121:..\..\u8g2\csrc/u8x8_string.c ****   uint8_t d, lw;
 122:..\..\u8g2\csrc/u8x8_string.c ****   uint8_t cx, dx;
 123:..\..\u8g2\csrc/u8x8_string.c ****     
 124:..\..\u8g2\csrc/u8x8_string.c ****   d = 0;
 125:..\..\u8g2\csrc/u8x8_string.c ****   
 126:..\..\u8g2\csrc/u8x8_string.c ****   lw = u8x8_GetUTF8Len(u8x8, s);
 804              		.loc 1 126 0
 805 0004 0899     		ldr	r1, [sp, #32]
 806              	.LVL27:
 120:..\..\u8g2\csrc/u8x8_string.c ****   uint8_t d, lw;
 807              		.loc 1 120 0
 808 0006 1D00     		movs	r5, r3
 809 0008 0600     		movs	r6, r0
 810 000a 0092     		str	r2, [sp]
 811              		.loc 1 126 0
 812 000c FFF7FEFF 		bl	u8x8_GetUTF8Len
 813              	.LVL28:
 124:..\..\u8g2\csrc/u8x8_string.c ****   
 814              		.loc 1 124 0
 815 0010 0023     		movs	r3, #0
 127:..\..\u8g2\csrc/u8x8_string.c ****   if ( lw < w )
 816              		.loc 1 127 0
 817 0012 A842     		cmp	r0, r5
 818 0014 02D2     		bcs	.L33
 819              	.LVL29:
 128:..\..\u8g2\csrc/u8x8_string.c ****   {
 129:..\..\u8g2\csrc/u8x8_string.c ****     d = w;
ARM GAS  C:\Users\gjl\AppData\Local\Temp\ccIDcqvh.s 			page 51


 130:..\..\u8g2\csrc/u8x8_string.c ****     d -=lw;
 820              		.loc 1 130 0
 821 0016 2B1A     		subs	r3, r5, r0
 822 0018 DBB2     		uxtb	r3, r3
 823              	.LVL30:
 131:..\..\u8g2\csrc/u8x8_string.c ****     d /= 2;
 824              		.loc 1 131 0
 825 001a 5B08     		lsrs	r3, r3, #1
 826              	.LVL31:
 827              	.L33:
 132:..\..\u8g2\csrc/u8x8_string.c ****   }
 133:..\..\u8g2\csrc/u8x8_string.c ****     
 134:..\..\u8g2\csrc/u8x8_string.c ****   cx = x;
 828              		.loc 1 134 0
 829 001c 3C00     		movs	r4, r7
 135:..\..\u8g2\csrc/u8x8_string.c ****   dx = cx + d;
 830              		.loc 1 135 0
 831 001e DB19     		adds	r3, r3, r7
 832              	.LVL32:
 833 0020 DBB2     		uxtb	r3, r3
 834 0022 0193     		str	r3, [sp, #4]
 835              	.LVL33:
 836              	.L34:
 136:..\..\u8g2\csrc/u8x8_string.c ****   while( cx < dx )
 837              		.loc 1 136 0
 838 0024 019B     		ldr	r3, [sp, #4]
 839 0026 9C42     		cmp	r4, r3
 840 0028 08D2     		bcs	.L39
 137:..\..\u8g2\csrc/u8x8_string.c ****   {
 138:..\..\u8g2\csrc/u8x8_string.c ****     u8x8_DrawUTF8(u8x8, cx, y, " ");
 841              		.loc 1 138 0
 842 002a 2100     		movs	r1, r4
 843 002c 0F4B     		ldr	r3, .L41
 844 002e 009A     		ldr	r2, [sp]
 845 0030 3000     		movs	r0, r6
 139:..\..\u8g2\csrc/u8x8_string.c ****     cx++;
 846              		.loc 1 139 0
 847 0032 0134     		adds	r4, r4, #1
 848              	.LVL34:
 138:..\..\u8g2\csrc/u8x8_string.c ****     cx++;
 849              		.loc 1 138 0
 850 0034 FFF7FEFF 		bl	u8x8_DrawUTF8
 851              	.LVL35:
 852              		.loc 1 139 0
 853 0038 E4B2     		uxtb	r4, r4
 854              	.LVL36:
 855 003a F3E7     		b	.L34
 856              	.L39:
 140:..\..\u8g2\csrc/u8x8_string.c ****   }
 141:..\..\u8g2\csrc/u8x8_string.c ****   cx += u8x8_DrawUTF8(u8x8, cx, y, s);
 857              		.loc 1 141 0
 858 003c 2100     		movs	r1, r4
 859 003e 089B     		ldr	r3, [sp, #32]
 860 0040 009A     		ldr	r2, [sp]
 861 0042 3000     		movs	r0, r6
 862 0044 FFF7FEFF 		bl	u8x8_DrawUTF8
 863              	.LVL37:
ARM GAS  C:\Users\gjl\AppData\Local\Temp\ccIDcqvh.s 			page 52


 142:..\..\u8g2\csrc/u8x8_string.c ****   dx = x + w;
 864              		.loc 1 142 0
 865 0048 ED19     		adds	r5, r5, r7
 141:..\..\u8g2\csrc/u8x8_string.c ****   dx = x + w;
 866              		.loc 1 141 0
 867 004a 2418     		adds	r4, r4, r0
 868              	.LVL38:
 869 004c E4B2     		uxtb	r4, r4
 870              	.LVL39:
 871              		.loc 1 142 0
 872 004e EDB2     		uxtb	r5, r5
 873              	.LVL40:
 874              	.L36:
 143:..\..\u8g2\csrc/u8x8_string.c ****   while( cx < dx )
 875              		.loc 1 143 0
 876 0050 AC42     		cmp	r4, r5
 877 0052 08D2     		bcs	.L40
 144:..\..\u8g2\csrc/u8x8_string.c ****   {
 145:..\..\u8g2\csrc/u8x8_string.c ****     u8x8_DrawUTF8(u8x8, cx, y, " ");
 878              		.loc 1 145 0
 879 0054 2100     		movs	r1, r4
 880 0056 054B     		ldr	r3, .L41
 881 0058 009A     		ldr	r2, [sp]
 882 005a 3000     		movs	r0, r6
 146:..\..\u8g2\csrc/u8x8_string.c ****     cx++;
 883              		.loc 1 146 0
 884 005c 0134     		adds	r4, r4, #1
 885              	.LVL41:
 145:..\..\u8g2\csrc/u8x8_string.c ****     cx++;
 886              		.loc 1 145 0
 887 005e FFF7FEFF 		bl	u8x8_DrawUTF8
 888              	.LVL42:
 889              		.loc 1 146 0
 890 0062 E4B2     		uxtb	r4, r4
 891              	.LVL43:
 892 0064 F4E7     		b	.L36
 893              	.L40:
 894              	.LVL44:
 147:..\..\u8g2\csrc/u8x8_string.c ****   }
 148:..\..\u8g2\csrc/u8x8_string.c ****   cx -= x;
 149:..\..\u8g2\csrc/u8x8_string.c ****   return cx;
 895              		.loc 1 149 0
 896 0066 E41B     		subs	r4, r4, r7
 897              	.LVL45:
 898 0068 E0B2     		uxtb	r0, r4
 150:..\..\u8g2\csrc/u8x8_string.c **** }
 899              		.loc 1 150 0
 900              		@ sp needed
 901              	.LVL46:
 902              	.LVL47:
 903 006a FEBD     		pop	{r1, r2, r3, r4, r5, r6, r7, pc}
 904              	.L42:
 905              		.align	2
 906              	.L41:
 907 006c 00000000 		.word	.LC2
 908              		.cfi_endproc
 909              	.LFE3:
ARM GAS  C:\Users\gjl\AppData\Local\Temp\ccIDcqvh.s 			page 53


 910              		.size	u8x8_DrawUTF8Line, .-u8x8_DrawUTF8Line
 911              		.section	.text.u8x8_DrawUTF8Lines,"ax",%progbits
 912              		.align	1
 913              		.global	u8x8_DrawUTF8Lines
 914              		.code	16
 915              		.thumb_func
 916              		.type	u8x8_DrawUTF8Lines, %function
 917              	u8x8_DrawUTF8Lines:
 918              	.LFB4:
 151:..\..\u8g2\csrc/u8x8_string.c **** 
 152:..\..\u8g2\csrc/u8x8_string.c **** /*
 153:..\..\u8g2\csrc/u8x8_string.c ****   draw several lines at position x,y.
 154:..\..\u8g2\csrc/u8x8_string.c ****   lines are stored in s and must be separated with '\n'.
 155:..\..\u8g2\csrc/u8x8_string.c ****   lines can be centered with respect to "w" 
 156:..\..\u8g2\csrc/u8x8_string.c ****   if s == NULL nothing is drawn and 0 is returned
 157:..\..\u8g2\csrc/u8x8_string.c ****   returns the number of lines in s
 158:..\..\u8g2\csrc/u8x8_string.c **** */
 159:..\..\u8g2\csrc/u8x8_string.c **** uint8_t u8x8_DrawUTF8Lines(u8x8_t *u8x8, uint8_t x, uint8_t y, uint8_t w, const char *s)
 160:..\..\u8g2\csrc/u8x8_string.c **** {
 919              		.loc 1 160 0
 920              		.cfi_startproc
 921              		@ args = 4, pretend = 0, frame = 16
 922              		@ frame_needed = 0, uses_anonymous_args = 0
 923              	.LVL48:
 924 0000 F0B5     		push	{r4, r5, r6, r7, lr}
 925              		.cfi_def_cfa_offset 20
 926              		.cfi_offset 4, -20
 927              		.cfi_offset 5, -16
 928              		.cfi_offset 6, -12
 929              		.cfi_offset 7, -8
 930              		.cfi_offset 14, -4
 931 0002 87B0     		sub	sp, sp, #28
 932              		.cfi_def_cfa_offset 48
 933              		.loc 1 160 0
 934 0004 0390     		str	r0, [sp, #12]
 161:..\..\u8g2\csrc/u8x8_string.c ****   uint8_t i;
 162:..\..\u8g2\csrc/u8x8_string.c ****   uint8_t cnt;
 163:..\..\u8g2\csrc/u8x8_string.c ****   cnt = u8x8_GetStringLineCnt(s);
 935              		.loc 1 163 0
 936 0006 0C98     		ldr	r0, [sp, #48]
 937              	.LVL49:
 160:..\..\u8g2\csrc/u8x8_string.c ****   uint8_t i;
 938              		.loc 1 160 0
 939 0008 0491     		str	r1, [sp, #16]
 940 000a 0592     		str	r2, [sp, #20]
 941 000c 1F00     		movs	r7, r3
 942              		.loc 1 163 0
 943 000e FFF7FEFF 		bl	u8x8_GetStringLineCnt
 944              	.LVL50:
 164:..\..\u8g2\csrc/u8x8_string.c ****   for( i = 0; i < cnt; i++ )
 945              		.loc 1 164 0
 946 0012 0025     		movs	r5, #0
 163:..\..\u8g2\csrc/u8x8_string.c ****   for( i = 0; i < cnt; i++ )
 947              		.loc 1 163 0
 948 0014 0600     		movs	r6, r0
 949              	.LVL51:
 950              	.L44:
ARM GAS  C:\Users\gjl\AppData\Local\Temp\ccIDcqvh.s 			page 54


 951 0016 059B     		ldr	r3, [sp, #20]
 952 0018 E8B2     		uxtb	r0, r5
 953 001a 1C18     		adds	r4, r3, r0
 954 001c E4B2     		uxtb	r4, r4
 955              	.LVL52:
 956              		.loc 1 164 0 discriminator 1
 957 001e 8642     		cmp	r6, r0
 958 0020 0BD9     		bls	.L46
 165:..\..\u8g2\csrc/u8x8_string.c ****   {
 166:..\..\u8g2\csrc/u8x8_string.c ****     u8x8_DrawUTF8Line(u8x8, x, y, w, u8x8_GetStringLineStart(i, s));
 959              		.loc 1 166 0 discriminator 3
 960 0022 0C99     		ldr	r1, [sp, #48]
 961 0024 FFF7FEFF 		bl	u8x8_GetStringLineStart
 962              	.LVL53:
 963 0028 3B00     		movs	r3, r7
 964 002a 0090     		str	r0, [sp]
 965 002c 2200     		movs	r2, r4
 966 002e 0499     		ldr	r1, [sp, #16]
 967 0030 0398     		ldr	r0, [sp, #12]
 968 0032 FFF7FEFF 		bl	u8x8_DrawUTF8Line
 969              	.LVL54:
 970 0036 0135     		adds	r5, r5, #1
 971              	.LVL55:
 972 0038 EDE7     		b	.L44
 973              	.LVL56:
 974              	.L46:
 167:..\..\u8g2\csrc/u8x8_string.c ****     y++;
 168:..\..\u8g2\csrc/u8x8_string.c ****   }
 169:..\..\u8g2\csrc/u8x8_string.c ****   return cnt;
 170:..\..\u8g2\csrc/u8x8_string.c **** }
 975              		.loc 1 170 0
 976 003a 3000     		movs	r0, r6
 977              	.LVL57:
 978 003c 07B0     		add	sp, sp, #28
 979              		@ sp needed
 980              	.LVL58:
 981              	.LVL59:
 982              	.LVL60:
 983 003e F0BD     		pop	{r4, r5, r6, r7, pc}
 984              		.cfi_endproc
 985              	.LFE4:
 986              		.size	u8x8_DrawUTF8Lines, .-u8x8_DrawUTF8Lines
 987              		.section	.rodata.str1.1,"aMS",%progbits,1
 988              	.LC2:
 989 0000 2000     		.ascii	" \000"
 990              		.text
 991              	.Letext0:
 992              		.file 2 "c:\\program files (x86)\\cypress\\psoc creator\\4.1\\psoc creator\\import\\gnu\\arm\\5.4.
 993              		.file 3 "c:\\program files (x86)\\cypress\\psoc creator\\4.1\\psoc creator\\import\\gnu\\arm\\5.4.
 994              		.file 4 "..\\..\\u8g2\\csrc\\u8x8.h"