ARM GAS  C:\Users\gjl\AppData\Local\Temp\ccwaInLh.s 			page 1


   1              		.syntax unified
   2              		.cpu cortex-m0
   3              		.fpu softvfp
   4              		.eabi_attribute 20, 1
   5              		.eabi_attribute 21, 1
   6              		.eabi_attribute 23, 3
   7              		.eabi_attribute 24, 1
   8              		.eabi_attribute 25, 1
   9              		.eabi_attribute 26, 1
  10              		.eabi_attribute 30, 4
  11              		.eabi_attribute 34, 0
  12              		.eabi_attribute 18, 4
  13              		.thumb
  14              		.syntax unified
  15              		.file	"u8x8_d_pcf8812.c"
  16              		.text
  17              	.Ltext0:
  18              		.section	.gnu.lto_.profile.50a22965,"",%progbits
  19 0000 789C6361 		.ascii	"x\234ca`d`e`\000\222\267\030\375\000\003\\\0015"
  19      60646065 
  19      600092B7 
  19      18FD0003 
  19      5C0135
  20              		.text
  21              		.section	.gnu.lto_.icf.50a22965,"",%progbits
  22 0000 789C6361 		.ascii	"x\234ca`d\000\001\025\006\004`c8~\343\362\015n\306\365"
  22      60640001 
  22      15060460 
  22      63387EE3 
  22      F20D6EC6 
  23 0015 1F58995E 		.ascii	"\037X\231^\177}0\221\215\371\343\306#g\370Xv\255\336"
  23      7F7D3091 
  23      8DF9E3C6 
  23      2367F858 
  23      76ADDE
  24 0028 F29C89F5 		.ascii	"\362\234\211\365\350\247\306C\234\014\000Q1\021\324"
  24      E8A7C643 
  24      9C0C0051 
  24      3111D4
  25              		.text
  26              		.section	.gnu.lto_.jmpfuncs.50a22965,"",%progbits
  27 0000 789C7D50 		.ascii	"x\234}PK\012\302@\014\315K\202\270\252\036\300\205\236"
  27      4B0AC240 
  27      0CCD4B82 
  27      B8AA1EC0 
  27      859E
  28 0012 C8F37435 		.ascii	"\310\363t5\003Rdn\340\005\304\357\025\212g\3501\\\353"
  28      0352646E 
  28      E005C4EF 
  28      158A67E8 
  28      315CEB
  29 0025 4A283869 		.ascii	"J(8i\254\010j\337b^&\363^\346\021%\220a\351\324\201"
  29      AC086ADF 
  29      625E26F3 
  29      5EE61125 
  29      9061E9D4 
  30 003a 49913109 		.ascii	"I\2211\011\031\314\245\265FN\016}_\276*\264\214\365"
ARM GAS  C:\Users\gjl\AppData\Local\Temp\ccwaInLh.s 			page 2


  30      19CCA5B5 
  30      464E0E7D 
  30      5FBE2AB4 
  30      8CF5
  31 004c 35D67AE7 		.ascii	"5\326z\347J\010s\3540\313\003\363#\234\376\231R\275"
  31      4A0873EC 
  31      30CB03F3 
  31      239CFE99 
  31      52BD
  32 005e 6D0A372D 		.ascii	"m\0127-\260\3770\251\223iV\217\313\255\010m\334\304"
  32      B0FF30A9 
  32      9369568F 
  32      CBAD086D 
  32      DCC4
  33 0070 38AD0449 		.ascii	"8\255\004I\314{@\030\020q\022\353\037{\021\375\022I"
  33      CC7B4018 
  33      107112EB 
  33      1F7B11FD 
  33      1249
  34 0082 12CEFD93 		.ascii	"\022\316\375\223\211\372_}\003\034\200\361+|i\033\342"
  34      89FA5F7D 
  34      031C80F1 
  34      2B7C691B 
  34      E2
  35 0093 92BB5386 		.ascii	"\222\273S\206\222i\222\034\015\347<\017J\364\004\377"
  35      9269921C 
  35      0DE73C0F 
  35      4AF404FF 
  36 00a3 744156   		.ascii	"tAV"
  37              		.text
  38              		.section	.gnu.lto_.inline.50a22965,"",%progbits
  39 0000 789C6D90 		.ascii	"x\234m\220\261J\003A\020\206\377\331\235\\VcrK\210\235"
  39      B14A0341 
  39      1086FFD9 
  39      9D5C5663 
  39      724B889D 
  40 0014 90030BDF 		.ascii	"\220\003\013\337B|\202{\020\363\022\327\244?\304\007"
  40      427C827B 
  40      10F312D7 
  40      A43FC407 
  41 0024 B8141AF5 		.ascii	"\270\024\032\365\016lDPPR\330z\245O`\251E \205\"\202"
  41      0E6C4450 
  41      5052D87A 
  41      A54F60A9 
  41      45208522 
  42 0039 B3BBB9AD 		.ascii	"\263\273\271\255\234b\377\341\233\331\235\371\227Ap"
  42      9C62FFE1 
  42      9BD99DF9 
  42      974170
  43 0048 7116C487 		.ascii	"q\026\304\207\002^\320\202\014\231\323_E\257\213\246"
  43      025ED082 
  43      0C99D35F 
  43      45AF8BA6 
  44 0058 4D366AAE 		.ascii	"M6j\256A\273\264\244\003\004\374\363\325>\365\003\036"
  44      41BBB4A4 
  44      0304FCF3 
  44      D53EF503 
ARM GAS  C:\Users\gjl\AppData\Local\Temp\ccwaInLh.s 			page 3


  44      1E
  45 0069 D055C49F 		.ascii	"\320U\304\237ou\243\003\036\321u\304\315\345z\225\006"
  45      6F75A303 
  45      1ED175C4 
  45      CDE57A95 
  45      06
  46 007a 9CD28D60 		.ascii	"\234\322\215`\345\361\355\307\303\367\320\341\036\201"
  46      E5F1EDC7 
  46      C3F7D0E1 
  46      1E81
  47 0088 6A8F675E 		.ascii	"j\217g^e\270,\342\216\276l\224TS\205\311\352\270P\350"
  47      65B82CE2 
  47      8EBE6C94 
  47      545385C9 
  47      EAB850E8 
  48 009c DD1D650A 		.ascii	"\335\035e\012\373\357\317\224\201\253\244`\033\304\240"
  48      FBEFCF94 
  48      81ABA460 
  48      1BC4A0
  49 00ab E0CC2D3F 		.ascii	"\340\314-?@\006*s\036J\203>?,\3632\327{\302\324\377"
  49      40062A73 
  49      1E4A833E 
  49      3F2CF332 
  49      D77BC2D4 
  50 00c0 59BC206A 		.ascii	"Y\274 j\235J\301\306\026\333\265t\245\202\214G\222\236"
  50      9D4AC1C6 
  50      16DBB574 
  50      A5828C47 
  50      929E
  51 00d2 C48CBB2E 		.ascii	"\304\214\273.\366\2231\032\223\016\266\353\373\213G"
  51      F693311A 
  51      930EB6EB 
  51      FB8B47
  52 00e1 0AFE76A8 		.ascii	"\012\376v\250\361\276f[\025k\272\263\306\325\324\272"
  52      F1BE665B 
  52      156BBAB3 
  52      C6D5D4BA 
  53 00f1 9F4F5218 		.ascii	"\237OR\030\260\233\275\235\037^\306\037q\012O\341"
  53      B09BBD9D 
  53      1F5EC61F 
  53      710A4FE1 
  54              		.text
  55              		.section	.gnu.lto_.pureconst.50a22965,"",%progbits
  56 0000 789C6361 		.ascii	"x\234ca`d`e```b\220d\221\000\000\000\356\000B"
  56      60646065 
  56      60606062 
  56      90649100 
  56      0000EE00 
  57              		.text
  58              		.section	.gnu.lto_u8x8_d_pcf8812_96x65_generic.50a22965,"",%progbits
  59 0000 789C8D57 		.ascii	"x\234\215W\377OSW\024\277\347\335\366\275\366\265\320"
  59      FF4F5357 
  59      14BFE7DD 
  59      F6BDF6B5 
  59      D0
  60 0011 6E5360A4 		.ascii	"nS`\244\216\022\302\230[\246\016\177!\313\262\350\376"
  60      8E12C298 
ARM GAS  C:\Users\gjl\AppData\Local\Temp\ccwaInLh.s 			page 4


  60      5BA60E7F 
  60      21CBB2E8 
  60      FE
  61 0022 84FD6C62 		.ascii	"\204\375lb6\334\334\262l1\352\022\1771<ZZ\3048\006\211"
  61      36DCDCB2 
  61      6C31EA12 
  61      7F313C5A 
  61      5AC43806 
  62 0037 F885B8E9 		.ascii	"\370\205\270\351\342\030*\250\240C\004aVt\240\010(\023"
  62      E2182AA8 
  62      A0430461 
  62      5674A008 
  62      2813
  63 0049 AD805F51 		.ascii	"\255\200_Q\021\231\337\312fd8\355\316\271\267\005*\255"
  63      1199DFCA 
  63      666438ED 
  63      CEB9B705 
  63      2AAD
  64 005b AE49EFBB 		.ascii	"\256I\357\273\367\366~\316\375\234s>\357\334[\023\003"
  64      F7F67ECE 
  64      FD9C733E 
  64      EFDC5B13 
  64      03
  65 006c 469F521B 		.ascii	"F\237R\033c\213\361\271\027\277\220\304@)\353a\254\320"
  65      638BF1B9 
  65      17BF90C4 
  65      4029EB61 
  65      ACD0
  66 007e A2986D67 		.ascii	"\242\230mg\035\314\260p\321\232D\253\211\326\"\347\301"
  66      1DCCB070 
  66      D19A44AB 
  66      89D622E7 
  66      C1
  67 008f 26179A14 		.ascii	"&\027\232\024\363\272\034f\350*\265vstZ\215v\264h\307"
  67      F3BA1C66 
  67      E82AB576 
  67      73745A8D 
  67      76B468C7 
  68 00a3 0256D9B1 		.ascii	"\002V\331\261*\366\015\035\014!z\221\206\020\273\234"
  68      2AF60D1D 
  68      0C217A91 
  68      8610BB9C 
  69 00b3 5FAC4717 		.ascii	"_\254G\027\332\000\250cX\200\025(\334dV5\213\325\256"
  69      DA00A863 
  69      58801528 
  69      DC645635 
  69      8BD5AE
  70 00c6 DBA040B1 		.ascii	"\333\240@\2612\010\230 ,\211?R\236*p\372\361\311\015"
  70      32089820 
  70      2C893F52 
  70      9E2A70FA 
  70      F1C90D
  71 00d9 FADC6AC3 		.ascii	"\372\334j\303\360\030\327\252F\027\215y|i>\316XXa\260"
  71      F018D7AA 
  71      46178D79 
  71      7C693ECE 
  71      585861B0 
ARM GAS  C:\Users\gjl\AppData\Local\Temp\ccwaInLh.s 			page 5


  72 00ed D0050B5C 		.ascii	"\320\005\013\\\344T5\314\305\225\275Eu\333\370\337\212"
  72      E45435CC 
  72      C595BD45 
  72      75DBF8DF 
  72      8A
  73 00fe 8F039870 		.ascii	"\217\003\230p\030\352\256\274\221LC\005\3348\334\321"
  73      18EAAEBC 
  73      914C4305 
  73      DC38DCD1 
  74 010e B7F392CA 		.ascii	"\267\363\222\3123\201a\177Sg\337\375\244\234*\262i\014"
  74      3381617F 
  74      5367DFFD 
  74      A49C2AB2 
  74      690C
  75 0120 7E66587D 		.ascii	"~fX}\234\303\036\340ds7\270`\027\270\030N1\250\201\034"
  75      9CC31EE0 
  75      647337B8 
  75      6017B818 
  75      4E31A881 
  76 0135 5CDD55D7 		.ascii	"\\\335U\327\0244\3617\005\362q\313\361\247Q\344\346"
  76      1434F137 
  76      05F271CB 
  76      F1A751E4 
  76      E6
  77 0146 769BB100 		.ascii	"v\233\261\000\271@\255\204J:D\016\366\012\340\226\336"
  77      B940AD84 
  77      4A3A440E 
  77      F60AE096 
  77      DE
  78 0157 6BDFE9FC 		.ascii	"k\337\351\374m\001\334v\353A\2779\002\354\215\002\367"
  78      6D01DC76 
  78      EB41BF39 
  78      02EC8D02 
  78      F7
  79 0168 CD00EE17 		.ascii	"\315\000\356\027\300\376\333\335\347t\236+\200{\032"
  79      C0FEDBDD 
  79      E7749E2B 
  79      807B1A
  80 0177 AE1ED022 		.ascii	"\256\036\320\"\300p\273\335(\003\0377A\335\363lM\014"
  80      C070BBDD 
  80      28031F37 
  80      41DDF36C 
  80      4D0C
  81 0189 EA218700 		.ascii	"\352!\207\000\245}\353\2078\177_\200\253\214\272\365"
  81      A57DEB87 
  81      387F5F80 
  81      AB8CBAF5 
  82 0199 D6EC9D04 		.ascii	"\326\354\235\004\016\364\373\223\267\032\201\"\267\217"
  82      0EF4FB93 
  82      B71A8122 
  82      B78F
  83 01a7 9BE1402C 		.ascii	"\233\341@,\234>\270\272\247\272j\243\316?\024\310\355"
  83      9C3EB8BA 
  83      A7BA6AA3 
  83      CE3F14C8 
  83      ED
  84 01b8 9B9A2F46 		.ascii	"\233\232/F\221A\277c\263\021(t\023\345_\247S\216\340"
ARM GAS  C:\Users\gjl\AppData\Local\Temp\ccwaInLh.s 			page 6


  84      9141BF63 
  84      B3112874 
  84      13E55FA7 
  84      538EE0
  85 01cb 2A9B8B3D 		.ascii	"*\233\213=:_$p\336\303\301#\016\2113\032\227\030\336"
  85      3A5F2470 
  85      DEC3C123 
  85      0E89331A 
  85      9718DE
  86 01de 45043A14 		.ascii	"E\004:\024\0074T\377\254\"I-2\360\343\206F\310\206\006"
  86      073454FF 
  86      AC22492D 
  86      32F0E386 
  86      46C88606 
  87 01f2 FC1E846C 		.ascii	"\374\036\204l\312,\006\3420\250(\002>\375\227\375\037"
  87      CA2C06E2 
  87      30A82802 
  87      3EFD97FD 
  87      1F
  88 0203 078C70D8 		.ascii	"\007\214p\330k\004\316\253\307\306\365l\020\321R(nf"
  88      6B04CEAB 
  88      C7C6F56C 
  88      10D15228 
  88      6E66
  89 0215 A0886B40 		.ascii	"\240\210k@\011\323\201\246\0358\255:\251\231\005\024"
  89      09D381A6 
  89      1D38AD3A 
  89      A9990514 
  90 0225 98D98C2C 		.ascii	"\230\331\214,\245\2106\225\246\323D7\235\272\024>u\016"
  90      A5883695 
  90      A6D34437 
  90      9DBA143E 
  90      750E
  91 0237 35198CF6 		.ascii	"5\031\214\366r3\332-\223&\262\304\036\214=DN\033\263"
  91      7233DA2D 
  91      9326B2C4 
  91      1E8C3D44 
  91      4E1BB3
  92 024a 584851F0 		.ascii	"XHQ\360\301o\201?0\330\016\304\321\313\315\244\247\376"
  92      C16F813F 
  92      30D80EC4 
  92      D1CBCDA4 
  92      A7FE
  93 025c 9F47CCE5 		.ascii	"\237G\314\345\360}!\272\023\010u\242\3464T7'O\241\011"
  93      F07D21BA 
  93      130875A2 
  93      E6345437 
  93      274FA109 
  94 0270 CA019774 		.ascii	"\312\001\227t\377T\333\243\222\032\031\3508\364\224"
  94      FF54DBA3 
  94      921A19E8 
  94      38F494
  95 027f 04AB2C51 		.ascii	"\004\253,Q\304\270\212\000h\306D\030\234\224\017G$\346"
  95      C4B88A00 
  95      68C64418 
  95      9C940F47 
  95      24E6
ARM GAS  C:\Users\gjl\AppData\Local\Temp\ccwaInLh.s 			page 7


  96 0291 C9784FAB 		.ascii	"\311xO\253&16\322^\305\360\0165\212)\323\010\323\"0"
  96      263136D2 
  96      5EC5F00E 
  96      358A29D3 
  96      08D32230 
  97 02a5 2260AD12 		.ascii	"\"`\255\022s\357BM-\227\230d\034>\352\031\330e\217b"
  97      73EF424D 
  97      2D979864 
  97      1C3EEA19 
  97      D8658F62 
  98 02b9 0604E637 		.ascii	"\006\004\3467\201!rpTbj\177\011\005\034\022\343\300"
  98      81217270 
  98      54626A7F 
  98      09051C12 
  98      E3C0
  99 02cb E18FBF56 		.ascii	"\341\217\277VoL\232\344&0\001\2011\021\346\030b\360"
  99      6F4C9AE4 
  99      26300181 
  99      3111E618 
  99      62F0
 100 02dd 1952382B 		.ascii	"\031R8+\322\370M(tR\034\210\370\010\024\005\236\264"
 100      D2F84D28 
 100      74521C88 
 100      F8081405 
 100      9EB4
 101 02ef 731A5282 		.ascii	"s\032R\202\233\232\356\016j\005O\215u\206\341\364qK"
 101      9B9AEE0E 
 101      6A054F8D 
 101      7586E1F4 
 101      714B
 102 0301 584118B4 		.ascii	"XA\030\264A\001\363r\264i\305\345\276\300\277j\374\325"
 102      4101F372 
 102      B469C5E5 
 102      BEC0BF6A 
 102      FCD5
 103 0313 7A1823CD 		.ascii	"z\030#\315\340\270\\M\021\366\265\235\021\241\260I\225"
 103      E0B85C4D 
 103      11F6B59D 
 103      11A1B049 
 103      95
 104 0324 4D1CFD2B 		.ascii	"M\034\375+\031Wo\021\253m%\334,4u\252\262\346\253\355"
 104      19576F11 
 104      AB6D25DC 
 104      2C3475AA 
 104      B2E6ABED 
 105 0338 F0436199 		.ascii	"\360Ca\231\230\266\303\357P\000'H\337\370[x\364\300"
 105      98B6C3EF 
 105      50002748 
 105      DFF85B78 
 105      F4C0
 106 034a 3EAB8418 		.ascii	">\253\204\030\233\201\014\265\303v\221C\006\035P\340"
 106      9B810CB5 
 106      C3769143 
 106      061D50E0 
 107 035a E349C22B 		.ascii	"\343I\302+S\254W\012\273\016E\003\336\352\322t\231m"
 107      53AC570A 
 107      BB0E4503 
ARM GAS  C:\Users\gjl\AppData\Local\Temp\ccwaInLh.s 			page 8


 107      DEEAD274 
 107      996D
 108 036c CADDFEBB 		.ascii	"\312\335\376\273M\377$\021\027T(\234\214\274>!\305\314"
 108      4DFF2411 
 108      1754289C 
 108      8CBC3E21 
 108      C5CC
 109 037e DA3827A7 		.ascii	"\3328'\247*\212\341\205^\235\232\351Ur\034\257\222K"
 109      2A8AE185 
 109      5E9D9AE9 
 109      55721CAF 
 109      924B
 110 0390 B81AC72B 		.ascii	"\270\032\307+\007\234F\257:\343x\265\226\354tM:\325"
 110      079C46AF 
 110      3AE378B5 
 110      96EC744D 
 110      3AD5
 111 03a2 3DE5941A 		.ascii	"=\345\224\032\245\266\365%\324zfRs\306\241\346,!\201"
 111      A5B6F525 
 111      D47A6652 
 111      73C6A1E6 
 111      2C2181
 112 03b5 CFA0F60A 		.ascii	"\317\240\366\012\234Ejg\342SsB\357$\265?\246\250i\261"
 112      9C456A67 
 112      E2537342 
 112      EF24B53F 
 112      A6A869B1 
 113 03c9 F1E64245 		.ascii	"\361\346BE\227;\022\250\350\325\260BU\362\\TE\257\011"
 113      973B12A8 
 113      E8D5B042 
 113      55F25C54 
 113      45AF09
 114 03dc 155DD1E2 		.ascii	"\025]\321\342\257\236\025\306t2\350\233t\252\244\265"
 114      AF9E15C6 
 114      7432E89B 
 114      74AAA4B5 
 115 03ec AA37590A 		.ascii	"\2527Y\012=\023\316\203\313\307g\263a\360\216\371\333"
 115      3D13CE83 
 115      CBC767B3 
 115      61F08EF9 
 115      DB
 116 03fd 32647A1D 		.ascii	"2dz\035\230ax\307E\223\343\252\234r\342,B\017\015\237"
 116      986178C7 
 116      4593E3AA 
 116      9C72E22C 
 116      420F0D9F 
 117 0411 6AD765D2 		.ascii	"j\327e\322\015\200\013\350\343\010\230\023n\213r\204"
 117      0D800BE8 
 117      E3089813 
 117      6E8B7284 
 118 0421 A0DC162D 		.ascii	"\240\334\026-\3206\344\326X\002\236\350\025f\032.Ny"
 118      D036E4D6 
 118      58029EE8 
 118      15661A2E 
 118      4E79
 119 0433 4591B1C4 		.ascii	"E\221\261\304F\306$LL$6A\201\351\23721\014\236\346\372"
 119      46C6244C 
ARM GAS  C:\Users\gjl\AppData\Local\Temp\ccwaInLh.s 			page 9


 119      4C243641 
 119      81E99F32 
 119      310C9EE6 
 120 0448 7039975E 		.ascii	"p9\227^\314\236\236\322\024y\224ut\256\263S\362\014"
 120      CC9E9ED2 
 120      14799475 
 120      74AEB353 
 120      F20C
 121 045a F14660B9 		.ascii	"\361F`\271K\365\362Y0\020I_\325M\317>m\376\273\024\253"
 121      4BF5F259 
 121      3010495F 
 121      D54DCF3E 
 121      6DFEBB14 
 122 046f 414CDC33 		.ascii	"AL\3343ET\263K0\237\015\201\307X(\0124VP\257\014a\245"
 122      4554B34B 
 122      309F0D81 
 122      C758280A 
 122      345650AF 
 123 0486 7F2212C2 		.ascii	"\177\"\022\302\024\271\331\372\211`\251E\206\332\002"
 123      14B9D9FA 
 123      8960A945 
 123      86DA02
 124 0495 97D1E610 		.ascii	"\227\321\346\020(S\230\024I\357\204\307,A\251\323\351"
 124      28539814 
 124      49EF84C7 
 124      2C41A9D3 
 124      E9
 125 04a6 F1187AF8 		.ascii	"\361\030z\370\252\246\241Kpe&\257\253\202\227\250\230"
 125      AAA6A14B 
 125      706526AF 
 125      AB8297A8 
 125      98
 126 04b7 D79017D2 		.ascii	"\327\220\027\322\330\344\357\212\224\3454\301$5v\333"
 126      D8E4EF8A 
 126      94E534C1 
 126      243576DB 
 127 04c7 3421978A 		.ascii	"4!\227\212\316\004\352\212\350\345\372\244^\212\357"
 127      CE04EA8A 
 127      E8E5FAA4 
 127      5E8AEF
 128 04d6 18AD26E9 		.ascii	"\030\255&\351\204\033\206&\3652\356\037xK\356\222\216"
 128      841B8626 
 128      F532EE1F 
 128      784BEE92 
 128      8E
 129 04e7 365F2A06 		.ascii	"6_*\006\262y#*\206ti\003\235o\037rH#\256Xo\023e\341"
 129      B279232A 
 129      86746903 
 129      9D6F1F72 
 129      4823AE58 
 130 04ff A6F056D4 		.ascii	"\246\360V\324\372[\322\333q\377\007\322\302\034i\244"
 130      FA5BD2DB 
 130      71FF07D2 
 130      C21C69A4 
 131 050f F17E4D63 		.ascii	"\361~Mc\2440\005\030\014\377\017Z\267\243\264\346\020"
 131      A4300518 
 131      0CFF0F5A 
ARM GAS  C:\Users\gjl\AppData\Local\Temp\ccwaInLh.s 			page 10


 131      B7A3B4E6 
 131      10
 132 0520 2D529D95 		.ascii	"-R\235\225\341\315\214c\212\235\342\350\363b2\004\333"
 132      E1CD8C63 
 132      8A9DE2E8 
 132      F3623204 
 132      DB
 133 0531 AE8FE456 		.ascii	"\256\217\344V\031\317+g\355\013\2043\"(\213\243\346"
 133      19CF2B67 
 133      ED0B8433 
 133      22288BA3 
 133      E6
 134 0542 4E443856 		.ascii	"ND8V\221\215\006\312F\206\260\034\352\372TZv?o\271<"
 134      918D06CA 
 134      4686B01C 
 134      EAFA545A 
 134      763F6FB9 
 135 0557 B126CD30 		.ascii	"\261&\3150*L\213\023\351\317\210\351$a\372 \231vKM^"
 135      2A4C8B13 
 135      E9CF88E9 
 135      2461FA20 
 135      99764B4D 
 136 056c D86D92B6 		.ascii	"\330m\222\2663q7\241\302\021Hp\342\274\036\306R\304"
 136      337137A1 
 136      C2114870 
 136      E2BC1EC6 
 136      52C4
 137 057e E06E3420 		.ascii	"\340n4 \210\300\373N\272\024\325\225=\271\322N\026\306"
 137      88C0FB4E 
 137      BA14D595 
 137      3DB9D24E 
 137      16C6
 138 0590 03A1E7BC 		.ascii	"\003\241\347\274'\316D\016\3310\300\275i\352\026!\313"
 138      27CE440E 
 138      D930C0BD 
 138      69EA1621 
 138      CB
 139 05a1 A24363D0 		.ascii	"\242Cc\320{\260B\213\240\242\247\304\030\000\026\030"
 139      7BB0428B 
 139      A0A2A7C4 
 139      18001618 
 140 05b1 0B3659F6 		.ascii	"\0136Y\366\226\363\313\360ZagxQ\206\220\242\323\313"
 140      96F3CBF0 
 140      5A616778 
 140      518690A2 
 140      D3CB
 141 05c3 2E4A5F22 		.ascii	".J_\"qF\212\304\375\330\"a\243\373\010\025\011q\335"
 141      71468AC4 
 141      FDD82261 
 141      A3FB0815 
 141      0971DD
 142 05d6 18A5B479 		.ascii	"\030\245\264y\305}`\014\224\351\357\024\376\025\200"
 142      C57D600C 
 142      94E9EF14 
 142      FE1580
 143 05e5 07E052B6 		.ascii	"\007\340R\266\005\327\340tCqW\275.\247\001\036\202K"
 143      05D7E074 
ARM GAS  C:\Users\gjl\AppData\Local\Temp\ccwaInLh.s 			page 11


 143      437157BD 
 143      2EA7011E 
 143      824B
 144 05f7 6D097E41 		.ascii	"m\011~AO\034ck\026\255.Z\215\356>\200\233\240\3157\346"
 144      4F1C636B 
 144      16AD2E5A 
 144      8DEE3E80 
 144      9BA0CD37 
 145 060c CD5BF26D 		.ascii	"\315[\362m\336\362\334%\371\253V\346coM\336\322eKW\344"
 145      DEF2DC25 
 145      F9AB56E6 
 145      636F4DDE 
 145      D2654B57 
 146 0621 7F9E97F7 		.ascii	"\177\236\227\367^\356\274|f\242\031\376\365\252\345"
 146      5EEEBC7C 
 146      66A219FE 
 146      F5AAE5
 147 0630 DA272B97 		.ascii	"\332'+\227/\375\362\233\325\342\271b\365J\216_\310\207"
 147      2FFDF29B 
 147      D5E2B962 
 147      F54A8E5F 
 147      C887
 148 0642 35FF0102 		.ascii	"5\377\001\002\"\332\361"
 148      22DAF1
 149              		.text
 150              		.section	.gnu.lto_u8x8_d_pcf8812_96x65_init_seq.50a22965,"",%progbits
 151 0000 789C4D8F 		.ascii	"x\234M\217]K\002A\030\205\347\235uM\3234\210\242`/\012"
 151      5D4B0241 
 151      1885E79D 
 151      754DD334 
 151      88A2602F 
 152 0015 FA03D58D 		.ascii	"\372\003\325\215?\257\300\015\351\252 \022\244(\372"
 152      3FAFC00D 
 152      E9AA2012 
 152      A428FA
 153 0024 C0D4FCA8 		.ascii	"\300\324\374\250\314\334UK\212.\012\203\354&\244.\002"
 153      CCDC554B 
 153      8A2E0A83 
 153      EC26A42E 
 153      02
 154 0035 0D22224C 		.ascii	"\015\"\"L\026\214L\355l3\027\015<\314>\2343\363\356"
 154      168C4CED 
 154      6C33170D 
 154      3CCC3E9C 
 154      33F3EE
 155 0048 3818317B 		.ascii	"8\0301{\215q&\277\030\353rJ\353\215\230\313\342\272"
 155      8D7126BF 
 155      18EB724A 
 155      EB8D98CB 
 155      E2BA
 156 005a C2A84FF0 		.ascii	"\302\250O\360\373fe\303c;\3210\324\012Wj~\021O@S-+\345"
 156      FB6665C3 
 156      633BD130 
 156      D40A576A 
 156      7E114F40 
 157 0072 14A91FFA 		.ascii	"\024\251\037\372U\254ns\221NC\273O\013=.R\037\264\036"
 157      55AC6E73 
ARM GAS  C:\Users\gjl\AppData\Local\Temp\ccwaInLh.s 			page 12


 157      914E43BB 
 157      4F0B3D2E 
 157      521FB41E 
 158 0086 ED859D22 		.ascii	"\355\205\235\"\035\205\356\274\031\227\252H\207\240"
 158      1D85EEBC 
 158      1997AA48 
 158      87A0
 159 0094 6BD97CDC 		.ascii	"k\331|\334#\322M{p\347u\265F\"\366B\037jAC\252\307\376"
 159      23D24D7B 
 159      70E775B5 
 159      4622F642 
 159      1F6A4143 
 160 00ab 0F63F1DB 		.ascii	"\017c\361\333'\332#\366\244\346]\327+\322Ah\"\267g\312"
 160      27DA23F6 
 160      A4E65DD7 
 160      2BD24168 
 160      22B767CA 
 161 00bf B21BDAE8 		.ascii	"\262\033\332\350$MYv\332g\227\364\266\"\322\001h\350"
 161      244D5976 
 161      DA6797F4 
 161      B622D201 
 161      68E8
 162 00d1 F1DDF28A 		.ascii	"\361\335\362\212t\352\177\231\376\312\327\273\346\217"
 162      74EA7F99 
 162      FECAD7BB 
 162      E68F
 163 00df BC598546 		.ascii	"\274Y\205F\012\326\215*\312.h5\230Y\227W9\240\027\255"
 163      0AD68D2A 
 163      CA2E6835 
 163      98599757 
 163      39A017AD 
 164 00f3 4C549615 		.ascii	"LT\226\025\350\347m\244.\347NB\257\372\355\262_\244"
 164      E8E76DA4 
 164      2EE74E42 
 164      AFFAEDB2 
 164      5FA4
 165 0105 1CFA117C 		.ascii	"\034\372\021|y\226\017\036\207\026\022+%w 7\037\332"
 165      79960F1E 
 165      8716122B 
 165      25772037 
 165      1FDA
 166 0117 9A5F5675 		.ascii	"\232_Vu\205\323\214F\347\244\321\254FIlg\240\004\212"
 166      85D38C46 
 166      E7A4D1AC 
 166      46496C67 
 166      A0048A
 167 012a 24BC004C 		.ascii	"$\274\000L`H\317\203S\220\223>\247\321\011\266\254\324"
 167      6048CF83 
 167      5390933E 
 167      A7D109B6 
 167      ACD4
 168 013c 6370040E 		.ascii	"cp\004\016\245g@\032\244\244\037\200\004\210\203\030"
 168      A567401A 
 168      A4A41F80 
 168      04888318 
 169 014c D80751D2 		.ascii	"\330\007Q\322\030\225)\300~\001t\245\263\202"
 169      189529C0 
ARM GAS  C:\Users\gjl\AppData\Local\Temp\ccwaInLh.s 			page 13


 169      7E0174A5 
 169      B382
 170              		.text
 171              		.section	.gnu.lto_u8x8_d_pcf8812_96x65_powersave0_seq.50a22965,"",%progbits
 172 0000 789C2DCB 		.ascii	"x\234-\313\315\012\001Q\030\306\361\363\316 \241\261"
 172      CD0A0151 
 172      18C6F1F3 
 172      CE20A1B1 
 173 0010 52D42CDC 		.ascii	"R\324,\334\002\253\271,\227`1S.@M\311BQc|\016\312\302"
 173      02ABB92C 
 173      97603153 
 173      2E404DC9 
 173      4251637C 
 174 0027 4A8A522C 		.ascii	"J\212R,,g\247f\224\025a\312b|=\323\353\324\3239\277"
 174      2C67A766 
 174      941561CA 
 174      627C3DD3 
 174      EBD4D339 
 175 003c FE9D9820 		.ascii	"\376\235\230 \021\235\007\306/!\336\022\215\015\337"
 175      119D07C6 
 175      2F21DE12 
 175      8D0DDF
 176 004b 4E069221 		.ascii	"N\006\222!\013\372\022\354\207\303\205\022\231(\001"
 176      0BFA12EC 
 176      87C38512 
 176      992801
 177 005a 06E6CECD 		.ascii	"\006\346\316\315r.\200\333\316\342\225\341\032\007\303"
 177      722E80DB 
 177      CEE295E1 
 177      1A07C3
 178 0069 73DD25AE 		.ascii	"s\335%\256\031\360\240;M\231k\014\364\254\217\231\340"
 178      19F0A03B 
 178      4D996B0C 
 178      F4AC8F99 
 178      E0
 179 007a 9A035777 		.ascii	"\232\003Ww\307\372\377\225\301\333\276\341)\\\213\340"
 179      C7FAFF95 
 179      C1DBBEE1 
 179      295C8BE0 
 180 008a FAFB5C66 		.ascii	"\372\373\\f\271J\340E?\035\323\\\363\340\354\272i\247"
 180      B94AE045 
 180      3F1DD35C 
 180      F3E0ECBA 
 180      69A7
 181 009c B479B5D6 		.ascii	"\264y\265\326\252V\014Y\242\222J\023R\251\254\322\020"
 181      AA560C59 
 181      A2924A13 
 181      52A9ACD2 
 181      10
 182 00ad 97838DB1 		.ascii	"\227\203\215\261\021\261\007X\037\353a6\326\305,R\005"
 182      11B10758 
 182      1FEB6136 
 182      D6C52C52 
 182      05
 183 00be 4D49133F 		.ascii	"MI\023?C\272S\362"
 183      43BA53F2 
 184              		.text
ARM GAS  C:\Users\gjl\AppData\Local\Temp\ccwaInLh.s 			page 14


 185              		.section	.gnu.lto_u8x8_d_pcf8812_96x65_powersave1_seq.50a22965,"",%progbits
 186 0000 789C2DCC 		.ascii	"x\234-\314?k\302@\030\307\361{\356\374\007\0253\011"
 186      3F6BC240 
 186      18C7F17B 
 186      EEFC0715 
 186      3309
 187 0012 166E50F0 		.ascii	"\026nP\360\015\330.\276\274\014\011H'\027\011H\007)"
 187      0DD82EBE 
 187      BC0C0948 
 187      27170948 
 187      0729
 188 0024 42AAD69A 		.ascii	"B\252\326\232\376\241C\332\241\010\016\025\035\034\273"
 188      FEA143DA 
 188      A1080E15 
 188      1D1CBB
 189 0033 15121D1C 		.ascii	"\025\022\035\034\012\225@\204\266\352/<\011|\271|\370"
 189      0A954084 
 189      B6EA2F3C 
 189      097CB97C 
 189      F8
 190 0044 1D971124 		.ascii	"\035\227\021$\222\257\206\203\377\204\370\2274\261\303"
 190      92AF8683 
 190      FF84F897 
 190      34B1C3
 191 0053 412192B6 		.ascii	"A!\222\266\022t$8r\026\237\006\373<\341\225\035\253"
 191      12742438 
 191      72169F06 
 191      FB3CE195 
 191      1DAB
 192 0065 84447970 		.ascii	"\204Dyp\377\266\272\221\274\326\301\360w\354\227x\315"
 192      FFB6BA91 
 192      BCD6C1F0 
 192      77EC9778 
 192      CD
 193 0076 81817B70 		.ascii	"\201\201{pr\274\226\301\217\276\377W\3445\013v_\243"
 193      72BC96C1 
 193      8FBEFF57 
 193      E4350B76 
 193      5FA3
 194 0088 7996D702 		.ascii	"y\226\327\002\270\262\274\353\364\345\0148\335ynzY\201"
 194      B8B2BCEB 
 194      F4E50C38 
 194      DD796E7A 
 194      5981
 195 009a 3FCB6E50 		.ascii	"?\313nP\342\313Upv\214\337\015^%\370m\255\277\316x\255"
 195      E2CB5570 
 195      768CDF0D 
 195      5E25F86D 
 195      ADBFCE78 
 196 00af 809DE576 		.ascii	"\200\235\345v#\233/f\253g\266\225\255$54=\221\246\013"
 196      239B2F66 
 196      AB67B695 
 196      AD243534 
 196      3D91A60B 
 197 00c3 4D77381E 		.ascii	"Mw8\036\321\003\362\210=A\367h\234z\204\206h\200n\321"
 197      D103F288 
 197      3D41F768 
ARM GAS  C:\Users\gjl\AppData\Local\Temp\ccwaInLh.s 			page 15


 197      9C7A8486 
 197      68806ED1 
 198 00d7 A52697B4 		.ascii	"\245&\227\264\240gj\212\023\371\350a2"
 198      A0676A8A 
 198      13F9E861 
 198      32
 199              		.text
 200              		.section	.gnu.lto_u8x8_d_pcf8812_96x65.50a22965,"",%progbits
 201 0000 789C6552 		.ascii	"x\234eRMHTQ\024\276\337;\357\315\233y\343\337\322\305"
 201      4D485451 
 201      14BEDF3B 
 201      EFCD9B79 
 201      E3DFD2C5 
 202 0014 10B6496C 		.ascii	"\020\266Il!f\233i\343\276mkCb*\211(D\015\334\315\325"
 202      21669B69 
 202      E3BE6D6B 
 202      43622A89 
 202      28440DDC 
 203 002a F1A15181 		.ascii	"\361\241Q\201\020\225\210b\020bi\371WZcAS\201fj1$\204"
 203      10958862 
 203      106269F9 
 203      575A6341 
 203      5381666A 
 204 0041 15688518 		.ascii	"\025h\205\030\"\325\364\203\020\214\3239wt\223\027\036"
 204      22D5F483 
 204      108CD339 
 204      77749317 
 204      1E
 205 0052 F7DCF3CE 		.ascii	"\367\334\363\316\367\235\357|\367\332\012JV\332R\352"
 205      F79DEF7C 
 205      F7DA0A4A 
 205      56DA52EA 
 206 0062 08EF35FC 		.ascii	"\010\3575\374!\240`u\275V\2525hY4[\254\264g\317\325"
 206      21A06075 
 206      BD56AA35 
 206      6859345B 
 206      ACB467CF 
 207 0077 285D4070 		.ascii	"(]@p\362i{7p\000\011t\020*n\221\355 \216?V\326\302\374"
 207      F2697B37 
 207      70000974 
 207      102A6E91 
 207      ED208E3F 
 208 008f D6CBCB5E 		.ascii	"\326\313\313^\305\240\326mzu\355\361\321L\233_\352\223"
 208      C5A0D66D 
 208      7A75EDF1 
 208      D14C9B5F 
 208      EA93
 209 00a1 52394BE1 		.ascii	"R9K\341p\004U\021\3512\210\012\256L\267\217\365\322"
 209      70045511 
 209      E932880A 
 209      AE4CB78F 
 209      F5D2
 210 00b3 6FCB27C0 		.ascii	"o\313'\300\346cf\261\347K\221\034-\224\361\361\346\322"
 210      E66366B1 
 210      E74B911C 
 210      2D94F1F1 
 210      E6D2
ARM GAS  C:\Users\gjl\AppData\Local\Temp\ccwaInLh.s 			page 16


 211 00c5 AD8F01DA 		.ascii	"\255\217\001\332\017\305\361\365WK\337\012\313\007\204"
 211      0FC5F1F5 
 211      574BDF0A 
 211      CB0784
 212 00d4 53F79DD2 		.ascii	"S\367\235\322!\237\010C \341\274\203\010n#\2428\245"
 212      219F0843 
 212      20E1BC83 
 212      086E23A2 
 212      38A5
 213 00e6 308C72AE 		.ascii	"0\214r\256^\030K\276\263\351\200An=y\221\335E.\037\327"
 213      5E184BBE 
 213      B3E98041 
 213      6E3D7991 
 213      DD452E1F 
 214 00fb C4527037 		.ascii	"\304Rp7\217\314\253\021m\270gp\335\351\325+\036\035"
 214      8FCCAB11 
 214      6DB86770 
 214      DDE9D52B 
 214      1E1D
 215 010d 34B8DEB5 		.ascii	"4\270\336\265\357\313\316\016\356\352LXW\011pd\017p"
 215      EFCBCE0E 
 215      EEEA4C58 
 215      57097064 
 215      0F70
 216 011f D40097D7 		.ascii	"\324\000\227\327\027\337zTm\200C\223+\023\356\0160="
 216      17DF7A54 
 216      6D804393 
 216      2B13EE0E 
 216      303D
 217 0131 53A0BBE0 		.ascii	"S\240\273\340\223\215\261\377\305\332\012\343(\027\300"
 217      938DB1FF 
 217      C5DA0AE3 
 217      2817C0
 218 0140 E7F1ED6B 		.ascii	"\347\361\355k\205\201v\315\253L\\b\326\011\004\344j"
 218      858176CD 
 218      AB4C5C62 
 218      D60904E4 
 218      6A
 219 0151 468FA574 		.ascii	"F\217\245t.\227\320\251L\370\331v8\014i\311^\261X\366"
 219      2E97D0A9 
 219      4CF8D976 
 219      380C69C9 
 219      5EB158F6 
 220 0165 9E477521 		.ascii	"\236Gu!\375\203\020&\317\350Q?\030/\267\222\261,\331"
 220      FD831026 
 220      CFE8513F 
 220      182FB792 
 220      B12CD9
 221 0178 E913DADF 		.ascii	"\351\023\332\337'\326o\224\012e\202\210\333\015O\015"
 221      27D66F94 
 221      0A658288 
 221      DB0D4F0D 
 222 0188 4C435C76 		.ascii	"LC\\v\020\302}D\314\023\310X\244f\213\351+\374\324\326"
 222      10C27D44 
 222      CC13C858 
 222      A4668BE9 
 222      2BFCD4D6 
ARM GAS  C:\Users\gjl\AppData\Local\Temp\ccwaInLh.s 			page 17


 223 019c 3C49B128 		.ascii	"<I\261(K&7?\270\361\254\356\324\272\304\247@\316bQx"
 223      4B26373F 
 223      B8F1ACEE 
 223      D4BAC4A7 
 223      40CE6251 
 224 01b1 80B84A90 		.ascii	"\200\270J\220#\227\342?\177\343\012\223k\006O\374}\372"
 224      2397E23F 
 224      7FE30A93 
 224      6B064FFC 
 224      7DFA
 225 01c3 AB88ABBB 		.ascii	"\253\210\253\273M\265{Q\344pz\256g\370l?\372Z\273L:"
 225      4DB57B51 
 225      E4707AAE 
 225      67F86C3F 
 225      FA5ABB4C 
 226 01d8 88297E27 		.ascii	"\210)~'\223\322\226\377\3456&FB\014)\025\216\207\350"
 226      93D296FF 
 226      E5362646 
 226      420C2915 
 226      8E87E8
 227 01eb 87E98C47 		.ascii	"\207\351\214G\210\373\0242\262l5W\303\262:R\331KE\371"
 227      88FB1432 
 227      B26C3557 
 227      C3B23A52 
 227      D94B45F9 
 228 01ff 19BC3DC2 		.ascii	"\031\274=\302\274\034\017\253\220\314\013\343)\023\344"
 228      BC1C0FAB 
 228      90CC0BE3 
 228      2913E4
 229 020e 2628E853 		.ascii	"&(\350S\330P8\306\210\015\264\225\360o\261\365'\300"
 229      D85038C6 
 229      880DB495 
 229      F06FB1F5 
 229      27C0
 230 0220 1C931D0B 		.ascii	"\034\223\035\013\343\236\250W\000\246\021\241\205\225"
 230      E39EA857 
 230      00A611A1 
 230      8595
 231 022e 1666B737 		.ascii	"\026f\2677W\032\330E\010\210Y\367UV\326^\210\326W\327"
 231      571AD845 
 231      088859F7 
 231      5556D65E 
 231      88D657D7 
 232 0242 C69A1A63 		.ascii	"\306\232\032c\034\265D\353N\3265\304NG\243\207\252+"
 232      1CB544EB 
 232      4ED635C4 
 232      4E47A387 
 232      AA2B
 233 0254 63CA960C 		.ascii	"c\312\226\014\235k\252wO4\326\327\2359\337l\366\206"
 233      9D6BAA77 
 233      4F34D6D7 
 233      9D39DF6C 
 233      F686
 234 0266 E6C67F96 		.ascii	"\346\306\177\226T\005\307"
 234      5405C7
 235              		.text
 236              		.section	.gnu.lto_u8x8_pcf8812_96x65_display_info.50a22965,"",%progbits
ARM GAS  C:\Users\gjl\AppData\Local\Temp\ccwaInLh.s 			page 18


 237 0000 789C2DCD 		.ascii	"x\234-\315OK\002A\030\307\361\371\315\354\246kkZg_\200"
 237      4F4B0241 
 237      18C7F1F9 
 237      CDECA66B 
 237      6B5A675F 
 238 0015 2FC1B7E0 		.ascii	"/\301\267\340\273Z$\245\253!^4\010B\312?\351\272\224"
 238      BB5A24A5 
 238      AB215E34 
 238      0842CA3F 
 238      E9BA94
 239 0028 609D8C40 		.ascii	"`\235\214@\350\326\321\303B\007\211\002\361\222(\022"
 239      E8D6D1C3 
 239      42078902 
 239      F1922812 
 240 0038 4AF3EB71 		.ascii	"J\363\353q.\337\3710\317\3038\012\212\247h#7\245v\032"
 240      2EDFF930 
 240      CFC3380A 
 240      8AA76823 
 240      37A5761A 
 241 004c E3A017FB 		.ascii	"\343\240\027\373+]6\012\023\272\364<\253f\304\037\364"
 241      2B5D360A 
 241      13BAF43C 
 241      AB66C41F 
 241      F4
 242 005d 6031DEA6 		.ascii	"`1\336\246i\200\354\216ZO\020z\226\277_\265\331\201"
 242      6980EC8E 
 242      5A4F107A 
 242      96BF5FB5 
 242      D981
 243 006f BEE576D3 		.ascii	"\276\345v\323\334\270\302:\254\033?\361\267'\316[\276"
 243      DCB8C23A 
 243      AC1B3FF1 
 243      B727CE5B 
 243      BE
 244 0080 9F874D23 		.ascii	"\237\207M#t,\343(\272\372\237\326\010.W\234\177\273"
 244      742CE328 
 244      BAFA9FD6 
 244      082E579C 
 244      7FBB
 245 0092 59BF1CF6 		.ascii	"Y\277\034\366\347\374\355\341uZI\212\371\374\371\030"
 245      E7FCEDE1 
 245      755A498A 
 245      F9FCF918 
 246 00a2 2FDDC228 		.ascii	"/\335\302(\270\270\016B\267l\314^+\264\221\333k`\310"
 246      B8B80E42 
 246      B76CCC5E 
 246      2BB491DB 
 246      6B60C8
 247 00b5 68848C91 		.ascii	"h\204\214\2218\022Wr$IH\222\0300\236\254\247\320g\216"
 247      38125772 
 247      24494892 
 247      18309EAC 
 247      A7D0678E 
 248 00c9 71CFF8E8 		.ascii	"q\317\370\3501it\231\023t\230\214Lf%\247\270c\316p\213"
 248      31697499 
 248      1374988C 
 248      4C6625A7 
ARM GAS  C:\Users\gjl\AppData\Local\Temp\ccwaInLh.s 			page 19


 248      B863CE70 
 249 00de 9C428482 		.ascii	"\234B\204\202\372\0038=n\351"
 249      FA03383D 
 249      6EE9
 250              		.text
 251              		.section	.gnu.lto_.symbol_nodes.50a22965,"",%progbits
 252 0000 789C55CA 		.ascii	"x\234U\312=jBA\024\206\341\367\314\231\373\347_am\241"
 252      3D6A4241 
 252      1486E1F7 
 252      CC99FBE7 
 252      5F616DA1 
 253 0014 5BB1CCA6 		.ascii	"[\261\314\246\316\024\242\220\"\011\010\326\006\334"
 253      CE14A290 
 253      220908D6 
 253      06DC
 254 0022 404AC572 		.ascii	"@J\305rJq\015I\270\330f\013\271w4\220\251^\036\276\317"
 254      4A710D49 
 254      B8D8660B 
 254      B9773490 
 254      A95E1EBE 
 255 0037 232C0570 		.ascii	"#,\005pj\360v\205.\307\360\036\024\012\\\230\202\026"
 255      6AF07685 
 255      2EC7F01E 
 255      140A5C98 
 255      8216
 256 0049 22F73A52 		.ascii	"\"\367:R]a\362w=\205Ew\364\232\006\031\231K\003\204"
 256      5D61F277 
 256      3D854577 
 256      F49A0619 
 256      994B0384 
 257 005d 3007199B 		.ascii	"0\007\031\233f\036\230\317\334X\221yhe\346\332\252\314"
 257      661E98CF 
 257      DC589179 
 257      6865E6DA 
 257      AACC
 258 006f 95D5994B 		.ascii	"\225\325\231Kk\376[\031\321~\316\224!\253\257\224\366"
 258      6BFE5B19 
 258      D17ECE94 
 258      21ABAF94 
 258      F6
 259 0080 6392B4BE 		.ascii	"c\222\264\276\211\322\020\327\027Uj\332\324\001q\323"
 259      89D210D7 
 259      17556ADA 
 259      D40171D3 
 260 0090 B7A44D6D 		.ascii	"\267\244Mm8<\337\367\303\313\343\367h|\355[\021\267"
 260      383CDFF7 
 260      C3CBE3F7 
 260      687CED5B 
 260      11B7
 261 00a2 3F4FFD3F 		.ascii	"?O\375?\356:\3731\361<S\017\337\373\233\360\013\317"
 261      EE3AFB31 
 261      F13C530F 
 261      DFFB9BF0 
 261      0BCF
 262 00b4 AD451E   		.ascii	"\255E\036"
 263              		.text
 264              		.section	.gnu.lto_.refs.50a22965,"",%progbits
ARM GAS  C:\Users\gjl\AppData\Local\Temp\ccwaInLh.s 			page 20


 265 0000 789C6361 		.ascii	"x\234ca`d\020d```f`bdabbgb\346\000\322\254L\014\000"
 265      60641064 
 265      60606066 
 265      60626461 
 265      62626762 
 266 001b 03970047 		.ascii	"\003\227\000G"
 267              		.text
 268              		.section	.gnu.lto_.decls.50a22965,"",%progbits
 269 0000 789CBD59 		.ascii	"x\234\275Y{P\024W\272\237\323g\200a\030@\201\344Z{\331"
 269      7B501457 
 269      BA9FD367 
 269      80611840 
 269      81E45A7B 
 270 0015 C44A8872 		.ascii	"\304J\210r\253v\215&\273)w\377\331\354\315}\377qkoe"
 270      AB768D26 
 270      BB2977FF 
 270      D9ECCD7D 
 270      FF716B6F 
 271 002a 93BAB78A 		.ascii	"\223\272\267\212\252\331a\030p\2620Lf\006\243\271\225"
 271      AAD96118 
 271      70B2304C 
 271      6606A3B9 
 271      95
 272 003b DAE6A982 		.ascii	"\332\346\251\202\274\004\021\360\375F\361\201\250 \212"
 272      BC0411F0 
 272      FD46F181 
 272      A8208A
 273 004a 32BE4004 		.ascii	"2\276@\004\005E|\"\240\242\222\240\210<Dy8\373\235s"
 273      05457C22 
 273      A0A292A0 
 273      883C4479 
 273      38FB9D73 
 274 005e BAA7BBB1 		.ascii	"\272\247\273\261'\371\347\356\235\362g\367w\316\357"
 274      27F9E7EE 
 274      9DF267F7 
 274      77CEEF
 275 006d 7CAFF3E8 		.ascii	"|\257\363\350\257\033\255\006i\310o\331\273\032\315"
 275      AF1BAD06 
 275      69C86FD9 
 275      BB1ACD
 276 007c 693F8DE6 		.ascii	"i?\215\346\010\247\321x\340\027\000m_\002\374\001\007"
 276      08A7D178 
 276      E017006D 
 276      5F02FC01 
 276      07
 277 008d 01750037 		.ascii	"\001u\0007\240\011`\200!\221\032\366\323\003\376\013"
 277      A0096080 
 277      21911AF6 
 277      D303FE0B 
 278 009d E4CF01FF 		.ascii	"\344\317\001\377\0030\001\022\000_\001\222\000\016\300"
 278      03300112 
 278      005F0192 
 278      000EC0
 279 00ac 52C0FF02 		.ascii	"R\300\377\002\264\300\375\016\256\177\001\244\002\322"
 279      B4C0FD0E 
 279      AE7F01A4 
 279      02D2
ARM GAS  C:\Users\gjl\AppData\Local\Temp\ccwaInLh.s 			page 21


 280 00ba 9146F123 		.ascii	"\221F\361#z\376^\260\027\006\210\000\374#\264}\001\327"
 280      7AFE5EB0 
 280      17068800 
 280      FC23B47D 
 280      01D7
 281 00cc 18C126F1 		.ascii	"\030\301&\361)\003\356S\000\231\210\371\323\010\370"
 281      2903EE53 
 281      009988F9 
 281      D308F8
 282 00db 1A31FF1A 		.ascii	"\0321\377\032\004_\217\001\262\240\355\277\001+\000"
 282      045F8F01 
 282      B2A0EDBF 
 282      012B00
 283 00ea F1807580 		.ascii	"\361\200u\200\022\300g\200R\300\237\000\020\262&\037"
 283      12C06780 
 283      52C09F00 
 283      10B2261F 
 284 00fa AEBF0514 		.ascii	"\256\277\005\024\002\012\000k\000:\301\237\245B\014"
 284      020A006B 
 284      003AC19F 
 284      A5420C
 285 0109 5F097125 		.ascii	"_\011q%\311\342$\2342\270\226\003\326\0036\0006\012"
 285      C9E2249C 
 285      32B89603 
 285      D6033600 
 285      360A
 286 011b B19118BF 		.ascii	"\261\221\030\277\233\021\037i\307\032\026G\204\340\267"
 286      9B111F69 
 286      C71A1647 
 286      84E0B7
 287 012a AFDF5F66 		.ascii	"\257\337_fp\033~\204\373\335\014\356\261\037\341\222"
 287      701B7E84 
 287      FBDD0CEE 
 287      B11FE192 
 288 013a 7932F8C8 		.ascii	"y2\370\3101\031\277\011\261\371\015\002|\013\370\035"
 288      3119BF09 
 288      B1F90D02 
 288      7C0BF81D 
 289 014a E053210E 		.ascii	"\340S!\016,\214'sIrC\232g\316a\2720\317\363\004}\363"
 289      2C8C2773 
 289      4972439A 
 289      67CE61BA 
 289      30CFF304 
 290 0160 354C5738 		.ascii	"5LW8\\'\000\343\2001\300$`\012\340\007}#p}\001\360\000"
 290      5C2700E3 
 290      8031C024 
 290      600AE007 
 290      7D23707D 
 291 0177 38A20F30 		.ascii	"8\242\0170M\354\3015\0000\012\367\257\001\257H\027\310"
 291      4DECC135 
 291      00300AF7 
 291      AF01AF48 
 291      17C8
 292 0189 FE336C8A 		.ascii	"\3763l\212\277i\016\035\314\354\333\243\033\345P\244"
 292      BF690E1D 
 292      CCECDBA3 
 292      1BE550A4 
ARM GAS  C:\Users\gjl\AppData\Local\Temp\ccwaInLh.s 			page 22


 293 0199 1E791091 		.ascii	"\036y\020\221\237\324\275\012f2\351\356yU\361/\013\366"
 293      9FD4BD0A 
 293      6632E9EE 
 293      7955F12F 
 293      0BF6
 294 01ab F1F02BE0 		.ascii	"\361\360+\340y\216\223\306\035q\217\354\327\342 B\342"
 294      798E93C6 
 294      1D718FEC 
 294      D7E22042 
 294      E2
 295 01bc AE1CBE75 		.ascii	"\256\034\276u>\020E\353w\021^\357\235\321\337\247\363"
 295      3E1045EB 
 295      77115EEF 
 295      9DD1DFA7 
 295      F3
 296 01cd 3C42FB90 		.ascii	"<B\373\220\036\355E\030\355A\013\210\033\221d\341\257"
 296      1EED4518 
 296      ED410B88 
 296      1B9164E1 
 296      AF
 297 01de E4F9347E 		.ascii	"\344\3714~h\033\357?G\203>\216D\013#5\250\022E\023c"
 297      681BEF3F 
 297      47833E8E 
 297      440B2335 
 297      A8124513 
 298 01f3 84852A50 		.ascii	"\204\205*P$\332\215\"\211\376=\233+\316\005\343RD\015"
 298      24DA8D22 
 298      89FE3D9B 
 298      2BCE05E3 
 298      52440D
 299 0206 3C2D1E58 		.ascii	"<-\036X\211\275\006\012s\"+y~\026:\010\006\366K\006"
 299      89BD060A 
 299      73222B79 
 299      7E163A08 
 299      06F64B06 
 300 021a C09EBA85 		.ascii	"\300\236\272\205\003*\026\310`\260r%\243j\003\206h\303"
 300      032A16C8 
 300      60B07225 
 300      A36A0386 
 300      68C3
 301 022c F4480BE2 		.ascii	"\364H\013\342\363K\345\017B@\214\320\243\271 \226\237"
 301      F34BE50F 
 301      42408CD0 
 301      A3B92096 
 301      9F
 302 023d 18BDE8C7 		.ascii	"\030\275\350\307zu 6\017\337\272\034\254_I\223\221\316"
 302      7A752036 
 302      0FDFBA1C 
 302      AC5F4993 
 302      91CE
 303 024f 875D0821 		.ascii	"\207]\010!\035\207@a\025(\324\240\303\304>\3720\022"
 303      1D874061 
 303      1528D4A0 
 303      C3C43EFA 
 303      3012
 304 0261 55B3082A 		.ascii	"U\263\010*kv\036Glt \2109\347\2176b\246\373\002\351"
 304      6B761E47 
ARM GAS  C:\Users\gjl\AppData\Local\Temp\ccwaInLh.s 			page 23


 304      6C742088 
 304      39E78F36 
 304      62A6FB02 
 305 0276 4E9BD87C 		.ascii	"N\233\330|14\254@H\355\247\210\206s\024\264\035\241"
 305      3134AC40 
 305      48EDA788 
 305      867314B4 
 305      1DA1
 306 0288 DA6A5098 		.ascii	"\332jP\230\250\223\2607v\336/\010\324\013\301\025\374"
 306      A893B037 
 306      76DE2F08 
 306      D40BC115 
 306      FC
 307 0299 4470C02F 		.ascii	"Dp\300/\331\363\354\202V\256\275\366\307\264\347\024"
 307      D9F3EC82 
 307      56AEBDF6 
 307      C7B4E714 
 308 02a9 4D9E3418 		.ascii	"M\2364\030\262\211v!\262c(L\026Z\035\";\200^\201\335"
 308      B2897621 
 308      B263284C 
 308      165A1D22 
 308      3B805E81 
 309 02be 37B9FF78 		.ascii	"7\271\377x\010\013\314\037\304g\017\306\357\353|\247"
 309      080BCC1F 
 309      C4670FC6 
 309      EFEB7CA7 
 310 02ce E5849896 		.ascii	"\345\204\230\226\343\314\263\321\354\314q!\345\001 "
 310      E3CCB3D1 
 310      ECCC7121 
 310      E50120
 311 02dd 563CDA90 		.ascii	"V<\332\220g`iY\014\242\373\031?\376FVN\202\262z\252"
 311      67606959 
 311      0CA2FB19 
 311      3FFE4656 
 311      4E82B27A 
 312 02f2 EC14F5FB 		.ascii	"\354\024\365\373\204\350\367\376m\351\027\271\231Q\372"
 312      84E8F7FE 
 312      6DE917B9 
 312      9951FA
 313 0301 641FDFD0 		.ascii	"d\037\337\320\324\345\247\210\262A\021\245[\210\322"
 313      D4E5A788 
 313      B24111A5 
 313      5B88D2
 314 0310 4DA3BC3A 		.ascii	"M\243\274:\324\2721\210\3719\213\254\005>\353\000\366"
 314      D4BA3188 
 314      F9398BAC 
 314      053EEB00 
 314      F6
 315 0321 1DE51931 		.ascii	"\035\345\0311\312\323,\312\225M\335\235\302\344\317"
 315      CAD32CCA 
 315      954DDD9D 
 315      C2E4CF
 316 0330 0671DFA5 		.ascii	"\006q\337\245\246.a\362W\222]66~07xf\230\347@\333Y\252"
 316      A62E61F2 
 316      57925D36 
 316      367E3037 
 316      786698E7 
ARM GAS  C:\Users\gjl\AppData\Local\Temp\ccwaInLh.s 			page 24


 317 0348 ED3C75FC 		.ascii	"\355<u\374\214\350x\347\236\206Q\303\3140}\262S\373"
 317      8CE878E7 
 317      9E8651C3 
 317      CC307DB2 
 317      53FB
 318 035a C65E2BC3 		.ascii	"\306^+\303lT\204\331$\204\331D\303<Q[\337\350\307<["
 318      6C5484D9 
 318      2484D944 
 318      C33C515B 
 318      DFE8C73C 
 319 036f 08E279CF 		.ascii	"\010\342y\317\270;\224\371\315\311\222\020\301\222\260"
 319      B83B94F9 
 319      CDC99210 
 319      C192B0
 320 037e BAA3E663 		.ascii	"\272\243\346c\274\216\243'\303\316\211\311!\022\322"
 320      BC8EA327 
 320      C3CE89C9 
 320      2112D2
 321 038d 3C38383C 		.ascii	"<88<Xvr\314c'GCK\363.\003\336N\311\334\016wZ&B\372h"
 321      587672CC 
 321      63274743 
 321      4BF32E03 
 321      DE4EC9DC 
 322 03a8 BA80F974 		.ascii	"\272\200\371t^_\021\242A\027\301\245f\262\027\333a\015"
 322      5E5F11A2 
 322      4117C1A5 
 322      66B217DB 
 322      610D
 323 03ba CF13D6F0 		.ascii	"\317\023\326\360%hl\205F\341,y\362\037\364,i\203\200"
 323      25686C85 
 323      46E12C79 
 323      F21FF42C 
 323      698380
 324 03cd 2F4B5B7D 		.ascii	"/K[}\236\020\352\251\302;\217\364\370\000\263\261g\250"
 324      9E10EAA9 
 324      C23B8FF4 
 324      F800B3B1 
 324      67A8
 325 03df 755FA84F 		.ascii	"u_\250O\033\035>m\024\346\314\333G\216\223\253`\343"
 325      1B1D3E6D 
 325      14E6CCDB 
 325      478E93AB 
 325      60E3
 326 03f1 8A64A34D 		.ascii	"\212d\243M\314\347`\306\303^!\007s\310Tv\336\234F\270"
 326      CCE760C6 
 326      C35E2107 
 326      73C85476 
 326      DE9C46B8 
 327 0405 9625E1D2 		.ascii	"\226%\341\322\353\241S\03073a\177oV\207\037\276\315"
 327      EBA15318 
 327      3733617F 
 327      6F56871F 
 327      BECD
 328 0417 845D535B 		.ascii	"\204]S[\217\030\360#&4\216\237\334\356\207\2373!;g\357"
 328      8F18F023 
 328      26348E9F 
 328      DCEE879F 
ARM GAS  C:\Users\gjl\AppData\Local\Temp\ccwaInLh.s 			page 25


 328      33213B67 
 329 042c D6109C85 		.ascii	"\326\020\234\205\251\260~\344\356\367\201Ly4\210\231"
 329      A9B07EE4 
 329      EEF7814C 
 329      79348899 
 330 043c AB2BEB31 		.ascii	"\253+\3531.c}\355=\325c\376\370\000\023z\272\013\277"
 330      2E637DED 
 330      3DD563FE 
 330      F800137A 
 330      BA0BBF
 331 044f C2B5ECFE 		.ascii	"\302\265\354\376\356\205=\225$\365\363I\352=\236PY\362"
 331      EE853D95 
 331      24F5F349 
 331      EA3D9E50 
 331      59F2
 332 0461 E7B3E45F 		.ascii	"\347\263\344_\315\037\336\021\200\317Q:\327\230{\270"
 332      CD1FDE11 
 332      80CF513A 
 332      D7987BB8 
 333 0471 3A483A9E 		.ascii	":H:\236w\030\352H\270\017 \334{R\270\363\275\207'[4"
 333      7718EA48 
 333      B80F20DC 
 333      7B52B8F3 
 333      BD87275B 
 334 0486 1AEF8A41 		.ascii	"\032\357\212A\367!u\363\205\324\365Bc\217pB\357(\334"
 334      F72175F3 
 334      85D4F542 
 334      638F7042 
 334      EF28DC
 335 0499 E68FDB98 		.ascii	"\346\217\333\230\215\262#{\307\365\262\023\372W4\245"
 335      8DB2237B 
 335      C7F5B213 
 335      FA5734A5 
 336 04a9 8FC0469F 		.ascii	"\217\300F\237d\343\001\362m\344\241\272\221\201kW\013"
 336      64E301F2 
 336      6DE4A1BA 
 336      91816B57 
 336      0B
 337 04ba FDF04D16 		.ascii	"\375\360M\026\367t\365\212\023Z<\300\204\307\027^\215"
 337      F774F58A 
 337      135A3CC0 
 337      84C7175E 
 337      8D
 338 04cb 06E16926 		.ascii	"\006\341i&L\234I\253C\270@K\205\2323\257Z\375\360N&"
 338      4C9C49AB 
 338      43B8404B 
 338      859A33AF 
 338      5AFDF04E 
 339 04e0 0CA655EE 		.ascii	"\014\246U\356@\370\024\023\332\327>-\341\360\015&LM"
 339      40F81413 
 339      DAD73E2D 
 339      E1F00D26 
 339      4C4D
 340 04f2 16A5FAE1 		.ascii	"\026\245\372\341\037\230\320\320\325\277/\010O\011c"
 340      1F98D0D0 
 340      D5BF2F08 
 340      4F0963
ARM GAS  C:\Users\gjl\AppData\Local\Temp\ccwaInLh.s 			page 26


 341 0501 84190F63 		.ascii	"\204\031\017c3^U\237\361Tx*\270\311\346\255\310\035"
 341      335E559F 
 341      F154782A 
 341      B8C9E6AD 
 341      C81D
 342 0513 3AABC76B 		.ascii	":\253\307k\375\010\367\255\324\206KM\001(\212\374\302"
 342      FD08F7AD 
 342      D4864B4D 
 342      01288AFC 
 342      C2
 343 0524 A3A45F34 		.ascii	"\243\244_4`\033\011\264w\355\300\247\3655]<\237e\240"
 343      601B09B4 
 343      77EDC0A7 
 343      F5355D3C 
 343      9F65A0
 344 0537 9BBC1FD2 		.ascii	"\233\274\037\322\361\022\205\213\307\367\207dG^ \373"
 344      F112858B 
 344      C7F78764 
 344      475E20FB 
 345 0547 5243E9EE 		.ascii	"RC\351\356\202\253A|\325\237(\365\206\222z\232\356\336"
 345      82AB417C 
 345      D59F28F5 
 345      86927A9A 
 345      EEDE
 346 0559 8F256AD7 		.ascii	"\217%j\327e/\365\211\212\326\2132\255\245m^\352c\025"
 346      652FF589 
 346      8AD68B32 
 346      ADA56D5E 
 346      EA6315
 347 056c EA4919F5 		.ascii	"\352I\031\365\246\244\365\251\012\225\332/\024\216\""
 347      A6A4F5A9 
 347      0A95DA2F 
 347      148E22
 348 057b 1EB934E8 		.ascii	"\036\2714\3509\314\326\020\231\302g\002\035\346\020"
 348      39CCD610 
 348      99C26702 
 348      1DE610
 349 058a 6570D168 		.ascii	"ep\321h\002E\241q\300\030`\0220\005\310\344\242\320"
 349      0245A171 
 349      C0186012 
 349      3005C8E4 
 349      A2D0
 350 059c 085C5F00 		.ascii	"\010\\_\000<\2004\220y\3004\334\247\303u\005`\024\356"
 350      3C803490 
 350      79C034DC 
 350      A7C37505 
 350      6014EE
 351 05af 5F035E01 		.ascii	"_\003^\001RA\316\342\242h\325\301\374+\221\022\324\251"
 351      5241CEE2 
 351      A268D5C1 
 351      FC2B9112 
 351      D4A9
 352 05c1 96A06BB2 		.ascii	"\226\240k\262X\256K\261\014\252\304\262HbvK\314\001"
 352      58AE4BB1 
 352      0CAAC4B2 
 352      4862764B 
 352      CC01
ARM GAS  C:\Users\gjl\AppData\Local\Temp\ccwaInLh.s 			page 27


 353 05d3 15A65CE9 		.ascii	"\025\246\\\351\220D\375A\205zHF\035\225\322~[I\255F"
 353      9044FD41 
 353      857A4846 
 353      1D95D27E 
 353      5B49AD46 
 354 05e7 3327BE58 		.ascii	"3'\276X\212\353\272Z\\\362\351\334\234\037R\306\273"
 354      8AEBBA5A 
 354      5CF2E9DC 
 354      9C1F52C6 
 354      BB
 355 05f8 3330DD60 		.ascii	"30\335`\335\002\333\273\225\230nYp\267\332\202\327\361"
 355      DD02DBBB 
 355      95986E59 
 355      70B7DA82 
 355      D7F1
 356 060a EE544C95 		.ascii	"\356TL\225w\2519rG\246\274vMH)\357N\303\364@l\021\330"
 356      77A93972 
 356      47A6BC76 
 356      4D4829EF 
 356      4EC3F440 
 357 0621 DE739439 		.ascii	"\336s\2249#\017\262C\256\375\256\232v9\373\245\224\222"
 357      230FB243 
 357      AEFDAE9A 
 357      7639FBA5 
 357      9492
 358 0633 5B6A5CB6 		.ascii	"[j\\\266\024\3511\342n\3103\360\274\216p4\302\021\""
 358      14E931E2 
 358      6EC833F0 
 358      BC8E7034 
 358      C21122
 359 0646 2D8391CB 		.ascii	"-\203\221\3132\253\337\253\314\203<\244:yH\303\352!"
 359      32ABDFAB 
 359      CC833CA4 
 359      3A7948C3 
 359      EA21
 360 0658 C9E7C223 		.ascii	"\311\347\302#\017\351\246\332l\320\354\302Yp+\177}Y"
 360      0FE9A6DA 
 360      6CD0ECC2 
 360      59702B7F 
 360      7D59
 361 066a 28AEA567 		.ascii	"(\256\245g\001w\251\257\274!\004\205G\253o\217l\330"
 361      0177A9AF 
 361      BC210485 
 361      47AB6F8F 
 361      6CD8
 362 067c 127FCBED 		.ascii	"\022\177\313\355\301rv\267\345\027$g\253\270p\264\222"
 362      C17276B7 
 362      E5172467 
 362      ABB870B4 
 362      92
 363 068d F39EBC24 		.ascii	"\363\236\274$\205\324\337\255\025\273sQ\270\340\240"
 363      85D4DFAD 
 363      15BB7351 
 363      B8E0A0
 364 069c DBA7839A 		.ascii	"\333\247\203\232\377s\357\300vV\366H*R\024&9\\\270\254"
 364      FF73EFC0 
 364      7656F648 
ARM GAS  C:\Users\gjl\AppData\Local\Temp\ccwaInLh.s 			page 28


 364      2A521426 
 364      395CB8AC 
 365 06b0 3059CDB1 		.ascii	"0Y\315\261\302\004\256\344\254\316h\254\325\335\201"
 365      C204AEE4 
 365      ACCE68AC 
 365      D5DD81
 366 06bf 45024F4D 		.ascii	"E\002OM\341\365\005!\366?\242\3200P\021n8\215\360\202"
 366      E1F50521 
 366      F63FA2D0 
 366      3050116E 
 366      388DF082 
 367 06d3 2534792F 		.ascii	"%4y/\032\362\277\206\361i\233\244\214\376\023\257\036"
 367      1AF2BF86 
 367      F1699BA4 
 367      8CFE13AF 
 367      1E
 368 06e4 F1C75EA8 		.ascii	"\361\307^\250\274\332\2210\010y=`\243X?'je\027N\032"
 368      BCDA9130 
 368      08793D60 
 368      A3583F27 
 368      6A65174E 
 369 06f9 20D3C7DC 		.ascii	" \323\307\334\225\371\204\2241!1E\343\203\351\351!\270"
 369      95F98494 
 369      31213145 
 369      E383E9E9 
 369      21B8
 370 070b 852E2774 		.ascii	"\205.'t`\337d\225^\013\357\\\350\013\003\212\325\222"
 370      60DF6495 
 370      5E0BEF5C 
 370      E80B038A 
 370      D592
 371 071d A63B59BB 		.ascii	"\246;Y\273[\202h\023Y\231\371\034m\354\274\331\335\031"
 371      5B826813 
 371      5999F91C 
 371      6DECBCD9 
 371      DD19
 372 072f E86D2C60 		.ascii	"\350m,`\215ba\021\306\012\013\361\315&\214\275\331\360"
 372      8D626111 
 372      C60A0BF1 
 372      CD268CBD 
 372      D9F0
 373 0741 FD199B39 		.ascii	"\375\031\2339\334\317\3544\364\0276\350\3608\023\332"
 373      DCCFEC34 
 373      F41736E8 
 373      F03813DA 
 374 0751 773FBD11 		.ascii	"w?\275\021\202\363\375\251\320\277\245\241Z\207\367"
 374      82F3FDA9 
 374      D0BFA5A1 
 374      5A87F7
 375 0760 3261AD7B 		.ascii	"2a\255{\315\224\036\3270\241\271\356\376B|\232\335\277"
 375      CD941ED7 
 375      30A1B9EE 
 375      FE427C9A 
 375      DDBF
 376 0772 68B97617 		.ascii	"h\271v\027\343v&\344\2379yV\207\273\230\320\330u\273"
 376      E37626E4 
 376      9F397956 
ARM GAS  C:\Users\gjl\AppData\Local\Temp\ccwaInLh.s 			page 29


 376      87BB98D0 
 376      D875BB
 377 0785 538BFB99 		.ascii	"S\213\373\231\220z\362\354\341`<\315\204\351\303\207"
 377      907AF2EC 
 377      E1603CCD 
 377      84E9C387 
 378 0795 CF229C15 		.ascii	"\317\"\234\025@\205G\331{\236\033p>\023\276\357\252"
 378      408547D9 
 378      7B9E1B70 
 378      3E13BEEF 
 378      AA
 379 07a6 9D52BE8B 		.ascii	"\235R\276\213\220jWZ%[\330*\001\346\375C\343Ot\270\230"
 379      906A575A 
 379      255BD82A 
 379      01E6FD43 
 379      E34F74B8 
 380 07bb 0D5BE1B9 		.ascii	"\015[\341\271{N\207w1!cw\356\372`\\\315\204\274\262"
 380      7B4E8777 
 380      31216377 
 380      EEFA605C 
 380      CD84BCB2 
 381 07cf E1       		.ascii	"\341"
 382 07d0 1301F838 		.ascii	"\023\001\3708\023:\334[\326\007\342\323Lxpd|G0ne\302"
 382      133ADC5B 
 382      D607E2D3 
 382      4C787064 
 382      7C47306E 
 383 07e6 BD6727CB 		.ascii	"\275g'\313\002\274Yd\351>zusO\000\276\306\010\023m\223"
 383      02BC5964 
 383      E93E7A75 
 383      734F00BE 
 383      C608136D 
 384 07fb C711BEC7 		.ascii	"\307\021\276\307\204\361\375\217\273\374\360\240`nc"
 384      84F1FD8F 
 384      BBFCF0A0 
 384      606E63
 385 080a 411BC792 		.ascii	"A\033\307\222\373\013\362\356\265jC\257\226\325\013"
 385      FB0BF2EE 
 385      B56A43AF 
 385      96D50B
 386 0819 BDA488EE 		.ascii	"\275\244\210\356\177\270\276Q\217'\030\267\241\343`"
 386      7FB8BE51 
 386      8F2718B7 
 386      A1E360
 387 0828 6B28CED3 		.ascii	"k(\316\323\021\341\275\256'\325u\301HQ8DE\031\014s\264"
 387      11E1BDAE 
 387      27D575C1 
 387      48513844 
 387      45190C73 
 388 083d 8670F12E 		.ascii	"\206p\361.:*::\232\235J\353\256\313N\245\015\260\271"
 388      3A2A3A3A 
 388      9A9D4AEB 
 388      AECB4EA5 
 388      0DB0B9
 389 0850 AB38EFA9 		.ascii	"\2538\357\2514$;<\025\307\317>.\022Ur\300\330+\014 "
 389      34243B3C 
 389      15C7CF3E 
ARM GAS  C:\Users\gjl\AppData\Local\Temp\ccwaInLh.s 			page 30


 389      2E125572 
 389      C0D82B0C 
 390 0865 C7CF65D8 		.ascii	"\307\317e\330\351\227`s6\001\032\001\347\001\347\000"
 390      E9976073 
 390      36011A01 
 390      E701E700 
 391 0875 2701F580 		.ascii	"'\001\365\200\023\200\343\200\203\200:\3001@-\240\006"
 391      1380E380 
 391      83803AC0 
 391      31402DA0 
 391      06
 392 0886 70147004 		.ascii	"p\024p\004p\030P\0158\244x:\327_\367\036\357\373\225"
 392      7018500D 
 392      38A4783A 
 392      D75FF71E 
 392      EFFB95
 393 0899 1EAEE166 		.ascii	"\036\256\341f<\225\216K\324b%\265\210\233Y\224\034\223"
 393      3C958E4B 
 393      D46225B5 
 393      889B5994 
 393      1C93
 394 08ab B86BD5B8 		.ascii	"\270k\325\270\362\303\273F\342\226\250q\345\017\206"
 394      F2C3BB46 
 394      E296A871 
 394      E50F86
 395 08ba 2312779D 		.ascii	"#\022w\235\032W\376\344\252\226\270\245j\\y\215P%q\313"
 395      1A57FEE4 
 395      AA96B8A5 
 395      6A5C798D 
 395      502571CB 
 396 08ce D4B8F287 		.ascii	"\324\270\362\207\371&\211[\256\306\225U|\245\022u\275"
 396      F926895B 
 396      AEC69555 
 396      7CA51275 
 396      BD
 397 08df 1A5596DD 		.ascii	"\032U\226\335b\211\272Qm\251\3103VT\"{<n\022\330\336"
 397      6289BA51 
 397      6DA9C833 
 397      5654227B 
 397      3C6E12D8 
 398 08f4 C7E3D01B 		.ascii	"\307\343\320\033\317\360\302\222\267X\371\001{\021m"
 398      CFF0C292 
 398      B758F901 
 398      7B116D
 399 0903 16F8DEF2 		.ascii	"\026\370\336\362chf\371\341\351\010e\364S@\337:\223"
 399      636866F9 
 399      E1E90865 
 399      F45340DF 
 399      3A93
 400 0915 2E2F28E4 		.ascii	"./(\344\273\336\315\315\221H\355\260`\033`4{\234\371"
 400      BBDECDCD 
 400      9148EDB0 
 400      601B6034 
 400      7B9CF9
 401 0928 A269649C 		.ascii	"\242id\234\022\262\011\340-p.Gs F\243!\003\340\377\323"
 401      12B209E0 
 401      2D702E47 
ARM GAS  C:\Users\gjl\AppData\Local\Temp\ccwaInLh.s 			page 31


 401      732046A3 
 401      2103E0FF 
 402 093d 1CF9E646 		.ascii	"\034\371\346Fv\373\031\030R\010\222\\\351Y\305s\351"
 402      76FB1918 
 402      5208925C 
 402      E959C573 
 402      E9
 403 094e 0C3B71D4 		.ascii	"\014;q\324\267U\033x\366\267\337VS\035\006\276\300D"
 403      B7551B78 
 403      F6B7DF56 
 403      531D06BE 
 403      C044
 404 0960 13B85D3D 		.ascii	"\023\270]=\201\262|OH\344\0353\311*\005\231\304\336"
 404      81B27C4F 
 404      48E41D33 
 404      C92A0599 
 404      C4DE
 405 0972 A9CE96A9 		.ascii	"\251\316\226\251\036/\212`Sy\001\350\273f\322?T\237"
 405      1E2F8A60 
 405      537901E8 
 405      BB66D23F 
 405      549F
 406 0984 C98BF299 		.ascii	"\311\213\362\231l\205\0345\253\316\344E\305L6\253\315"
 406      6C851C35 
 406      ABCEE445 
 406      C54C36AB 
 406      CD
 407 0995 E455C54C 		.ascii	"\344U\305L^\2443\331\242\230\311\335 \261Bh,\347mR\010"
 407      5EA433D9 
 407      A298C9DD 
 407      20B14268 
 407      2CE76D52 
 408 09aa 11472BA4 		.ascii	"\021G+\244B\250\231\316%\013f\254\350]\026\314jbK5\230"
 408      42A899CE 
 408      250B66AC 
 408      E85D16CC 
 408      6A624B35 
 409 09bf 455231FA 		.ascii	"ER1\372\274\210\026\243\300\221\027\243\254\357N\316"
 409      BC8816A3 
 409      C09117A3 
 409      ACEF4ECE 
 410 09cf 3BA48F2C 		.ascii	";\244\217,\233\003\222-B\025\031#-o\021\006\311\362"
 410      9B03922D 
 410      42151923 
 410      2D6F1106 
 410      C9F2
 411 09e1 3689D140 		.ascii	"6\211\321@\275!o\364\033\217\256\012~o\013\034\034\360"
 411      BD216FF4 
 411      1B8FAE0A 
 411      7E6F0B1C 
 411      1CF0
 412 09f3 82BEEDDF 		.ascii	"\202\276\355\337\313\333\373x^\257\245\213;O\242\303"
 412      CBDBFB78 
 412      5EAFA58B 
 412      3B4FA2C3 
 413 0a03 2DB9E472 		.ascii	"-\271\344rw\240|\270\302\275\007\003\213\207v\273u\370"
 413      77A07CB8 
ARM GAS  C:\Users\gjl\AppData\Local\Temp\ccwaInLh.s 			page 32


 413      C2BD0703 
 413      8B8776BB 
 413      75F8
 414 0a15 087D9CA0 		.ascii	"\010}\234\240+\025\2457\374A\313\226*\336\335\323b\200"
 414      2B15A537 
 414      FC41CB96 
 414      2ADEDDD3 
 414      6280
 415 0a27 E0D2C036 		.ascii	"\340\322\3006G\325\\\225\324\\\225\253\351\240jN\224"
 415      47D55C95 
 415      D45C95AB 
 415      E9A06A4E 
 415      94
 416 0a38 3C08C2CD 		.ascii	"<\010\302\315LK\372\256\336v?\334\315\204\222\006\367"
 416      4C4BFAAE 
 416      DE763FDC 
 416      CD849206 
 416      F7
 417 0a49 8650782A 		.ascii	"\206Px*\242N:\210<u\317\245\015\263j\203\344\233='\333"
 417      A24E3A88 
 417      3C75CFA5 
 417      0DB36A83 
 417      E49B3D27 
 418 0a5e 1A5A3768 		.ascii	"\032Z7h\347\370\334r7\351D\335\240\023\005\354ME\315"
 418      E7F8DC72 
 418      37E944DD 
 418      A01305EC 
 418      4D45CD
 419 0a71 6BB5E066 		.ascii	"k\265\340f/\317\367\026\017,\313\331\236\345n\347\371"
 419      2FCFF716 
 419      0F2CCBD9 
 419      9EE56EE7 
 419      F9
 420 0a82 599487AE 		.ascii	"Y\224\207\256\211~\242\353\234\226H\254J\272E\335,\332"
 420      897EA2EB 
 420      9C9648AC 
 420      4ABA45DD 
 420      2CDA
 421 0a94 3AD2CDE1 		.ascii	":\322\315\341\307\276\\+\356o\012TT\016\007\025\225"
 421      C7BE5C2B 
 421      EE6F0A54 
 421      540E0715 
 421      95
 422 0aa5 4397B772 		.ascii	"C\227\267rXW\277\352\246?\215\241\313\033C_W\363\250"
 422      5857BFEA 
 422      A63F8DA1 
 422      CB1B435F 
 422      57F3A8
 423 0ab8 F4FCBFCB 		.ascii	"\364\374\277\313\252\250\326\025\236v\316\033l7k|\324"
 423      AAA8D615 
 423      9E76CE1B 
 423      6C376B7C 
 423      D4
 424 0ac9 7DB6CEDF 		.ascii	"}\266\316\337w\264\2754\332\0361ZO\326\313{\006\026"
 424      77B4BD34 
 424      DA1E315A 
 424      4FD6CB7B 
ARM GAS  C:\Users\gjl\AppData\Local\Temp\ccwaInLh.s 			page 33


 424      0616
 425 0adb AD7B22B6 		.ascii	"\255{\"\266\214?\223\306\177J8\350\2667\322;\020\351"
 425      8C3F93C6 
 425      7F4A38E8 
 425      B637D23B 
 425      10E9
 426 0aed 6D31D27B 		.ascii	"m1\322{4\3225\205O\327\004\342W\276\"U+V\256t\265M\371"
 426      34D23585 
 426      4FD704E2 
 426      57BE2255 
 426      2B56AE74 
 427 0b04 7B7DED63 		.ascii	"{}\355c\276\026\225\2665\377\310\314<\242\276>\024}"
 427      BE1695B6 
 427      35FFC8CC 
 427      3CA2BE3E 
 427      147D
 428 0b16 4D1B6E9A 		.ascii	"M\033n\232\306\202\257/D_\201\203\356{}}\000\276\336"
 428      C682AF2F 
 428      445F8183 
 428      EE7B7D7D 
 428      00BEDE
 429 0b29 177D7D4C 		.ascii	"\027}}L}\315K=v^\213\263\003}\370\232\231w\312\023("
 429      7DCD4B3D 
 429      765E8BB3 
 429      037DF89A 
 429      9977CA13 
 430 0b3e 289D1295 		.ascii	"(\235\022\225\222\251\356\367*\375\036\224\366\213J"
 430      92A9EEF7 
 430      2AFD1E94 
 430      F68B4A
 431 0b4d 7FA04A0F 		.ascii	"\177\240J\017]\254\177\034\210\267\372R\332\224\273"
 431      5DAC7F1C 
 431      88B7FA52 
 431      DA94BB
 432 0b5c F589A8F4 		.ascii	"\365\211\250\364\245\334\323\001\257\322'\240t@T\372"
 432      A5DCD301 
 432      AFD227A0 
 432      744054FA 
 433 0b6c 942AADC8 		.ascii	"\224*\255\310p\017\007\342j\246\264{tr\222\345k\213"
 433      700F07E2 
 433      6AA6B47B 
 433      747292E5 
 433      6B8B
 434 0b7e 77117475 		.ascii	"w\021tu\2374yS\370\214\245\260|\333\256\275H\236\302"
 434      9F347953 
 434      F88CA5B0 
 434      7CDBAEBD 
 434      489EC2
 435 0b91 2FDF9665 		.ascii	"/\337\226e\3609\315\340\220\230\301\274\353]\267\203"
 435      F039CDE0 
 435      9098C1BC 
 435      EB5DB783 
 436 0ba1 04BFC61E 		.ascii	"\004\277\306\036,\004\3078BA\203\322\366\033\024}\032"
 436      2C04C738 
 436      424183D2 
 436      F61B147D 
 436      1A
ARM GAS  C:\Users\gjl\AppData\Local\Temp\ccwaInLh.s 			page 34


 437 0bb2 A63E5566 		.ascii	"\246>Uf\355\317\366\303\027\230Oj\233\253\273z\360n"
 437      EDCFF6C3 
 437      17984F6A 
 437      9BABBB7A 
 437      F06E
 438 0bc4 A84FFB63 		.ascii	"\250O\373c\324\376\250h\277\243\255\365\035\301|\375"
 438      D4FEA868 
 438      BFA3ADF5 
 438      1DC17CFD 
 439 0bd4 0D83FB0F 		.ascii	"\015\203\373\017\244\037\215H\306GD\343/\250\361\356"
 439      A41F8D48 
 439      C64744E3 
 439      2FA8F1EE 
 440 0be4 6D3DF9FE 		.ascii	"m=\371\376\370\0013\236Q\223w\205-\366\325^\343\017"
 440      F801339E 
 440      51937785 
 440      2DF6D55E 
 440      E30F
 441 0bf6 73EE8CEA 		.ascii	"s\356\214\352\274\016\275d\031\351\257\037;\026\344"
 441      BC0EBD64 
 441      19E9AF1F 
 441      3B16E4
 442 0c05 D3A309EA 		.ascii	"\323\243\011\352\321+\321\243\372\251\033\235\302nw"
 442      D12BD1A3 
 442      FAA91B9D 
 442      C26E77
 443 0c14 1FA72E01 		.ascii	"\037\247.\001\001\215K.\215\213.MR\227N\237}=\254\303"
 443      018D4B2E 
 443      8D8B2E4D 
 443      52974E9F 
 443      7D3DACC3 
 444 0c28 59EC3B66 		.ascii	"Y\354;foz\363\313\300\017\266\363\355[\310\271\270\274"
 444      6F7AF3CB 
 444      C00FB6F3 
 444      ED5BC8B9 
 444      B8BC
 445 0c3a B42B83E7 		.ascii	"\264+\203\347\375\351\037'\246\230\002\331\3374H\313"
 445      FDE91F27 
 445      A69802D9 
 445      DF3448CB 
 446 0c4a 1F618D4C 		.ascii	"\037a\215Ls\037\220\257\223]\243\267\374\360^\246fh"
 446      731F90AF 
 446      935DA3B7 
 446      FCF05EA6 
 446      6668
 447 0c5c D3CABA50 		.ascii	"\323\312\272P\246\306\375\332\217\307\364\303\377kA"
 447      A6C6FDDA 
 447      8FC7F4C3 
 447      FF6B41
 448 0c6b 83F4F782 		.ascii	"\203\364\367\202\327\202\006\017\325\320\322\224\337"
 448      D782060F 
 448      D5D0D294 
 448      DF
 449 0c78 178C2F33 		.ascii	"\027\214/3\015\345e\3257\374\004\015\307\210\006\362"
 449      0DE565D5 
 449      37FC040D 
 449      C78806F2 
ARM GAS  C:\Users\gjl\AppData\Local\Temp\ccwaInLh.s 			page 35


 450 0c88 4D9DC74C 		.ascii	"M\235\307L\203\364)\236\264\020\015\251\230h8P\223;"
 450      83F4299E 
 450      B4100DA9 
 450      98683850 
 450      933B
 451 0c9a A0C34F98 		.ascii	"\240\303O\230\206\234\332\351V$h\360d\177\220\312\273"
 451      869CDAE9 
 451      562468F0 
 451      647F90CA 
 451      BB
 452 0cab B5F4FD37 		.ascii	"\265\364\3757MP\"\276\206kh\013Q\222N\225<\334\230w"
 452      4D5022BE 
 452      866B680B 
 452      51924E95 
 452      3CDC9877 
 453 0cbf 5879AA8D 		.ascii	"Xy\252\215)\036\224\031\230\2755\303\025\330\257jZN"
 453      291E9419 
 453      98BD35C3 
 453      15D8AF6A 
 453      5A4E
 454 0cd1 872AD8CF 		.ascii	"\207*\330\317\025\354L\201\235I\331\003\317\317>U\376"
 454      15EC4C81 
 454      9D49D903 
 454      CFCF3E55 
 454      FE
 455 0ce2 A9E0A682 		.ascii	"\251\340\246\202\235%\260\263(\273\276c\305@\260\202"
 455      9D25B0B3 
 455      28BBBE63 
 455      C540B082 
 456 0cf2 FD48C15E 		.ascii	"\375H\301^!\260WPvf\266\347q(^M\377B\210j\313_\273\265"
 456      21B05750 
 456      7666B6E7 
 456      71285E4D 
 456      FF42886A 
 457 0d0a 780D13B2 		.ascii	"x\015\023\262J<\367\365\270\204\011\243\203\267*\374"
 457      4A3CF7F5 
 457      B88409A3 
 457      83B72AFC 
 458 0d1a F1668136 		.ascii	"\361f\2016XY\033,|i%\362\232}\331\351\010W\321N\377"
 458      58591B2C 
 458      7C6925F2 
 458      9A7DD9E9 
 458      0857D14E 
 459 0d2f D5B7BB3B 		.ascii	"\325\267\273;C\020}1\022\276\260\270Y-\266\032\263\277"
 459      43107D31 
 459      12BEB0B8 
 459      592DB61A 
 459      B3BF
 460 0d41 B9A11C48 		.ascii	"\271\241\034H\\\036f\265X\021\216Fkp\024*\000\344\003"
 460      5C1E66B5 
 460      58118E46 
 460      6B70142A 
 460      00E403
 461 0d54 0AB1AC9E 		.ascii	"\012\261\254\236\352];\360\207:\331G\331\225\302@_\337"
 461      EA5D3BF0 
 461      873AD947 
 461      D995C240 
ARM GAS  C:\Users\gjl\AppData\Local\Temp\ccwaInLh.s 			page 36


 461      5FDF
 462 0d66 8FAAA54F 		.ascii	"\217\252\245O~\253T\250\362r\252F\242\346\252P\345e"
 462      7EAB54A8 
 462      F272AA46 
 462      A2E6AA50 
 462      E565
 463 0d78 F7A13CE1 		.ascii	"\367\241<\341+\036y\010e\013d\237\365\307F\3661\014"
 463      2B1E7908 
 463      650B649F 
 463      F5C746F6 
 463      310C
 464 0d8a 38F2FA83 		.ascii	"8\362\372\203\254\364\354\341\251\020\\\303\376\024"
 464      ACF4ECE1 
 464      A9105CC3 
 464      FE14
 465 0d98 3BB56D55 		.ascii	";\265mU\215\016E\207\2631=-QdL\011\350-\306R\031\201"
 465      8D0E4587 
 465      B3313D2D 
 465      51644C09 
 465      E82DC652 
 466 0dae C36796B3 		.ascii	"\303g\226\263\336\024\256\205\264\375T\012\311\201\\"
 466      DE14AE85 
 466      B4FD540A 
 466      C9815C
 467 0dbd 39B63644 		.ascii	"9\2666D\261\024J\260\274d^',\205ut)\354>3z]\371J\337"
 467      B1144AB0 
 467      BC645E27 
 467      2C857574 
 467      29EC3E33 
 468 0dd6 AB5838A5 		.ascii	"\253X8\245\002\273\224\262s\237<j1\274\277\225\271\227"
 468      02BB94B2 
 468      739F3C6A 
 468      31BCBF95 
 468      B997
 469 0de8 0DFBE0CB 		.ascii	"\015\373\340\313\267i\265\303\016\2112\374>pv>\037\256"
 469      B769B5C3 
 469      0E8932FC 
 469      3E70763E 
 469      1FAE
 470 0dfa 0A661C38 		.ascii	"\012f\0348\027L\353\263\201\250\344\225S\336\201\314"
 470      174CEBB3 
 470      81A8E495 
 470      53DE81CC 
 471 0e0a 73FB059E 		.ascii	"s\373\005\236\273 `&g=\345\364\264\224\344\204\010\234"
 471      BB206026 
 471      673DE5F4 
 471      B494E484 
 471      089C
 472 0e1c DB6F7036 		.ascii	"\333op6P\316xG\371nQ\317\31378\033)\247\270\277o\273"
 472      50CE7847 
 472      F96E51CF 
 472      CB37381B 
 472      29A7B8BF 
 473 0e32 5611E584 		.ascii	"V\021\345\204\"\312MB\224\344\252\373\327\377\374b\356"
 473      22CA4D42 
 473      94E4AAFB 
 473      D7FFFC62 
ARM GAS  C:\Users\gjl\AppData\Local\Temp\ccwaInLh.s 			page 37


 473      EE
 474 0e43 678B1669 		.ascii	"g\213\026i\002\215\306\024\253\315\265\330\350JE\346"
 474      028DC614 
 474      ABCDB5D8 
 474      E84A45E6 
 475 0e53 DFC6D81D 		.ascii	"\337\306\330\035\311\011\016S\322\334xk\242\30597z\331"
 475      C9090E53 
 475      D2DC786B 
 475      A2C53937 
 475      7AD9
 476 0e65 E24FFE21 		.ascii	"\342O\376!\306\274\334\356\2608\2351vg\262y\256\331"
 476      C6BCDCEE 
 476      B0389D31 
 476      7667B279 
 476      AED9
 477 0e77 6131B992 		.ascii	"a1\271\222\0351\277Z\260H\331`M\262';\\1\011\266\224"
 477      1D31BF5A 
 477      B048D960 
 477      4DB2273B 
 477      5C3109B6 
 478 0e8c 18932329 		.ascii	"\030\223#)\346\327\013\010\003\356~iK\266Y~i1\305Zc"
 478      E6D70B08 
 478      03EE7E69 
 478      4BB6597E 
 478      6931C55A 
 479 0ea1 AC367362 		.ascii	"\2546sbJ\234%&\311d^b\265Yb\214q\226xSJ\242\313\350"
 479      4A9C2526 
 479      C9645E62 
 479      B559628C 
 479      71967853 
 480 0eb9 5A6EB738 		.ascii	"Zn\2678\027,\321\004\010\256,\375\377\362\304\271\334"
 480      172CD104 
 480      08AE2CFD 
 480      FFF2C4B9 
 480      DC
 481 0eca 196374BA 		.ascii	"\031ct\272\342\300,\230\017\262[\227Y\022\215\337X\343"
 481      E2C02C98 
 481      0FB25B97 
 481      59128DDF 
 481      58E3
 482 0edc 5C4BF42C 		.ascii	"\\K\364,/\213>1\272t\342\315\354\370D\253=)9\316b\\"
 482      2F8B3E31 
 482      BA74E2CD 
 482      ECF844AB 
 482      3D2939CE 
 483 0ef2 664C8E8F 		.ascii	"fL\216\217wZ\\\263\304\010\304\206 \027\270k\\b\261"
 483      775A5CB3 
 483      C408C486 
 483      2017B86B 
 483      5C62B1
 484 0f05 262C71E9 		.ascii	"&,q\351\351=\325\026\361\215\303\352\262\030\355)\211"
 484      E93DD516 
 484      F18DC3EA 
 484      B218ED29 
 484      89
 485 0f16 4EA1C568 		.ascii	"N\241\305hs\206\305\231\\&#\014J\261\033]\326$\0134"
 485      7386C599 
ARM GAS  C:\Users\gjl\AppData\Local\Temp\ccwaInLh.s 			page 38


 485      5C26230C 
 485      4AB11B5D 
 485      D6240B34 
 486 0f2a 45583F32 		.ascii	"EX?2\033cS\234Fsb\262\371\317\306E\013\027\376\371\337"
 486      1B63539C 
 486      467362B2 
 486      F9CFC645 
 486      0B17FEF9 
 487 0f3f BED539ED 		.ascii	"\276\3259\355V#1kpB\033\353Y\362\255\340\340\307\037"
 487      5623316B 
 487      70421BEB 
 487      59F2ADE0 
 487      E0C71F
 488 0f52 090E929B 		.ascii	"\011\016\222\2330BP\032\231\355\214\233a#\314\236\354"
 488      3042501A 
 488      99ED8C9B 
 488      6123CC9E 
 488      EC
 489 0f63 7419218F 		.ascii	"t\031!\217\026\227\361\033\223\325eLrF0I>2\3119\007"
 489      1697F11B 
 489      93D5654C 
 489      72463049 
 489      3E32C939 
 490 0f78 726D8489 		.ascii	"rm\204\211\262\033\343\254NS,\011\205\260m\320A\024"
 490      B21BE3AC 
 490      4E532C09 
 490      85B06DD0 
 490      4114
 491 0f8a D01E8B4D 		.ascii	"\320\036\213M\336\021\246`'Z\226Z\022g\313i\264eN\312"
 491      DE11A660 
 491      275A965A 
 491      1267CB69 
 491      B4654ECA 
 492 0f9e E265     		.ascii	"\342e"
 493 0fa0 8B09C99E 		.ascii	"\213\011\311\236hZn\264\332\342\223a\002\034)f\227\201"
 493      685A6EB4 
 493      DAE29361 
 493      021C2966 
 493      9781
 494 0fb2 659FE52E 		.ascii	"e\237\345.b\301\202\230\224\305\011\037\305\230\235"
 494      62C18298 
 494      94C5091F 
 494      C5989D
 495 0fc1 0E730C19 		.ascii	"\016s\014\031\002\363\023\376\346PW$k3\332\315\361\213"
 495      02F313FE 
 495      E6505724 
 495      6B33DACD 
 495      F18B
 496 0fd3 172FFAC8 		.ascii	"\027/\372\310\370\233O\226}\362kc\202\305fqX\315!q\226"
 496      F89B4F96 
 496      7DF26B63 
 496      82C56671 
 496      58CD2171 
 497 0fe8 D8E4149B 		.ascii	"\330\344\024\233\331\002&L.\313\337y\305D\023D`\267"
 497      D902264C 
 497      2ECBDF79 
 497      C5441344 
ARM GAS  C:\Users\gjl\AppData\Local\Temp\ccwaInLh.s 			page 39


 497      60B7
 498 0ffa DA58FBCF 		.ascii	"\332X\373\317\274\355"
 498      BCED
 499 1000 E2747ABB 		.ascii	"\342tz\273\202\022\354\326d\222,h\325\247\270\342\027"
 499      8212ECD6 
 499      64922C68 
 499      D5A7B8E2 
 499      17
 500 1011 B36650BC 		.ascii	"\263fP\274\324\012|S\\\034Y\220Ad\332\240\303\341\262"
 500      D40A7C53 
 500      5C1C5990 
 500      4164DAA0 
 500      C3E1B2
 501 1024 C4D17BA1 		.ascii	"\304\321{\241=\302\3524\306'\333\\\340\353R\213\003"
 501      3DC2EA34 
 501      C627DB5C 
 501      E0EB528B 
 501      03
 502 1035 724B6651 		.ascii	"rKfQ'\256\025\235\305fN\206\245\227\240%\234\331\324"
 502      27AE159D 
 502      C5664E86 
 502      A597A025 
 502      9CD9D4
 503 1048 92C91607 		.ascii	"\222\311\026\007N\220\360\314\261A4\264$g\002\334\007"
 503      4E90F0CC 
 503      B14134B4 
 503      246702DC 
 503      07
 504 1059 C42E87F5 		.ascii	"\304.\207\365c\216\3657\233\342\340\242\027\223\000"
 504      638EF537 
 504      9BE2E0A2 
 504      179300
 505 1068 3D36CB32 		.ascii	"=6\3132\230\215X\003e\233\227\230\034D\220'\211\351"
 505      988D5803 
 505      659B9798 
 505      1C449027 
 505      89E9
 506 107a 61490EF7 		.ascii	"aI\016\367\206\312b\"\352\375i\277\353\2357R.\245u\201"
 506      86CA6222 
 506      EAFD69BF 
 506      EB9D3752 
 506      2EA57581 
 507 108e 5913A196 		.ascii	"Y\023\241\226h\326H|\372g[\334\037\035&\2333\336\342"
 507      68D6487C 
 507      FA675BDC 
 507      1F1D269B 
 507      33DEE2
 508 10a1 D0D992AD 		.ascii	"\320\331\222\255\266D\330\340\263\275\275\237[lq\377"
 508      B644D8E0 
 508      B3BDBD9F 
 508      5B6C71FF 
 509 10b1 04AB7D96 		.ascii	"\004\253}\226\242\345\263\244\270\267\245\006\222>Q"
 509      A2E5B3A4 
 509      B8B7A506 
 509      923E51
 510 10c0 8592F77B 		.ascii	"\205\222\367{G\302[\212\206\317-_\247@\362,?\023|Zb"
 510      47C25B8A 
ARM GAS  C:\Users\gjl\AppData\Local\Temp\ccwaInLh.s 			page 40


 510      86CF2D5F 
 510      A740F22C 
 510      3F137C5A 
 511 10d5 49B45B1C 		.ascii	"I\264[\034\262\225au\275\247\336\305vB\222%)\331\261"
 511      B2956175 
 511      BDA7DEC5 
 511      76429225 
 511      29D9B1
 512 10e8 FC7DD5A5 		.ascii	"\374}\325\245cO\376\006\246\312\264\324\262\010\310"
 512      634FFE06 
 512      A6CAB4D4 
 512      B208C8
 513 10f7 5FFF0467 		.ascii	"_\377\004g!\341\374\\\225C\234 \275\357\322^e\237|v"
 513      21E1FC5C 
 513      95439C20 
 513      BDEFD25E 
 513      659F7C76 
 514 110b FC96813A 		.ascii	"\374\226\201:'6\333\\:z^\330]B\364Tb\263\346\267\234"
 514      2736DB5C 
 514      3A7A5ED8 
 514      5D42F454 
 514      62B3E6B7 
 515 1120 7082A466 		.ascii	"p\202\244f\327_\001\257\035>\317"
 515      D75F01AF 
 515      1D3ECF
 516              		.text
 517              		.section	.gnu.lto_.symtab.50a22965,"",%progbits
 518 0000 75387838 		.ascii	"u8x8_d_pcf8812_96x65\000"
 518      5F645F70 
 518      63663838 
 518      31325F39 
 518      36783635 
 519 0015 00       		.ascii	"\000"
 520 0016 00       		.ascii	"\000"
 521 0017 00       		.ascii	"\000"
 522 0018 00000000 		.ascii	"\000\000\000\000\000\000\000\000"
 522      00000000 
 523 0020 53010000 		.ascii	"S\001\000\000"
 524 0024 75387838 		.ascii	"u8x8_cad_EndTransfer\000"
 524      5F636164 
 524      5F456E64 
 524      5472616E 
 524      73666572 
 525 0039 00       		.ascii	"\000"
 526 003a 02       		.ascii	"\002"
 527 003b 00       		.ascii	"\000"
 528 003c 00000000 		.ascii	"\000\000\000\000\000\000\000\000"
 528      00000000 
 529 0044 59010000 		.ascii	"Y\001\000\000"
 530 0048 75387838 		.ascii	"u8x8_cad_SendData\000"
 530      5F636164 
 530      5F53656E 
 530      64446174 
 530      6100
 531 005a 00       		.ascii	"\000"
 532 005b 02       		.ascii	"\002"
 533 005c 00       		.ascii	"\000"
ARM GAS  C:\Users\gjl\AppData\Local\Temp\ccwaInLh.s 			page 41


 534 005d 00000000 		.ascii	"\000\000\000\000\000\000\000\000"
 534      00000000 
 535 0065 61010000 		.ascii	"a\001\000\000"
 536 0069 75387838 		.ascii	"u8x8_cad_SendCmd\000"
 536      5F636164 
 536      5F53656E 
 536      64436D64 
 536      00
 537 007a 00       		.ascii	"\000"
 538 007b 02       		.ascii	"\002"
 539 007c 00       		.ascii	"\000"
 540 007d 00000000 		.ascii	"\000\000\000\000\000\000\000\000"
 540      00000000 
 541 0085 67010000 		.ascii	"g\001\000\000"
 542 0089 75387838 		.ascii	"u8x8_cad_StartTransfer\000"
 542      5F636164 
 542      5F537461 
 542      72745472 
 542      616E7366 
 543 00a0 00       		.ascii	"\000"
 544 00a1 02       		.ascii	"\002"
 545 00a2 00       		.ascii	"\000"
 546 00a3 00000000 		.ascii	"\000\000\000\000\000\000\000\000"
 546      00000000 
 547 00ab 6A010000 		.ascii	"j\001\000\000"
 548 00af 75387838 		.ascii	"u8x8_cad_SendArg\000"
 548      5F636164 
 548      5F53656E 
 548      64417267 
 548      00
 549 00c0 00       		.ascii	"\000"
 550 00c1 02       		.ascii	"\002"
 551 00c2 00       		.ascii	"\000"
 552 00c3 00000000 		.ascii	"\000\000\000\000\000\000\000\000"
 552      00000000 
 553 00cb 6D010000 		.ascii	"m\001\000\000"
 554 00cf 75387838 		.ascii	"u8x8_cad_SendSequence\000"
 554      5F636164 
 554      5F53656E 
 554      64536571 
 554      75656E63 
 555 00e5 00       		.ascii	"\000"
 556 00e6 02       		.ascii	"\002"
 557 00e7 00       		.ascii	"\000"
 558 00e8 00000000 		.ascii	"\000\000\000\000\000\000\000\000"
 558      00000000 
 559 00f0 72010000 		.ascii	"r\001\000\000"
 560 00f4 75387838 		.ascii	"u8x8_d_helper_display_init\000"
 560      5F645F68 
 560      656C7065 
 560      725F6469 
 560      73706C61 
 561 010f 00       		.ascii	"\000"
 562 0110 02       		.ascii	"\002"
 563 0111 00       		.ascii	"\000"
 564 0112 00000000 		.ascii	"\000\000\000\000\000\000\000\000"
 564      00000000 
ARM GAS  C:\Users\gjl\AppData\Local\Temp\ccwaInLh.s 			page 42


 565 011a 76010000 		.ascii	"v\001\000\000"
 566 011e 75387838 		.ascii	"u8x8_d_helper_display_setup_memory\000"
 566      5F645F68 
 566      656C7065 
 566      725F6469 
 566      73706C61 
 567 0141 00       		.ascii	"\000"
 568 0142 02       		.ascii	"\002"
 569 0143 00       		.ascii	"\000"
 570 0144 00000000 		.ascii	"\000\000\000\000\000\000\000\000"
 570      00000000 
 571 014c 7B010000 		.ascii	"{\001\000\000"
 572              		.text
 573              		.section	.gnu.lto_.opts,"",%progbits
 574 0000 272D666D 		.ascii	"'-fmath-errno' '-fsigned-zeros' '-ftrapping-math' '"
 574      6174682D 
 574      6572726E 
 574      6F272027 
 574      2D667369 
 575 0033 2D666E6F 		.ascii	"-fno-trapv' '-fno-openmp' '-fno-openacc' '-mcpu=cor"
 575      2D747261 
 575      70762720 
 575      272D666E 
 575      6F2D6F70 
 576 0066 7465782D 		.ascii	"tex-m0' '-mthumb' '-g' '-Os' '-ffunction-sections' "
 576      6D302720 
 576      272D6D74 
 576      68756D62 
 576      2720272D 
 577 0099 272D6666 		.ascii	"'-ffat-lto-objects' '-flto'\000"
 577      61742D6C 
 577      746F2D6F 
 577      626A6563 
 577      74732720 
 578              		.text
 579              		.cfi_sections	.debug_frame
 580              		.section	.text.u8x8_d_pcf8812_96x65,"ax",%progbits
 581              		.align	1
 582              		.global	u8x8_d_pcf8812_96x65
 583              		.code	16
 584              		.thumb_func
 585              		.type	u8x8_d_pcf8812_96x65, %function
 586              	u8x8_d_pcf8812_96x65:
 587              	.LFB1:
 588              		.file 1 "..\\u8g2\\csrc\\u8x8_d_pcf8812.c"
   1:..\u8g2\csrc/u8x8_d_pcf8812.c **** /*
   2:..\u8g2\csrc/u8x8_d_pcf8812.c **** 
   3:..\u8g2\csrc/u8x8_d_pcf8812.c ****   u8x8_d_pcf8812.c
   4:..\u8g2\csrc/u8x8_d_pcf8812.c ****   
   5:..\u8g2\csrc/u8x8_d_pcf8812.c ****   pcf8812: 65x102
   6:..\u8g2\csrc/u8x8_d_pcf8812.c ****   pcf8814: 65x96
   7:..\u8g2\csrc/u8x8_d_pcf8812.c **** 
   8:..\u8g2\csrc/u8x8_d_pcf8812.c ****   Universal 8bit Graphics Library (https://github.com/olikraus/u8g2/)
   9:..\u8g2\csrc/u8x8_d_pcf8812.c **** 
  10:..\u8g2\csrc/u8x8_d_pcf8812.c ****   Copyright (c) 2017, olikraus@gmail.com
  11:..\u8g2\csrc/u8x8_d_pcf8812.c ****   All rights reserved.
  12:..\u8g2\csrc/u8x8_d_pcf8812.c **** 
ARM GAS  C:\Users\gjl\AppData\Local\Temp\ccwaInLh.s 			page 43


  13:..\u8g2\csrc/u8x8_d_pcf8812.c ****   Redistribution and use in source and binary forms, with or without modification, 
  14:..\u8g2\csrc/u8x8_d_pcf8812.c ****   are permitted provided that the following conditions are met:
  15:..\u8g2\csrc/u8x8_d_pcf8812.c **** 
  16:..\u8g2\csrc/u8x8_d_pcf8812.c ****   * Redistributions of source code must retain the above copyright notice, this list 
  17:..\u8g2\csrc/u8x8_d_pcf8812.c ****     of conditions and the following disclaimer.
  18:..\u8g2\csrc/u8x8_d_pcf8812.c ****     
  19:..\u8g2\csrc/u8x8_d_pcf8812.c ****   * Redistributions in binary form must reproduce the above copyright notice, this 
  20:..\u8g2\csrc/u8x8_d_pcf8812.c ****     list of conditions and the following disclaimer in the documentation and/or other 
  21:..\u8g2\csrc/u8x8_d_pcf8812.c ****     materials provided with the distribution.
  22:..\u8g2\csrc/u8x8_d_pcf8812.c **** 
  23:..\u8g2\csrc/u8x8_d_pcf8812.c ****   THIS SOFTWARE IS PROVIDED BY THE COPYRIGHT HOLDERS AND 
  24:..\u8g2\csrc/u8x8_d_pcf8812.c ****   CONTRIBUTORS "AS IS" AND ANY EXPRESS OR IMPLIED WARRANTIES, 
  25:..\u8g2\csrc/u8x8_d_pcf8812.c ****   INCLUDING, BUT NOT LIMITED TO, THE IMPLIED WARRANTIES OF 
  26:..\u8g2\csrc/u8x8_d_pcf8812.c ****   MERCHANTABILITY AND FITNESS FOR A PARTICULAR PURPOSE ARE 
  27:..\u8g2\csrc/u8x8_d_pcf8812.c ****   DISCLAIMED. IN NO EVENT SHALL THE COPYRIGHT HOLDER OR 
  28:..\u8g2\csrc/u8x8_d_pcf8812.c ****   CONTRIBUTORS BE LIABLE FOR ANY DIRECT, INDIRECT, INCIDENTAL, 
  29:..\u8g2\csrc/u8x8_d_pcf8812.c ****   SPECIAL, EXEMPLARY, OR CONSEQUENTIAL DAMAGES (INCLUDING, BUT 
  30:..\u8g2\csrc/u8x8_d_pcf8812.c ****   NOT LIMITED TO, PROCUREMENT OF SUBSTITUTE GOODS OR SERVICES; 
  31:..\u8g2\csrc/u8x8_d_pcf8812.c ****   LOSS OF USE, DATA, OR PROFITS; OR BUSINESS INTERRUPTION) HOWEVER 
  32:..\u8g2\csrc/u8x8_d_pcf8812.c ****   CAUSED AND ON ANY THEORY OF LIABILITY, WHETHER IN CONTRACT, 
  33:..\u8g2\csrc/u8x8_d_pcf8812.c ****   STRICT LIABILITY, OR TORT (INCLUDING NEGLIGENCE OR OTHERWISE) 
  34:..\u8g2\csrc/u8x8_d_pcf8812.c ****   ARISING IN ANY WAY OUT OF THE USE OF THIS SOFTWARE, EVEN IF 
  35:..\u8g2\csrc/u8x8_d_pcf8812.c ****   ADVISED OF THE POSSIBILITY OF SUCH DAMAGE.  
  36:..\u8g2\csrc/u8x8_d_pcf8812.c ****   
  37:..\u8g2\csrc/u8x8_d_pcf8812.c **** */
  38:..\u8g2\csrc/u8x8_d_pcf8812.c **** 
  39:..\u8g2\csrc/u8x8_d_pcf8812.c **** 
  40:..\u8g2\csrc/u8x8_d_pcf8812.c **** #include "u8x8.h"
  41:..\u8g2\csrc/u8x8_d_pcf8812.c **** 
  42:..\u8g2\csrc/u8x8_d_pcf8812.c **** 
  43:..\u8g2\csrc/u8x8_d_pcf8812.c **** 
  44:..\u8g2\csrc/u8x8_d_pcf8812.c **** static const uint8_t u8x8_d_pcf8812_96x65_init_seq[] = {
  45:..\u8g2\csrc/u8x8_d_pcf8812.c ****     
  46:..\u8g2\csrc/u8x8_d_pcf8812.c ****   U8X8_START_TRANSFER(),             	/* enable chip, delay is part of the transfer start */
  47:..\u8g2\csrc/u8x8_d_pcf8812.c ****   
  48:..\u8g2\csrc/u8x8_d_pcf8812.c ****   U8X8_C(0x020),		                /* activate chip (PD=0), horizontal increment (V=0), enter normal
  49:..\u8g2\csrc/u8x8_d_pcf8812.c ****   U8X8_C(0x008),		                /* blank display */
  50:..\u8g2\csrc/u8x8_d_pcf8812.c ****   
  51:..\u8g2\csrc/u8x8_d_pcf8812.c ****   U8X8_C(0x021),		                /* activate chip (PD=0), horizontal increment (V=0), enter extend
  52:..\u8g2\csrc/u8x8_d_pcf8812.c ****   U8X8_C(0x006),		                /* temp. control: b10 = 2 */
  53:..\u8g2\csrc/u8x8_d_pcf8812.c ****   U8X8_C(0x013),		                /* bias system, 0x010..0x07 1:48 */
  54:..\u8g2\csrc/u8x8_d_pcf8812.c ****   U8X8_C(0x09f),				/* contrast setting, 0..127 */
  55:..\u8g2\csrc/u8x8_d_pcf8812.c ****   //U8X8_CA(0x020 | 2, 0x080 | 0),				/* contrast setting, pcf8814 */
  56:..\u8g2\csrc/u8x8_d_pcf8812.c **** 
  57:..\u8g2\csrc/u8x8_d_pcf8812.c ****   U8X8_C(0x024),		                /* deactivate chip (PD=1), horizontal increment (V=0), enter norm
  58:..\u8g2\csrc/u8x8_d_pcf8812.c ****     
  59:..\u8g2\csrc/u8x8_d_pcf8812.c ****   U8X8_END_TRANSFER(),             	/* disable chip */
  60:..\u8g2\csrc/u8x8_d_pcf8812.c ****   U8X8_END()             			/* end of sequence */
  61:..\u8g2\csrc/u8x8_d_pcf8812.c **** };
  62:..\u8g2\csrc/u8x8_d_pcf8812.c **** 
  63:..\u8g2\csrc/u8x8_d_pcf8812.c **** static const uint8_t u8x8_d_pcf8812_96x65_powersave0_seq[] = {
  64:..\u8g2\csrc/u8x8_d_pcf8812.c ****   U8X8_START_TRANSFER(),             	/* enable chip, delay is part of the transfer start */
  65:..\u8g2\csrc/u8x8_d_pcf8812.c ****   U8X8_C(0x020),		                /* power on */
  66:..\u8g2\csrc/u8x8_d_pcf8812.c ****   U8X8_C(0x00c),		                /* display on */
  67:..\u8g2\csrc/u8x8_d_pcf8812.c ****   U8X8_END_TRANSFER(),             	/* disable chip */
  68:..\u8g2\csrc/u8x8_d_pcf8812.c ****   U8X8_END()             			/* end of sequence */
  69:..\u8g2\csrc/u8x8_d_pcf8812.c **** };
ARM GAS  C:\Users\gjl\AppData\Local\Temp\ccwaInLh.s 			page 44


  70:..\u8g2\csrc/u8x8_d_pcf8812.c **** 
  71:..\u8g2\csrc/u8x8_d_pcf8812.c **** static const uint8_t u8x8_d_pcf8812_96x65_powersave1_seq[] = {
  72:..\u8g2\csrc/u8x8_d_pcf8812.c ****   U8X8_START_TRANSFER(),             	/* enable chip, delay is part of the transfer start */
  73:..\u8g2\csrc/u8x8_d_pcf8812.c ****   U8X8_C(0x020),		                /* power on */
  74:..\u8g2\csrc/u8x8_d_pcf8812.c ****   U8X8_C(0x008),		                /* blank display */
  75:..\u8g2\csrc/u8x8_d_pcf8812.c ****   U8X8_C(0x024),		                /* power down */
  76:..\u8g2\csrc/u8x8_d_pcf8812.c ****   U8X8_END_TRANSFER(),             	/* disable chip */
  77:..\u8g2\csrc/u8x8_d_pcf8812.c ****   U8X8_END()             			/* end of sequence */
  78:..\u8g2\csrc/u8x8_d_pcf8812.c **** };
  79:..\u8g2\csrc/u8x8_d_pcf8812.c **** 
  80:..\u8g2\csrc/u8x8_d_pcf8812.c **** 
  81:..\u8g2\csrc/u8x8_d_pcf8812.c **** static uint8_t u8x8_d_pcf8812_96x65_generic(u8x8_t *u8x8, uint8_t msg, uint8_t arg_int, void *arg_p
  82:..\u8g2\csrc/u8x8_d_pcf8812.c **** {
  83:..\u8g2\csrc/u8x8_d_pcf8812.c ****   uint8_t x, c;
  84:..\u8g2\csrc/u8x8_d_pcf8812.c ****   uint8_t *ptr;
  85:..\u8g2\csrc/u8x8_d_pcf8812.c ****   switch(msg)
  86:..\u8g2\csrc/u8x8_d_pcf8812.c ****   {
  87:..\u8g2\csrc/u8x8_d_pcf8812.c ****     /* handled by the calling function
  88:..\u8g2\csrc/u8x8_d_pcf8812.c ****     case U8X8_MSG_DISPLAY_SETUP_MEMORY:
  89:..\u8g2\csrc/u8x8_d_pcf8812.c ****       u8x8_d_helper_display_setup_memory(u8x8, &u8x8_pcf8812_96x65_display_info);
  90:..\u8g2\csrc/u8x8_d_pcf8812.c ****       break;
  91:..\u8g2\csrc/u8x8_d_pcf8812.c ****     */
  92:..\u8g2\csrc/u8x8_d_pcf8812.c ****     case U8X8_MSG_DISPLAY_INIT:
  93:..\u8g2\csrc/u8x8_d_pcf8812.c ****       u8x8_d_helper_display_init(u8x8);
  94:..\u8g2\csrc/u8x8_d_pcf8812.c ****       u8x8_cad_SendSequence(u8x8, u8x8_d_pcf8812_96x65_init_seq);    
  95:..\u8g2\csrc/u8x8_d_pcf8812.c ****       break;
  96:..\u8g2\csrc/u8x8_d_pcf8812.c ****     case U8X8_MSG_DISPLAY_SET_POWER_SAVE:
  97:..\u8g2\csrc/u8x8_d_pcf8812.c ****       if ( arg_int == 0 )
  98:..\u8g2\csrc/u8x8_d_pcf8812.c **** 	u8x8_cad_SendSequence(u8x8, u8x8_d_pcf8812_96x65_powersave0_seq);
  99:..\u8g2\csrc/u8x8_d_pcf8812.c ****       else
 100:..\u8g2\csrc/u8x8_d_pcf8812.c **** 	u8x8_cad_SendSequence(u8x8, u8x8_d_pcf8812_96x65_powersave1_seq);
 101:..\u8g2\csrc/u8x8_d_pcf8812.c ****       break;
 102:..\u8g2\csrc/u8x8_d_pcf8812.c **** /*
 103:..\u8g2\csrc/u8x8_d_pcf8812.c ****     case U8X8_MSG_DISPLAY_SET_FLIP_MODE:
 104:..\u8g2\csrc/u8x8_d_pcf8812.c ****       if ( arg_int == 0 )
 105:..\u8g2\csrc/u8x8_d_pcf8812.c ****       {
 106:..\u8g2\csrc/u8x8_d_pcf8812.c **** 	u8x8_cad_SendSequence(u8x8, u8x8_d_pcf8812_96x65_flip0_seq);
 107:..\u8g2\csrc/u8x8_d_pcf8812.c **** 	u8x8->x_offset = u8x8->display_info->default_x_offset;
 108:..\u8g2\csrc/u8x8_d_pcf8812.c ****       }
 109:..\u8g2\csrc/u8x8_d_pcf8812.c ****       else
 110:..\u8g2\csrc/u8x8_d_pcf8812.c ****       {
 111:..\u8g2\csrc/u8x8_d_pcf8812.c **** 	u8x8_cad_SendSequence(u8x8, u8x8_d_pcf8812_96x65_flip1_seq);
 112:..\u8g2\csrc/u8x8_d_pcf8812.c **** 	u8x8->x_offset = u8x8->display_info->flipmode_x_offset;
 113:..\u8g2\csrc/u8x8_d_pcf8812.c ****       }
 114:..\u8g2\csrc/u8x8_d_pcf8812.c ****       break;
 115:..\u8g2\csrc/u8x8_d_pcf8812.c **** */
 116:..\u8g2\csrc/u8x8_d_pcf8812.c **** #ifdef U8X8_WITH_SET_CONTRAST
 117:..\u8g2\csrc/u8x8_d_pcf8812.c ****     case U8X8_MSG_DISPLAY_SET_CONTRAST:
 118:..\u8g2\csrc/u8x8_d_pcf8812.c ****       u8x8_cad_StartTransfer(u8x8);
 119:..\u8g2\csrc/u8x8_d_pcf8812.c ****       u8x8_cad_SendCmd(u8x8, 0x021 );    /* command mode, extended function set */
 120:..\u8g2\csrc/u8x8_d_pcf8812.c ****       u8x8_cad_SendArg(u8x8, (arg_int>>1)|0x80 );	/* 0..127 for contrast */
 121:..\u8g2\csrc/u8x8_d_pcf8812.c ****       u8x8_cad_EndTransfer(u8x8);
 122:..\u8g2\csrc/u8x8_d_pcf8812.c ****       break;
 123:..\u8g2\csrc/u8x8_d_pcf8812.c **** #endif
 124:..\u8g2\csrc/u8x8_d_pcf8812.c ****     case U8X8_MSG_DISPLAY_DRAW_TILE:
 125:..\u8g2\csrc/u8x8_d_pcf8812.c ****       u8x8_cad_StartTransfer(u8x8);
 126:..\u8g2\csrc/u8x8_d_pcf8812.c ****       x = ((u8x8_tile_t *)arg_ptr)->x_pos;    
ARM GAS  C:\Users\gjl\AppData\Local\Temp\ccwaInLh.s 			page 45


 127:..\u8g2\csrc/u8x8_d_pcf8812.c ****       x *= 8;
 128:..\u8g2\csrc/u8x8_d_pcf8812.c ****       x += u8x8->x_offset;
 129:..\u8g2\csrc/u8x8_d_pcf8812.c ****     
 130:..\u8g2\csrc/u8x8_d_pcf8812.c ****       u8x8_cad_SendCmd(u8x8, 0x020 );	/* activate chip (PD=0), horizontal increment (V=0), enter no
 131:..\u8g2\csrc/u8x8_d_pcf8812.c ****       u8x8_cad_SendCmd(u8x8, 0x080 | x);
 132:..\u8g2\csrc/u8x8_d_pcf8812.c ****       u8x8_cad_SendCmd(u8x8, 0x040 | ((u8x8_tile_t *)arg_ptr)->y_pos);
 133:..\u8g2\csrc/u8x8_d_pcf8812.c ****       
 134:..\u8g2\csrc/u8x8_d_pcf8812.c ****       do
 135:..\u8g2\csrc/u8x8_d_pcf8812.c ****       {
 136:..\u8g2\csrc/u8x8_d_pcf8812.c **** 	c = ((u8x8_tile_t *)arg_ptr)->cnt;
 137:..\u8g2\csrc/u8x8_d_pcf8812.c **** 	ptr = ((u8x8_tile_t *)arg_ptr)->tile_ptr;
 138:..\u8g2\csrc/u8x8_d_pcf8812.c **** 	u8x8_cad_SendData(u8x8, c*8, ptr); 	/* note: SendData can not handle more than 255 bytes */
 139:..\u8g2\csrc/u8x8_d_pcf8812.c **** 	/*
 140:..\u8g2\csrc/u8x8_d_pcf8812.c **** 	do
 141:..\u8g2\csrc/u8x8_d_pcf8812.c **** 	{
 142:..\u8g2\csrc/u8x8_d_pcf8812.c **** 	  u8x8_cad_SendData(u8x8, 8, ptr);
 143:..\u8g2\csrc/u8x8_d_pcf8812.c **** 	  ptr += 8;
 144:..\u8g2\csrc/u8x8_d_pcf8812.c **** 	  c--;
 145:..\u8g2\csrc/u8x8_d_pcf8812.c **** 	} while( c > 0 );
 146:..\u8g2\csrc/u8x8_d_pcf8812.c **** 	*/
 147:..\u8g2\csrc/u8x8_d_pcf8812.c **** 	arg_int--;
 148:..\u8g2\csrc/u8x8_d_pcf8812.c ****       } while( arg_int > 0 );
 149:..\u8g2\csrc/u8x8_d_pcf8812.c ****       
 150:..\u8g2\csrc/u8x8_d_pcf8812.c ****       u8x8_cad_EndTransfer(u8x8);
 151:..\u8g2\csrc/u8x8_d_pcf8812.c ****       break;
 152:..\u8g2\csrc/u8x8_d_pcf8812.c ****     default:
 153:..\u8g2\csrc/u8x8_d_pcf8812.c ****       return 0;
 154:..\u8g2\csrc/u8x8_d_pcf8812.c ****   }
 155:..\u8g2\csrc/u8x8_d_pcf8812.c ****   return 1;
 156:..\u8g2\csrc/u8x8_d_pcf8812.c **** }
 157:..\u8g2\csrc/u8x8_d_pcf8812.c **** 
 158:..\u8g2\csrc/u8x8_d_pcf8812.c **** 
 159:..\u8g2\csrc/u8x8_d_pcf8812.c **** static const u8x8_display_info_t u8x8_pcf8812_96x65_display_info =
 160:..\u8g2\csrc/u8x8_d_pcf8812.c **** {
 161:..\u8g2\csrc/u8x8_d_pcf8812.c ****   /* chip_enable_level = */ 0,
 162:..\u8g2\csrc/u8x8_d_pcf8812.c ****   /* chip_disable_level = */ 1,
 163:..\u8g2\csrc/u8x8_d_pcf8812.c ****   
 164:..\u8g2\csrc/u8x8_d_pcf8812.c ****   /* post_chip_enable_wait_ns = */ 100,
 165:..\u8g2\csrc/u8x8_d_pcf8812.c ****   /* pre_chip_disable_wait_ns = */ 100,
 166:..\u8g2\csrc/u8x8_d_pcf8812.c ****   /* reset_pulse_width_ms = */ 100, 
 167:..\u8g2\csrc/u8x8_d_pcf8812.c ****   /* post_reset_wait_ms = */ 100, 
 168:..\u8g2\csrc/u8x8_d_pcf8812.c ****   /* sda_setup_time_ns = */ 100,	
 169:..\u8g2\csrc/u8x8_d_pcf8812.c ****   /* sck_pulse_width_ns = */ 100,	
 170:..\u8g2\csrc/u8x8_d_pcf8812.c ****   /* sck_clock_hz = */ 4000000UL,	/* since Arduino 1.6.0, the SPI bus speed in Hz. Should be  10000
 171:..\u8g2\csrc/u8x8_d_pcf8812.c ****   /* spi_mode = */ 0,		/* active high, rising edge */
 172:..\u8g2\csrc/u8x8_d_pcf8812.c ****   /* i2c_bus_clock_100kHz = */ 4,
 173:..\u8g2\csrc/u8x8_d_pcf8812.c ****   /* data_setup_time_ns = */ 40,
 174:..\u8g2\csrc/u8x8_d_pcf8812.c ****   /* write_pulse_width_ns = */ 150,	
 175:..\u8g2\csrc/u8x8_d_pcf8812.c ****   /* tile_width = */ 12,
 176:..\u8g2\csrc/u8x8_d_pcf8812.c ****   /* tile_hight = */ 9,
 177:..\u8g2\csrc/u8x8_d_pcf8812.c ****   /* default_x_offset = */ 0,
 178:..\u8g2\csrc/u8x8_d_pcf8812.c ****   /* flipmode_x_offset = */ 0,
 179:..\u8g2\csrc/u8x8_d_pcf8812.c ****   /* pixel_width = */ 96,
 180:..\u8g2\csrc/u8x8_d_pcf8812.c ****   /* pixel_height = */ 65
 181:..\u8g2\csrc/u8x8_d_pcf8812.c **** };
 182:..\u8g2\csrc/u8x8_d_pcf8812.c **** 
 183:..\u8g2\csrc/u8x8_d_pcf8812.c **** uint8_t u8x8_d_pcf8812_96x65(u8x8_t *u8x8, uint8_t msg, uint8_t arg_int, void *arg_ptr)
ARM GAS  C:\Users\gjl\AppData\Local\Temp\ccwaInLh.s 			page 46


 184:..\u8g2\csrc/u8x8_d_pcf8812.c **** {
 589              		.loc 1 184 0
 590              		.cfi_startproc
 591              		@ args = 0, pretend = 0, frame = 0
 592              		@ frame_needed = 0, uses_anonymous_args = 0
 593              	.LVL0:
 594 0000 F8B5     		push	{r3, r4, r5, r6, r7, lr}
 595              		.cfi_def_cfa_offset 24
 596              		.cfi_offset 3, -24
 597              		.cfi_offset 4, -20
 598              		.cfi_offset 5, -16
 599              		.cfi_offset 6, -12
 600              		.cfi_offset 7, -8
 601              		.cfi_offset 14, -4
 602              		.loc 1 184 0
 603 0002 0400     		movs	r4, r0
 604 0004 1500     		movs	r5, r2
 605 0006 1E00     		movs	r6, r3
 185:..\u8g2\csrc/u8x8_d_pcf8812.c ****     if ( msg == U8X8_MSG_DISPLAY_SETUP_MEMORY )
 606              		.loc 1 185 0
 607 0008 0929     		cmp	r1, #9
 608 000a 03D1     		bne	.L2
 186:..\u8g2\csrc/u8x8_d_pcf8812.c ****     {
 187:..\u8g2\csrc/u8x8_d_pcf8812.c ****       u8x8_d_helper_display_setup_memory(u8x8, &u8x8_pcf8812_96x65_display_info);
 609              		.loc 1 187 0
 610 000c 2949     		ldr	r1, .L17
 611              	.LVL1:
 612 000e FFF7FEFF 		bl	u8x8_d_helper_display_setup_memory
 613              	.LVL2:
 614 0012 4BE0     		b	.L14
 615              	.LVL3:
 616              	.L2:
 617              	.LBB4:
 618              	.LBB5:
  85:..\u8g2\csrc/u8x8_d_pcf8812.c ****   {
 619              		.loc 1 85 0
 620 0014 0A39     		subs	r1, r1, #10
 621              	.LVL4:
 622 0016 0800     		movs	r0, r1
 623              	.LVL5:
 624 0018 0529     		cmp	r1, #5
 625 001a 49D8     		bhi	.L11
 626 001c FFF7FEFF 		bl	__gnu_thumb1_case_uqi
 627              	.L5:
 628 0020 03       		.byte	(.L4-.L5)/2
 629 0021 09       		.byte	(.L6-.L5)/2
 630 0022 48       		.byte	(.L11-.L5)/2
 631 0023 48       		.byte	(.L11-.L5)/2
 632 0024 13       		.byte	(.L7-.L5)/2
 633 0025 21       		.byte	(.L8-.L5)/2
 634              		.p2align 1
 635              	.L4:
  93:..\u8g2\csrc/u8x8_d_pcf8812.c ****       u8x8_cad_SendSequence(u8x8, u8x8_d_pcf8812_96x65_init_seq);    
 636              		.loc 1 93 0
 637 0026 2000     		movs	r0, r4
 638 0028 FFF7FEFF 		bl	u8x8_d_helper_display_init
 639              	.LVL6:
ARM GAS  C:\Users\gjl\AppData\Local\Temp\ccwaInLh.s 			page 47


  94:..\u8g2\csrc/u8x8_d_pcf8812.c ****       break;
 640              		.loc 1 94 0
 641 002c 2149     		ldr	r1, .L17
 642 002e 1831     		adds	r1, r1, #24
 643 0030 05E0     		b	.L15
 644              	.LVL7:
 645              	.L6:
 646 0032 2049     		ldr	r1, .L17
  97:..\u8g2\csrc/u8x8_d_pcf8812.c **** 	u8x8_cad_SendSequence(u8x8, u8x8_d_pcf8812_96x65_powersave0_seq);
 647              		.loc 1 97 0
 648 0034 002A     		cmp	r2, #0
 649 0036 01D1     		bne	.L9
  98:..\u8g2\csrc/u8x8_d_pcf8812.c ****       else
 650              		.loc 1 98 0
 651 0038 2931     		adds	r1, r1, #41
 652 003a 00E0     		b	.L15
 653              	.L9:
 100:..\u8g2\csrc/u8x8_d_pcf8812.c ****       break;
 654              		.loc 1 100 0
 655 003c 3031     		adds	r1, r1, #48
 656              	.LVL8:
 657              	.L15:
 658 003e 2000     		movs	r0, r4
 659 0040 FFF7FEFF 		bl	u8x8_cad_SendSequence
 660              	.LVL9:
 661 0044 32E0     		b	.L14
 662              	.LVL10:
 663              	.L7:
 118:..\u8g2\csrc/u8x8_d_pcf8812.c ****       u8x8_cad_SendCmd(u8x8, 0x021 );    /* command mode, extended function set */
 664              		.loc 1 118 0
 665 0046 2000     		movs	r0, r4
 666 0048 FFF7FEFF 		bl	u8x8_cad_StartTransfer
 667              	.LVL11:
 119:..\u8g2\csrc/u8x8_d_pcf8812.c ****       u8x8_cad_SendArg(u8x8, (arg_int>>1)|0x80 );	/* 0..127 for contrast */
 668              		.loc 1 119 0
 669 004c 2121     		movs	r1, #33
 670 004e 2000     		movs	r0, r4
 671 0050 FFF7FEFF 		bl	u8x8_cad_SendCmd
 672              	.LVL12:
 120:..\u8g2\csrc/u8x8_d_pcf8812.c ****       u8x8_cad_EndTransfer(u8x8);
 673              		.loc 1 120 0
 674 0054 8023     		movs	r3, #128
 675 0056 6908     		lsrs	r1, r5, #1
 676 0058 1943     		orrs	r1, r3
 677 005a 2000     		movs	r0, r4
 678 005c FFF7FEFF 		bl	u8x8_cad_SendArg
 679              	.LVL13:
 680 0060 21E0     		b	.L13
 681              	.LVL14:
 682              	.L8:
 125:..\u8g2\csrc/u8x8_d_pcf8812.c ****       x = ((u8x8_tile_t *)arg_ptr)->x_pos;    
 683              		.loc 1 125 0
 684 0062 2000     		movs	r0, r4
 685 0064 FFF7FEFF 		bl	u8x8_cad_StartTransfer
 686              	.LVL15:
 126:..\u8g2\csrc/u8x8_d_pcf8812.c ****       x *= 8;
 687              		.loc 1 126 0
ARM GAS  C:\Users\gjl\AppData\Local\Temp\ccwaInLh.s 			page 48


 688 0068 7779     		ldrb	r7, [r6, #5]
 689              	.LVL16:
 128:..\u8g2\csrc/u8x8_d_pcf8812.c ****     
 690              		.loc 1 128 0
 691 006a A37F     		ldrb	r3, [r4, #30]
 130:..\u8g2\csrc/u8x8_d_pcf8812.c ****       u8x8_cad_SendCmd(u8x8, 0x080 | x);
 692              		.loc 1 130 0
 693 006c 2021     		movs	r1, #32
 127:..\u8g2\csrc/u8x8_d_pcf8812.c ****       x += u8x8->x_offset;
 694              		.loc 1 127 0
 695 006e FF00     		lsls	r7, r7, #3
 696              	.LVL17:
 130:..\u8g2\csrc/u8x8_d_pcf8812.c ****       u8x8_cad_SendCmd(u8x8, 0x080 | x);
 697              		.loc 1 130 0
 698 0070 2000     		movs	r0, r4
 128:..\u8g2\csrc/u8x8_d_pcf8812.c ****     
 699              		.loc 1 128 0
 700 0072 FF18     		adds	r7, r7, r3
 701              	.LVL18:
 130:..\u8g2\csrc/u8x8_d_pcf8812.c ****       u8x8_cad_SendCmd(u8x8, 0x080 | x);
 702              		.loc 1 130 0
 703 0074 FFF7FEFF 		bl	u8x8_cad_SendCmd
 704              	.LVL19:
 131:..\u8g2\csrc/u8x8_d_pcf8812.c ****       u8x8_cad_SendCmd(u8x8, 0x040 | ((u8x8_tile_t *)arg_ptr)->y_pos);
 705              		.loc 1 131 0
 706 0078 8021     		movs	r1, #128
 128:..\u8g2\csrc/u8x8_d_pcf8812.c ****     
 707              		.loc 1 128 0
 708 007a FFB2     		uxtb	r7, r7
 709              	.LVL20:
 131:..\u8g2\csrc/u8x8_d_pcf8812.c ****       u8x8_cad_SendCmd(u8x8, 0x040 | ((u8x8_tile_t *)arg_ptr)->y_pos);
 710              		.loc 1 131 0
 711 007c 3943     		orrs	r1, r7
 712 007e 2000     		movs	r0, r4
 713 0080 FFF7FEFF 		bl	u8x8_cad_SendCmd
 714              	.LVL21:
 132:..\u8g2\csrc/u8x8_d_pcf8812.c ****       
 715              		.loc 1 132 0
 716 0084 4021     		movs	r1, #64
 717 0086 B379     		ldrb	r3, [r6, #6]
 718 0088 2000     		movs	r0, r4
 719 008a 1943     		orrs	r1, r3
 720 008c FFF7FEFF 		bl	u8x8_cad_SendCmd
 721              	.LVL22:
 722              	.L10:
 138:..\u8g2\csrc/u8x8_d_pcf8812.c **** 	/*
 723              		.loc 1 138 0
 724 0090 3179     		ldrb	r1, [r6, #4]
 147:..\u8g2\csrc/u8x8_d_pcf8812.c ****       } while( arg_int > 0 );
 725              		.loc 1 147 0
 726 0092 013D     		subs	r5, r5, #1
 727              	.LVL23:
 138:..\u8g2\csrc/u8x8_d_pcf8812.c **** 	/*
 728              		.loc 1 138 0
 729 0094 C900     		lsls	r1, r1, #3
 730 0096 C9B2     		uxtb	r1, r1
 731 0098 3268     		ldr	r2, [r6]
ARM GAS  C:\Users\gjl\AppData\Local\Temp\ccwaInLh.s 			page 49


 732 009a 2000     		movs	r0, r4
 147:..\u8g2\csrc/u8x8_d_pcf8812.c ****       } while( arg_int > 0 );
 733              		.loc 1 147 0
 734 009c EDB2     		uxtb	r5, r5
 138:..\u8g2\csrc/u8x8_d_pcf8812.c **** 	/*
 735              		.loc 1 138 0
 736 009e FFF7FEFF 		bl	u8x8_cad_SendData
 737              	.LVL24:
 148:..\u8g2\csrc/u8x8_d_pcf8812.c ****       
 738              		.loc 1 148 0
 739 00a2 002D     		cmp	r5, #0
 740 00a4 F4D1     		bne	.L10
 741              	.LVL25:
 742              	.L13:
 150:..\u8g2\csrc/u8x8_d_pcf8812.c ****       break;
 743              		.loc 1 150 0
 744 00a6 2000     		movs	r0, r4
 745 00a8 FFF7FEFF 		bl	u8x8_cad_EndTransfer
 746              	.LVL26:
 747              	.L14:
 155:..\u8g2\csrc/u8x8_d_pcf8812.c **** }
 748              		.loc 1 155 0
 749 00ac 0120     		movs	r0, #1
 750 00ae 00E0     		b	.L3
 751              	.LVL27:
 752              	.L11:
 153:..\u8g2\csrc/u8x8_d_pcf8812.c ****   }
 753              		.loc 1 153 0
 754 00b0 0020     		movs	r0, #0
 755              	.LVL28:
 756              	.L3:
 757              	.LBE5:
 758              	.LBE4:
 188:..\u8g2\csrc/u8x8_d_pcf8812.c ****       return 1;
 189:..\u8g2\csrc/u8x8_d_pcf8812.c ****     }
 190:..\u8g2\csrc/u8x8_d_pcf8812.c ****     return u8x8_d_pcf8812_96x65_generic(u8x8, msg, arg_int, arg_ptr);
 191:..\u8g2\csrc/u8x8_d_pcf8812.c **** }
 759              		.loc 1 191 0
 760              		@ sp needed
 761              	.LVL29:
 762              	.LVL30:
 763 00b2 F8BD     		pop	{r3, r4, r5, r6, r7, pc}
 764              	.L18:
 765              		.align	2
 766              	.L17:
 767 00b4 00000000 		.word	.LANCHOR0
 768              		.cfi_endproc
 769              	.LFE1:
 770              		.size	u8x8_d_pcf8812_96x65, .-u8x8_d_pcf8812_96x65
 771              		.section	.rodata
 772              		.align	2
 773              		.set	.LANCHOR0,. + 0
 774              		.type	u8x8_pcf8812_96x65_display_info, %object
 775              		.size	u8x8_pcf8812_96x65_display_info, 24
 776              	u8x8_pcf8812_96x65_display_info:
 777 0000 00       		.byte	0
 778 0001 01       		.byte	1
ARM GAS  C:\Users\gjl\AppData\Local\Temp\ccwaInLh.s 			page 50


 779 0002 64       		.byte	100
 780 0003 64       		.byte	100
 781 0004 64       		.byte	100
 782 0005 64       		.byte	100
 783 0006 64       		.byte	100
 784 0007 64       		.byte	100
 785 0008 00093D00 		.word	4000000
 786 000c 00       		.byte	0
 787 000d 04       		.byte	4
 788 000e 28       		.byte	40
 789 000f 96       		.byte	-106
 790 0010 0C       		.byte	12
 791 0011 09       		.byte	9
 792 0012 00       		.byte	0
 793 0013 00       		.byte	0
 794 0014 6000     		.short	96
 795 0016 4100     		.short	65
 796              		.type	u8x8_d_pcf8812_96x65_init_seq, %object
 797              		.size	u8x8_d_pcf8812_96x65_init_seq, 17
 798              	u8x8_d_pcf8812_96x65_init_seq:
 799 0018 18       		.byte	24
 800 0019 15       		.byte	21
 801 001a 20       		.byte	32
 802 001b 15       		.byte	21
 803 001c 08       		.byte	8
 804 001d 15       		.byte	21
 805 001e 21       		.byte	33
 806 001f 15       		.byte	21
 807 0020 06       		.byte	6
 808 0021 15       		.byte	21
 809 0022 13       		.byte	19
 810 0023 15       		.byte	21
 811 0024 9F       		.byte	-97
 812 0025 15       		.byte	21
 813 0026 24       		.byte	36
 814 0027 19       		.byte	25
 815 0028 FF       		.byte	-1
 816              		.type	u8x8_d_pcf8812_96x65_powersave0_seq, %object
 817              		.size	u8x8_d_pcf8812_96x65_powersave0_seq, 7
 818              	u8x8_d_pcf8812_96x65_powersave0_seq:
 819 0029 18       		.byte	24
 820 002a 15       		.byte	21
 821 002b 20       		.byte	32
 822 002c 15       		.byte	21
 823 002d 0C       		.byte	12
 824 002e 19       		.byte	25
 825 002f FF       		.byte	-1
 826              		.type	u8x8_d_pcf8812_96x65_powersave1_seq, %object
 827              		.size	u8x8_d_pcf8812_96x65_powersave1_seq, 9
 828              	u8x8_d_pcf8812_96x65_powersave1_seq:
 829 0030 18       		.byte	24
 830 0031 15       		.byte	21
 831 0032 20       		.byte	32
 832 0033 15       		.byte	21
 833 0034 08       		.byte	8
 834 0035 15       		.byte	21
 835 0036 24       		.byte	36
ARM GAS  C:\Users\gjl\AppData\Local\Temp\ccwaInLh.s 			page 51


 836 0037 19       		.byte	25
 837 0038 FF       		.byte	-1
 838              		.text
 839              	.Letext0:
 840              		.file 2 "c:\\program files (x86)\\cypress\\psoc creator\\4.1\\psoc creator\\import\\gnu\\arm\\5.4.
 841              		.file 3 "c:\\program files (x86)\\cypress\\psoc creator\\4.1\\psoc creator\\import\\gnu\\arm\\5.4.
 842              		.file 4 "..\\u8g2\\csrc\\u8x8.h"