ARM GAS  C:\Users\gjl\AppData\Local\Temp\cchh2RvQ.s 			page 1


   1              		.syntax unified
   2              		.cpu cortex-m0
   3              		.fpu softvfp
   4              		.eabi_attribute 20, 1
   5              		.eabi_attribute 21, 1
   6              		.eabi_attribute 23, 3
   7              		.eabi_attribute 24, 1
   8              		.eabi_attribute 25, 1
   9              		.eabi_attribute 26, 1
  10              		.eabi_attribute 30, 4
  11              		.eabi_attribute 34, 0
  12              		.eabi_attribute 18, 4
  13              		.thumb
  14              		.syntax unified
  15              		.file	"u8x8_d_ist3020.c"
  16              		.text
  17              	.Ltext0:
  18              		.section	.gnu.lto_.profile.1a3ba26,"",%progbits
  19 0000 789C6361 		.ascii	"x\234ca`d`e`\000\222/\030#\000\003\220\001M"
  19      60646065 
  19      6000922F 
  19      18230003 
  19      90014D
  20              		.text
  21              		.section	.gnu.lto_.icf.1a3ba26,"",%progbits
  22 0000 789C6361 		.ascii	"x\234ca`d\000\001m\006\004`g\270\323\334y\227\205\361"
  22      60640001 
  22      6D060460 
  22      67B8D3DC 
  22      799785F1 
  23 0014 74EFBC3E 		.ascii	"t\357\274>.\246\366\0233>s3\3779\367\3541\033\313\254"
  23      2EA6F613 
  23      333E7333 
  23      FF39F7EC 
  23      311BCBAC 
  24 0028 A76BD359 		.ascii	"\247k\323Yw>\231x\202\211\355\374\262y\273y\031\000"
  24      773E9978 
  24      8289EDFC 
  24      B279BB79 
  24      1900
  25 003a C1CC1488 		.ascii	"\301\314\024\210"
  26              		.text
  27              		.section	.gnu.lto_.jmpfuncs.1a3ba26,"",%progbits
  28 0000 789C858E 		.ascii	"x\234\205\216;\016\3020\020D=\273KJ\302\001r1n\002U"
  28      3B0EC230 
  28      10443DBB 
  28      4B4AC201 
  28      72316E02 
  29 0015 8C500ADF 		.ascii	"\214P\012\337\200\033\360\347\012\320\244\347\030\364"
  29      801BF0E7 
  29      0AD0A4E7 
  29      18F4
  30 0023 2045428A 		.ascii	" EB\212`\027\013\323Dx\232\261g\337\330+\016\3164\213"
  30      60170BD3 
  30      44789AB1 
  30      67DFD82B 
  30      0ECE348B 
ARM GAS  C:\Users\gjl\AppData\Local\Temp\cchh2RvQ.s 			page 2


  31 0037 F6119C40 		.ascii	"\366\021\234@U\326*\242\271EE\264(I\227\241\2235\020"
  31      55D62AA2 
  31      B94545B4 
  31      284997A1 
  31      933510
  32 004a ED97D3B4 		.ascii	"\355\227\323\264'\264\257\356R>\250a\007\302\032\025"
  32      27B4AFEE 
  32      523EA861 
  32      07C21A15 
  33 005a A531747A 		.ascii	"\2451tz\353\256\241\260)\260\0006\250\322S\022\315\240"
  33      EBAEA1B0 
  33      29B00036 
  33      A8D25312 
  33      CDA0
  34 006c E5F37C1F 		.ascii	"\345\363|\037\327\275_y?i\230\002[y\213\372?d\371.\007"
  34      D7BD5F79 
  34      3F699802 
  34      5B798BFA 
  34      3F64F92E 
  35 0081 E936D8E7 		.ascii	"\3516\330\347 \375\017\207/\344\206 \016,\232\037\015"
  35      20FD0F87 
  35      2FE48620 
  35      0E2C9A1F 
  35      0D
  36 0092 CAED2F81 		.ascii	"\312\355/\201G\232\237\224\205\226\336\027\303V("
  36      479A9F94 
  36      8596DE17 
  36      C35628
  37              		.text
  38              		.section	.gnu.lto_.inline.1a3ba26,"",%progbits
  39 0000 789C6DD0 		.ascii	"x\234m\320\277N\3030\020\006\360\373.Nc\332\246\315"
  39      BF4EC330 
  39      1006F0FB 
  39      2E4E63DA 
  39      A6CD
  40 0012 8A5489BC 		.ascii	"\212T\211\274\002#\013\312\023\344\025\330\341%<\224"
  40      02230BCA 
  40      13E415D8 
  40      E1253C94 
  41 0022 15858501 		.ascii	"\025\205\205\0011\300\000\024\032\304J\371#ubkG\006"
  41      31C00014 
  41      1AC44AF9 
  41      2375626B 
  41      4706
  42 0034 9E012490 		.ascii	"\236\001$\220\030@\010\211\263\035\\\206z\360}\376\331"
  42      18400889 
  42      B31D5C86 
  42      7AF07DFE 
  42      D9
  43 0045 279DAC08 		.ascii	"'\235\254\010d\327\235/nI|\246\015\264\241\267\177\030"
  43      64D79D2F 
  43      6E497CA6 
  43      0DB4A1B7 
  43      7F18
  44 0057 07B3FDDB 		.ascii	"\007\263\375\333\326\007\357F\300\012\3161 \317\263"
  44      D607EF46 
  44      C00ACE31 
ARM GAS  C:\Users\gjl\AppData\Local\Temp\cchh2RvQ.s 			page 3


  44      20CFB3
  45 0066 937ADE70 		.ascii	"\223z\336p\033\243\300\337\237\363\207\304s\007\027"
  45      1BA3C0DF 
  45      9FF387C4 
  45      730717
  46 0075 81DF26A7 		.ascii	"\201\337&\247#\366\234\3422\360\353\323\270\216<\367"
  46      23F69CE2 
  46      32F0EBD3 
  46      B88E3CF7 
  47 0085 300E5C9F 		.ascii	"0\016\\\237\275O\373\236\373\250\205\331\361\365\313"
  47      BD4FFB9E 
  47      FBA885D9 
  47      F1F5CB
  48 0094 E42BB51C 		.ascii	"\344+\265\034\203p\345x\307Uh\031\231\355\326\225\361"
  48      8370E578 
  48      C7556819 
  48      99EDD695 
  48      F1
  49 00a5 5BC76B4C 		.ascii	"[\307kL\203\351\246\321\024?\306\006L\253\367[\006\304"
  49      83E9A6D1 
  49      143FC606 
  49      4CABF75B 
  49      06C4
  50 00b7 476CB282 		.ascii	"Gl\262\202\324\2152YN\274\007\243r&%\252\374\221\233"
  50      D48D3259 
  50      4EBC07A3 
  50      722625AA 
  50      FC919B
  51 00ca 23E7FE51 		.ascii	"#\347\376QF&3\366_\270CRQ\225*\205\204\350p}\230\014"
  51      462633F6 
  51      5FB84352 
  51      51952A85 
  51      84E8707D 
  52 00e0 93A86B95 		.ascii	"\223\250k\225\253\262*\227\307\320&\241\260U\356\212"
  52      ABB22A97 
  52      C7D026A1 
  52      B055EE8A 
  53 00f0 F0CA25FA 		.ascii	"\360\312%\372w\345\306\020\262\221\027Qe\013\015Q\377"
  53      77E5C610 
  53      B2911751 
  53      650B0D51 
  53      FF
  54 0101 35EBA659 		.ascii	"5\353\246Y9\240_\223\332]\341"
  54      39A05F93 
  54      DA5DE1
  55              		.text
  56              		.section	.gnu.lto_.pureconst.1a3ba26,"",%progbits
  57 0000 789C6361 		.ascii	"x\234ca`d`f`\000\222R\000\000r\000$"
  57      60646066 
  57      60009252 
  57      00007200 
  57      24
  58              		.text
  59              		.section	.gnu.lto_u8x8_d_ist3020_erc19264.1a3ba26,"",%progbits
  60 0000 789C9D57 		.ascii	"x\234\235W]lT\307\025\2363\263\273w\367\356o\002m\035"
  60      5D6C54C7 
  60      159E33B3 
ARM GAS  C:\Users\gjl\AppData\Local\Temp\cchh2RvQ.s 			page 4


  60      BB77F7EE 
  60      6F026D1D 
  61 0014 BA804180 		.ascii	"\272\200A\200e\2201\001U\315C+5j_\372\332g*\024\221"
  61      65903101 
  61      55CD432B 
  61      356A5FFA 
  61      DA672A14 
  62 0029 8A4655AB 		.ascii	"\212FU\253\012\250\304K\345\353]\257\261\035\222B\033"
  62      0AA8C44B 
  62      E5EB5DAF 
  62      B11D9242 
  62      1B
  63 003a 63709D38 		.ascii	"cp\2358\021u\240\201\200\215!\301\206$\033'@bl\363\347"
  63      1175A081 
  63      808D21C1 
  63      86241B27 
  63      40626CF3 
  64 004f 62C01483 		.ascii	"b\300\024\203\203\211K\010a\015\304\374o\3179\263w\177"
  64      83894B08 
  64      610DC4FC 
  64      6FCF39B3 
  64      777F
  65 0061 F0AE9D76 		.ascii	"\360\256\235ve\237;w\356|g\276\363\315\271g\346:\004"
  65      659F3B77 
  65      EE7C67BE 
  65      F3CDB967 
  65      E63A04
  66 0074 08FAF504 		.ascii	"\010\372\365\004\205\370\005^\257\342?<%@n\354\023\242"
  66      85F8055E 
  66      AFE23F3C 
  66      25406EEC 
  66      13A2
  67 0086 D22D8D60 		.ascii	"\322-\215`\275WXn\305\326\301\326\311\326\315\326\313"
  67      BD57586E 
  67      C5D6C1D6 
  67      C9D6CDD6 
  67      CB
  68 0097 D6A7C740 		.ascii	"\326\247\307@P\203\034v\303)]5%\3022\015\262>\227\335"
  68      50831C76 
  68      C3295D35 
  68      25C2320D 
  68      B23E97DD 
  69 00ab 6DD80DB7 		.ascii	"m\330\015\267\364\360s\223\237{\354n\323nx\355\206\017"
  69      F4F07393 
  69      9F7BEC6E 
  69      D36E78ED 
  69      860F
  70 00bd FCBAE197 		.ascii	"\374\272\341\227\241\015G\005B\002U\006BB\272\377\371"
  70      A10D4705 
  70      42025506 
  70      4242BAFF 
  70      F9
  71 00ce 803D3008 		.ascii	"\200=0\010@\015\313\015\242B*\207\323e\270=\246\327"
  71      400DCB0D 
  71      A2422A87 
  71      D365B83D 
  71      A6D7
ARM GAS  C:\Users\gjl\AppData\Local\Temp\cchh2RvQ.s 			page 5


  72 00e0 E70F0582 		.ascii	"\347\017\005\202P!\375\002\342\016H\352\210\357\310"
  72      5021FD02 
  72      E20E48EA 
  72      88EFC8
  73 00ef 47128E8D 		.ascii	"G\022\216\215\177\266\301,\335nY\021\353\322\341m\277"
  73      7FB6C12C 
  73      DD6E5911 
  73      EBD2E16D 
  73      BF
  74 0100 4C446245 		.ascii	"LDbE1%DR\012X\026\206%aRc;\224\342\310\223U\255M\352"
  74      31254452 
  74      0A581686 
  74      25615263 
  74      3B94E2C8 
  75 0119 B68C2900 		.ascii	"\266\214)\000\007\336&z\033\277\010\320\255\204b\274"
  75      07DE267A 
  75      1BBF08D0 
  75      AD8462BC 
  76 0129 7DB37FDB 		.ascii	"}\263\177\333\005\227\232\007\002\333\233\273\373o\370"
  76      05979A07 
  76      02DB9BBB 
  76      FB6FF8
  77 0138 4B5AC8A7 		.ascii	"KZ\310\247\325\376\033\313\023S\012\336\001E>\377\011"
  77      D5FE1BCB 
  77      13530ADE 
  77      01453EFF 
  77      09
  78 0149 61D80161 		.ascii	"a\330\001a\201]\002vB\011\216\356i\355\030p\250RF\216"
  78      815D0276 
  78      42098EEE 
  78      69ED1870 
  78      A852468E 
  79 015d 1FFAE491 		.ascii	"\037\372\344\221\215\034\372\265\245\220\012\354\322"
  79      8D1CFAB5 
  79      A5900AEC 
  79      D2
  80 016a 48CD86B8 		.ascii	"H\315\206\270\301\273\214\333r\362\322+\246*c\\\323"
  80      C1BB8CDB 
  80      72F2D22B 
  80      A62A635C 
  80      D3
  81 017b C837E79C 		.ascii	"\3107\347\234)\334\326#^k\011\001wO\000\356a\340\271"
  81      29DCD623 
  81      5E6B0901 
  81      774F00EE 
  81      61E0B9
  82 018e 2F7B4F9B 		.ascii	"/{O\233\352G\014|g\377\320^#\005\0348\342\2636BL9\240"
  82      EA470C7C 
  82      67FFD05E 
  82      23051C38 
  82      E2B33642 
  83 01a5 F549B20E 		.ascii	"\365I\262\016\001mPB\200W\373\353\206\225\372)\203["
  83      016D5042 
  83      8057FBEB 
  83      8695FA29 
  83      835B
  84 01b7 ACD63ACF 		.ascii	"\254\326:\317\374m\004\216\267\327\005\266Z\361\252"
ARM GAS  C:\Users\gjl\AppData\Local\Temp\cchh2RvQ.s 			page 6


  84      FC6D048E 
  84      B7D705B6 
  84      5AF1AA
  85 01c6 E29872C2 		.ascii	"\342\230r\302\336\\8\375pt\337\366\226\327L\365<#\233"
  85      DE5C38FD 
  85      7074DFF6 
  85      96D74CF5 
  85      3C239B
  86 01d9 37779EB5 		.ascii	"7w\236\265\221mu\301\006+^YL\224\367eSN\341\032;\327"
  86      916D75C1 
  86      062B5E59 
  86      4C94F765 
  86      534EE11A 
  87 01ef 474CF573 		.ascii	"GL\365s\306E\017\014\034\014j\234\365\376r+\3723\002"
  87      C6450F0C 
  87      1C0C6A9C 
  87      F5FE722B 
  87      FA3302
  88 0202 BD970734 		.ascii	"\275\227\0074\334\366\270\336\357\252\262\360W\014\357"
  88      DCF6B8DE 
  88      EFAAB2F0 
  88      570CEF
  89 0211 C37CD88F 		.ascii	"\303|\330\217\377\3550\237\026\026\2058\000.\314\001"
  89      FFED309F 
  89      16168538 
  89      002ECC01 
  90 0221 95FD64CF 		.ascii	"\225\375d\317\257\342V2\031\265\342\315\346\307M\201"
  90      AFE25632 
  90      19B5E2CD 
  90      E6C74D81 
  91 0231 7260B524 		.ascii	"r`\265$\351\346\004R\334\000Z//Pw\020\273]!4\3064jM"
  91      E9E60452 
  91      DC005A2F 
  91      2F507710 
  91      BB5D2134 
  92 0249 A7561199 		.ascii	"\247V\021\2310\220N3\0059\236\305v6u\027ss\0165\347"
  92      30904E33 
  92      05399EC5 
  92      76367517 
  92      73730E35 
  93 025e 92994766 		.ascii	"\222\231Gf\001\231\0222\245\202H,d\273H\020\2312\236"
  93      01991232 
  93      A582482C 
  93      64BB4810 
  93      99329E
  94 0271 5D889BC8 		.ascii	"]\210\233\310\266\361Y\221\220\022/j\004\266Xg\337~"
  94      B6F15991 
  94      90122F6A 
  94      04B65867 
  94      DF7E
  95 0283 86D84795 		.ascii	"\206\330G\225\223\022\355\334?F\235\233\340/\225\030"
  95      9312EDDC 
  95      3F469D9B 
  95      E02F9518 
  96 0293 68BCBE0F 		.ascii	"h\274\276\017\223\321\215\251\257H\003\350\200M@Cz7"
  96      93D18DA9 
  96      AF4803E8 
ARM GAS  C:\Users\gjl\AppData\Local\Temp\cchh2RvQ.s 			page 7


  96      804D4043 
  96      7A37
  97 02a5 75BA284D 		.ascii	"u\272(M\005x\360\266\353\372\340\025\260\021\007L\004"
  97      0578F0B6 
  97      EBFAE015 
  97      B011074C 
  97      04
  98 02b6 40272E91 		.ascii	"@'.\221\245\350\225\200\203\032\323\373\326\256\276"
  98      A5E89580 
  98      831AD3FB 
  98      D6AEBE
  99 02c5 14C6C4DB 		.ascii	"\024\306\304\333H\355@\213\333\306|\310\230C\214a)?"
  99      48ED408B 
  99      DBC67CC8 
  99      98438C61 
  99      293F
 100 02d7 D0980777 		.ascii	"\320\230\007w\373>04\306K\211\\\177\365M\227\2159\303"
 100      FB3E3034 
 100      C64B895C 
 100      7FF54D97 
 100      8D39C3
 101 02ea 980F1943 		.ascii	"\230\017\031C\344\340#\215\271\331\321\262Cj\214\037"
 101      E4E0238D 
 101      B9D9D1B2 
 101      436A8C1F 
 102 02fa 6F47DEDB 		.ascii	"oG\336\333Z\243l\314\030c\342\214q\020\346c\215\371"
 102      5AA36CCC 
 102      1863E28C 
 102      7110E663 
 102      8DF9
 103 030c FACCCE5D 		.ascii	"\372\314\316]Jc\002x{\247\357\374\016\237\215i\362\022"
 103      4A630278 
 103      7BA7EFFC 
 103      0E9F8D69 
 103      F212
 104 031e A68B314E 		.ascii	"\246\2131N\302|\2421\273\336N\304\203\032\023\304\333"
 104      C27CA231 
 104      BBDE4EC4 
 104      831A13C4 
 104      DB
 105 032f 37F66D7F 		.ascii	"7\366m\177\315oc:\031\363)c\\\2049\214\030\274&\244"
 105      CD6F633A 
 105      19F32963 
 105      5C84398C 
 105      18BC26A4 
 106 0343 125586BA 		.ascii	"\022U\206\272\002\225!\322\233\004\032\205X\374`\267"
 106      029521D2 
 106      9B041A85 
 106      58FC60B7 
 107 0353 A25B4AB1 		.ascii	"\242[J\261\216\216\353\203F\305#\253\306\262B1\345I"
 107      8E8EEB83 
 107      46C523AB 
 107      C6B24231 
 107      E549
 108 0365 4A84C111 		.ascii	"J\204\301\021\250\020Qe\220\360\261\256\343,\210Kg\356"
 108      A8105165 
 108      90F0B1AE 
ARM GAS  C:\Users\gjl\AppData\Local\Temp\cchh2RvQ.s 			page 8


 108      E32C884B 
 108      67EE
 109 0377 FD8F6E05 		.ascii	"\375\217n\005p\364\026\036\355\252U\006\347\351\347"
 109      70F4161E 
 109      EDAA5506 
 109      E7E9E7
 110 0386 8D3B7FD7 		.ascii	"\215;\177\327\014\257Wn\344n\023>\203\0128J\357\014"
 110      0CAF576E 
 110      E46E133E 
 110      830A384A 
 110      EF0C
 111 0398 3E4B5EDB 		.ascii	">K^\333\273\333\203\220\"\362\36194\003\317\014\335"
 111      BBDB8390 
 111      22F2F139 
 111      3403CF0C 
 111      DD
 112 03a9 5011535E 		.ascii	"P\021S^\246\350\310\245(\221bU\374\204\231\237\241/"
 112      A6E8C8A5 
 112      28916255 
 112      FC84999F 
 112      A12F
 113 03bb 895924E0 		.ascii	"\211Y$\340\230f\030S~\016\350T\201\321\201\244\244\212"
 113      98661853 
 113      7E0EE854 
 113      81D181A4 
 113      A48A
 114 03cd D133319E 		.ascii	"\32131\236`\236x\202\265\224y\023\342\011A\037\306\323"
 114      609E7882 
 114      B5947913 
 114      E209411F 
 114      C6D3
 115 03df FB443C08 		.ascii	"\373D<\010\261\032\200\034\035O\007u\202\202z\212\203"
 115      B11A801C 
 115      1D4F0775 
 115      82827A8A 
 115      83
 116 03f0 72E606A5 		.ascii	"r\346\006\245\304e\250:\037m\257\237\241\363\236\262"
 116      C465A83A 
 116      1F6DAF9F 
 116      A1F39EB2 
 117 0400 6BCFF58E 		.ascii	"k\317\365\216{~\342b\340kz2Ub\022\322%\272\224\242\240"
 117      7B7EE262 
 117      E06B7A32 
 117      556212D2 
 117      25BA94A2 
 118 0415 06EB60D2 		.ascii	"\006\353`\322\250NM\214\352\351<Q=]\253<y\242\232\006"
 118      A84E4D8C 
 118      EAE93C51 
 118      3D5DAB3C 
 118      79A29A06 
 119 0429 FD18D5E9 		.ascii	"\375\030\325\351<Q\375\231\374\374+\035\324\231LP\206"
 119      3C51FD99 
 119      FCFC2B1D 
 119      D4994C50 
 119      86
 120 043a 4D6D680A 		.ascii	"Mmh\012j\003ij\023\270\230y\271\234\235\214\313\271"
 120      6A03696A 
ARM GAS  C:\Users\gjl\AppData\Local\Temp\cchh2RvQ.s 			page 9


 120      13B89879 
 120      B99C9D8C 
 120      CBB9
 121 044c 3497F319 		.ascii	"4\227\363\031.\356\\\201\035Z\340\257\322\002g)\352"
 121      2EEE5C81 
 121      1D5AE0AF 
 121      D2026729 
 121      EA
 122 045d B169DF9B 		.ascii	"\261i\337\233\202\366`a\332\336\274\264/LF\373\337i"
 122      82F66061 
 122      DADEBCB4 
 122      2F4C46FB 
 122      DF69
 123 046f DA1735ED 		.ascii	"\332\0275\355\253\020\351L\\\034sj\206\323\262\027N"
 123      AB10E94C 
 123      5C1C736A 
 123      86D3B217 
 123      4E
 124 0480 E98DF368 		.ascii	"\351\215\363hw\215\017\375cZMG\0360\224r\335r%\262\333"
 124      778D0FFD 
 124      635A4D47 
 124      1E309472 
 124      DD7225B2 
 125 0495 282FA337 		.ascii	"(/\2437\350\022:},\2716^\206rvyy\201v8=\327\203\211"
 125      E8123A7D 
 125      2CB9365E 
 125      86727679 
 125      79817638 
 126 04ad 53A4DFC2 		.ascii	"S\244\337\3027\266\034\270\025(\177\227X\177\017\206"
 126      37B61CB8 
 126      15287F97 
 126      587F0F86 
 127 04bd D907D7CA 		.ascii	"\331\007\327\312/\264\217\315\227\247\223\217,\007\225"
 127      2FB48FCD 
 127      97A7938F 
 127      2C0795
 128 04cc B4E9F80B 		.ascii	"\264\351\370\013\361\020p\205}p\355\034\201r\234\234"
 128      F1107085 
 128      7D70ED1C 
 128      81729C9C 
 129 04dc 95366DA5 		.ascii	"\2256m\245\377\366\362\344J_-\254\264/\257\322_N\246"
 129      FFF6F2E4 
 129      4A5F2DAC 
 129      B42FAFD2 
 129      5F4EA6
 130 04ef F4685AE9 		.ascii	"\364hZ\351\377d\224n\033\261\225\016~7i\257e\244\375"
 130      FF64946E 
 130      1BB1950E 
 130      7E3769AF 
 130      65A4FD
 131 0502 EA096943 		.ascii	"\352\011iC\023\244\015\346\227\366:\373\340\355\341"
 131      13A40DE6 
 131      97F63AFB 
 131      E0EDE1
 132 0511 EBFF57DA 		.ascii	"\353\377W\332\033\031i\277!iC,\25577\337\235\\%\233"
 132      1B1969BF 
 132      2169432C 
ARM GAS  C:\Users\gjl\AppData\Local\Temp\cchh2RvQ.s 			page 10


 132      AD3737DF 
 132      9D5C259B 
 133 0525 8F1528E4 		.ascii	"\217\025(\344\337ObY\025p\323.\223?\3402\331\352\315"
 133      DF4F6259 
 133      1570D32E 
 133      933FE032 
 133      D9EACD
 134 0538 3FBA2889 		.ascii	"?\272(\211\365J@\"\275(\243\343'jS{g%\300\030\204c\352"
 134      F54A4022 
 134      BD28A3E3 
 134      276A537B 
 134      6725C018 
 135 054f 190C263A 		.ascii	"\031\014&:V\335]\246\025)\3225\354pr\\oJ3@\302-\214"
 135      56DD5DA6 
 135      1529D235 
 135      EC70725C 
 135      6F4A3340 
 136 0566 65149C05 		.ascii	"e\024\234\005\347\300\235\011n\3539\320\001\271\244"
 136      E7C09D09 
 136      6EEB39D0 
 136      01B9A4
 137 0575 18F61520 		.ascii	"\030\366\025 \205!\340\356\002w2!\220\014\276\\\031"
 137      8521E0EE 
 137      02773221 
 137      900CBE5C 
 137      19
 138 0586 5CECE250 		.ascii	"\\\354\342Pa\027\244\302\267\031\027\234\030\267\377"
 138      6117A4C2 
 138      B719179C 
 138      18B7FF
 139 0595 AA741033 		.ascii	"\252t\0203\263_\301\037\346\274\202\274H\015\200\007"
 139      B35FC11F 
 139      E6BC82BC 
 139      480D8007 
 140 05a5 9B705485 		.ascii	"\233pT\205a|\3422\335\345e\342]\375\036.\3650D\254e"
 140      617CE232 
 140      DDE565E2 
 140      5DFD1E2E 
 140      F53044AC 
 141 05ba 7C24C343 		.ascii	"|$\303C\022\272&\271\032\253\273\027\353\231f\351\311"
 141      12BA26B9 
 141      1AABBB17 
 141      EB9966E9 
 141      C9
 142 05cb EAEE0FBC 		.ascii	"\352\356\017\274\352\326\272\272\341>\372\034F\331\322"
 142      EAD6BABA 
 142      E13EFA1C 
 142      46D9D2
 143 05da 98599ADE 		.ascii	"\230Y\232\336\235H*og\177\227\274\025\360 \223/\017"
 143      9D482A6F 
 143      677F97BC 
 143      15F02093 
 143      2F0F
 144 05ec 39E7A29B 		.ascii	"9\347\242\233\253{@\273(\346\251g\347\316S\254\227\362"
 144      AB7B40BB 
 144      28E6A967 
 144      E7CE53AC 
ARM GAS  C:\Users\gjl\AppData\Local\Temp\cchh2RvQ.s 			page 11


 144      97F2
 145 05fe E2EE801E 		.ascii	"\342\356\200\0364\007\273\262?\015f\200\003\036\341"
 145      3407BBB2 
 145      3F0D6680 
 145      031EE1
 146 060d 3C38EAAE 		.ascii	"<8\352\256K\017\231\213\243p\310\251\233=\257{\365\226"
 146      4B0F998B 
 146      A370C8A9 
 146      9B3DAF7B 
 146      F596
 147 061f 1582C753 		.ascii	"\025\202\307S,7\245T\322^\356\271\251\014zX=\234\222"
 147      2C37A554 
 147      D25EEEB9 
 147      A90C7A58 
 147      3D9C92
 148 0632 641ECECA 		.ascii	"d\036\316\312G\226\251|X2\345c\236\366\201E\364\333"
 148      4796A97C 
 148      5832E563 
 148      9EF68145 
 148      F4DB
 149 0644 B1A076B2 		.ascii	"\261\240v\262 W\242BkU)I\">ME$Kt\267\372'\332C\211v"
 149      2057A242 
 149      6B552949 
 149      223E4D45 
 149      244B74B7 
 150 065e D2FF56C3 		.ascii	"\322\377V\303\245Td\255\000Q95\255*\233VI\232\326\270"
 150      A55464AD 
 150      00513935 
 150      AD2A9B56 
 150      499AD6B8 
 151 0672 9D58A5FF 		.ascii	"\235X\245\377S&\305\230\035\237\333\252ev&\355\247\325"
 151      5326C598 
 151      1D9FDBAA 
 151      657626ED 
 151      A7D5
 152 0684 2AD599D4 		.ascii	"*\325\231\324U\256]/\304\236\234\324\341A\0135\201\207"
 152      55AE5D2F 
 152      C49E9CD4 
 152      E1410B35 
 152      8187
 153 0696 7B530416 		.ascii	"{S\004\026=I\340\357\205\0118a=\0230\210@M\212\300\217"
 153      3D49E0EF 
 153      85093861 
 153      3D133088 
 153      404D8AC0 
 154 06ab D9773BF9 		.ascii	"\331w;\371^\304/\236_\340\027\251\302G!>\325G\371(Y"
 154      5EC42F9E 
 154      5FE017A9 
 154      C247213E 
 154      D547F928 
 155 06c0 1DBF57A8 		.ascii	"\035\277W\250\320\317L\342\026-\240\326V\011y/\212q"
 155      D0CF4CE2 
 155      162DA0D6 
 155      5609792F 
 155      8A71
 156 06d2 8A637ADE 		.ascii	"\212cz\336\330\263T\363,C?\010=\035\375\364x\352<\234"
 156      D8B354F3 
ARM GAS  C:\Users\gjl\AppData\Local\Temp\cchh2RvQ.s 			page 12


 156      2C433F08 
 156      3D1DFDF4 
 156      78EA3C9C 
 157 06e6 04A89399 		.ascii	"\004\250\223\231\350x\2522\332\334\007\243\017\032\214"
 157      E878AA32 
 157      DADC07A3 
 157      0F1A8C
 158 06f5 14CADEDC 		.ascii	"\024\312\336\334\307p\251\224\327\207\246,ta\350E\374"
 158      C770A994 
 158      D787A62C 
 158      7461E845 
 158      FC
 159 0706 D20809FC 		.ascii	"\322\010\011\374\260\206\204\014P\235\240\332\260\251"
 159      B086840C 
 159      509DA0DA 
 159      B0A9
 160 0714 AF7089A4 		.ascii	"\257p\211\244\372\362\262\314\251/A\321\364,\327\027"
 160      FAF2B2CC 
 160      A92F41D1 
 160      F42CD717 
 161 0724 FE02B946 		.ascii	"\376\002\271F\341F\371\023a\014dv\265\020xf\333 \303"
 161      E146F913 
 161      610C6476 
 161      B5107866 
 161      DB20C3
 162 0737 F250621D 		.ascii	"\362Pb\035v\357_\337\323f\352n\200Wd\330q!\361[\272"
 162      76EF5FDF 
 162      D366EA6E 
 162      805764D8 
 162      7121F15B 
 163 074c E23D5A0F 		.ascii	"\342=Z\017[\027\333\000[/[\223\255A\037H\200\323\342"
 163      5B17DB00 
 163      5B2F5B93 
 163      AD411F48 
 163      80D3E2
 164 075f 2C73162F 		.ascii	",s\026/^\216\177\177zn\325\322\345+\327\254^\211\255"
 164      5E8E7F7F 
 164      7A6ED5D2 
 164      E52BD7AC 
 164      5E89AD
 165 0772 75CFAD78 		.ascii	"u\317\255xq\305Kk\326.[\262t\311\342\225\302A=\352\367"
 165      71C54B6B 
 165      D62E5BB2 
 165      74C9E295 
 165      C2413DEA 
 166 0787 6B56192F 		.ascii	"kV\031/\254^\265\342\245?\254\345\353\037\327\256V\370"
 166      AC5EB5E2 
 166      A53FACE5 
 166      EB1FD7AE 
 166      56F8
 167 0799 0F2B61DD 		.ascii	"\017+a\335\177\001\304\335C+"
 167      7F01C4DD 
 167      432B
 168              		.text
 169              		.section	.gnu.lto_u8x8_ist3020_erc19264_display_info.1a3ba26,"",%progbits
 170 0000 789C4DCD 		.ascii	"x\234M\315\275J\303P\030\306\361\363\234\223\330\324"
 170      BD4AC350 
ARM GAS  C:\Users\gjl\AppData\Local\Temp\cchh2RvQ.s 			page 13


 170      18C6F1F3 
 170      9C93D8D4 
 171 0010 DAB43A39 		.ascii	"\332\264:9\364\002\274\204\016\336\217w!\001Sq\023\004"
 171      F402BC84 
 171      0EDE8F77 
 171      21015371 
 171      1304
 172 0022 3B688582 		.ascii	";h\205\202\203\037U\033c\261\024\035D\012B\234z\001"
 172      831F551B 
 172      63B1141D 
 172      440A429C 
 172      7A01
 173 0034 1507A508 		.ascii	"\025\007\245\010\332\305`\351`\361<}3\230\345\237\337"
 173      DAC560E9 
 173      60F13C7D 
 173      3398E59F 
 173      DF
 174 0045 79CF87A3 		.ascii	"y\317\207\243\240\370m\330\310\237R\277\032\335q\253"
 174      A0F86DD8 
 174      C89F52BF 
 174      1ADD71AB 
 175 0055 5B4C75CD 		.ascii	"[Lu\315(<\320\321}\370\345g\306\3779d\336\376\354M3"
 175      283CD0D1 
 175      7DF8E567 
 175      C6FF3964 
 175      DEFEEC4D 
 176 006a 93077769 		.ascii	"\223\007wi\342\012=\313q\370\376Z\020\256Z\356n\275"
 176      E20A3DCB 
 176      71F8FE5A 
 176      10AE5AEE 
 176      6EBD
 177 007c 6C8AD6AD 		.ascii	"l\212\326\255\016\277\207\037y\341\232\345 \214\032"
 177      0EBF871F 
 177      79E19AE5 
 177      208C1A
 178 008b 46E8580E 		.ascii	"F\350X\016\343\370h~\223F\260\227\362\351\344\370\347"
 178      E3F8687E 
 178      9346B097 
 178      F2E9E4F8 
 178      E7
 179 009c 31BBFB8D 		.ascii	"1\273\373\215ou\372O\333\236\230\343\351\2441\311\306"
 179      6F75FA4F 
 179      DB9E98E3 
 179      E9A431C9 
 179      C6
 180 00ad 75FA79B4 		.ascii	"u\372y\264\337\364\253\267\301N3\210\334\23213\255p"
 180      DFF4ABB7 
 180      C14E3388 
 180      DC9A3133 
 180      AD70
 181 00bf 8ECA4C03 		.ascii	"\216\312L\0031\243q\303\030\211#\213\256d\001\327LN"
 181      31A371C3 
 181      1889238B 
 181      AE6401D7 
 181      4C4E
 182 00d1 E22162F2 		.ascii	"\342!b\362r|\021m\246\200+f\011\227L\021\027\214\217"
 182      727C116D 
ARM GAS  C:\Users\gjl\AppData\Local\Temp\cchh2RvQ.s 			page 14


 182      A6802B66 
 182      09974C11 
 182      178C8F
 183 00e4 1653929D 		.ascii	"\026S\222\235e\2341\3138eVp\202\212B\007U\365\007\201"
 183      659C31CB 
 183      38655670 
 183      828A4207 
 183      55F50781 
 184 00f8 8C7AD5   		.ascii	"\214z\325"
 185              		.text
 186              		.section	.gnu.lto_u8x8_d_ist3020_erc19264_init_seq.1a3ba26,"",%progbits
 187 0000 789C4D92 		.ascii	"x\234M\222iOSA\024\206\357\334\226\262\224\305}\255"
 187      694F5341 
 187      1486EFDC 
 187      96B294C5 
 187      7DAD
 188 0012 FBFAC168 		.ascii	"\373\372\301h\304/\374\005\377\207?\204\306\326\000"
 188      C42FFC05 
 188      FF873F84 
 188      C6D600
 189 0021 09A64192 		.ascii	"\011\246A\222\032\224\210,\026\254\224\242\302\245\227"
 189      1A94882C 
 189      16AC94A2 
 189      C2A597
 190 0030 82052C50 		.ascii	"\202\005,P\366\226\265\026JY\004\334\220\245\026\025"
 190      F696B516 
 190      4A5904DC 
 190      90A51615 
 191 0040 28BE73E7 		.ascii	"(\276s\347\304\264\311\223\333'\357\231\355\314\350"
 191      C4B4C993 
 191      DB27EF99 
 191      EDCCE8
 192 004f 2526F15F 		.ascii	"%&\361_D/\321?I\332\227Y\223u\271!#.[u\022;`\360g\333"
 192      442FD13F 
 192      49DA9759 
 192      9375B921 
 192      232E5B75 
 193 0069 735F32B9 		.ascii	"s_2\2713v\023\032\267\017\205\363D|\032Z\247\204\357"
 193      3376131A 
 193      B70F85F3 
 193      447C1A5A 
 193      A784EF
 194 007c 8BF0062C 		.ascii	"\213\360\006,1\250Ve\213\260\216\217M\330\314\245:\021"
 194      31A85665 
 194      8BB08E8F 
 194      4DD8CCA5 
 194      3A11
 195 008e 5F872E39 		.ascii	"_\207.9\222v\203\210\217C\243\276\221\031\203H\257A"
 195      92768388 
 195      8F43A3BE 
 195      91198348 
 195      AF41
 196 00a0 079AA7BA 		.ascii	"\007\232\247\272ha\027\037\374\333\033\254\226E|\025"
 196      6861171F 
 196      FCDB1BAC 
 196      96457C15 
 197 00b0 BAE84ECC 		.ascii	"\272\350N\314\322\\W\240e\217\2252J/C\177\375)Y\317"
ARM GAS  C:\Users\gjl\AppData\Local\Temp\cchh2RvQ.s 			page 15


 197      D25C57A0 
 197      658F9532 
 197      4A2F437F 
 197      FD2959CF 
 198 00c4 14834F40 		.ascii	"\024\203O@\213\"\337\343\331\"\275\004mohZ\245\205\315"
 198      8B22DFE3 
 198      D922BD04 
 198      6D6F685A 
 198      A585CD
 199 00d7 7CEACDE1 		.ascii	"|\352\315\341\212\245\\\021_\204>\251uyr\204^HM%-U\037"
 199      8AA55C11 
 199      5F843EA9 
 199      75797284 
 199      5E484D25 
 200 00ee 3ADD949E 		.ascii	":\335\224\236\207V\257\015\007\322\204\236\203\266\254"
 200      8756AF0D 
 200      07D2849E 
 200      83B6AC
 201 00fd 1417E688 		.ascii	"\024\027\346\210\342|h[\307\217|\021\232`3\337B\203"
 201      E27C685B 
 201      C78F7C11 
 201      9A6033DF 
 201      4283
 202 010f 461126F9 		.ascii	"F\021&\371\272\365\376n\205\211\370,\264?R\332I\333"
 202      BAF5FE6E 
 202      8589F82C 
 202      B43F52DA 
 202      49DB
 203 0121 BA035D5D 		.ascii	"\272\003]]}YN\233>\223\332i\246uz\335\3629f\024z\012"
 203      7D594E9B 
 203      3E93DA69 
 203      A6757ADD 
 203      F2396614 
 204 0137 BA6DB716 		.ascii	"\272m\267\026g\010=\011u\307\346\3144\325\355\324v0"
 204      67083D09 
 204      75C7E6CC 
 204      34D5EDD4 
 204      7630
 205 0149 AD1DFF1B 		.ascii	"\255\035\377\033\317\264\306o\356U*\224\036\343\013"
 205      CFB4C66F 
 205      EE552A94 
 205      1EE30B
 206 0158 791EFDA5 		.ascii	"y\036\375\245n\034\205Z*m\243\262\230\352\026\2649\266"
 206      6E1C855A 
 206      2A6DA3B2 
 206      98EA16B4 
 206      39B6
 207 016a E7D58BF4 		.ascii	"\347\325\213\364\010\357l_t\222\216p\030\332U\274\343"
 207      08EF6C5F 
 207      74928E70 
 207      18DA55BC 
 207      E3
 208 017b CF12C535 		.ascii	"\317\022\3055\374\204\241\215\241J\332\345!\250k+\356"
 208      FC84A18D 
 208      A14ADAE5 
 208      21A86B2B 
 208      EE
ARM GAS  C:\Users\gjl\AppData\Local\Temp\cchh2RvQ.s 			page 16


 209 018c A285F3A0 		.ascii	"\242\205\363\240\216\027\343\023\364>^\361\352\375Y"
 209      8E17E313 
 209      F43E5EF1 
 209      EAFD59
 210 019b 73922E31 		.ascii	"s\222.1\027Z\363\325\323C\255\315\201>\265\204Vh#\375"
 210      175AF3D5 
 210      D343ADCD 
 210      813EB584 
 210      566823FD 
 211 01af BC7A77AD 		.ascii	"\274zw\255<LKgC\247\303\026\017\251\221\3175o\263\245"
 211      3C4C4B67 
 211      43A7C316 
 211      0FA991CF 
 211      356FB3A5 
 212 01c3 8BEA2A6D 		.ascii	"\213\352*m\356\215\261}\352f\026\324\331Z\247Ru&TYw"
 212      EE8DB17D 
 212      EA6616D4 
 212      D95AA752 
 212      75265459 
 213 01d8 2A746D3E 		.ascii	"*tm>\376\352\343%\326\035z]\351\320\345\335F\225Zb\200"
 213      FEEAE325 
 213      D61D7A5D 
 213      E9D0E5DD 
 213      46955A62 
 214 01ed 066AD53D 		.ascii	"\006j\325=\232+\015:\265R\323K\017\304\311\227\012Z"
 214      9A2B0D3A 
 214      B552D34B 
 214      0FC4C997 
 214      0A5A
 215 01ff DCCF69B0 		.ascii	"\334\317i\260\036\332\275\345vP\265\216\247\215\013"
 215      1EDABDE5 
 215      7650B58E 
 215      A78D0B
 216 020e 0F44F122 		.ascii	"\017D\361\"/\366\037\354\370\350Z\345\324k\225\264k"
 216      2FF61FEC 
 216      F8E85AE5 
 216      D46B95B4 
 216      6B
 217 021f 0DA83F2B 		.ascii	"\015\250?+\262\012Z\013\213\252\012mF\253NfwMl\201\231"
 217      B20A5A0B 
 217      8BAA0A6D 
 217      46AB4E66 
 217      774D6C81 
 218 0234 58BE8935 		.ascii	"X\276\2115\342\023\003\363 \312\204\317\201Y\020!\377"
 218      E21303F3 
 218      20CA84CF 
 218      81591021 
 218      FF
 219 0245 049A4098 		.ascii	"\004\232@\230\374\236\211\315\3403M:\005&\301\004\371"
 219      FC9E89CD 
 219      E0334D3A 
 219      0526C104 
 219      F9
 220 0256 38088120 		.ascii	"8\010\201 \371\030\030\005#\344\303`\010\014\222\017"
 220      F9181805 
 220      23E4C360 
 220      080C920F 
ARM GAS  C:\Users\gjl\AppData\Local\Temp\cchh2RvQ.s 			page 17


 221 0266 8000E807 		.ascii	"\200\000\350\007\035\240\017\264\203^\312\375\340#\350"
 221      1DA00FB4 
 221      835ECAFD 
 221      E023E8
 222 0275 A1BC9BF2 		.ascii	"\241\274\233\362.\312}\340\003\350\244\334K\271J\271"
 222      2ECA7DE0 
 222      03E8A4DC 
 222      4BB94AB9 
 223 0285 07B40185 		.ascii	"\007\264\001\205\274\025\264\200\367\340\035x\013\032"
 223      BC15B480 
 223      F7E01D78 
 223      0B1A
 224 0293 4033E56E 		.ascii	"@3\345n:\256\213\374\015p\202\327TW\017\034\314\304"
 224      3AAE8BFC 
 224      0D7082D7 
 224      54570F1C 
 224      CCC4
 225 02a5 3B5F20FD 		.ascii	";_ \375\003\377s\245E"
 225      03FF73A5 
 225      45
 226              		.text
 227              		.section	.gnu.lto_u8x8_d_ist3020_erc19264_powersave0_seq.1a3ba26,"",%progbits
 228 0000 789C2D8B 		.ascii	"x\234-\213\275\016\301P\030\206\317\327\037\021D'\011"
 228      BD0EC150 
 228      1886CFD7 
 228      1F114427 
 228      09
 229 0011 496F82A9 		.ascii	"Io\202\251\227\345\022:\264\211\304f \021\203\201TQ"
 229      97E5123A 
 229      B489C466 
 229      20118381 
 229      5451
 230 0023 AD0E864E 		.ascii	"\255\016\206N\"1\010\213Qb\220`5P1\370}\233\317I\236"
 230      2231088B 
 230      51629060 
 230      355031F8 
 230      7D9BCF49 
 231 0038 9CEFC993 		.ascii	"\234\357\311\223W\021$\222w\007|\011\361\226\310\267"
 231      57112492 
 231      77077C09 
 231      F196C8B7 
 232 0048 4F6E3A96 		.ascii	"On:\226lY\320\227\340\247\247\027\345\023'JA\343\326"
 232      6C59D097 
 232      E0A7A717 
 232      E513274A 
 232      41E3D6
 233 005b 66A7712E 		.ascii	"f\247q.AW\275\350\225\343\252B\033\317u3\303\325O\306"
 233      4157BDE8 
 233      95E3AA42 
 233      1BCF7533 
 233      C3D54FC6 
 234 006f 5B2BE8C8 		.ascii	"[+\350\310\234\025\350\321\371\264R\234\013\320\305"
 234      9C15E8D1 
 234      F9B4529C 
 234      0BD0C5
 235 007e 3570FE63 		.ascii	"5p\376c\031Z\017o}\225k/\031/\277\217\271\306Y\202^"
 235      195A0F6F 
ARM GAS  C:\Users\gjl\AppData\Local\Temp\cchh2RvQ.s 			page 18


 235      7D956B2F 
 235      192FBF8F 
 235      B9C65982 
 236 0093 ACF321CB 		.ascii	"\254\363!\313\271\010m/\366\253\27413k]\263j\313\022"
 236      B9086D2F 
 236      F6ABBC31 
 236      336B5DB3 
 236      6ACB12
 237 00a6 95759A92 		.ascii	"\225u\232\222N\025\235<|\001\360\301\204\330\307`\004"
 237      4E159D3C 
 237      7C01F0C1 
 237      84D8C760 
 237      04
 238 00b7 86C00503 		.ascii	"\206\300\005\003\340\220.($C\374\000\312BTO"
 238      E0902E28 
 238      2443FC00 
 238      CA42544F 
 239              		.text
 240              		.section	.gnu.lto_u8x8_d_ist3020_erc19264_powersave1_seq.1a3ba26,"",%progbits
 241 0000 789C2D8D 		.ascii	"x\234-\215\271\012\302@\024E\347%Q\004\203\251\004\205"
 241      B90AC240 
 241      1445E725 
 241      510483A9 
 241      0485
 242 0012 FC8456F9 		.ascii	"\374\204V\371,?!E\002\342\017\330XX\250q\313fa\221J"
 242      2C3F2145 
 242      02E20FD8 
 242      5858A871 
 242      CB666191 
 243 0027 050B97C6 		.ascii	"\005\013\227\306F\260\023\324\326B\\\012\327;<\007\016"
 243      46B013D4 
 243      D6425C0A 
 243      D73B3C07 
 243      0E
 244 0038 3387C365 		.ascii	"3\207\303e4AB\236\033\340\227\020o\205B\367\330\313"
 244      3441429E 
 244      1BE09710 
 244      6F8542F7 
 244      D8CB
 245 004a 5C155715 		.ascii	"\\\025W\025\364%\370\361\351'9\351Di\350\265\276\336"
 245      F425F8F1 
 245      E92739E9 
 245      4469E8B5 
 245      BEDE
 246 005c 199C8BD0 		.ascii	"\031\234\213\320E+y\351\\S\320\373*i\352\\\333r\274"
 246      452B79E9 
 246      5C53D0FB 
 246      2A69EA5C 
 246      DB72BC
 247 006f 71A286CA 		.ascii	"q\242\206\312Y\203\036\274O=\3159\017\235]\"\357?V\241"
 247      59831EBC 
 247      4F3DCD39 
 247      0F9D5D22 
 247      EF3F56A1 
 248 0083 CB783BFD 		.ascii	"\313x;\375\377\034\310\361\374\373\230\030\234\025\350"
 248      FF1CC8F1 
 248      FCFB9818 
ARM GAS  C:\Users\gjl\AppData\Local\Temp\cchh2RvQ.s 			page 19


 248      9C15E8
 249 0092 D939EDB3 		.ascii	"\3319\355\263\234\013\320N\315=\2235\266\253M\273\342"
 249      9C0BD04E 
 249      CD3D9335 
 249      B6AB4DBB 
 249      E2
 250 00a3 AA0A954C 		.ascii	"\252\012\225L\212\311\244\262I>\256\010\204  \366!\030"
 250      8AC9A4B2 
 250      493EAE08 
 250      842020F6 
 250      2118
 251 00b5 803EE881 		.ascii	"\200>\350\201.\360\310\0244\"K\374\000\350\343TS"
 251      2EF0C814 
 251      34224BFC 
 251      00E8E354 
 251      53
 252              		.text
 253              		.section	.gnu.lto_u8x8_d_ist3020_erc19264_flip0_seq.1a3ba26,"",%progbits
 254 0000 789C2D8B 		.ascii	"x\234-\213=\013AQ\030\307\317s\216\267\"&E\235/\301"
 254      3D0B4151 
 254      18C7CF73 
 254      8EB72226 
 254      459D2FC1 
 255 0014 E463F908 		.ascii	"\344c\371\010\206{\313hc0\030\324\365\356\222\014&)"
 255      867BCB68 
 255      633018D4 
 255      F5EE920C 
 255      2629
 256 0026 A22C6C26 		.ascii	"\242,l&\312e4\350\312\340\345\372\237\036\247~\235\347"
 256      CA6534E8 
 256      CAE0E5FA 
 256      9F1EA77E 
 256      9DE7
 257 0038 D7AF7F48 		.ascii	"\327\257\177H\2200\357\001\370\022\342#ih{\355\230/"
 257      9030EF01 
 257      F812E223 
 257      69687BED 
 257      982F
 258 004a 6D252820 		.ascii	"m%( \270\367\352\317\222\306\211\"P\277\272=\2448g\241"
 258      B8F7EACF 
 258      92C68922 
 258      50BFBA3D 
 258      A43867A1 
 259 005e 9BE6EC9D 		.ascii	"\233\346\354\235\340\032\206\326\254\375Ur]\233\361"
 259      E01A86D6 
 259      ACFD5572 
 259      5D9BF1
 260 006d CE72EB8A 		.ascii	"\316r\353\212s\010zv\276\325\010\3474tqw\235\377XA?"
 260      73087A76 
 260      BED508E7 
 260      34747177 
 260      9DFF5841 
 261 0082 C74A25CA 		.ascii	"\307J%\312\265a\306\313\3409Oq\226\320\233u9\3059g\240"
 261      B561C6CB 
 261      E0394F71 
 261      96D09B75 
 261      39C53967 
ARM GAS  C:\Users\gjl\AppData\Local\Temp\cchh2RvQ.s 			page 20


 262 0097 ABC9B41C 		.ascii	"\253\311\264\034+LK\345F\251h+I9M#\322\224\327\324\307"
 262      2B4C4BE5 
 262      46A9682B 
 262      49394D23 
 262      D294D7D4 
 263 00ac E7822118 		.ascii	"\347\202!\030\020{\017tA\007\264A\0138\244\005\215\251"
 263      107B0F74 
 263      4107B441 
 263      0B38A405 
 263      8DA9
 264 00be 207EBEEB 		.ascii	" ~\276\353T\034"
 264      541C
 265              		.text
 266              		.section	.gnu.lto_u8x8_d_ist3020_erc19264_flip1_seq.1a3ba26,"",%progbits
 267 0000 789C2D8C 		.ascii	"x\234-\214=\013\202P\030F\357\253%A\242SP\340\237\250"
 267      3D0B8250 
 267      1846EFAB 
 267      2541A253 
 267      50E09FA8 
 268 0014 C99FD54F 		.ascii	"\311\237\325OpPhjmi(\010\354[kh\220\006\011\032\202"
 268      7050686A 
 268      6D692808 
 268      EC5B6B68 
 268      9006091A 
 269 0029 866AA968 		.ascii	"\206j\251h\011\262\261\2060\032\372|\344\355\302\341"
 269      09B2B186 
 269      301AFA7C 
 269      E4EDC2E1 
 270 0039 DEC3E1B9 		.ascii	"\336\303\341\271)A\"9w\300/!\336\022yN\324\311\304\222"
 270      29412239 
 270      77C02F21 
 270      DE12794E 
 270      D4C9C492 
 271 004d 230BFA12 		.ascii	"#\013\372\022<z\016\002-q\"\005\032\327\226{\235s\001"
 271      3C7A0E02 
 271      2D712205 
 271      1AD7967B 
 271      9D7301
 272 0060 BA68052F 		.ascii	"\272h\005/\225k\032\352O\355\213\3065L\306k\333\257"
 272      956B1AEA 
 272      4FED8BC6 
 272      354CC66B 
 272      DBAF
 273 0072 CB9C53D0 		.ascii	"\313\234S\320\223\373\251)\234s\320\331\315w\377c\031"
 273      93FBA929 
 273      9C73D0D9 
 273      CD77FF63 
 273      19
 274 0083 BA3A6CBC 		.ascii	"\272:l\274\377\327\315d<\377>B\235\263\004\275\332\347"
 274      FFD7CD64 
 274      3CFF3E42 
 274      9DB304BD 
 274      DAE7
 275 0095 6396731E 		.ascii	"c\226s\036Z\235\355\266\2529\261*\015\253\354\310\022"
 275      5A9DEDB6 
 275      AA39B12A 
 275      0DABECC8 
ARM GAS  C:\Users\gjl\AppData\Local\Temp\cchh2RvQ.s 			page 21


 275      12
 276 00a6 150D1A91 		.ascii	"\025\015\032\221A%\203\006\270|\340\201!\261\367A\017"
 276      41258306 
 276      B87CE081 
 276      21B1F741 
 276      0F
 277 00b7 744107B4 		.ascii	"tA\007\264\201K\206\2401\231\342\007\3673T\255"
 277      814B86A0 
 277      3199E207 
 277      F73354AD 
 278              		.text
 279              		.section	.gnu.lto_.symbol_nodes.1a3ba26,"",%progbits
 280 0000 789C55CC 		.ascii	"x\234U\314\273\015\3020\024\205\341s\375\310;\024\210"
 280      BB0DC230 
 280      1485E173 
 280      FDC83B14 
 280      88
 281 0011 01600B46 		.ascii	"\001`\013F`\253\353\302\035\022 !QRy\012j\213H\024d"
 281      60ABEBC2 
 281      1D122021 
 281      5152790A 
 281      6A8B4814 
 282 0026 00DAAC80 		.ascii	"\000\332\254\200\004\035\211\235\002W\237~\335\243\253"
 282      041D899D 
 282      02579F7E 
 282      DDA3AB
 283 0035 40D81100 		.ascii	"@\330\021\000\2211pz\002#7\263\001\264\322f\011H\255"
 283      9131707A 
 283      022337B3 
 283      01B4D266 
 283      0948AD
 284 0048 5514324A 		.ascii	"U\0242J\"*(*\021\244\226)<\000\214Y\003\264`\221t\315"
 284      222A282A 
 284      11A49629 
 284      3C008C59 
 284      03B46091 
 285 005e 32E98A55 		.ascii	"2\351\212U\322\015\353\244K\316\222.8O:\347\342\277"
 285      D20DEBA4 
 285      4BCE922E 
 285      384F3AE7 
 285      E2BF
 286 0070 2516183E 		.ascii	"%\026\030>+\211\026\356;\322\300G\334\275\243\220\263"
 286      2B8916EE 
 286      3BD2C047 
 286      DCBDA390 
 286      B3
 287 0081 AE9B7D4C 		.ascii	"\256\233}LV\360\373^H\224\030\2025\334a2\207\017V\260"
 287      56F0FB5E 
 287      48941882 
 287      35DC6132 
 287      870F56B0 
 288 0095 C778F7E7 		.ascii	"\307x\367\347\250\275\314\373`\001\373zo\247\275\275"
 288      A8BDCCFB 
 288      6001FB7A 
 288      6FA7BDBD 
 289 00a5 F6023FB8 		.ascii	"\366\002?\270\353D\271"
 289      EB44B9
ARM GAS  C:\Users\gjl\AppData\Local\Temp\cchh2RvQ.s 			page 22


 290              		.text
 291              		.section	.gnu.lto_.refs.1a3ba26,"",%progbits
 292 0000 789C6361 		.ascii	"x\234ca`d\020e```c`bdfbbcb\346db\341bb\345eb\023d\000"
 292      60641065 
 292      60606063 
 292      60626466 
 292      62626362 
 293 0020 00060600 		.ascii	"\000\006\006\000|"
 293      7C
 294              		.text
 295              		.section	.gnu.lto_.decls.1a3ba26,"",%progbits
 296 0000 789CBD59 		.ascii	"x\234\275Y\013PTW\232\356sO\003Mw\003\021HbMQ\023'!"
 296      0B505457 
 296      9AEE734F 
 296      034D7703 
 296      1148624D 
 297 0018 CA54CD18 		.ascii	"\312T\315\030\320l\312\335\332\255\312\324\354n\366"
 297      D06CCADD 
 297      DAADCAD4 
 297      EC6EF6
 298 0027 51B595AD 		.ascii	"Q\265\225\255IR\273U\324\3666M\253\235\201\206t7*3\225"
 298      4952BB55 
 298      D4F6364D 
 298      AB9D8186 
 298      74372A33 
 299 003c DACB438C 		.ascii	"\332\313C\214 \010\362P\020\243\242Q|\340\003\021\004"
 299      2008F250 
 299      10A3A251 
 299      7CE00311 
 299      04
 300 004d 513A820A 		.ascii	"Q:\202\012\202\202\340\223\227\250\210\030P\221\207"
 300      8282E093 
 300      97A88818 
 300      509187
 301 005c 280FD9FF 		.ascii	"(\017\331\377\234so\337\333x;\263\251\232\331.\177\317"
 301      9C736FDF 
 301      DB783BB3 
 301      A99AD92E 
 301      7FCF
 302 006e FDCFF9CE 		.ascii	"\375\317\371\316\367?\316\363^\324*\244\"\277\367\336"
 302      F73FCEF3 
 302      5ED42AA4 
 302      22BFF7DE 
 303 007e 51A966BD 		.ascii	"Q\251f\275T\252~N\245\232\203\237\006\352\276\000\361"
 303      54AA7E4E 
 303      A59A839F 
 303      06EABE00 
 303      F1
 304 008f 06F914E4 		.ascii	"\006\371\024\344(H5\210\023\304\007\272\204\250\330"
 304      28483588 
 304      13C407BA 
 304      84A8D8
 305 009e CF17E45F 		.ascii	"\317\027\344_A\377w\220\377\0041\200D\201\230A\276\004"
 305      41FF7790 
 305      FF043180 
 305      44819841 
 305      BE04
ARM GAS  C:\Users\gjl\AppData\Local\Temp\cchh2RvQ.s 			page 23


 306 00b0 B182D811 		.ascii	"\261\202\330\021\343I\200r-H\"\310\037A\276\006\371"
 306      E3498072 
 306      2D4822C8 
 306      1F41BE06 
 306      F9
 307 00c1 1FA472FB 		.ascii	"\037\244r\373\021\256w\004{\201 \301 \177\013u\237C"
 307      11AE7704 
 307      7B8120C1 
 307      207F0B75 
 307      9F43
 308 00d3 F919926C 		.ascii	"\371\031\222l\023\337x\302\013b\003I\002\211\005IF\314"
 308      13DF78C2 
 308      0B620349 
 308      02890549 
 308      46CC
 309 00e5 C73A100B 		.ascii	"\307:\020\013b>\237\002\371;x\256\2022\005\312OARA\376"
 309      623E9F02 
 309      F93B78AE 
 309      823205CA 
 309      4F415241 
 310 00fa 0BB1D8F2 		.ascii	"\013\261\330\362\240\314\005\311\007\371\017\020\022"
 310      A0CC05C9 
 310      07F90F10 
 310      12
 311 0107 FB2750BE 		.ascii	"\373'P\276\204\362C(\307\241\334\004e\026H&\310f$\305"
 311      84F24328 
 311      C7A1DC04 
 311      65164826 
 311      C86624C5 
 312 011b 6D1762FC 		.ascii	"m\027b\374R\210\333 \304.\346\303\017p\005Pn\005\331"
 312      5288DB20 
 312      C42EE6C3 
 312      0F700550 
 312      6E05D9
 313 012e 06520852 		.ascii	"\006R\010R\004\262\035\244X\210\377k!\037\211B~\022"
 313      04B21DA4 
 313      5888FF6B 
 313      211F8942 
 313      7E12
 314 0140 E6E58460 		.ascii	"\346\345\204`\324P.V\261\330\227\250X\334APN\200\214"
 314      D4502E56 
 314      B1D897A8 
 314      58DC4150 
 314      4E808C
 315 0153 828C803C 		.ascii	"\202\214\200<\007\231$\035\240\355\011\024\317@\246"
 315      0799241D 
 315      A0ED0914 
 315      CF40A6
 316 0162 406641A6 		.ascii	"@fA\246A^\200\274\002\341\240\375\251\212\305Gb\233"
 316      415E80BC 
 316      02E1A0FD 
 316      A98AC547 
 316      629B
 317 0174 215DE6D9 		.ascii	"!]\346\331\024\177\3047,\330\015\026\362\352\351\367"
 317      147FC437 
 317      2CD80D16 
 317      F2EAE9F7 
ARM GAS  C:\Users\gjl\AppData\Local\Temp\cchh2RvQ.s 			page 24


 318 0184 C779D853 		.ascii	"\307y\330S?\202M\374\011\330\265?\001\233\360\023\260"
 318      3F824DFC 
 318      09D8B53F 
 318      019BF013 
 318      B0
 319 0195 B31C3ABA 		.ascii	"\263\034:\272\276\377\200f\234C!Z4\207\210>\\\375\322"
 319      BEFF8066 
 319      9C43215A 
 319      3487883E 
 319      5CFDD2
 320 01a8 8FE9A4F9 		.ascii	"\217\351\244\371\316\313\322\177\\z\230\207_6\317s\234"
 320      CECBD27F 
 320      5C7A9887 
 320      5F36CF73 
 320      9C
 321 01b9 D4AFC239 		.ascii	"\324\257\3029V\246\306:\002\342\256\236\270}\336\027"
 321      56A6C63A 
 321      02E2AE9E 
 321      B87DDE17 
 322 01c9 8569F711 		.ascii	"\205i\367\021\\_\327\370oRx\036\241\303H\213\016\"\214"
 322      5C5FD7F8 
 322      6F52781E 
 322      A1C3488B 
 322      0E228C
 323 01dc 0EA0A5D0 		.ascii	"\016\240\245\320\005\010\341\377ox>\231\037)\341\275"
 323      0508E1FF 
 323      6F783E99 
 323      1F29E1BD 
 324 01ec 17AAD0F2 		.ascii	"\027\252\320\362\020\024\036\242B\207P\0301FP\250\024"
 324      10141EA2 
 324      42875018 
 324      314650A8 
 324      14
 325 01fd 85A0FD28 		.ascii	"\205\240\375(\204\360\037\330Y\332\340\207\267!j\340"
 325      84F01FD8 
 325      59DAE087 
 325      B7216AE0 
 326 020d 71DED037 		.ascii	"q\336\3207\330e '#\344\020\317\277\201\216\202\2012"
 326      D8652027 
 326      23E410CF 
 326      BF818E82 
 326      8132
 327 021f C900D853 		.ascii	"\311\000\330S\266pD\301\002\351\014V\256\246\036+\306"
 327      B67044C1 
 327      02E90C56 
 327      AEA61E2B 
 327      C6
 328 0230 106DA016 		.ascii	"\020m\240\026\251A}v\271\350\276?\250\301Z\264\010\324"
 328      A9417D76 
 328      B9E8BE3F 
 328      A8C15AB4 
 328      08D4
 329 0242 FEE9B21A 		.ascii	"\376\351\262\032\177\326\352\015\352\323\373\223\367"
 329      7FD6EA0D 
 329      EAD3FB93 
 329      F7
 330 024f 34DA6F68 		.ascii	"4\332oh2R\370\300F\177\322p\034\010\217\001\241\012"
ARM GAS  C:\Users\gjl\AppData\Local\Temp\cchh2RvQ.s 			page 25


 330      3252F8C0 
 330      467FD270 
 330      1C088F01 
 330      A10A
 331 0261 9D20F6D1 		.ascii	"\235 \366\321\007!\250\234E0\236\276~R\340\366\001\265"
 331      0721A89C 
 331      45309EBE 
 331      7E52E0F6 
 331      01B5
 332 0273 74A0384B 		.ascii	"t\2408K\317\270W\200\352|\312O\006\004f\013\231\375"
 332      CFB85780 
 332      EA7CCA4F 
 332      0604660B 
 332      99FD
 333 0285 18D1684E 		.ascii	"\030\321hN\002Y\005%\253D\201\"%\341\332q\375^\266\257"
 333      02590525 
 333      AB448122 
 333      25E1DA71 
 333      FD5EB6AF 
 334 0299 56882DFB 		.ascii	"V\210-\373O\304\006\370\262\222\224K\234\234\275\352"
 334      4FC406F8 
 334      B292944B 
 334      9C9CBDEA 
 335 02a9 C7D86B8A 		.ascii	"\307\330k\212/v{\351\323\011\273\020\330)\024(\213\254"
 335      2F767BE9 
 335      D309BB10 
 335      D8291428 
 335      8BAC
 336 02bb 1AE9C9A8 		.ascii	"\032\351\311\250\223\022\320\333\307z\036\371\262\270"
 336      9312D0DB 
 336      C77A1EF9 
 336      B2B8
 337 02c9 C2407D99 		.ascii	"\302@}\231\231\331\351\3459+\247\305\254\3240\317\246"
 337      99D9E9E5 
 337      392BA7C5 
 337      ACD430CF 
 337      A6
 338 02da AA7B4AD4 		.ascii	"\252{J\324\254\367/A\335\231]\223\352\307\262\322\310"
 338      ACF72F41 
 338      DD995D93 
 338      EAC7B2D2 
 338      C8
 339 02eb 819E3A75 		.ascii	"\201\236:uk\237\367\374\264\234\001\266Z\312v\226:~"
 339      6B9FF7FC 
 339      B49C01B6 
 339      5ACA7696 
 339      3A7E
 340 02fd 5A74BCBE 		.ascii	"Zt\274\276\371\350\327\363\243\364\010.iL\316\322\271"
 340      F9E8D7F3 
 340      A3F4082E 
 340      694CCED2 
 340      B9
 341 030e 4559E716 		.ascii	"EY\347\026\245S\210\322I\243<]U{\301\2139\026\016j\373"
 341      A55388D2 
 341      49A33C5D 
 341      557BC18B 
 341      39160E6A 
ARM GAS  C:\Users\gjl\AppData\Local\Temp\cchh2RvQ.s 			page 26


 342 0323 48CB0E1D 		.ascii	"H\313\016\035s\373\015P\317\317M:\003\230\312\311Z\203"
 342      73FB0D50 
 342      CFCF4D3A 
 342      0398CAC9 
 342      5A83
 343 0335 59EBA68E 		.ascii	"Y\353\246\216\312\345x+G\027\320wS\323#d\026,\206\365"
 343      CAE5782B 
 343      4717D077 
 343      53D32364 
 343      162C86F5 
 344 0349 3587650B 		.ascii	"5\207e\013l1[`u\315M\373\364x\017\005s{\235\311\353"
 344      6C315B60 
 344      75CD4DFB 
 344      F4780F05 
 344      737B9DC9 
 345 035e 11D286D1 		.ascii	"\021\322\206\321\201\346Sxm\251\277\0125\200\207\365"
 345      81E65378 
 345      6DA9BF0A 
 345      358087F5 
 346 036e 64CA5E82 		.ascii	"d\312^\202\261^,\214\365E\250\274\000\225\302\222\033"
 346      B15E2C8C 
 346      F545A8BC 
 346      0095C292 
 346      1B
 347 037f FE17BAE4 		.ascii	"\376\027\272\344\232 \376FiE,\026\"?\233\3235\240\305"
 347      9A20FE46 
 347      69452C16 
 347      223F9BD3 
 347      35A0C5
 348 0392 47988D03 		.ascii	"G\230\215\003#-\207\003<\332\270\354\321FN\306\342\303"
 348      232D8703 
 348      3CDAB8EC 
 348      D1464EC6 
 348      E2C3
 349 03a4 64D5B580 		.ascii	"d\325\265\200\215f\311F\223\230\336'\251\017\372\204"
 349      8D66C946 
 349      9398DE27 
 349      A90FFA84 
 350 03b4 1C2C04F5 		.ascii	"\034,\004\365\360\365[\263\010W\261$\\~5r\026\343&\246"
 350      F0F55BB3 
 350      0857B124 
 350      5C7E3572 
 350      16E326A6 
 351 03c8 94F5A575 		.ascii	"\224\365\245ux\341N\246\354\233\331]\241\307\003L):"
 351      78E14EA6 
 351      EC9BD95D 
 351      A1C7034C 
 351      293A
 352 03da 3D7EC98B 		.ascii	"=~\311\213eU\003\352\205\3113{\274\3603\326\226\236"
 352      655503EA 
 352      85C9337B 
 352      BCF033D6 
 352      969E
 353 03ec 7170B73F 		.ascii	"qp\267?N\303T\021\247`0\233\202\3537\035\252\305\270"
 353      4EC35411 
 353      A760309B 
 353      82EB371D 
ARM GAS  C:\Users\gjl\AppData\Local\Temp\cchh2RvQ.s 			page 27


 353      AAC5B8
 354 03ff 90B5B5DD 		.ascii	"\220\265\265\335)\237\360\306G\230r\2477\347K\\\305"
 354      299FF0C6 
 354      479872A7 
 354      37E74B5C 
 354      C5
 355 0410 9E7B1A0F 		.ascii	"\236{\032\017\034\"#\261\204\214\304\334\\\200l,\226"
 355      1C2223B1 
 355      848CC4DC 
 355      5C806C2C 
 355      96
 356 0421 B0B168DF 		.ascii	"\260\261h\337<\272\327\0077P8w!\363D\271N\332\324\366"
 356      3CBAD707 
 356      37503877 
 356      21F344B9 
 356      4EDAD4F6 
 357 0435 EAAB49F4 		.ascii	"\352\253I\364\275\020}\267\024\375\022\327\226\303\246"
 357      BD107DB7 
 357      14FD12D7 
 357      96C3A6
 358 0444 94CA359F 		.ascii	"\224\3125\237P\017dr\211\220\311.\250\354\024\366\265"
 358      500F6472 
 358      8990C92E 
 358      A8EC14F6 
 358      B5
 359 0455 BD3925DE 		.ascii	"\2759%\336\270\225\331(\25488\251\225\355k\037\322\014"
 359      B895D928 
 359      AC3838A9 
 359      95ED6B1F 
 359      D20C
 360 0467 DF051B77 		.ascii	"\337\005\033w$\033\275\310\263\221>e#C\327\332s\274"
 360      241BBDC8 
 360      B3913E65 
 360      2343D7DA 
 360      73BC
 361 0479 F02D16F7 		.ascii	"\360-\026\367l\371\206\323j<\304\224\207\215/\307ux"
 361      6CF986D3 
 361      6A3CC494 
 361      878D2FC7 
 361      7578
 362 048b 962953E7 		.ascii	"\226)S\347\222\253\021\316VS\245\362\334\313\026/\374"
 362      92AB11CE 
 362      5653A5F2 
 362      DCCB162F 
 362      FC
 363 049c 1D539E24 		.ascii	"\035S\236$\037\332\213\360Y\246\264\345?.\340\360M\246"
 363      1FDA8BF0 
 363      59A6B4E5 
 363      3F2EE0F0 
 363      4DA6
 364 04ae CC4CE726 		.ascii	"\314L\347&y\341\037\230R\327=xX\207g\204>\302\004\010"
 364      79E11F98 
 364      52D73D78 
 364      58876784 
 364      3EC20408 
 365 04c2 6413E058 		.ascii	"d\023\340Xm\352ca/u\222\203\2454s\244^\213\363\275\010"
 365      6DEA6361 
ARM GAS  C:\Users\gjl\AppData\Local\Temp\cchh2RvQ.s 			page 28


 365      2F759283 
 365      A53473A4 
 365      5E8BF3BD 
 366 04d7 F6CDA4BA 		.ascii	"\366\315\244\272\313\027}P(\371\005\205J\2770\220\022"
 366      CB177D50 
 366      28F90585 
 366      4ABF3090 
 366      12
 367 04e8 12685FFE 		.ascii	"\022h_\376\320\307\265\225\335<\237\246\247;\300}H\307"
 367      D0C7B595 
 367      DD3C9FA6 
 367      A73BC07D 
 367      48C7
 368 04fa 180A1277 		.ascii	"\030\012\022w\275\017\310z\375\236\254Z\025\205;\263"
 368      BD0FC87A 
 368      FD9EAC5A 
 368      15853BB3 
 369 050a DB75FCB1 		.ascii	"\333u\374\261\377\246\320\253\356\320stm/\227\240\335"
 369      FFA6D0AB 
 369      EED07374 
 369      6D2F97A0 
 369      DD
 370 051b 575CD087 		.ascii	"W\\\320\207\012\254\0152\326m\255.\350=\005\350I\031"
 370      0AAC0D32 
 370      D66DAD2E 
 370      E83D05E8 
 370      4919
 371 052d F496C43A 		.ascii	"\364\226\304:\250\000\245\366s\204\215\212G\016\025"
 371      A800A5F6 
 371      73848D8A 
 371      470E15
 372 053c 1A86D11A 		.ascii	"\032\206\321\032\"C\370\203\000\2071\204\0238\014M\240"
 372      2243F883 
 372      00873184 
 372      13380C4D 
 372      A0
 373 054d 50340A32 		.ascii	"P4\0122\002\362\034d\022\204\347B\321\023(\237\201L"
 373      02F21C64 
 373      1284E742 
 373      D113289F 
 373      814C
 374 055f 81CC824C 		.ascii	"\201\314\202L\203\274\000y\005\222\014\355O\241|\011"
 374      83BC0079 
 374      05920CED 
 374      4FA17C09 
 375 056f 320E3203 		.ascii	"2\0162\003\222\304\205\322\263\232\371W %\250U)AWd\261"
 375      92C485D2 
 375      B39AF957 
 375      2025A855 
 375      29415764 
 376 0584 DC906279 		.ascii	"\334\220by\244\020K\204\204\354\225\220\003\012H9\351"
 376      A4104B84 
 376      84EC9590 
 376      030A4839 
 376      E9
 377 0595 88047DA0 		.ascii	"\210\004}\240\000=.\203\216Ki\277\356\016\355@\363\007"
 377      003D2E83 
ARM GAS  C:\Users\gjl\AppData\Local\Temp\cchh2RvQ.s 			page 29


 377      8E4B69BF 
 377      EE0EED40 
 377      F307
 378 05a7 3E4F8AAB 		.ascii	">O\212\253M).\371p\356\334\354_\310;S1]`\267\005\264"
 378      4D292EF9 
 378      70EEDCEC 
 378      5FC83B53 
 378      315D60B7 
 379 05bd 6B29316E 		.ascii	"k)1nYp\267[\375\266\362\316$L\311o*9rCF^\265\305\177"
 379      5970B75B 
 379      FDB6F2CE 
 379      244CC96F 
 379      2A397243 
 380 05d6 1BEF4CC6 		.ascii	"\033\357L\306t\177</\240]\333*sF\036d\207\234\375\226"
 380      747F3C2F 
 380      A05DDB2A 
 380      73461E64 
 380      879CFD96 
 381 05ea 12BB1CFD 		.ascii	"\022\273\034\375BJ\3115%,\233\212t\033q\326e\351y^C"
 381      424AC935 
 381      252C9B8A 
 381      741B71D6 
 381      65E9795E 
 382 05ff 302A610B 		.ascii	"0*a\013\221\246\301\330\025\231\325~\205q\220\207T-"
 382      91A6C1D8 
 382      1599D57E 
 382      85719087 
 382      542D
 383 0611 0FE9B172 		.ascii	"\017\351\261rH\362\261\230\223\207\324\2564\0324\273"
 383      48F2B198 
 383      9387D4AE 
 383      341A34BB 
 384 0621 B017DCDE 		.ascii	"\260\027\334\336\274\2750\000\327\320\275\200\273\334"
 384      BCBD3000 
 384      D7D0BD80 
 384      BBDC
 385 062f 5F54E78F 		.ascii	"_T\347\217\202\302\224\227\307z.\354/\272<X\316z\232"
 385      82C29497 
 385      C77A2EEC 
 385      2FBA3C58 
 385      CE7A9A
 386 0642 7F457296 		.ascii	"\177Er\226\312\005\241\024\316\265\363\222\024R\177"
 386      CA05A114 
 386      CEB5F392 
 386      14527F
 387 0651 7797EECF 		.ascii	"w\227\356\317DA\202\203N\217\016\252\376\354\336\201"
 387      44418283 
 387      4E8F0EAA 
 387      FEECDE81 
 388 0661 EDB4F4B1 		.ascii	"\355\264\364\261$\344vmI\343\202d\327\226\015\034\273"
 388      24E4766D 
 388      49E38264 
 388      D7960D1C 
 388      BB
 389 0672 B64049F6 		.ascii	"\266@I\366\352\324\013U\232.\230\335pj\012/4\354\305"
 389      EAD40B55 
 389      9A2E98DD 
ARM GAS  C:\Users\gjl\AppData\Local\Temp\cchh2RvQ.s 			page 30


 389      706A0A2F 
 389      34ECC5
 390 0685 06414144 		.ascii	"\006AAD\305\204\252\360\300\321\377U\256*W\241\"\377"
 390      C584AAF0 
 390      C0D1FF55 
 390      AE2A57A1 
 390      22FF
 391 0697 AB189ED6 		.ascii	"\253\030\236\326Id\364\237X\316\211?J\"\261#\241\023"
 391      4964F49F 
 391      58CE893F 
 391      4A22B123 
 391      A113
 392 06a9 7279C07A 		.ascii	"ry\300z\261vNde\005'u\220\3611we>!\367\230\220\230\242"
 392      B1764E64 
 392      65052775 
 392      90F13177 
 392      653E21F7 
 393 06c1 82B65D4F 		.ascii	"\202\266]O\275\361\025:\235\320\221\303\323\307\264"
 393      BDF1153A 
 393      9DD091C3 
 393      D3C7B4
 394 06d0 6A785341 		.ascii	"jxSA\237\353Q\224\232Tu\245\355o\326\321*23\3239Zy\375"
 394      9FEB5194 
 394      9A5475A5 
 394      ED6FD6D1 
 394      2A3233D3 
 395 06e8 56EF755F 		.ascii	"V\357u_We\006\253\024_\000\002\331\013\000?\230\272"
 395      576506AB 
 395      145F0002 
 395      D90B003F 
 395      98BA
 396 06fa 93C3038C 		.ascii	"\223\303\003\214\270n0\247N\203'\230\322\266\377\361"
 396      B86E30A7 
 396      4E832798 
 396      D2B6FFF1 
 397 070a 4D7F9CE9 		.ascii	"M\177\234\351M\225\301]u\345\032\\\312\224|\347\226"
 397      4D95C15D 
 397      75E51A5C 
 397      CA947CE7 
 397      96
 398 071b 192DAE60 		.ascii	"\031-\256`JS\365\275p\\\307\236\2377_\353\301\370\012"
 398      4A53F5BD 
 398      705CC79E 
 398      9F375FEB 
 398      C1F80A
 399 072e 53369F3B 		.ascii	"S6\237;S\257\301\235L\271\320\335y]\215\007\230\222"
 399      53AFC19D 
 399      4CB9D0DD 
 399      795D8D07 
 399      9892
 400 0740 74A6FE84 		.ascii	"t\246\376\204\037\236f\312\354\211\023\365\010\247\372"
 400      1F9E66CA 
 400      EC8913F5 
 400      08A7FA
 401 074f 506520FD 		.ascii	"Pe \375\3003=\316d\312\243\356\252\031\275\333\264 "
 401      C0333DCE 
 401      64CAA3EE 
ARM GAS  C:\Users\gjl\AppData\Local\Temp\cchh2RvQ.s 			page 31


 401      AA19BDDB 
 401      B420
 402 0761 975F695A 		.ascii	"\227_iZ\024\261i\001\310{\307'\2075x\013\353\266a\256"
 402      14B16901 
 402      C87BC727 
 402      8735780B 
 402      EBB661AE 
 403 0775 A74183F7 		.ascii	"\247A\203\3672%u\177\346v?|\214)Y\205\243\247}\360)"
 403      3225757F 
 403      E6763F7C 
 403      8C295985 
 403      A3A77DF0 
 404 078a A6743877 		.ascii	"\246t8wm\367\305uL\271_1\271\327\017_b\312\335\247g"
 404      6DF7C575 
 404      4CB95F31 
 404      B9D70F5F 
 404      62CADDA7 
 405 079f 0A7D5C69 		.ascii	"\012}\\ic\371=\331\276\363\216\017ng\200\251\326\351"
 405      63F93DD9 
 405      BEF38E0F 
 405      6E6780A9 
 405      D6E9
 406 07b1 1A84EF30 		.ascii	"\032\204\3570e\262\354a\267\027\036\026\314\355\310"
 406      65B2EC61 
 406      B7171E16 
 406      CCEDC8
 407 07c0 6EE55872 		.ascii	"n\345Xr\177EFmcq\237\232]\020\372\310"
 407      7F45466D 
 407      63719F9A 
 407      5D10FAC8 
 408 07d0 257AF0C1 		.ascii	"%z\360\301\366\013Z\374\202a\353:\216\266\004\340M\032"
 408      F60B5AFC 
 408      8261EB3A 
 408      8EB604E0 
 408      4D1A
 409 07e2 A2BCDB3D 		.ascii	"\242\274\333=\\^\355\207\334n\012\241\241z\375B\265"
 409      5C5EED87 
 409      DC6E0AA1 
 409      A17AFD42 
 409      B5
 410 07f3 3E487C0A 		.ascii	">H|\012\013\015\013\013c\333\320\326\033\262m\010.."
 410      0B0D0B0B 
 410      63DBD0D6 
 410      1BB26D08 
 410      2E2E
 411 0805 E820E7DA 		.ascii	"\350 \347\332\206\206d\273\245\333~\263\217\013A\337"
 411      868664BB 
 411      A5DB7EB3 
 411      8F0B41DF 
 412 0815 7180D82B 		.ascii	"q\200\330+t \373M#,\355\213\260:\277\007q\202\324\201"
 412      7420FB4D 
 412      232CED8B 
 412      B03ABF07 
 412      7182D481 
 413 0829 9C05A902 		.ascii	"\234\005\251\002\251\0049\011R\001r\000\344\004H9\310"
 413      A9043909 
 413      52017200 
ARM GAS  C:\Users\gjl\AppData\Local\Temp\cchh2RvQ.s 			page 32


 413      E4044839 
 413      C8
 414 083a 71906320 		.ascii	"q\220c GA\216\200\224\201\034\0069\344v\034\327\336"
 414      47418E80 
 414      94811C06 
 414      39E4761C 
 414      D7DE
 415 084c 70EDE7FB 		.ascii	"p\355\347\373\335=\254\231\177\014\325H\320,wh&7\377"
 415      DD3DAC99 
 415      7F0CD548 
 415      D02C7768 
 415      2637FF
 416 085f 16724AC2 		.ascii	"\026rJ\302nV\302\312w\353J\011\233\255\204\225\237\004"
 416      6E56C2CA 
 416      77EB4A09 
 416      9BAD8495 
 416      9F04
 417 0871 15123647 		.ascii	"\025\0226G\011+?\252\312%\354\026%\254\374RpL\302\346"
 417      092B3FAA 
 417      CA25EC16 
 417      25ACFC52 
 417      704CC2E6 
 418 0885 2A61E5A7 		.ascii	"*a\345\247\367\267\0226O\011+\273\342m\223\240\371J"
 418      F7B71236 
 418      4F092BBB 
 418      E26D93A0 
 418      F94A
 419 0897 505976F3 		.ascii	"PYv\363$\350V\245\251\"\317Xn\201\354<\334&\240]\347"
 419      24E856A5 
 419      A922CF58 
 419      6E81EC3C 
 419      DC26A05D 
 420 08ac E1D06B87 		.ascii	"\341\320k\207vN\301\233\354\276\001k\021\025\012x\327"
 420      764EC19B 
 420      ECBE016B 
 420      11150A78 
 420      D7
 421 08bd 7D6368FE 		.ascii	"}ch\376@\317u\0040\370)\200o\237\017\227\337 \344\253"
 421      40CF7504 
 421      30F82980 
 421      6F9F0F97 
 421      DF20E4AB 
 422 08d1 BE865B28 		.ascii	"\276\206[(\201.\301\204\255\206\336\354\374\362\004"
 422      812EC184 
 422      AD86DEEC 
 422      FCF204
 423 08e0 53C93005 		.ascii	"S\3110\005d\021\300[\340\"\216\346@\214FE:\220\227g"
 423      6411C05B 
 423      E0228EE6 
 423      408C4645 
 423      3A909767 
 424 08f4 8E7C7623 		.ascii	"\216|v#\253\275\026\272l\002MNz\306\355 \252e;\216\362"
 424      ABBD16BA 
 424      6C024D4E 
 424      7AC6ED20 
 424      AA653B8E 
 425 0909 B26A02CF 		.ascii	"\262j\002\317\376\362\313j\246C\317g\033i\002w('P\226"
ARM GAS  C:\Users\gjl\AppData\Local\Temp\cchh2RvQ.s 			page 33


 425      FEF2CB6A 
 425      A643CF67 
 425      1B690277 
 425      28275096 
 426 091d EF2909FC 		.ascii	"\357)\011\374\355|\260\302\015LB\357TF\313\250's\203"
 426      ED7CB0C2 
 426      0D4C42EF 
 426      5446CBA8 
 426      277383
 427 0930 D9509E03 		.ascii	"\331P\236\003\370\256\371\360\017\224G\262A>\222\027"
 427      F8AEF9F0 
 427      0F9447B2 
 427      413E9217 
 428 0940 2047F58A 		.ascii	" G\365\212#\331\3406\222\365J#\331\3426\222\015t$\317"
 428      23D9E036 
 428      92F54A23 
 428      D9E23692 
 428      0D7424CF 
 429 0954 BB8DE46E 		.ascii	"\273\215\344n\320\330\315g\"\343-r\363!\216\226H7\237"
 429      D0D8CD67 
 429      22E32D72 
 429      F3218E96 
 429      48379F
 430 0967 7A3A962C 		.ascii	"z:\226,\230\211\334wX0p\303@{\024\203\211\220n\237\317"
 430      9889DC77 
 430      583070C3 
 430      407B1483 
 430      89906E9F 
 431 097c 72E9ED13 		.ascii	"r\351\355\0230\362\333'k\353\312\3709i#\323\246T\262"
 431      30F2DB27 
 431      6BEBCAF8 
 431      396923D3 
 431      A654B2
 432 098f 45A02262 		.ascii	"E\240\"b\254\371M\202 Y.\226\020\325\324\033r\002\356"
 432      ACF94D82 
 432      20592E96 
 432      10D5D41B 
 432      7202EE
 433 09a2 9A6BF47A 		.ascii	"\232k\364zw\027\277\353\030\337w\263\344\253\322\362"
 433      7717BFEB 
 433      18DF77B3 
 433      E4ABD2F2 
 434 09b2 7E9ED7AA 		.ascii	"~\236\327\252\351\344\336(\301\341\221\024\337p]p_h"
 434      E9E4DE28 
 434      C1E19114 
 434      DF705D70 
 434      5F68
 435 09c4 E6DE255F 		.ascii	"\346\336%_s\012\356\353\360Iz\232\240\224}}m^\370\022"
 435      730AEEEB 
 435      F0497A9A 
 435      A0947D7D 
 435      6D5EF812 
 436 09d8 530AEA9C 		.ascii	"S\012\352\234\305\001p\234\241\313\264\0239.\033\222"
 436      C501709C 
 436      A1CBB413 
 436      392E1B92 
 437 09e8 47D9BD80 		.ascii	"G\331\275\200$\212\035p\255u-\305\352\205\036\327J\033"
ARM GAS  C:\Users\gjl\AppData\Local\Temp\cchh2RvQ.s 			page 34


 437      248A1D70 
 437      AD752DC5 
 437      EA851ED7 
 437      4A1B
 438 09fa CD702BCD 		.ascii	"\315p+\3150\240\277\315m\312W\203\227}\360N\2377\264"
 438      30A0BFCD 
 438      6DCA5783 
 438      977DF04E 
 438      9F37B4
 439 0a0d 2E634F9A 		.ascii	".cO\232\263\015\336\353)\016\265\210~\242+\234\232h"
 439      B30DDEEB 
 439      290EB588 
 439      7EA22B9C 
 439      9A68
 440 0a1f EC3E7395 		.ascii	"\354>s\225\272\231\273{\254\227\303\035\236\\\313\033"
 440      BA99BB7B 
 440      AC97C31D 
 440      9E5CCB1B 
 441 0a2f BCE8EB76 		.ascii	"\274\350\353v\344\037u;\362\257\271\216\374\255\265"
 441      E41F753B 
 441      F2AFB98E 
 441      FCADB5
 442 0a3e 1B6F79D3 		.ascii	"\033oy\323\030\256\271b\350\357n\032\227\016\356\353"
 442      18AEB962 
 442      E8EF6E1A 
 442      970EEEEB 
 443 0a4e ECBED3B2 		.ascii	"\354\276\323\262a\256\215s\005{\203U\016\364\326W{{"
 443      61AE8D73 
 443      057B8355 
 443      0EF4D657 
 443      7B7B
 444 0a60 8EF6168D 		.ascii	"\216\366\026\215\366\246\030\355\\\332\213\273z\026"
 444      F6A618ED 
 444      5CDA8BBB 
 444      7A16
 445 0a6e AD732AAA 		.ascii	"\255s*\252\220?\227\314\177L0\250\335\025i\007D\332"
 445      903F97CC 
 445      7F4C30A8 
 445      DD156907 
 445      44DA
 446 0a80 2E467A9B 		.ascii	".Fz\233F\272%\347\361\026_\374\300S\244J\267\214\253"
 446      46BA25E7 
 446      F1165FFC 
 446      C053A44A 
 446      B78CAB
 447 0a93 DDAD33DE 		.ascii	"\335\2553\336._\273\231\257\271\333Z\233~ddz\251\257"
 447      2E5FBB99 
 447      AFB9DB5A 
 447      9B7E6464 
 447      7AA9AF
 448 0aa6 3DA2AFC9 		.ascii	"=\242\257\311\243\027g\261\340\353s\321W\300\240N\227"
 448      A31767B1 
 448      E0EB73D1 
 448      57C0A04E 
 448      97
 449 0ab7 AF5DE06B 		.ascii	"\257]\340k\247\350\353\035\352kV\322\251\363j\374\334"
 449      A7E8EB1D 
ARM GAS  C:\Users\gjl\AppData\Local\Temp\cchh2RvQ.s 			page 35


 449      EA6B56D2 
 449      A9F36AFC 
 449      DC
 450 0ac8 93AFEBB3 		.ascii	"\223\257\353\263\316\316\371\012\2443\")\031\352>\027"
 450      CECEF90A 
 450      A4332229 
 450      19EA3E17 
 451 0ad8 E95D20ED 		.ascii	"\351] \355\023I\357Q\322\343\227j\037\372\342L_\017"
 451      1349EF51 
 451      D2E3976A 
 451      1FFAE24C 
 451      5F0F
 452 0aea A4173377 		.ascii	"\244\0273w\017\213\244/\344\236\336w\221\366\003\351"
 452      0F8BA42F 
 452      E49EDE77 
 452      91F603E9 
 453 0afa 7D91F401 		.ascii	"}\221\364\001%-Mu\216\372\342o\031i\357\370\3644\313"
 453      252D4D75 
 453      8EFAE26F 
 453      1969EFF8 
 453      F434CB
 454 0b0d 57916B12 		.ascii	"W\221k\022t\367\2361\272R\370\220\245\260\250d\337A"
 454      74F79E31 
 454      BA52F890 
 454      A5B0A864 
 454      DF41
 455 0b1f 244FE117 		.ascii	"$O\341\027o\3112\370\210fpP\314`\326\215\356N\235\340"
 455      6FC932F8 
 455      88667050 
 455      CC60D68D 
 455      EE4E9DE0 
 456 0b33 D7C4FD70 		.ascii	"\327\304\375pp\214#\0204 -\277\001\321\247\037\250O"
 456      708C2310 
 456      34202DBF 
 456      01D1A71F 
 456      A84F
 457 0b45 87D2CAD2 		.ascii	"\207\322\312\322\275p\005\363Iiq\365\226?\351\011\360"
 457      BD7005F3 
 457      496971F5 
 457      963FE909 
 457      F0
 458 0b56 68FF31B5 		.ascii	"h\3771\265?,\332\357hm\371\271`\276\366\246\336\371"
 458      3F2CDAEF 
 458      686DF9B9 
 458      60BEF6A6 
 458      DEF9
 459 0b68 29694743 		.ascii	")iGC\222\361!\321\370\023j\274\267\344\316fo\334\312"
 459      92F121D1 
 459      F8136ABC 
 459      B7E4CE66 
 459      6FDCCA
 460 0b7b 8CA75666 		.ascii	"\214\247Vf]e\223}\203\313\370\203\214\256q\215\313\241"
 460      5D65937D 
 460      83CBF883 
 460      8CAE718D 
 460      CBA1
 461 0b8d 119691C1 		.ascii	"\021\226\221\301\332\211S:\217\036\215R\217\236\211"
ARM GAS  C:\Users\gjl\AppData\Local\Temp\cchh2RvQ.s 			page 36


 461      DA89533A 
 461      8F1E8D52 
 461      8F9E89
 462 0b9c 1ED5CEDC 		.ascii	"\036\325\316\334\274.\254vg\015u\011\000\350\251\344"
 462      BC2EAC76 
 462      670D7509 
 462      00E8A9E4 
 463 0bac D253D1A5 		.ascii	"\322S\321\2451\352\322\\\233\263H\203G\231Ke'z\234\332"
 463      31EAD25C 
 463      9BB34883 
 463      47994B65 
 463      277A9CDA 
 464 0bc0 F7F7F06D 		.ascii	"\367\367\360m\273\310\206\366\317\333\272Sy\336\233"
 464      BBC886F6 
 464      CFDBBA53 
 464      79DE9B
 465 0bcf 7E7D1F67 		.ascii	"~}\037g\004\262\217\366\244\3463\230#\023\334\373\344"
 465      04B28FF6 
 465      A4E63398 
 465      2313DCFB 
 465      E4
 466 0be0 F3DAC58A 		.ascii	"\363\332\305\212\015:\234\307>\\v\347\366w\3733\032"
 466      0D3A9CC7 
 466      3E5C76E7 
 466      F677FB33 
 466      1A
 467 0bf1 E7A8178F 		.ascii	"\347\250\027\217)\303\363\327\030\236\013\014\223\224"
 467      29C3F3D7 
 467      189E0B0C 
 467      9394
 468 0bff 6177FBAB 		.ascii	"aw\373\253\024o\\\311\0306\245\3658\261\300\320.2\274"
 468      146F5CC9 
 468      1836A5F5 
 468      38B1C0D0 
 468      2E32BC
 469 0c12 788DE185 		.ascii	"x\215\341\205\300\360\2222\024]\234,\360\307=\214!o"
 469      C0F09232 
 469      145D9C2C 
 469      F0C73D8C 
 469      216F
 470 0c24 A07DA3C8 		.ascii	"\240}\243\310P.2L\275\3060%0LS\206\014~\360\234\006"
 470      502E324C 
 470      BDC63025 
 470      304C5386 
 470      0C7EF09C 
 471 0c39 A7D23F23 		.ascii	"\247\322?#\241\276=\255M\032\201!\357\023>\234~\237"
 471      A1BE3DAD 
 471      4D1A8121 
 471      EF133E9C 
 471      7E9F
 472 0c4b 9F1118A4 		.ascii	"\237\021\030\244\317\3723\002\303,eh\250<\345\217\277"
 472      CFFA3302 
 472      C32C6568 
 472      A83CE58F 
 472      BF
 473 0c5c 6304FB5A 		.ascii	"c\004\373Z\323\207\204l:O\246\275\237\304;\325\364e"
 473      D387846C 
ARM GAS  C:\Users\gjl\AppData\Local\Temp\cchh2RvQ.s 			page 37


 473      3A4FA6BD 
 473      9FC43BD5 
 473      F465
 474 0c6e F995C021 		.ascii	"\371\225\300!\276\263\253h\015\341\230\243\034y\203"
 474      BEB3AB68 
 474      0DE198A3 
 474      1C7983
 475 0c7d FD7BD46E 		.ascii	"\375{\324n\033\353\250\333!\313c\366\212\015%\2312;"
 475      1BEBA8DB 
 475      21CB63F6 
 475      8A0D2599 
 475      323B
 476 0c8f B24EB86F 		.ascii	"\262N\270o\303\217\335\320I\002:\211\242_V6\177\037"
 476      C38FDDD0 
 476      49023A89 
 476      A25F5636 
 476      7F1F
 477 0ca1 E0867EE4 		.ascii	"\340\206~\344\206N\026\320\311\024=\364\254\376\261"
 477      864E16D0 
 477      C9143DF4 
 477      ACFEB1
 478 0cb0 FB5F62DA 		.ascii	"\373_b\332\334\320)\002:\205\242k;6\014\371\271\241"
 478      DCD02902 
 478      3A85A26B 
 478      3B360CF9 
 478      B9A1
 479 0cc2 7BDDD0A9 		.ascii	"{\335\320\251\002:\225\242\327\247\317=\014\300\215"
 479      023A95A2 
 479      D7A7CF3D 
 479      0CC08D
 480 0cd1 2C555545 		.ascii	",UUE\257\234j|\205)i\005s\367\264\270\235)\343On\227"
 480      AF9C6A7C 
 480      85296905 
 480      73F7B4B8 
 480      9D29E34F 
 481 0ce7 7AE32E01 		.ascii	"z\343.\001\366\344P\225\360\347\031'\321\267\034NOA"
 481      F6E45095 
 481      F0E71927 
 481      D1B71C4E 
 481      4F41
 482 0cf9 7898367A 		.ascii	"x\2306zo\352\354\275\356\217\350+\230\360\361\306\311"
 482      6FEAECBD 
 482      EE8FE82B 
 482      98F0F1C6 
 482      C9
 483 0d0a 6E7D1B71 		.ascii	"n}\033q\010\275\023\241o0F\031\230\335\372\262q\030"
 483      08BD13A1 
 483      6F304619 
 483      98DDFAB2 
 483      7118
 484 0d1c DA8C4351 		.ascii	"\332\214CQ&\310&\220,,\273\271\365\345\017}Z-\373\336"
 484      26C82690 
 484      2C2CBBB9 
 484      F5E50F7D 
 484      5A2DFBDE 
 485 0d30 BB5EE8E8 		.ascii	"\273^\350\350\351\323T\271\36451M\001*\277\270UJ\320"
 485      E9D354B9 
ARM GAS  C:\Users\gjl\AppData\Local\Temp\cchh2RvQ.s 			page 38


 485      F435314D 
 485      012ABFB8 
 485      554AD0
 486 0d43 7405A8FC 		.ascii	"t\005\250\374\202\177<K\370@HN\315\015\002\330\343M"
 486      827F3C4B 
 486      F840484E 
 486      CD0D02D8 
 486      E34D
 487 0d55 6707FBCE 		.ascii	"g\007\373\316\006\030\371M\207|\342O\037\235\361\307"
 487      0618F94D 
 487      877CE24F 
 487      1F9DF1C7 
 488 0d65 A3EC6FA3 		.ascii	"\243\354o\2433%\033+5(,\210\365\271\323\034J\372\344"
 488      33251B2B 
 488      35282C88 
 488      F5B9D31C 
 488      4AFAE4
 489 0d78 026F0E76 		.ascii	"\002o\016v\355\020\204b\336\305\331\225\302-\220\266"
 489      ED108462 
 489      DEC5D995 
 489      C22D90B6 
 490 0d88 3F954272 		.ascii	"?\225Br\202\034\232\310\367w\233\012\271X~9\317\023"
 490      821C9AC8 
 490      F7779B0A 
 490      B9587E39 
 490      CF13
 491 0d9a A6421E9D 		.ascii	"\246B\036\235\012\373\317\215\337p\377xp\313m\342\344"
 491      0AFBCF8D 
 491      DF70FF78 
 491      70CB6DE2 
 491      E4
 492 0dab 0BE87C8A 		.ascii	"\013\350|\212.\274\333\334\351\365\336n\346^:\254\232"
 492      2EBCDBDC 
 492      E9F5DE6E 
 492      E65E3AAC 
 492      9A
 493 0dbc 2FDEA2F7 		.ascii	"/\336\242\367*\266\253\025\340\367\310\237gvdOi\031"
 493      2AB6AB15 
 493      E0F7C89F 
 493      6776644F 
 493      6919
 494 0dce 063632E3 		.ascii	"\00662\343\201t\000\272\343\266R\334pC\362^=\3039\317"
 494      817400BA 
 494      E3B652DC 
 494      7043F25E 
 494      3DC339CF 
 495 0de2 6AE763B6 		.ascii	"j\347c\266QLcOy\243\217\200\271\361\032\246\220b\306"
 495      514C634F 
 495      79A38F80 
 495      B9F11AA6 
 495      9062C6
 496 0df5 A6DBC738 		.ascii	"\246\333\3078\0013\372\032\246\210b\222*\356\227\351"
 496      0133FA1A 
 496      A6886292 
 496      2AEE97E9 
 497 0e05 044CB16E 		.ascii	"\004L\261n>f;\305\264>\252\256\362\02705\257a\212\361"
 497      3E663BC5 
ARM GAS  C:\Users\gjl\AppData\Local\Temp\cchh2RvQ.s 			page 39


 497      B43EAAAE 
 497      F2173035 
 497      AF618AF1 
 498 0e19 7B2ACD27 		.ascii	"{*\315'\377\366\371\242\337FD\250|\015\206\004\213\325"
 498      FFF6F9A2 
 498      DF4644A8 
 498      7C0D8604 
 498      8BD5
 499 0e2b B1C2E048 		.ascii	"\261\302\340HB\246\277\211\214\267\305\255\262\031c"
 499      42A6BF89 
 499      8CB7C5AD 
 499      B21963
 500 0e3a 17ADB4C4 		.ascii	"\027\255\264\304\230\355\213\302\326\255\370\350\227"
 500      98ED8BC2 
 500      D6ADF8E8 
 500      97
 501 0e47 91A6C478 		.ascii	"\221\246\304x\233\331n\217\214\267\307\231\026\231l"
 501      9BD96E8F 
 501      8CB7C799 
 501      16996C
 502 0e56 66A323CE 		.ascii	"f\243#\316\026\371\341\322\010\367\012Kl|\234\315\021"
 502      16F9E1D2 
 502      08F70A4B 
 502      6C7C9CCD 
 502      11
 503 0e67 B9CA9A10 		.ascii	"\271\312\232\020i\264\305F\376\325R\202\200\247_[\343"
 503      69B4C546 
 503      FED55282 
 503      80A75F5B 
 503      E3
 504 0e78 ACE65F9B 		.ascii	"\254\346_\233\215Q\226H\213\325\024\223\020m\216\214"
 504      8D519648 
 504      8BD51493 
 504      106D8E8C 
 505 0e88 359A565B 		.ascii	"5\232V[\254\346HC\264y\2451!\306ap$\306\233\355KW\253"
 505      ACE64843 
 505      B479A531 
 505      21C66170 
 505      24C69BED 
 506 0e9f 7C0457D6 		.ascii	"|\004W\326\374\177ybO\264G\032\354\216h0\013\346u\361"
 506      FC7F7962 
 506      4FB4471A 
 506      EC8E6830 
 506      0BE675F1 
 507 0eb3 9675E618 		.ascii	"\226u\346\030\303ZK\264c\265\226\345%\342#\203C#>,X"
 507      C35A4BB4 
 507      63B596E5 
 507      25E22383 
 507      43233E2C 
 508 0ec8 1963898F 		.ascii	"\031c\211\217\215\2136\033\326\031\342V\256\264\233"
 508      8D8B361B 
 508      D619E256 
 508      AEB49B
 509 0ed7 1D6F8811 		.ascii	"\035o\210\021\210\025:\007\270kXm\266\254Z\355\320\322"
 509      88153A07 
 509      B86B586D 
 509      B6AC5AED 
ARM GAS  C:\Users\gjl\AppData\Local\Temp\cchh2RvQ.s 			page 40


 509      D0D2
 510 0ee9 67CA16BC 		.ascii	"g\312\026\274\326fq\230\015\361\0111v\241\306`\265\007"
 510      D6667198 
 510      0DF10931 
 510      76A1C660 
 510      B507
 511 0efb 461B1D46 		.ascii	"F\033\035F\003tJ\21078,\261f\250\012\266,3\031\242\022"
 511      03744A88 
 511      37382CB1 
 511      66A80AB6 
 511      2C3319A2 
 512 0f10 EC06534C 		.ascii	"\354\006SL\234\351\367\206\210\360\360\337\377\323\037"
 512      9CE9F786 
 512      88F0F0DF 
 512      FFD31F
 513 0f1f 34F6788B 		.ascii	"4\366x\213\201\230\325\333\241\216\265\254\376\203\340"
 513      8198D5DB 
 513      A18EB5AC 
 513      FE83E0
 514 0f2e E0F26582 		.ascii	"\340\362e\202\203\344!\220\000\334\215,\260G\317\263"
 514      83E42190 
 514      00DC8D2C 
 514      B047CFB3 
 515 0f3e 11181F67 		.ascii	"\021\030\037gw\030 \217f\207a\255\321\3420\304\332\203"
 515      7718208F 
 515      668761AD 
 515      D1E230C4 
 515      DA83
 516 0f50 9926EF19 		.ascii	"\231&\357\031k_\010\2716\300@\305\033\242-vc\024\011"
 516      6B5F08B9 
 516      36C040C5 
 516      1BA22D76 
 516      631409
 517 0f63 85A0ADD0 		.ascii	"\205\240\255\320@\010h\213\331*o\010tC\307\230\327\230"
 517      4008688B 
 517      D92A6F08 
 517      7443C798 
 517      D798
 518 0f75 6316C861 		.ascii	"c\026\310a\264fa\302\212u+\010(>\306\230h\260XW\306"
 518      B46661C2 
 518      8A752B08 
 518      283EC698 
 518      68B05857 
 519 0f8a C100D812 		.ascii	"\301\000\330\022L\016=\313>\313\335\333K\227F\302\277"
 519      4C0E3DCB 
 519      3ECBDDDB 
 519      4B9746C2 
 519      BF
 520 0f9b 8415AB96 		.ascii	"\204\025\253\226E"
 520      45
 521 0fa0 9AEC3653 		.ascii	"\232\3546S$\351\005C\024\364zo\307\333\254\316`\261"
 521      24E90543 
 521      14F47A6F 
 521      C7DBACCE 
 521      60B1
 522 0fb2 3B96872F 		.ascii	";\226\207/\0137\230m\246\210\277^\366\321\207\376\321"
 522      0B37986D 
ARM GAS  C:\Users\gjl\AppData\Local\Temp\cchh2RvQ.s 			page 41


 522      A688BF5E 
 522      F6D187FE 
 522      D1
 523 0fc3 E6A8B804 		.ascii	"\346\250\270\004\253\311\014\006\214\016\363\333.5\306"
 523      ABC90C06 
 523      8C0EF3DB 
 523      2E35C6
 524 0fd2 08FEC75B 		.ascii	"\010\376\307[\254\254\376g\256zq0]M\272U\361\2268\222"
 524      ACACFE67 
 524      AE7A7130 
 524      5D4DBA55 
 524      F1963892 
 525 0fe6 2AA8D526 		.ascii	"*\250\325&8V\256`\325@\274\306\002xct4\231\216:2h\320"
 525      3856AE60 
 525      D540BCC6 
 525      02786374 
 525      34998E3A 
 526 0ffd 607398   		.ascii	"`s\230"
 527 1000 A3E9B350 		.ascii	"\243\351\263P\037l\261\033V\306Y\035\340\346\032\263"
 527      1F6CB11B 
 527      56C6591D 
 527      E0E61AB3 
 528 1010 0D324BC6 		.ascii	"\0152K\306P#\316\024\215\331j\212\203\211\267JM0\013"
 528      5023CE14 
 528      8DD96A8A 
 528      8389B74A 
 528      4D300B
 529 1023 A825A335 		.ascii	"\250%\2435\032\234 \221\231\242t4\252X\373*x\366\211"
 529      1A9C2091 
 529      99A27434 
 529      AA58FB2A 
 529      78F689
 530 1036 4A84D963 		.ascii	"J\204\331c\212\3626\031\243\241\320\212\361C\213\325"
 530      8AF23619 
 530      A3A1D08A 
 530      F1438BD5 
 531 1046 BC0EC622 		.ascii	"\274\016\306\"JO\321\246\325F\033Q\344\371a<,\305A\256"
 531      4A4FD1A6 
 531      D5461B51 
 531      E4F9613C 
 531      2CC541AE 
 532 105a 50594C84 		.ascii	"PYL\204\336\233\266;~\241\224p)\251KM\252`f\002<\370"
 532      DE9BB63B 
 532      7EA19470 
 532      29A94B4D 
 532      AA606602 
 533 1070 076BF467 		.ascii	"\007k\364g6\243\325\276\322l\323X\343,\326\030X\314"
 533      36A3D5BE 
 533      D26CD358 
 533      E32CD618 
 533      58CC
 534 1082 0B5CADBF 		.ascii	"\013\\\255\2773[\243\377\036f\366\033n5\277\215\215"
 534      335BA3FF 
 534      1E66F61B 
 534      6E35BF8D 
 534      8D
 535 1093 7E4BAA20 		.ascii	"~K\252 \311\022)\334q\277\261\255z\323\255\342w\346"
ARM GAS  C:\Users\gjl\AppData\Local\Temp\cchh2RvQ.s 			page 42


 535      C91229DC 
 535      71BFB1AD 
 535      7AD3ADE2 
 535      77E6
 536 10a5 AF122055 		.ascii	"\257\022 U\346\237\011\016\2556\307\304\233m\262)`q"
 536      E69F090E 
 536      AD36C7C4 
 536      9B6DB229 
 536      6071
 537 10b7 BCABDCC4 		.ascii	"\274\253\334\304f}\25496\316\226\370\013\017s\304@\226"
 537      667DAC39 
 537      36CE96F8 
 537      0B0F73C4 
 537      4096
 538 10c9 740440BF 		.ascii	"t\004@\277\372QD8A,\366\204\210\217[\013\343k\\c\216"
 538      FA514438 
 538      412CF684 
 538      888F5B0B 
 538      E36B5C63 
 539 10de F8BFC128 		.ascii	"\370\277\301(\333\"O0\022\021\001\260\250^k\226\217"
 539      DB224F30 
 539      121101B0 
 539      A85E6B96 
 539      8F
 540 10ef ADD73A20 		.ascii	"\255\327: \265c\223\325\241\241{M\274C\310&\325\330"
 540      B56393D5 
 540      A1A17B4D 
 540      BC43C826 
 540      D5D8
 541 1101 987B2512 		.ascii	"\230{%\022\214N\252v\374/\341\226@\344"
 541      8C4EAA76 
 541      FC2FE196 
 541      40E4
 542              		.text
 543              		.section	.gnu.lto_.symtab.1a3ba26,"",%progbits
 544 0000 75387838 		.ascii	"u8x8_d_ist3020_erc19264\000"
 544      5F645F69 
 544      73743330 
 544      32305F65 
 544      72633139 
 545 0018 00       		.ascii	"\000"
 546 0019 00       		.ascii	"\000"
 547 001a 00       		.ascii	"\000"
 548 001b 00000000 		.ascii	"\000\000\000\000\000\000\000\000"
 548      00000000 
 549 0023 4B010000 		.ascii	"K\001\000\000"
 550 0027 75387838 		.ascii	"u8x8_cad_EndTransfer\000"
 550      5F636164 
 550      5F456E64 
 550      5472616E 
 550      73666572 
 551 003c 00       		.ascii	"\000"
 552 003d 02       		.ascii	"\002"
 553 003e 00       		.ascii	"\000"
 554 003f 00000000 		.ascii	"\000\000\000\000\000\000\000\000"
 554      00000000 
 555 0047 51010000 		.ascii	"Q\001\000\000"
ARM GAS  C:\Users\gjl\AppData\Local\Temp\cchh2RvQ.s 			page 43


 556 004b 75387838 		.ascii	"u8x8_cad_SendData\000"
 556      5F636164 
 556      5F53656E 
 556      64446174 
 556      6100
 557 005d 00       		.ascii	"\000"
 558 005e 02       		.ascii	"\002"
 559 005f 00       		.ascii	"\000"
 560 0060 00000000 		.ascii	"\000\000\000\000\000\000\000\000"
 560      00000000 
 561 0068 59010000 		.ascii	"Y\001\000\000"
 562 006c 75387838 		.ascii	"u8x8_cad_SendCmd\000"
 562      5F636164 
 562      5F53656E 
 562      64436D64 
 562      00
 563 007d 00       		.ascii	"\000"
 564 007e 02       		.ascii	"\002"
 565 007f 00       		.ascii	"\000"
 566 0080 00000000 		.ascii	"\000\000\000\000\000\000\000\000"
 566      00000000 
 567 0088 5F010000 		.ascii	"_\001\000\000"
 568 008c 75387838 		.ascii	"u8x8_cad_StartTransfer\000"
 568      5F636164 
 568      5F537461 
 568      72745472 
 568      616E7366 
 569 00a3 00       		.ascii	"\000"
 570 00a4 02       		.ascii	"\002"
 571 00a5 00       		.ascii	"\000"
 572 00a6 00000000 		.ascii	"\000\000\000\000\000\000\000\000"
 572      00000000 
 573 00ae 62010000 		.ascii	"b\001\000\000"
 574 00b2 75387838 		.ascii	"u8x8_cad_SendArg\000"
 574      5F636164 
 574      5F53656E 
 574      64417267 
 574      00
 575 00c3 00       		.ascii	"\000"
 576 00c4 02       		.ascii	"\002"
 577 00c5 00       		.ascii	"\000"
 578 00c6 00000000 		.ascii	"\000\000\000\000\000\000\000\000"
 578      00000000 
 579 00ce 65010000 		.ascii	"e\001\000\000"
 580 00d2 75387838 		.ascii	"u8x8_cad_SendSequence\000"
 580      5F636164 
 580      5F53656E 
 580      64536571 
 580      75656E63 
 581 00e8 00       		.ascii	"\000"
 582 00e9 02       		.ascii	"\002"
 583 00ea 00       		.ascii	"\000"
 584 00eb 00000000 		.ascii	"\000\000\000\000\000\000\000\000"
 584      00000000 
 585 00f3 6A010000 		.ascii	"j\001\000\000"
 586 00f7 75387838 		.ascii	"u8x8_d_helper_display_init\000"
 586      5F645F68 
ARM GAS  C:\Users\gjl\AppData\Local\Temp\cchh2RvQ.s 			page 44


 586      656C7065 
 586      725F6469 
 586      73706C61 
 587 0112 00       		.ascii	"\000"
 588 0113 02       		.ascii	"\002"
 589 0114 00       		.ascii	"\000"
 590 0115 00000000 		.ascii	"\000\000\000\000\000\000\000\000"
 590      00000000 
 591 011d 6E010000 		.ascii	"n\001\000\000"
 592 0121 75387838 		.ascii	"u8x8_d_helper_display_setup_memory\000"
 592      5F645F68 
 592      656C7065 
 592      725F6469 
 592      73706C61 
 593 0144 00       		.ascii	"\000"
 594 0145 02       		.ascii	"\002"
 595 0146 00       		.ascii	"\000"
 596 0147 00000000 		.ascii	"\000\000\000\000\000\000\000\000"
 596      00000000 
 597 014f 73010000 		.ascii	"s\001\000\000"
 598              		.text
 599              		.section	.gnu.lto_.opts,"",%progbits
 600 0000 272D666D 		.ascii	"'-fmath-errno' '-fsigned-zeros' '-ftrapping-math' '"
 600      6174682D 
 600      6572726E 
 600      6F272027 
 600      2D667369 
 601 0033 2D666E6F 		.ascii	"-fno-trapv' '-fno-openmp' '-fno-openacc' '-mcpu=cor"
 601      2D747261 
 601      70762720 
 601      272D666E 
 601      6F2D6F70 
 602 0066 7465782D 		.ascii	"tex-m0' '-mthumb' '-g' '-Os' '-ffunction-sections' "
 602      6D302720 
 602      272D6D74 
 602      68756D62 
 602      2720272D 
 603 0099 272D6666 		.ascii	"'-ffat-lto-objects' '-flto'\000"
 603      61742D6C 
 603      746F2D6F 
 603      626A6563 
 603      74732720 
 604              		.text
 605              		.cfi_sections	.debug_frame
 606              		.section	.text.u8x8_d_ist3020_erc19264,"ax",%progbits
 607              		.align	1
 608              		.global	u8x8_d_ist3020_erc19264
 609              		.code	16
 610              		.thumb_func
 611              		.type	u8x8_d_ist3020_erc19264, %function
 612              	u8x8_d_ist3020_erc19264:
 613              	.LFB0:
 614              		.file 1 "..\\..\\u8g2\\csrc\\u8x8_d_ist3020.c"
   1:..\..\u8g2\csrc/u8x8_d_ist3020.c **** /*
   2:..\..\u8g2\csrc/u8x8_d_ist3020.c **** 
   3:..\..\u8g2\csrc/u8x8_d_ist3020.c ****   u8x8_d_ist3020.c
   4:..\..\u8g2\csrc/u8x8_d_ist3020.c ****   
ARM GAS  C:\Users\gjl\AppData\Local\Temp\cchh2RvQ.s 			page 45


   5:..\..\u8g2\csrc/u8x8_d_ist3020.c ****   Universal 8bit Graphics Library (https://github.com/olikraus/u8g2/)
   6:..\..\u8g2\csrc/u8x8_d_ist3020.c **** 
   7:..\..\u8g2\csrc/u8x8_d_ist3020.c ****   Copyright (c) 2017, olikraus@gmail.com
   8:..\..\u8g2\csrc/u8x8_d_ist3020.c ****   All rights reserved.
   9:..\..\u8g2\csrc/u8x8_d_ist3020.c **** 
  10:..\..\u8g2\csrc/u8x8_d_ist3020.c ****   Redistribution and use in source and binary forms, with or without modification, 
  11:..\..\u8g2\csrc/u8x8_d_ist3020.c ****   are permitted provided that the following conditions are met:
  12:..\..\u8g2\csrc/u8x8_d_ist3020.c **** 
  13:..\..\u8g2\csrc/u8x8_d_ist3020.c ****   * Redistributions of source code must retain the above copyright notice, this list 
  14:..\..\u8g2\csrc/u8x8_d_ist3020.c ****     of conditions and the following disclaimer.
  15:..\..\u8g2\csrc/u8x8_d_ist3020.c ****     
  16:..\..\u8g2\csrc/u8x8_d_ist3020.c ****   * Redistributions in binary form must reproduce the above copyright notice, this 
  17:..\..\u8g2\csrc/u8x8_d_ist3020.c ****     list of conditions and the following disclaimer in the documentation and/or other 
  18:..\..\u8g2\csrc/u8x8_d_ist3020.c ****     materials provided with the distribution.
  19:..\..\u8g2\csrc/u8x8_d_ist3020.c **** 
  20:..\..\u8g2\csrc/u8x8_d_ist3020.c ****   THIS SOFTWARE IS PROVIDED BY THE COPYRIGHT HOLDERS AND 
  21:..\..\u8g2\csrc/u8x8_d_ist3020.c ****   CONTRIBUTORS "AS IS" AND ANY EXPRESS OR IMPLIED WARRANTIES, 
  22:..\..\u8g2\csrc/u8x8_d_ist3020.c ****   INCLUDING, BUT NOT LIMITED TO, THE IMPLIED WARRANTIES OF 
  23:..\..\u8g2\csrc/u8x8_d_ist3020.c ****   MERCHANTABILITY AND FITNESS FOR A PARTICULAR PURPOSE ARE 
  24:..\..\u8g2\csrc/u8x8_d_ist3020.c ****   DISCLAIMED. IN NO EVENT SHALL THE COPYRIGHT HOLDER OR 
  25:..\..\u8g2\csrc/u8x8_d_ist3020.c ****   CONTRIBUTORS BE LIABLE FOR ANY DIRECT, INDIRECT, INCIDENTAL, 
  26:..\..\u8g2\csrc/u8x8_d_ist3020.c ****   SPECIAL, EXEMPLARY, OR CONSEQUENTIAL DAMAGES (INCLUDING, BUT 
  27:..\..\u8g2\csrc/u8x8_d_ist3020.c ****   NOT LIMITED TO, PROCUREMENT OF SUBSTITUTE GOODS OR SERVICES; 
  28:..\..\u8g2\csrc/u8x8_d_ist3020.c ****   LOSS OF USE, DATA, OR PROFITS; OR BUSINESS INTERRUPTION) HOWEVER 
  29:..\..\u8g2\csrc/u8x8_d_ist3020.c ****   CAUSED AND ON ANY THEORY OF LIABILITY, WHETHER IN CONTRACT, 
  30:..\..\u8g2\csrc/u8x8_d_ist3020.c ****   STRICT LIABILITY, OR TORT (INCLUDING NEGLIGENCE OR OTHERWISE) 
  31:..\..\u8g2\csrc/u8x8_d_ist3020.c ****   ARISING IN ANY WAY OUT OF THE USE OF THIS SOFTWARE, EVEN IF 
  32:..\..\u8g2\csrc/u8x8_d_ist3020.c ****   ADVISED OF THE POSSIBILITY OF SUCH DAMAGE.  
  33:..\..\u8g2\csrc/u8x8_d_ist3020.c **** 
  34:..\..\u8g2\csrc/u8x8_d_ist3020.c ****   
  35:..\..\u8g2\csrc/u8x8_d_ist3020.c **** */
  36:..\..\u8g2\csrc/u8x8_d_ist3020.c **** #include "u8x8.h"
  37:..\..\u8g2\csrc/u8x8_d_ist3020.c **** 
  38:..\..\u8g2\csrc/u8x8_d_ist3020.c **** 
  39:..\..\u8g2\csrc/u8x8_d_ist3020.c **** 
  40:..\..\u8g2\csrc/u8x8_d_ist3020.c **** 
  41:..\..\u8g2\csrc/u8x8_d_ist3020.c **** static const uint8_t u8x8_d_ist3020_erc19264_powersave0_seq[] = {
  42:..\..\u8g2\csrc/u8x8_d_ist3020.c ****   U8X8_START_TRANSFER(),             	/* enable chip, delay is part of the transfer start */
  43:..\..\u8g2\csrc/u8x8_d_ist3020.c ****   U8X8_C(0x0a4),		                /* all pixel off, issue 142 */
  44:..\..\u8g2\csrc/u8x8_d_ist3020.c ****   U8X8_C(0x0af),		                /* display on */
  45:..\..\u8g2\csrc/u8x8_d_ist3020.c ****   U8X8_END_TRANSFER(),             	/* disable chip */
  46:..\..\u8g2\csrc/u8x8_d_ist3020.c ****   U8X8_END()             			/* end of sequence */
  47:..\..\u8g2\csrc/u8x8_d_ist3020.c **** };
  48:..\..\u8g2\csrc/u8x8_d_ist3020.c **** 
  49:..\..\u8g2\csrc/u8x8_d_ist3020.c **** static const uint8_t u8x8_d_ist3020_erc19264_powersave1_seq[] = {
  50:..\..\u8g2\csrc/u8x8_d_ist3020.c ****   U8X8_START_TRANSFER(),             	/* enable chip, delay is part of the transfer start */
  51:..\..\u8g2\csrc/u8x8_d_ist3020.c ****   U8X8_C(0x0ae),		                /* display off */
  52:..\..\u8g2\csrc/u8x8_d_ist3020.c ****   U8X8_C(0x0a5),		                /* enter powersafe: all pixel on, issue 142 */
  53:..\..\u8g2\csrc/u8x8_d_ist3020.c ****   U8X8_END_TRANSFER(),             	/* disable chip */
  54:..\..\u8g2\csrc/u8x8_d_ist3020.c ****   U8X8_END()             			/* end of sequence */
  55:..\..\u8g2\csrc/u8x8_d_ist3020.c **** };
  56:..\..\u8g2\csrc/u8x8_d_ist3020.c **** 
  57:..\..\u8g2\csrc/u8x8_d_ist3020.c **** static const uint8_t u8x8_d_ist3020_erc19264_flip0_seq[] = {
  58:..\..\u8g2\csrc/u8x8_d_ist3020.c ****   U8X8_START_TRANSFER(),             	/* enable chip, delay is part of the transfer start */
  59:..\..\u8g2\csrc/u8x8_d_ist3020.c ****   U8X8_C(0x0a0),				/* segment remap a0/a1*/
  60:..\..\u8g2\csrc/u8x8_d_ist3020.c ****   U8X8_C(0x0c8),				/* c0: scan dir normal, c8: reverse */
  61:..\..\u8g2\csrc/u8x8_d_ist3020.c ****   U8X8_END_TRANSFER(),             	/* disable chip */
ARM GAS  C:\Users\gjl\AppData\Local\Temp\cchh2RvQ.s 			page 46


  62:..\..\u8g2\csrc/u8x8_d_ist3020.c ****   U8X8_END()             			/* end of sequence */
  63:..\..\u8g2\csrc/u8x8_d_ist3020.c **** };
  64:..\..\u8g2\csrc/u8x8_d_ist3020.c **** 
  65:..\..\u8g2\csrc/u8x8_d_ist3020.c **** static const uint8_t u8x8_d_ist3020_erc19264_flip1_seq[] = {
  66:..\..\u8g2\csrc/u8x8_d_ist3020.c ****   U8X8_START_TRANSFER(),             	/* enable chip, delay is part of the transfer start */
  67:..\..\u8g2\csrc/u8x8_d_ist3020.c ****   U8X8_C(0x0a1),				/* segment remap a0/a1*/
  68:..\..\u8g2\csrc/u8x8_d_ist3020.c ****   U8X8_C(0x0c0),				/* c0: scan dir normal, c8: reverse */
  69:..\..\u8g2\csrc/u8x8_d_ist3020.c ****   U8X8_END_TRANSFER(),             	/* disable chip */
  70:..\..\u8g2\csrc/u8x8_d_ist3020.c ****   U8X8_END()             			/* end of sequence */
  71:..\..\u8g2\csrc/u8x8_d_ist3020.c **** };
  72:..\..\u8g2\csrc/u8x8_d_ist3020.c **** 
  73:..\..\u8g2\csrc/u8x8_d_ist3020.c **** 
  74:..\..\u8g2\csrc/u8x8_d_ist3020.c **** static const u8x8_display_info_t u8x8_ist3020_erc19264_display_info =
  75:..\..\u8g2\csrc/u8x8_d_ist3020.c **** {
  76:..\..\u8g2\csrc/u8x8_d_ist3020.c ****   /* chip_enable_level = */ 0,
  77:..\..\u8g2\csrc/u8x8_d_ist3020.c ****   /* chip_disable_level = */ 1,
  78:..\..\u8g2\csrc/u8x8_d_ist3020.c ****   
  79:..\..\u8g2\csrc/u8x8_d_ist3020.c ****   /* post_chip_enable_wait_ns = */ 150,	/* IST3020 datasheet, page 56 */
  80:..\..\u8g2\csrc/u8x8_d_ist3020.c ****   /* pre_chip_disable_wait_ns = */ 150,	/* IST3020 datasheet, page 56 */
  81:..\..\u8g2\csrc/u8x8_d_ist3020.c ****   /* reset_pulse_width_ms = */ 1, 
  82:..\..\u8g2\csrc/u8x8_d_ist3020.c ****   /* post_reset_wait_ms = */ 1, 
  83:..\..\u8g2\csrc/u8x8_d_ist3020.c ****   /* sda_setup_time_ns = */ 100,		/* IST3020 datasheet, page 56 */
  84:..\..\u8g2\csrc/u8x8_d_ist3020.c ****   /* sck_pulse_width_ns = */ 100,	/* IST3020 datasheet, page 56 */
  85:..\..\u8g2\csrc/u8x8_d_ist3020.c ****   /* sck_clock_hz = */ 4000000UL,	/* */
  86:..\..\u8g2\csrc/u8x8_d_ist3020.c ****   /* spi_mode = */ 0,		/* active high, rising edge */
  87:..\..\u8g2\csrc/u8x8_d_ist3020.c ****   /* i2c_bus_clock_100kHz = */ 4,
  88:..\..\u8g2\csrc/u8x8_d_ist3020.c ****   /* data_setup_time_ns = */ 40,	/* IST3020 datasheet, page 54 */
  89:..\..\u8g2\csrc/u8x8_d_ist3020.c ****   /* write_pulse_width_ns = */ 60,	/* IST3020 datasheet, page 54 */
  90:..\..\u8g2\csrc/u8x8_d_ist3020.c ****   /* tile_width = */ 24,		/* width of 24*8=192 pixel */
  91:..\..\u8g2\csrc/u8x8_d_ist3020.c ****   /* tile_hight = */ 8,
  92:..\..\u8g2\csrc/u8x8_d_ist3020.c ****   /* default_x_offset = */ 0,
  93:..\..\u8g2\csrc/u8x8_d_ist3020.c ****   /* flipmode_x_offset = */ 64,
  94:..\..\u8g2\csrc/u8x8_d_ist3020.c ****   /* pixel_width = */ 192,
  95:..\..\u8g2\csrc/u8x8_d_ist3020.c ****   /* pixel_height = */ 64
  96:..\..\u8g2\csrc/u8x8_d_ist3020.c **** };
  97:..\..\u8g2\csrc/u8x8_d_ist3020.c **** 
  98:..\..\u8g2\csrc/u8x8_d_ist3020.c **** static const uint8_t u8x8_d_ist3020_erc19264_init_seq[] = {
  99:..\..\u8g2\csrc/u8x8_d_ist3020.c ****     
 100:..\..\u8g2\csrc/u8x8_d_ist3020.c ****   U8X8_START_TRANSFER(),             	/* enable chip, delay is part of the transfer start */
 101:..\..\u8g2\csrc/u8x8_d_ist3020.c ****   
 102:..\..\u8g2\csrc/u8x8_d_ist3020.c ****   U8X8_C(0x0e2),            			/* soft reset */
 103:..\..\u8g2\csrc/u8x8_d_ist3020.c ****   U8X8_C(0x0ab),            			/* build in osc on, used in ER code, but not mentioned in data sheet
 104:..\..\u8g2\csrc/u8x8_d_ist3020.c ****   U8X8_C(0x0ae),		                /* display off */
 105:..\..\u8g2\csrc/u8x8_d_ist3020.c ****   
 106:..\..\u8g2\csrc/u8x8_d_ist3020.c ****   U8X8_C(0x040),		                /* set display start line to 0 */
 107:..\..\u8g2\csrc/u8x8_d_ist3020.c ****   
 108:..\..\u8g2\csrc/u8x8_d_ist3020.c ****   U8X8_C(0x0a0),		                /* ADC set to reverse */
 109:..\..\u8g2\csrc/u8x8_d_ist3020.c ****   U8X8_C(0x0c8),		                /* common output mode */
 110:..\..\u8g2\csrc/u8x8_d_ist3020.c ****   // Flipmode
 111:..\..\u8g2\csrc/u8x8_d_ist3020.c ****   //U8X8_C(0x0a0),		                /* ADC set to reverse */
 112:..\..\u8g2\csrc/u8x8_d_ist3020.c ****   //U8X8_C(0x0c8),		                /* common output mode */
 113:..\..\u8g2\csrc/u8x8_d_ist3020.c ****   
 114:..\..\u8g2\csrc/u8x8_d_ist3020.c ****   U8X8_C(0x0a6),		                /* display normal, bit val 0: LCD pixel off. */
 115:..\..\u8g2\csrc/u8x8_d_ist3020.c ****   U8X8_C(0x0a3),		                /* FIX: LCD bias 1/7, old value was 1/9 (0x0a2) */
 116:..\..\u8g2\csrc/u8x8_d_ist3020.c ****   
 117:..\..\u8g2\csrc/u8x8_d_ist3020.c ****   U8X8_C(0x028|4),		                /* all power  control circuits on */
 118:..\..\u8g2\csrc/u8x8_d_ist3020.c ****   U8X8_DLY(50),
ARM GAS  C:\Users\gjl\AppData\Local\Temp\cchh2RvQ.s 			page 47


 119:..\..\u8g2\csrc/u8x8_d_ist3020.c ****   U8X8_C(0x028|6),		                /* all power  control circuits on */
 120:..\..\u8g2\csrc/u8x8_d_ist3020.c ****   U8X8_DLY(50),
 121:..\..\u8g2\csrc/u8x8_d_ist3020.c ****   U8X8_C(0x028|7),		                /* all power  control circuits on */
 122:..\..\u8g2\csrc/u8x8_d_ist3020.c ****   U8X8_DLY(50),
 123:..\..\u8g2\csrc/u8x8_d_ist3020.c ****   
 124:..\..\u8g2\csrc/u8x8_d_ist3020.c ****   U8X8_C(0x020),		                /* v0 voltage resistor ratio */
 125:..\..\u8g2\csrc/u8x8_d_ist3020.c ****   U8X8_CA(0x081, 0x019),		/* set contrast, contrast value (from ER code: 45) */
 126:..\..\u8g2\csrc/u8x8_d_ist3020.c ****   
 127:..\..\u8g2\csrc/u8x8_d_ist3020.c ****   U8X8_C(0x0ae),		                /* display off */
 128:..\..\u8g2\csrc/u8x8_d_ist3020.c ****   U8X8_C(0x0a5),		                /* enter powersafe: all pixel on, issue 142 */
 129:..\..\u8g2\csrc/u8x8_d_ist3020.c ****    
 130:..\..\u8g2\csrc/u8x8_d_ist3020.c ****   U8X8_END_TRANSFER(),             	/* disable chip */
 131:..\..\u8g2\csrc/u8x8_d_ist3020.c ****   U8X8_END()             			/* end of sequence */
 132:..\..\u8g2\csrc/u8x8_d_ist3020.c **** };
 133:..\..\u8g2\csrc/u8x8_d_ist3020.c **** 
 134:..\..\u8g2\csrc/u8x8_d_ist3020.c **** uint8_t u8x8_d_ist3020_erc19264(u8x8_t *u8x8, uint8_t msg, uint8_t arg_int, void *arg_ptr)
 135:..\..\u8g2\csrc/u8x8_d_ist3020.c **** {
 615              		.loc 1 135 0
 616              		.cfi_startproc
 617              		@ args = 0, pretend = 0, frame = 0
 618              		@ frame_needed = 0, uses_anonymous_args = 0
 619              	.LVL0:
 136:..\..\u8g2\csrc/u8x8_d_ist3020.c ****   uint8_t x, c;
 137:..\..\u8g2\csrc/u8x8_d_ist3020.c ****   uint8_t *ptr;
 138:..\..\u8g2\csrc/u8x8_d_ist3020.c ****   switch(msg)
 620              		.loc 1 138 0
 621 0000 0939     		subs	r1, r1, #9
 622              	.LVL1:
 135:..\..\u8g2\csrc/u8x8_d_ist3020.c ****   uint8_t x, c;
 623              		.loc 1 135 0
 624 0002 F8B5     		push	{r3, r4, r5, r6, r7, lr}
 625              		.cfi_def_cfa_offset 24
 626              		.cfi_offset 3, -24
 627              		.cfi_offset 4, -20
 628              		.cfi_offset 5, -16
 629              		.cfi_offset 6, -12
 630              		.cfi_offset 7, -8
 631              		.cfi_offset 14, -4
 135:..\..\u8g2\csrc/u8x8_d_ist3020.c ****   uint8_t x, c;
 632              		.loc 1 135 0
 633 0004 0400     		movs	r4, r0
 634 0006 1500     		movs	r5, r2
 635 0008 1F00     		movs	r7, r3
 636              		.loc 1 138 0
 637 000a 0800     		movs	r0, r1
 638              	.LVL2:
 639 000c 0629     		cmp	r1, #6
 640 000e 63D8     		bhi	.L13
 641 0010 FFF7FEFF 		bl	__gnu_thumb1_case_uqi
 642              	.L4:
 643 0014 04       		.byte	(.L3-.L4)/2
 644 0015 09       		.byte	(.L5-.L4)/2
 645 0016 0F       		.byte	(.L6-.L4)/2
 646 0017 62       		.byte	(.L13-.L4)/2
 647 0018 19       		.byte	(.L7-.L4)/2
 648 0019 2B       		.byte	(.L8-.L4)/2
 649 001a 3B       		.byte	(.L9-.L4)/2
ARM GAS  C:\Users\gjl\AppData\Local\Temp\cchh2RvQ.s 			page 48


 650 001b 00       		.p2align 1
 651              	.L3:
 139:..\..\u8g2\csrc/u8x8_d_ist3020.c ****   {
 140:..\..\u8g2\csrc/u8x8_d_ist3020.c ****     case U8X8_MSG_DISPLAY_SETUP_MEMORY:
 141:..\..\u8g2\csrc/u8x8_d_ist3020.c ****       u8x8_d_helper_display_setup_memory(u8x8, &u8x8_ist3020_erc19264_display_info);
 652              		.loc 1 141 0
 653 001c 2F49     		ldr	r1, .L20
 654 001e 2000     		movs	r0, r4
 655 0020 FFF7FEFF 		bl	u8x8_d_helper_display_setup_memory
 656              	.LVL3:
 657 0024 2FE0     		b	.L15
 658              	.LVL4:
 659              	.L5:
 142:..\..\u8g2\csrc/u8x8_d_ist3020.c ****       break;
 143:..\..\u8g2\csrc/u8x8_d_ist3020.c ****     case U8X8_MSG_DISPLAY_INIT:
 144:..\..\u8g2\csrc/u8x8_d_ist3020.c ****       u8x8_d_helper_display_init(u8x8);
 660              		.loc 1 144 0
 661 0026 2000     		movs	r0, r4
 662 0028 FFF7FEFF 		bl	u8x8_d_helper_display_init
 663              	.LVL5:
 145:..\..\u8g2\csrc/u8x8_d_ist3020.c ****       u8x8_cad_SendSequence(u8x8, u8x8_d_ist3020_erc19264_init_seq);
 664              		.loc 1 145 0
 665 002c 2B49     		ldr	r1, .L20
 666 002e 1831     		adds	r1, r1, #24
 667 0030 05E0     		b	.L18
 668              	.LVL6:
 669              	.L6:
 670 0032 2A49     		ldr	r1, .L20
 146:..\..\u8g2\csrc/u8x8_d_ist3020.c ****       break;
 147:..\..\u8g2\csrc/u8x8_d_ist3020.c ****     case U8X8_MSG_DISPLAY_SET_POWER_SAVE:
 148:..\..\u8g2\csrc/u8x8_d_ist3020.c ****       if ( arg_int == 0 )
 671              		.loc 1 148 0
 672 0034 002A     		cmp	r2, #0
 673 0036 01D1     		bne	.L10
 149:..\..\u8g2\csrc/u8x8_d_ist3020.c **** 	u8x8_cad_SendSequence(u8x8, u8x8_d_ist3020_erc19264_powersave0_seq);
 674              		.loc 1 149 0
 675 0038 4131     		adds	r1, r1, #65
 676 003a 00E0     		b	.L18
 677              	.L10:
 150:..\..\u8g2\csrc/u8x8_d_ist3020.c ****       else
 151:..\..\u8g2\csrc/u8x8_d_ist3020.c **** 	u8x8_cad_SendSequence(u8x8, u8x8_d_ist3020_erc19264_powersave1_seq);
 678              		.loc 1 151 0
 679 003c 4831     		adds	r1, r1, #72
 680              	.LVL7:
 681              	.L18:
 682 003e 2000     		movs	r0, r4
 683 0040 FFF7FEFF 		bl	u8x8_cad_SendSequence
 684              	.LVL8:
 685 0044 1FE0     		b	.L15
 686              	.LVL9:
 687              	.L7:
 688 0046 2549     		ldr	r1, .L20
 152:..\..\u8g2\csrc/u8x8_d_ist3020.c ****       break;
 153:..\..\u8g2\csrc/u8x8_d_ist3020.c ****     case U8X8_MSG_DISPLAY_SET_FLIP_MODE:
 154:..\..\u8g2\csrc/u8x8_d_ist3020.c ****       if ( arg_int == 0 )
 689              		.loc 1 154 0
 690 0048 002A     		cmp	r2, #0
ARM GAS  C:\Users\gjl\AppData\Local\Temp\cchh2RvQ.s 			page 49


 691 004a 06D1     		bne	.L11
 155:..\..\u8g2\csrc/u8x8_d_ist3020.c ****       {
 156:..\..\u8g2\csrc/u8x8_d_ist3020.c **** 	u8x8_cad_SendSequence(u8x8, u8x8_d_ist3020_erc19264_flip0_seq);
 692              		.loc 1 156 0
 693 004c 4F31     		adds	r1, r1, #79
 694 004e 2000     		movs	r0, r4
 695 0050 FFF7FEFF 		bl	u8x8_cad_SendSequence
 696              	.LVL10:
 157:..\..\u8g2\csrc/u8x8_d_ist3020.c **** 	u8x8->x_offset = u8x8->display_info->default_x_offset;
 697              		.loc 1 157 0
 698 0054 2368     		ldr	r3, [r4]
 699 0056 9B7C     		ldrb	r3, [r3, #18]
 700 0058 05E0     		b	.L17
 701              	.LVL11:
 702              	.L11:
 158:..\..\u8g2\csrc/u8x8_d_ist3020.c ****       }
 159:..\..\u8g2\csrc/u8x8_d_ist3020.c ****       else
 160:..\..\u8g2\csrc/u8x8_d_ist3020.c ****       {
 161:..\..\u8g2\csrc/u8x8_d_ist3020.c **** 	u8x8_cad_SendSequence(u8x8, u8x8_d_ist3020_erc19264_flip1_seq);
 703              		.loc 1 161 0
 704 005a 5631     		adds	r1, r1, #86
 705 005c 2000     		movs	r0, r4
 706 005e FFF7FEFF 		bl	u8x8_cad_SendSequence
 707              	.LVL12:
 162:..\..\u8g2\csrc/u8x8_d_ist3020.c **** 	u8x8->x_offset = u8x8->display_info->flipmode_x_offset;
 708              		.loc 1 162 0
 709 0062 2368     		ldr	r3, [r4]
 710 0064 DB7C     		ldrb	r3, [r3, #19]
 711              	.L17:
 712 0066 A377     		strb	r3, [r4, #30]
 713 0068 0DE0     		b	.L15
 714              	.LVL13:
 715              	.L8:
 163:..\..\u8g2\csrc/u8x8_d_ist3020.c ****       }	
 164:..\..\u8g2\csrc/u8x8_d_ist3020.c ****       break;
 165:..\..\u8g2\csrc/u8x8_d_ist3020.c **** #ifdef U8X8_WITH_SET_CONTRAST
 166:..\..\u8g2\csrc/u8x8_d_ist3020.c ****     case U8X8_MSG_DISPLAY_SET_CONTRAST:
 167:..\..\u8g2\csrc/u8x8_d_ist3020.c ****       u8x8_cad_StartTransfer(u8x8);
 716              		.loc 1 167 0
 717 006a 2000     		movs	r0, r4
 718 006c FFF7FEFF 		bl	u8x8_cad_StartTransfer
 719              	.LVL14:
 168:..\..\u8g2\csrc/u8x8_d_ist3020.c ****       u8x8_cad_SendCmd(u8x8, 0x081 );
 720              		.loc 1 168 0
 721 0070 8121     		movs	r1, #129
 722 0072 2000     		movs	r0, r4
 723 0074 FFF7FEFF 		bl	u8x8_cad_SendCmd
 724              	.LVL15:
 169:..\..\u8g2\csrc/u8x8_d_ist3020.c ****       u8x8_cad_SendArg(u8x8, arg_int >> 2 );	/* st7567 has range from 0 to 63 */
 725              		.loc 1 169 0
 726 0078 A908     		lsrs	r1, r5, #2
 727 007a 2000     		movs	r0, r4
 728 007c FFF7FEFF 		bl	u8x8_cad_SendArg
 729              	.LVL16:
 730              	.L16:
 170:..\..\u8g2\csrc/u8x8_d_ist3020.c ****       u8x8_cad_EndTransfer(u8x8);
 731              		.loc 1 170 0
ARM GAS  C:\Users\gjl\AppData\Local\Temp\cchh2RvQ.s 			page 50


 732 0080 2000     		movs	r0, r4
 733 0082 FFF7FEFF 		bl	u8x8_cad_EndTransfer
 734              	.LVL17:
 735              	.L15:
 171:..\..\u8g2\csrc/u8x8_d_ist3020.c ****       break;
 172:..\..\u8g2\csrc/u8x8_d_ist3020.c **** #endif
 173:..\..\u8g2\csrc/u8x8_d_ist3020.c ****     case U8X8_MSG_DISPLAY_DRAW_TILE:
 174:..\..\u8g2\csrc/u8x8_d_ist3020.c ****       u8x8_cad_StartTransfer(u8x8);
 175:..\..\u8g2\csrc/u8x8_d_ist3020.c ****     
 176:..\..\u8g2\csrc/u8x8_d_ist3020.c ****       x = ((u8x8_tile_t *)arg_ptr)->x_pos;
 177:..\..\u8g2\csrc/u8x8_d_ist3020.c ****       x *= 8;
 178:..\..\u8g2\csrc/u8x8_d_ist3020.c ****       x += u8x8->x_offset;
 179:..\..\u8g2\csrc/u8x8_d_ist3020.c ****       u8x8_cad_SendCmd(u8x8, 0x010 | (x>>4) );
 180:..\..\u8g2\csrc/u8x8_d_ist3020.c ****       u8x8_cad_SendCmd(u8x8, 0x000 | ((x&15)));
 181:..\..\u8g2\csrc/u8x8_d_ist3020.c ****       u8x8_cad_SendCmd(u8x8, 0x0b0 | (((u8x8_tile_t *)arg_ptr)->y_pos));
 182:..\..\u8g2\csrc/u8x8_d_ist3020.c ****     
 183:..\..\u8g2\csrc/u8x8_d_ist3020.c ****       c = ((u8x8_tile_t *)arg_ptr)->cnt;
 184:..\..\u8g2\csrc/u8x8_d_ist3020.c ****       c *= 8;
 185:..\..\u8g2\csrc/u8x8_d_ist3020.c ****       ptr = ((u8x8_tile_t *)arg_ptr)->tile_ptr;
 186:..\..\u8g2\csrc/u8x8_d_ist3020.c ****       do
 187:..\..\u8g2\csrc/u8x8_d_ist3020.c ****       {
 188:..\..\u8g2\csrc/u8x8_d_ist3020.c **** 	u8x8_cad_SendData(u8x8, c, ptr);	/* note: SendData can not handle more than 255 bytes */
 189:..\..\u8g2\csrc/u8x8_d_ist3020.c **** 	arg_int--;
 190:..\..\u8g2\csrc/u8x8_d_ist3020.c ****       } while( arg_int > 0 );
 191:..\..\u8g2\csrc/u8x8_d_ist3020.c ****       
 192:..\..\u8g2\csrc/u8x8_d_ist3020.c ****       u8x8_cad_EndTransfer(u8x8);
 193:..\..\u8g2\csrc/u8x8_d_ist3020.c ****       break;
 194:..\..\u8g2\csrc/u8x8_d_ist3020.c ****     default:
 195:..\..\u8g2\csrc/u8x8_d_ist3020.c ****       return 0;
 196:..\..\u8g2\csrc/u8x8_d_ist3020.c ****   }
 197:..\..\u8g2\csrc/u8x8_d_ist3020.c ****   return 1;
 736              		.loc 1 197 0
 737 0086 0120     		movs	r0, #1
 171:..\..\u8g2\csrc/u8x8_d_ist3020.c ****       break;
 738              		.loc 1 171 0
 739 0088 27E0     		b	.L2
 740              	.LVL18:
 741              	.L9:
 174:..\..\u8g2\csrc/u8x8_d_ist3020.c ****     
 742              		.loc 1 174 0
 743 008a 2000     		movs	r0, r4
 744 008c FFF7FEFF 		bl	u8x8_cad_StartTransfer
 745              	.LVL19:
 179:..\..\u8g2\csrc/u8x8_d_ist3020.c ****       u8x8_cad_SendCmd(u8x8, 0x000 | ((x&15)));
 746              		.loc 1 179 0
 747 0090 1021     		movs	r1, #16
 176:..\..\u8g2\csrc/u8x8_d_ist3020.c ****       x *= 8;
 748              		.loc 1 176 0
 749 0092 7E79     		ldrb	r6, [r7, #5]
 750              	.LVL20:
 178:..\..\u8g2\csrc/u8x8_d_ist3020.c ****       u8x8_cad_SendCmd(u8x8, 0x010 | (x>>4) );
 751              		.loc 1 178 0
 752 0094 A37F     		ldrb	r3, [r4, #30]
 177:..\..\u8g2\csrc/u8x8_d_ist3020.c ****       x += u8x8->x_offset;
 753              		.loc 1 177 0
 754 0096 F600     		lsls	r6, r6, #3
 755              	.LVL21:
ARM GAS  C:\Users\gjl\AppData\Local\Temp\cchh2RvQ.s 			page 51


 178:..\..\u8g2\csrc/u8x8_d_ist3020.c ****       u8x8_cad_SendCmd(u8x8, 0x010 | (x>>4) );
 756              		.loc 1 178 0
 757 0098 F618     		adds	r6, r6, r3
 758              	.LVL22:
 759 009a F6B2     		uxtb	r6, r6
 760              	.LVL23:
 179:..\..\u8g2\csrc/u8x8_d_ist3020.c ****       u8x8_cad_SendCmd(u8x8, 0x000 | ((x&15)));
 761              		.loc 1 179 0
 762 009c 3309     		lsrs	r3, r6, #4
 763 009e 1943     		orrs	r1, r3
 764 00a0 2000     		movs	r0, r4
 765 00a2 FFF7FEFF 		bl	u8x8_cad_SendCmd
 766              	.LVL24:
 180:..\..\u8g2\csrc/u8x8_d_ist3020.c ****       u8x8_cad_SendCmd(u8x8, 0x0b0 | (((u8x8_tile_t *)arg_ptr)->y_pos));
 767              		.loc 1 180 0
 768 00a6 0F21     		movs	r1, #15
 769 00a8 2000     		movs	r0, r4
 770 00aa 3140     		ands	r1, r6
 771 00ac FFF7FEFF 		bl	u8x8_cad_SendCmd
 772              	.LVL25:
 181:..\..\u8g2\csrc/u8x8_d_ist3020.c ****     
 773              		.loc 1 181 0
 774 00b0 B023     		movs	r3, #176
 775 00b2 B979     		ldrb	r1, [r7, #6]
 776 00b4 2000     		movs	r0, r4
 777 00b6 1943     		orrs	r1, r3
 778 00b8 FFF7FEFF 		bl	u8x8_cad_SendCmd
 779              	.LVL26:
 183:..\..\u8g2\csrc/u8x8_d_ist3020.c ****       c *= 8;
 780              		.loc 1 183 0
 781 00bc 3E79     		ldrb	r6, [r7, #4]
 782              	.LVL27:
 185:..\..\u8g2\csrc/u8x8_d_ist3020.c ****       do
 783              		.loc 1 185 0
 784 00be 3F68     		ldr	r7, [r7]
 785              	.LVL28:
 184:..\..\u8g2\csrc/u8x8_d_ist3020.c ****       ptr = ((u8x8_tile_t *)arg_ptr)->tile_ptr;
 786              		.loc 1 184 0
 787 00c0 F600     		lsls	r6, r6, #3
 788              	.LVL29:
 789 00c2 F6B2     		uxtb	r6, r6
 790              	.LVL30:
 791              	.L12:
 189:..\..\u8g2\csrc/u8x8_d_ist3020.c ****       } while( arg_int > 0 );
 792              		.loc 1 189 0 discriminator 1
 793 00c4 013D     		subs	r5, r5, #1
 794              	.LVL31:
 188:..\..\u8g2\csrc/u8x8_d_ist3020.c **** 	arg_int--;
 795              		.loc 1 188 0 discriminator 1
 796 00c6 3A00     		movs	r2, r7
 797 00c8 3100     		movs	r1, r6
 798 00ca 2000     		movs	r0, r4
 189:..\..\u8g2\csrc/u8x8_d_ist3020.c ****       } while( arg_int > 0 );
 799              		.loc 1 189 0 discriminator 1
 800 00cc EDB2     		uxtb	r5, r5
 188:..\..\u8g2\csrc/u8x8_d_ist3020.c **** 	arg_int--;
 801              		.loc 1 188 0 discriminator 1
ARM GAS  C:\Users\gjl\AppData\Local\Temp\cchh2RvQ.s 			page 52


 802 00ce FFF7FEFF 		bl	u8x8_cad_SendData
 803              	.LVL32:
 190:..\..\u8g2\csrc/u8x8_d_ist3020.c ****       
 804              		.loc 1 190 0 discriminator 1
 805 00d2 002D     		cmp	r5, #0
 806 00d4 F6D1     		bne	.L12
 807 00d6 D3E7     		b	.L16
 808              	.LVL33:
 809              	.L13:
 195:..\..\u8g2\csrc/u8x8_d_ist3020.c ****   }
 810              		.loc 1 195 0
 811 00d8 0020     		movs	r0, #0
 812              	.LVL34:
 813              	.L2:
 198:..\..\u8g2\csrc/u8x8_d_ist3020.c **** }
 814              		.loc 1 198 0
 815              		@ sp needed
 816              	.LVL35:
 817 00da F8BD     		pop	{r3, r4, r5, r6, r7, pc}
 818              	.L21:
 819              		.align	2
 820              	.L20:
 821 00dc 00000000 		.word	.LANCHOR0
 822              		.cfi_endproc
 823              	.LFE0:
 824              		.size	u8x8_d_ist3020_erc19264, .-u8x8_d_ist3020_erc19264
 825              		.section	.rodata
 826              		.align	2
 827              		.set	.LANCHOR0,. + 0
 828              		.type	u8x8_ist3020_erc19264_display_info, %object
 829              		.size	u8x8_ist3020_erc19264_display_info, 24
 830              	u8x8_ist3020_erc19264_display_info:
 831 0000 00       		.byte	0
 832 0001 01       		.byte	1
 833 0002 96       		.byte	-106
 834 0003 96       		.byte	-106
 835 0004 01       		.byte	1
 836 0005 01       		.byte	1
 837 0006 64       		.byte	100
 838 0007 64       		.byte	100
 839 0008 00093D00 		.word	4000000
 840 000c 00       		.byte	0
 841 000d 04       		.byte	4
 842 000e 28       		.byte	40
 843 000f 3C       		.byte	60
 844 0010 18       		.byte	24
 845 0011 08       		.byte	8
 846 0012 00       		.byte	0
 847 0013 40       		.byte	64
 848 0014 C000     		.short	192
 849 0016 4000     		.short	64
 850              		.type	u8x8_d_ist3020_erc19264_init_seq, %object
 851              		.size	u8x8_d_ist3020_erc19264_init_seq, 41
 852              	u8x8_d_ist3020_erc19264_init_seq:
 853 0018 18       		.byte	24
 854 0019 15       		.byte	21
 855 001a E2       		.byte	-30
ARM GAS  C:\Users\gjl\AppData\Local\Temp\cchh2RvQ.s 			page 53


 856 001b 15       		.byte	21
 857 001c AB       		.byte	-85
 858 001d 15       		.byte	21
 859 001e AE       		.byte	-82
 860 001f 15       		.byte	21
 861 0020 40       		.byte	64
 862 0021 15       		.byte	21
 863 0022 A0       		.byte	-96
 864 0023 15       		.byte	21
 865 0024 C8       		.byte	-56
 866 0025 15       		.byte	21
 867 0026 A6       		.byte	-90
 868 0027 15       		.byte	21
 869 0028 A3       		.byte	-93
 870 0029 15       		.byte	21
 871 002a 2C       		.byte	44
 872 002b FE       		.byte	-2
 873 002c 32       		.byte	50
 874 002d 15       		.byte	21
 875 002e 2E       		.byte	46
 876 002f FE       		.byte	-2
 877 0030 32       		.byte	50
 878 0031 15       		.byte	21
 879 0032 2F       		.byte	47
 880 0033 FE       		.byte	-2
 881 0034 32       		.byte	50
 882 0035 15       		.byte	21
 883 0036 20       		.byte	32
 884 0037 15       		.byte	21
 885 0038 81       		.byte	-127
 886 0039 16       		.byte	22
 887 003a 19       		.byte	25
 888 003b 15       		.byte	21
 889 003c AE       		.byte	-82
 890 003d 15       		.byte	21
 891 003e A5       		.byte	-91
 892 003f 19       		.byte	25
 893 0040 FF       		.byte	-1
 894              		.type	u8x8_d_ist3020_erc19264_powersave0_seq, %object
 895              		.size	u8x8_d_ist3020_erc19264_powersave0_seq, 7
 896              	u8x8_d_ist3020_erc19264_powersave0_seq:
 897 0041 18       		.byte	24
 898 0042 15       		.byte	21
 899 0043 A4       		.byte	-92
 900 0044 15       		.byte	21
 901 0045 AF       		.byte	-81
 902 0046 19       		.byte	25
 903 0047 FF       		.byte	-1
 904              		.type	u8x8_d_ist3020_erc19264_powersave1_seq, %object
 905              		.size	u8x8_d_ist3020_erc19264_powersave1_seq, 7
 906              	u8x8_d_ist3020_erc19264_powersave1_seq:
 907 0048 18       		.byte	24
 908 0049 15       		.byte	21
 909 004a AE       		.byte	-82
 910 004b 15       		.byte	21
 911 004c A5       		.byte	-91
 912 004d 19       		.byte	25
ARM GAS  C:\Users\gjl\AppData\Local\Temp\cchh2RvQ.s 			page 54


 913 004e FF       		.byte	-1
 914              		.type	u8x8_d_ist3020_erc19264_flip0_seq, %object
 915              		.size	u8x8_d_ist3020_erc19264_flip0_seq, 7
 916              	u8x8_d_ist3020_erc19264_flip0_seq:
 917 004f 18       		.byte	24
 918 0050 15       		.byte	21
 919 0051 A0       		.byte	-96
 920 0052 15       		.byte	21
 921 0053 C8       		.byte	-56
 922 0054 19       		.byte	25
 923 0055 FF       		.byte	-1
 924              		.type	u8x8_d_ist3020_erc19264_flip1_seq, %object
 925              		.size	u8x8_d_ist3020_erc19264_flip1_seq, 7
 926              	u8x8_d_ist3020_erc19264_flip1_seq:
 927 0056 18       		.byte	24
 928 0057 15       		.byte	21
 929 0058 A1       		.byte	-95
 930 0059 15       		.byte	21
 931 005a C0       		.byte	-64
 932 005b 19       		.byte	25
 933 005c FF       		.byte	-1
 934              		.text
 935              	.Letext0:
 936              		.file 2 "c:\\program files (x86)\\cypress\\psoc creator\\4.1\\psoc creator\\import\\gnu\\arm\\5.4.
 937              		.file 3 "c:\\program files (x86)\\cypress\\psoc creator\\4.1\\psoc creator\\import\\gnu\\arm\\5.4.
 938              		.file 4 "..\\..\\u8g2\\csrc\\u8x8.h"