ARM GAS  C:\Users\gjl\AppData\Local\Temp\cc0j38Wv.s 			page 1


   1              		.syntax unified
   2              		.cpu cortex-m0
   3              		.fpu softvfp
   4              		.eabi_attribute 20, 1
   5              		.eabi_attribute 21, 1
   6              		.eabi_attribute 23, 3
   7              		.eabi_attribute 24, 1
   8              		.eabi_attribute 25, 1
   9              		.eabi_attribute 26, 1
  10              		.eabi_attribute 30, 4
  11              		.eabi_attribute 34, 0
  12              		.eabi_attribute 18, 4
  13              		.thumb
  14              		.syntax unified
  15              		.file	"u8x8_d_ls013b7dh03.c"
  16              		.text
  17              	.Ltext0:
  18              		.section	.gnu.lto_.profile.1a3ffea,"",%progbits
  19 0000 789C6361 		.ascii	"x\234ca`d`e`\000\222\333\031\375\001\002\364\001\023"
  19      60646065 
  19      600092DB 
  19      19FD0102 
  19      F40113
  20              		.text
  21              		.section	.gnu.lto_.icf.1a3ffea,"",%progbits
  22 0000 789C6361 		.ascii	"x\234ca`d\000\001\021\006\004`fX\335\337\334\303\302"
  22      60640001 
  22      11060460 
  22      6658DDDF 
  22      DCC3C2
  23 0013 B8F4D8DC 		.ascii	"\270\364\330\334\331\334L7\027\336<\316\307\000\000"
  23      D9DC4C37 
  23      17DE3CCE 
  23      C70000
  24 0022 54210843 		.ascii	"T!\010C"
  25              		.text
  26              		.section	.gnu.lto_.jmpfuncs.1a3ffea,"",%progbits
  27 0000 789C6361 		.ascii	"x\234ca`d\000\201\027\014\010\300\304\300\304\310\310"
  27      60640081 
  27      170C08C0 
  27      C4C0C4C8 
  27      C8
  28 0011 CC5ECFC4 		.ascii	"\314^\317\304T\011\342\262@(\306\277L\214\237\227\316"
  28      5409E2B2 
  28      4028C6BF 
  28      4C8C9F97 
  28      CE
  29 0022 99CEF185 		.ascii	"\231\316\361\205\251\225\231\201\261\201\221q9\243\014"
  29      A9959981 
  29      B1819171 
  29      39A30C
  30 0031 5C1608D8 		.ascii	"\\\026\010\330\340,TM\323Z\017\235g\207hb`\\\201\244"
  30      E02C544D 
  30      D35A0F9D 
  30      67876862 
  30      605C81A4 
  31 0045 8711C283 		.ascii	"\207\021\302\203Z\303\310\302\010\004\334\254\365@\026"
ARM GAS  C:\Users\gjl\AppData\Local\Temp\cc0j38Wv.s 			page 2


  31      5AC3C8C2 
  31      0804DCAC 
  31      F54016
  32 0054 5004E82C 		.ascii	"P\004\350,\246JfFt\305H\346\266\277l\330\313\0021W\201"
  32      A64A6646 
  32      74C548E6 
  32      B6BF6CD8 
  32      CB023157 
  33 0069 7125CC24 		.ascii	"q%\314$\250\016F\210\232\346_\373?\363\325\377m\230"
  33      A80E4688 
  33      9AE65FFB 
  33      3FF3D5FF 
  33      6D98
  34 007b D1D020D0 		.ascii	"\321\320 \320\312\314\330\311\014\322\273\212\021d\007"
  34      CACCD8C9 
  34      0CD2BB8A 
  34      116407
  35 008a 0303007E 		.ascii	"\003\003\000~\230&\347"
  35      9826E7
  36              		.text
  37              		.section	.gnu.lto_.inline.1a3ffea,"",%progbits
  38 0000 789C3D8F 		.ascii	"x\234=\217=\012\0021\024\204g\222\250Y\177p\021+Yp;"
  38      3D0A0231 
  38      14846792 
  38      A8597F70 
  38      112B5970 
  39 0015 C1CA4A3B 		.ascii	"\301\312J;\361\004{\020\357!X\256\215\2656\376\261\275"
  39      F1047B10 
  39      EF2158AE 
  39      8DB536FE 
  39      B1BD
  40 0027 20085EC0 		.ascii	" \010^\300=\204\225\255`!\210`\222\215\276b2|\274<f"
  40      3D8495AD 
  40      60218860 
  40      928DBE62 
  40      327CBC3C 
  41 003c 14083BFD 		.ascii	"\024\010;\375\342q#\200\321QQR\023r\3404fl\024z\270"
  41      E2712380 
  41      D1515152 
  41      1372E034 
  41      666C147A 
  42 0051 CA3B28AF 		.ascii	"\312;(\257\272\002\274W\224@i\336S\326j\007\264\225"
  42      BA02BC57 
  42      944069DE 
  42      53D66A07 
  42      B495
  43 0063 D0D910D0 		.ascii	"\320\331\020\320\346R\015`\232\310\272\261i\002Y'\304"
  43      E6520D60 
  43      9AC8BAB1 
  43      69025927 
  43      C4
  44 0074 2D4813D5 		.ascii	"-H\023\3250\327n\201\265\236\341\267\343\277\020Q\213"
  44      30D76E81 
  44      B59EE1B7 
  44      E3BF1051 
  44      8B
  45 0085 25EAE947 		.ascii	"%\352\351Gpy]\234\312O1\223`\300-#\024\370\272\316r"
ARM GAS  C:\Users\gjl\AppData\Local\Temp\cc0j38Wv.s 			page 3


  45      70795D9C 
  45      CA4F3193 
  45      60C02D23 
  45      14F8BACE 
  46 009a 8FABDCFD 		.ascii	"\217\253\334\375\361\373\225\237+\005\256q\377\307\331"
  46      F1FB959F 
  46      2B05AE71 
  46      FFC7D9
  47 00a9 E6716916 		.ascii	"\346qi\026\270\311\203\303\246\2624u]\235\366e<\261"
  47      B8C983C3 
  47      A6B23475 
  47      5D9DF665 
  47      3CB1
  48 00bb DD5503B1 		.ascii	"\335U\003\261\315\341Bk\237\332\033\023M\373:\312\001"
  48      CDE1426B 
  48      9FDA1B13 
  48      4DFB3ACA 
  48      01
  49 00cc 7C01A676 		.ascii	"|\001\246v6\255"
  49      36AD
  50              		.text
  51              		.section	.gnu.lto_.pureconst.1a3ffea,"",%progbits
  52 0000 789C6361 		.ascii	"x\234ca`d`e```b\220d\224\000\000\000\350\000?"
  52      60646065 
  52      60606062 
  52      90649400 
  52      0000E800 
  53              		.text
  54              		.section	.gnu.lto_u8x8_d_ls013b7dh03_128x128.part.0.1a3ffea,"",%progbits
  55 0000 789C9556 		.ascii	"x\234\225ViLTW\024\276\347\335\267\3150\300\340\212"
  55      694C5457 
  55      14BEE7DD 
  55      B7CD30C0 
  55      E08A
  56 0012 8A8A0BB2 		.ascii	"\212\212\013\262\011\330\222Fm\322\244\375\321\330\246"
  56      09D89246 
  56      6DD2A4FD 
  56      D1D8A6
  57 0021 BFDAA4FF 		.ascii	"\277\332\244\377L\214E\243&\3264\242M\227\037<\030f"
  57      4C8C45A3 
  57      26D634A2 
  57      4D971F3C 
  57      1866
  58 0033 30440D4D 		.ascii	"0D\015M\024Z\013\301T\211K+\262H\021\024;.\200\262Y"
  58      145A0BC1 
  58      54894B2B 
  58      B2481114 
  58      3B2E80B2 
  59 0048 148B5653 		.ascii	"\024\213VS-\030k\033\3238\270\3204\243\364\234{\337"
  59      2D186B1B 
  59      D338B8D0 
  59      34A3F49C 
  59      7BDF
  60 005a D0191C4D 		.ascii	"\320\031\034M;\231w\336}\347\235\357\273\347\336\263"
  60      3B9977DE 
  60      7DE79DEF 
  60      BBE7DEB3 
ARM GAS  C:\Users\gjl\AppData\Local\Temp\cc0j38Wv.s 			page 4


  61 006a DCA73260 		.ascii	"\334\2472`\364\373,\206\261w\361\276\032/0\031\030e"
  61      F4FB2C86 
  61      B177F1BE 
  61      1A2F3019 
  61      1865
  62 007c 7D383040 		.ascii	"}80@\021w\005T\272\027\232\\\016N\233\252\302[\332\031"
  62      11770554 
  62      BA179A5C 
  62      0E4E9BAA 
  62      C25BDA19 
  63 0090 B39CDAA0 		.ascii	"\263\234\332\240\311,\227\006\2724\320\001h`\231\300"
  63      C92C9706 
  63      BA34D001 
  63      686099C0 
  64 00a0 0A0C85AB 		.ascii	"\012\014\205\253\232\016\005\212\312\300\257\202)\004"
  64      9A0E058A 
  64      CAC0AF82 
  64      2904
  65 00ae 4DF64879 		.ascii	"M\366Hy\242@\367\350\371\355\316\364\003\226Ud\335j"
  65      A240F7E8 
  65      F9EDCEF4 
  65      03965564 
  65      DD6A
  66 00c0 1F7E2B50 		.ascii	"\037~+P\344M\364r\306\306\024\006\271I\260$\211\034"
  66      E44DF472 
  66      C6C61406 
  66      B949B024 
  66      891C
  67 00d2 3900E968 		.ascii	"9\000\351h\331_\\W\311\037*^\016\240\342c\240w\317p"
  67      D95F5C57 
  67      C91F2A5E 
  67      0EA0E263 
  67      A077CF70 
  68 00e6 1C3D2A90 		.ascii	"\034=*\220\214\217{\007\366\335\320y\0320\034\227w\015"
  68      8C8F7B07 
  68      F6DDD079 
  68      1A301C97 
  68      770D
  69 00f8 FC199B5A 		.ascii	"\374\031\233ZC\234V\313Z\313\341\345\034\016\003'\316"
  69      439C56CB 
  69      5ACBE1E5 
  69      1C0E0327 
  69      CE
  70 0109 43900407 		.ascii	"C\220\004\007!\211\241\212\301\267\220\212\326\327~"
  70      2189A18A 
  70      C1B7908A 
  70      D6D77E
  71 0118 EBBDECE4 		.ascii	"\353\275\354\344Y\002y\270\351f\203a#ww\272\2542\360"
  71      590279B8 
  71      E9668361 
  71      237777BA 
  71      AC32F0
  72 012b 7215BE9B 		.ascii	"r\025\276\233\210\305\225\034\201T\002\364\324\265\014"
  72      88C5951C 
  72      815402F4 
  72      D4B50C
  73 013a AAFC1501 		.ascii	"\252\374\025\001\276\327{\277OK\331'\300\215+-\317\353"
ARM GAS  C:\Users\gjl\AppData\Local\Temp\cc0j38Wv.s 			page 5


  73      BED77BBF 
  73      4F4BD927 
  73      C08D2B2D 
  73      CFEB
  74 014c B810A895 		.ascii	"\270\020\250\225\330\320Z\030\031~\331\177k\207\223"
  74      D8D05A18 
  74      197ED97F 
  74      6B8793
  75 015b 2F17A0AA 		.ascii	"/\027\240\252`\361\243\030\033TkYP\230L\250\272(\250"
  75      60F1A318 
  75      1B546B59 
  75      50984CA8 
  75      BA28A8
  76 016e 9D03A543 		.ascii	"\235\003\245C\234\277!P5V]\251C\242\374\215\276\270"
  76      9CBF2150 
  76      35565DA9 
  76      43A2FC8D 
  76      BEB8
  77 0180 AF2C7F31 		.ascii	"\257,\1771\3424h\210\364\324F\326t\237=\025\307\337"
  77      E2346888 
  77      F4D446D6 
  77      749F3D15 
  77      C7DF
  78 0192 14C8FD43 		.ascii	"\024\310\375C\325\273\270\215\254\357\230Ra\371\345"
  78      D5BBB88D 
  78      ACEF9852 
  78      61F9E5
  79 01a1 8CC7A2CC 		.ascii	"\214\307\242\314\330w\240f\227\223\257\020\270\352\362"
  79      D877A066 
  79      9793AF10 
  79      B8EAF2
  80 01b0 D6ABF68C 		.ascii	"\326\253\366\214V[hq\337G\001\235,\355\016\232\374m"
  80      565B6871 
  80      DF47019D 
  80      2CED0E9A 
  80      FC6D
  81 01c2 01DAD95E 		.ascii	"\001\332\331^6\331\3064\2070\307\243`\206\352\237\356"
  81      36D9C634 
  81      8730C7A3 
  81      6086EA9F 
  81      EE
  82 01d3 8ED58B2D 		.ascii	"\216\325\213-\374%C\013\244@3^Mx5\342U\217\327QH\241"
  82      FC25430B 
  82      A440335E 
  82      4D7835E2 
  82      558FD751 
  83 01e9 94C05C68 		.ascii	"\224\300\\h\005\035SU\017i\205E\223\215@\344\321\367"
  83      051D5355 
  83      0F698545 
  83      938D40E4 
  83      D1F7
  84 01fb 2C6B6CCC 		.ascii	",kl\314c\225\015\307\303r\000\012\223\202\001\3239\011"
  84      63950DC7 
  84      C372000A 
  84      938201D3 
  84      3909
  85 020d 0C1B9A68 		.ascii	"\014\033\232h\214\214uFP\003(\011L|i8\030\3618i\030"
ARM GAS  C:\Users\gjl\AppData\Local\Temp\cc0j38Wv.s 			page 6


  85      8C8C7546 
  85      50032809 
  85      4C7C6938 
  85      18F13869 
  86 0222 43C24522 		.ascii	"C\302E\"\026\205\031G\"\236\036\3354J 1\211\304d\322"
  86      16851947 
  86      229E1EDD 
  86      344A2031 
  86      89C464D2 
  87 0236 4DA1D154 		.ascii	"M\241\321T\022\323HL']\"\215f\220\230Ib\026\351(o\314"
  87      12D3484C 
  87      275D228D 
  87      66909849 
  87      6216E928 
  88 024c D924E690 		.ascii	"\331$\346\220\230K\272d\032\315#1\237\304\002\322-\244"
  88      984BBA64 
  88      1ACD2331 
  88      9FC402D2 
  88      2DA4
  89 025e 510A8945 		.ascii	"Q\012\211E$RI\227F\243t\022\031\264\216L\341\373b\034"
  89      24524997 
  89      46A37412 
  89      19B48E4C 
  89      E1FB621C 
  90 0272 42961866 		.ascii	"B\226\030f\013\337s\030U\016\273\217\373\204\325\030"
  90      0BDF7318 
  90      550EBB8F 
  90      FB84D518 
  91 0282 500CBCF1 		.ascii	"P\014\274\361!(J\240->}\345\350=g\306A\332b\253\326"
  91      21284AA0 
  91      2D3E7DE5 
  91      E83D67C6 
  91      41DA62AB 
  92 0297 EF96A6E2 		.ascii	"\357\226\246\342\007' \003\015\316\267\365~\316\337"
  92      07272003 
  92      0DCEB7F5 
  92      7ECEDF
  93 02a6 1161EB1A 		.ascii	"\021a\353\032\276s\\W1H'\201\313\000u\372\036l\343\262"
  93      BE735C57 
  93      31482781 
  93      CB0075FA 
  93      1E6CE3B2 
  94 02ba 2EFC551D 		.ascii	".\374U\035\357\007\212\254\304\3614\005\031Kh\003\225"
  94      EF078AAC 
  94      C4F13405 
  94      194B6803 
  94      95
  95 02cb 48E11456 		.ascii	"H\341\024V\006\316\352f\"FH\316\242\370\340\017\254"
  95      06CEEA66 
  95      224648CE 
  95      A2F8E00F 
  95      AC
  96 02dc A8D86B86 		.ascii	"\250\330k\2069\361\203pb\364\344\331'\261\241y|\257"
  96      39F18370 
  96      62F4E4D9 
  96      27B1A179 
  96      7CAF
ARM GAS  C:\Users\gjl\AppData\Local\Temp\cc0j38Wv.s 			page 7


  97 02ee 6176C278 		.ascii	"av\302x\021\331\363\010\317\301?>\011%\001\202\221#"
  97      11D9F308 
  97      CFC13F3E 
  97      09250182 
  97      9123
  98 0300 A028B4E2 		.ascii	"\240(\264\342\333P\350\2464\261\320\356\016\024\265"
  98      DB50E8A6 
  98      34B1D0EE 
  98      0E14B5
  99 030f D6FFD2EF 		.ascii	"\326\377\322\357\240g\017\247~S\356=s\321\240\266\341"
  99      A0670FA7 
  99      7E53EE3D 
  99      73D1A0B6 
  99      E1
 100 0320 104B1DED 		.ascii	"\020K\035\355\354\332\346\252\206\252B\364\311\355\345"
 100      ECDAE6AA 
 100      86AA42F4 
 100      C9EDE5
 101 032f 4E0F7697 		.ascii	"N\017v\227\323T9T6\267\213j\215\234,r\340\014T\303S"
 101      D3543954 
 101      36B78B6A 
 101      8D9C2C72 
 101      E00C54C3 
 102 0344 45387A16 		.ascii	"E8z\026r\220\326\263\307\327\003\222\225K\342\322\277"
 102      7290D6B3 
 102      C7D70392 
 102      954BE2D2 
 102      BF
 103 0355 07779A44 		.ascii	"\007w\232D\214\215\023\316!\005\032\225\353\322DE+4"
 103      8C8D13CE 
 103      21051A95 
 103      EBD24445 
 103      2B34
 104 0367 692AE9A9 		.ascii	"i*\351\251wJ\023\200v4\031\302\226J\011\215Y\211F\302"
 104      774A1380 
 104      763419C2 
 104      964A098D 
 104      598946C2 
 105 037b DB2F6EDA 		.ascii	"\333/n\332\264\332\177\362\356\210\010h\205\330\245"
 105      B4DA7FF2 
 105      EE880868 
 105      85D8A5
 106 038a 0EE12435 		.ascii	"\016\341$5r\350D'q{\254\\A\337L\364\232\240\017\334"
 106      72E84427 
 106      717BAC5C 
 106      41DF4CF4 
 106      9AA00FDC 
 107 039e ACE7925F 		.ascii	"\254\347\222_\377\037\374_\0035\227\363\202_T\341\005"
 107      FF1FFC5F 
 107      033597F3 
 107      825F54E1 
 107      05
 108 03af 9B7FA9E0 		.ascii	"\233\177\251\340o$~\235\335\205b\377\356NAO\004--\367"
 108      6F247E9D 
 108      DD8562FF 
 108      EE4E414F 
 108      042D2DF7 
ARM GAS  C:\Users\gjl\AppData\Local\Temp\cc0j38Wv.s 			page 8


 109 03c3 AE1B054F 		.ascii	"\256\033\005O\254m\202;f\214\220\320\005\005\314\303"
 109      AC6D823B 
 109      668C90D0 
 109      0505CCC3 
 110 03d3 0D2F77A1 		.ascii	"\015/w\241\271\327_nD\267\216\035S(\312\335\322\032"
 110      B9D75F6E 
 110      44B78E1D 
 110      5328CADD 
 110      D21A
 111 03e5 5F3FA8A9 		.ascii	"_?\250\251\254\260w\327\002\350\201$/\217#\017\374U"
 111      ACB077D7 
 111      02E88124 
 111      2F8F230F 
 111      FC55
 112 03f7 25F1C207 		.ascii	"%\361\302\007\314\377\360\350\342y\006\275\242\003\006"
 112      CCFFF0E8 
 112      E27906BD 
 112      A20306
 113 0406 9009CF28 		.ascii	"\220\011\317(\216\253\037)\351\250*\263\267\327\264"
 113      8EAB1F29 
 113      E9A82AB3 
 113      B7D7B4
 114 0415 377CC490 		.ascii	"7|\304\220\317\270vGx\310b\204\211\223T#\266\312\205"
 114      CFB87647 
 114      78C86284 
 114      89935423 
 114      B6CA85
 115 0428 5A9CE361 		.ascii	"Z\234\343a\251wT\234C\006\036\214}\"\320\310\034\312"
 115      A977549C 
 115      43061E8C 
 115      7D22D0C8 
 115      1CCA
 116 043a 8658B423 		.ascii	"\206X\264#P\320\006\305\241*<\364&\206\376\242\314\216"
 116      50D006C5 
 116      A12A3CF4 
 116      2686FEA2 
 116      CC8E
 117 044c 11DF3955 		.ascii	"\021\3379U\032\305K\346\013\373[\203.\311\254\301\217"
 117      1AC54BE6 
 117      0BFB5B83 
 117      2EC9ACC1 
 117      8F
 118 045d 1399DD68 		.ascii	"\023\231\335h\027\316\234\200*\352\267\325\333\017\331"
 118      17CE9C80 
 118      2AEAB7D5 
 118      DB0FD9
 119 046c CC78464A 		.ascii	"\314xFJ\346\277l\223Ib\376\204\310\311&\343d\260x\002"
 119      E6BF6C93 
 119      4962FE84 
 119      C8C926E3 
 119      64B07802 
 120 0480 F914D487 		.ascii	"\371\024\324\207\223OE\025U\354\255\206@\214$W\341R"
 120      934F4515 
 120      55ECAD86 
 120      408C2457 
 120      E152
 121 0492 24F934C1 		.ascii	"$\3714\301?5\222|:\221gN OD}8\371\014T\205W\214\211"
ARM GAS  C:\Users\gjl\AppData\Local\Temp\cc0j38Wv.s 			page 9


 121      3F35927C 
 121      3A91674E 
 121      204F447D 
 121      38F90C54 
 122 04aa 15733992 		.ascii	"\025s9\222|\246\340\237A\252\373\343\344\263\242\221"
 122      7CA6E09F 
 122      41AAFBE3 
 122      E4B3A291 
 123 04ba 27A13E9C 		.ascii	"'\241>\234|6\252\220\374\304\203`\267\"\311\3350\020"
 123      7C36AA90 
 123      FCC48360 
 123      B722C9DD 
 123      3010
 124 04cc 493E47F0 		.ascii	"I>G\360\317\216$\237\033m[\222Q\037N>\017UH^\362\273"
 124      CF8E249F 
 124      1B6D5B92 
 124      511F4E3E 
 124      0F55485E 
 125 04e2 D5A64AF2 		.ascii	"\325\246J\362d\270\022I>_\360\317\213$_@\344\317Dt!"
 125      64B81249 
 125      3E5FF0CF 
 125      8B245F40 
 125      E4CF4474 
 126 04f7 BE0867C7 		.ascii	"\276\010g\307*Z\210\354\337<\366\354\2607\335\317\340"
 126      2A5A88EC 
 126      DF3CF6EC 
 126      B037DDCF 
 126      E0
 127 0508 A748FA45 		.ascii	"\247H\372Eb\206\224H\372T\242\177&\025\323\360E84]\240"
 127      62869448 
 127      FA54A27F 
 127      2615D3F0 
 127      4538345D 
 128 051d D3C2B33E 		.ascii	"\323\302\263>\003\265X\210\332\013\253pPV!ZS\321\335"
 128      03B55888 
 128      DA0BAB70 
 128      5056215A 
 128      53D1DD
 129 0530 059FBFE1 		.ascii	"\005\237\277\3419e\033?\206\037y\014\256\206\000\232"
 129      39651B3F 
 129      861F790C 
 129      AE86009A 
 130 0540 87677AB9 		.ascii	"\207gz\271[\224\372\261\027\227\3725\211\241\242\245"
 130      5B94FAB1 
 130      1797FA35 
 130      89A1A2A5 
 131 0550 59C442EE 		.ascii	"Y\304B\356T\275*\335\\,\333\227\247\322^I\026\362\242"
 131      54BD2ADD 
 131      5C2CDB97 
 131      A7D25E49 
 131      16F2A2
 132 0563 76BC7F8A 		.ascii	"v\274\177\212\006\224%\312\327\367\270\362ci\224\215"
 132      069425CA 
 132      D7F7B8F2 
 132      6369948D 
 133 0573 151DD165 		.ascii	"\025\035\321e\233\310*[\264\004\225\341\347)\227\007"
 133      9BC82A5B 
ARM GAS  C:\Users\gjl\AppData\Local\Temp\cc0j38Wv.s 			page 10


 133      B40495E1 
 133      E7299707 
 134 0583 880067DA 		.ascii	"\210\000g\332\247\211\260q\260_\241\370\242g\216\344"
 134      A789B071 
 134      B05FA1F8 
 134      A2678EE4 
 135 0593 71506576 		.ascii	"qPevU\034t\311\276b\300\317\362\313j\004\034\344\255"
 135      551C74C9 
 135      BE62C0CF 
 135      F2CB6A04 
 135      1CE4AD
 136 05a6 72170F80 		.ascii	"r\027\017\200l~\334\030\001\364IW\202\315\033\321\027"
 136      6C7EDC18 
 136      01F44957 
 136      82CD1BD1 
 136      17
 137 05b7 DE73620B 		.ascii	"\336sb\013\316\243\321\201D\253\357\177^_\264\227\177"
 137      CEA3D181 
 137      44ABEF7F 
 137      5E5FB497 
 137      7F
 138 05c8 3D72F9D4 		.ascii	"=r\371\324J/=g\303\260\223j\210\270\361o'\245\025\351"
 138      4A2F3D67 
 138      C3B0936A 
 138      88B8F16F 
 138      27A515E9 
 139 05dc A1A38F59 		.ascii	"\241\243\217Y\034\330\037\264\030\017\317\021n\346\320"
 139      1CD81FB4 
 139      180FCF11 
 139      6EE6D0
 140 05eb 2E68C1B6 		.ascii	".h\301\266\365\370i\000h\206}8%;{%\376\267.[\367\362"
 140      F5F86900 
 140      68867D38 
 140      253B7B25 
 140      FEB72E5B 
 141 0601 CABCFCCD 		.ascii	"\312\274\374\315y8\372d\331\2525\2536\346/y)\367\203"
 141      7938FA64 
 141      D9AA35AB 
 141      36E62F79 
 141      29F783
 142 0614 A56BD62F 		.ascii	"\245k\326/\311\315\316c*i\215\325\233\327\255\372h\313"
 142      C9CDCE63 
 142      2A698DD5 
 142      9BD7ADFA 
 142      68CB
 143 0626 66FE61FE 		.ascii	"f\376a\376:1\336\260i\013\307g\330\000y\360\251\276"
 143      3A31DEB0 
 143      690BC767 
 143      D80079F0 
 143      A9BE
 144 0638 75D3D6FC 		.ascii	"u\323\326\374\265k\376\001b8\210m"
 144      B56BFE01 
 144      6238886D 
 145              		.text
 146              		.section	.gnu.lto_u8x8_d_ls013b7dh03_128x128.1a3ffea,"",%progbits
 147 0000 789C7D94 		.ascii	"x\234}\224]L\034U\024\307\357\2313;\263\037eY\243\017"
 147      5D4C1C55 
ARM GAS  C:\Users\gjl\AppData\Local\Temp\cc0j38Wv.s 			page 11


 147      14C7EF99 
 147      333BB31F 
 147      6559A30F 
 148 0014 7DD8877D 		.ascii	"}\330\207}!\330\032\011\225\007y\354\233}0F}\306\020"
 148      21D81A09 
 148      950779EC 
 148      9B7D3046 
 148      7DC610
 149 0027 8586366A 		.ascii	"\205\2066jc\240$5>\354]\226\241-\321\012\011\264\265"
 149      63A02435 
 149      3EEC5D96 
 149      A12DD10A 
 149      09B4B5
 150 003a 5117D322 		.ascii	"Q\027\323\"\265E>\213\005\312\322\001d\241\300R\260"
 150      B5453E8B 
 150      05CAD201 
 150      64A1C052 
 150      B0
 151 004b 28256DB4 		.ascii	"(%m\264\201ZkCL\327\266\251\321\342z\316\235]\003\226"
 151      815A6B43 
 151      4CD7B6A9 
 151      D1E27ACE 
 151      9D5D0396 
 152 005f 3AD9997B 		.ascii	":\331\231{\357\231\363;\363\277\347\234\273\272\000"
 152      EF99F33B 
 152      F3BFE79C 
 152      BBBA00
 153 006e C1D75386 		.ascii	"\301\327S\206\020\257\321XF7\270\005h\015\263BD\334"
 153      10AFD158 
 153      4637B805 
 153      680DB342 
 153      44DC
 154 0080 9ACB9CCB 		.ascii	"\232\313\234\313\025\322\215\352\251\253\247\241\236"
 154      15D28DEA 
 154      A9ABA7A1 
 154      9E
 155 008d 2EC70EA6 		.ascii	".\307\016\246\343\250g'.g\002Ff4\001x\224n\020a\015"
 155      E3A86727 
 155      2E670246 
 155      66340178 
 155      946E1061 
 156 00a2 75976142 		.ascii	"u\227aBX\013?\320\3264\230~8\371\241w[\233\2245\362"
 156      580B3FD0 
 156      D634987E 
 156      38F9A177 
 156      5B9B9435 
 157 00b7 C6F8CAAE 		.ascii	"\306\370\312\256T\215\265\325B!\322\232\200\242 \024"
 157      548DB5D5 
 157      4221D29A 
 157      80A22014 
 158 00c7 06594A1B 		.ascii	"\006YJ\033l#\317\371\332\256O\361\276f!\200N\313T\362"
 158      6C23CFF9 
 158      DAAE4FF1 
 158      BE662180 
 158      4ECB54F2 
 159 00db C48A9F97 		.ascii	"\304\212\237\227\032\204h\331\262p\362\272\201\317\202"
 159      1A8468D9 
ARM GAS  C:\Users\gjl\AppData\Local\Temp\cc0j38Wv.s 			page 12


 159      B270F2BA 
 159      81CF82
 160 00ea A0F9D1A9 		.ascii	"\240\371\321\251\205\337r\362[9\246\034\330-=\026\""
 160      85DF72F2 
 160      5B39A61C 
 160      D82D3D16 
 160      22
 161 00fb 9C01E498 		.ascii	"\234\001\344\230_A\020NCP\220I\300Y\310'\357\231\256"
 161      5F41104E 
 161      43509049 
 161      C059C827 
 161      EF99AE
 162 010e 81451D9F 		.ascii	"\201E\035\237W\344\303\241\261\265,\371\340\015\211"
 162      57E4C3A1 
 162      B1B52CF9 
 162      E00D89
 163 011d 2405DA1D 		.ascii	"$\005\332\035\322Q\303\332\340k\305M\306\223\037\340"
 163      D251C3DA 
 163      E06BC54D 
 163      C6931FE0 
 164 012d 0E854DAD 		.ascii	"\016\205M\255\334\3527tr\352\000z\317\226\343\3637>"
 164      DCEA3774 
 164      72EA007A 
 164      CF96E3F3 
 164      373E
 165 013f F262B17A 		.ascii	"\362b\261z;Qw\357\020f\202.&|\262\220\243v\255\213\012"
 165      3B5177EF 
 165      1066822E 
 165      267CB290 
 165      A376AD8B 
 166 0154 9DA0ABC0 		.ascii	"\235\240\253\300\335*\360\322/\311+^\334\251\3303}?"
 166      DD2AF0D2 
 166      2FC92B5E 
 166      DCA9D833 
 166      7D3F
 167 0166 F59819B6 		.ascii	"\365\230\031\266yb\213l\000\013u\350\371\357ft\001\275"
 167      79628B6C 
 167      000B75E8 
 167      F9EF6674 
 167      01BD
 168 0178 90CFC091 		.ascii	"\220\317\300\221\205\372e\304]\012n\225]\365\236\274"
 168      85FA65C4 
 168      5D0A6E95 
 168      5DF59EBC 
 169 0188 930CDBBD 		.ascii	"\223\014\333\275u\376O\244]\033\262\320\005\3476\342"
 169      75FE4FA4 
 169      5D1BB2D0 
 169      05E736E2 
 170 0198 C291DC3A 		.ascii	"\302\221\334:=6\354\307\227\025yj9\326\204\031\262;"
 170      3D36ECC7 
 170      9715796A 
 170      39D68419 
 170      B23B
 171 01aa F1CC3169 		.ascii	"\361\3141iGB\254\372\233\365\271\310p\263m\255M^|Eq"
 171      4742ACFA 
 171      9BF5B9C8 
 171      70B36DAD 
ARM GAS  C:\Users\gjl\AppData\Local\Temp\cc0j38Wv.s 			page 13


 171      4D5E7C45 
 172 01bf B1A38357 		.ascii	"\261\243\203W3_\224\361\022\031\335\311P\377&\320P\375"
 172      335F94F1 
 172      1219DDC9 
 172      50FF26D0 
 172      50FD
 173 01d1 F42337BE 		.ascii	"\364#7\276\252\240#\343\015Og\230\363Yfp\023f\271\373"
 173      AAA023E3 
 173      0D4F6798 
 173      F3596670 
 173      1366B9FB 
 174 01e5 EFE61CA3 		.ascii	"\357\346\034\243V\322\025\202\013\220\007\003t\237\247"
 174      56D21582 
 174      0B900703 
 174      749FA7
 175 01f4 BB0FF2B8 		.ascii	"\273\017\362\270a(\201C\324r4v\276n\313t:*\355\2301"
 175      61288143 
 175      D4723476 
 175      BE6ECB74 
 175      3A2AED98 
 176 0209 72D7F403 		.ascii	"r\327\364\003\227M\003N/5\017UOg\203\001\334\000>P\231"
 176      974D034E 
 176      2F350F55 
 176      4F678301 
 176      DC003E50 
 177 021e 137789EF 		.ascii	"\023w\211\357}N\2444\215\006\374\031\352\354\276\004"
 177      7D4EA434 
 177      8D06FC19 
 177      EAECBE04 
 178 022e 70BC2822 		.ascii	"p\274(\"\267\324\322\251\333\256F\3708B\237\267\227"
 178      B7D4D2A9 
 178      DBAE46F8 
 178      38429FB7 
 178      97
 179 023f 26A8EDE8 		.ascii	"&\250\355\350\254H.\266\20084\002\273$\033\007\015n"
 179      AC482EB6 
 179      80383402 
 179      BB241B07 
 179      0D6E
 180 0251 48011E5A 		.ascii	"H\001\036Z\216\256^\273\011Y\242\337 \000\206)\331\022"
 180      8EAE5EBB 
 180      0959A2DF 
 180      20008629 
 180      D912
 181 0263 59205C74 		.ascii	"Y \\t\230\344\027\355\263\031\306K\313\232\303\213\255"
 181      98E417ED 
 181      B319C64B 
 181      CB9AC38B 
 181      AD
 182 0274 EE2C33AC 		.ascii	"\356,3\254\030[1js#\016\363\327\037\263q\323a|\334\262"
 182      185B316A 
 182      73230EF3 
 182      D71FB371 
 182      D3617CDC 
 183 0289 CDB75A8C 		.ascii	"\315\267Z\214,\363\243bF\025\303\342`\314a\332\277L"
 183      2CF3A362 
 183      4615C3E2 
ARM GAS  C:\Users\gjl\AppData\Local\Temp\cc0j38Wv.s 			page 14


 183      60CC61DA 
 183      BF4C
 184 029b D9B90E93 		.ascii	"\331\271\016\223K\313\317\317\2655\345d\231\373\212"
 184      4BCBCFCF 
 184      B535E564 
 184      99FB8A
 185 02aa F956313A 		.ascii	"\371V1:3\343\304\320\230\322P,\272\361&D\002\234\007"
 185      33E3C4D0 
 185      98D2502C 
 185      BAF12644 
 185      029C07
 186 02bd 167E1B2C 		.ascii	"\026~\033,\373B\002y\311\005\031\030X\275f\206\327\344"
 186      FB420279 
 186      C9051918 
 186      58BD6686 
 186      D7E4
 187 02cf 21290316 		.ascii	"!)\003\026\232i\2150H@XD\321\340\204X\243\227\225P\267"
 187      9A698D30 
 187      48405844 
 187      D1E08458 
 187      A3979550 
 188 02e4 2A73F4CF 		.ascii	"*s\364\317\213\367\374\344}\\y\273\017\243KU\365\322"
 188      8BF7FCE4 
 188      7D5C79BB 
 188      0FA34B55 
 188      F5D2
 189 02f6 89B36FC7 		.ascii	"\211\263o\307\340\263H\2032{`\022\3020\301]I\357\322"
 189      E0B34883 
 189      327B6012 
 189      C230C15D 
 189      49EFD2
 190 0309 777A3A3C 		.ascii	"wz:<\204l\345\030\227 \246\012\"`\012\302\026z\225D"
 190      846CE518 
 190      9720A60A 
 190      22600AC2 
 190      167A9544 
 191 031d 7DA3448D 		.ascii	"}\243D\215$\326\332s\306\346\012}i\252\256\200iG\241"
 191      24D6DA73 
 191      C6E60A7D 
 191      69AAAE80 
 191      6947A1
 192 0330 855BD486 		.ascii	"\205[\324\206~x\202wNZ\34339\363\357~\016\376*\343\272"
 192      7E788277 
 192      4E5AE333 
 192      39F3EF7E 
 192      0EFE2AE3 
 193 0345 93C41024 		.ascii	"\223\304\020$!h\241_\005\270\372\377\001f\037O\010\375"
 193      2168A15F 
 193      05B8FAFF 
 193      01661F4F 
 193      08FD
 194 0357 DFC26527 		.ascii	"\337\302e'\000o\302\265q\023\272X\206\0325'f\344\373"
 194      006FC2B5 
 194      7113BA58 
 194      861A3527 
 194      66E4FB
 195 036a CE55EFF6 		.ascii	"\316U\357\366\323\334\364v\352\245c-nK5\235j\2749\330"
ARM GAS  C:\Users\gjl\AppData\Local\Temp\cc0j38Wv.s 			page 15


 195      D3DCF476 
 195      EAA5632D 
 195      6E4B359D 
 195      6ABC39D8 
 196 037e 4EDDF904 		.ascii	"N\335\371\004o\331a\007\304:\347yv\346\374X\001\247"
 196      6FD96107 
 196      C43AE779 
 196      76E6FC58 
 196      01A7
 197 0390 ADF5C704 		.ascii	"\255\365\307\004\347\246)\237\002\276s\004G\321ga@\011"
 197      E7A6299F 
 197      02BE7304 
 197      47D16761 
 197      4009
 198 03a2 34B20233 		.ascii	"4\262\0023m\225\322L>%\031\213\020wH\001!\3345\277\003"
 198      6D95D24C 
 198      3E25198B 
 198      10774801 
 198      21DC35BF 
 199 03b7 F0D6B4EB 		.ascii	"\360\326\264\353\361\003\024\277\357\340L\267\327\331"
 199      F10314BF 
 199      EFE04CB7 
 199      D7D9
 200 03c5 31C01508 		.ascii	"1\300\025\010\352\217\342{xD\362\326]\312d\360\331\003"
 200      EA8FE27B 
 200      7844F2D6 
 200      5DCA64F0 
 200      D903
 201 03d7 0A47A5C9 		.ascii	"\012G\245\311+((\241_uq\305\013%eU\225e4;P\\Z^\372N"
 201      2B2828A1 
 201      5F7571C5 
 201      0B256555 
 201      9565343B 
 202 03f1 55E18EA2 		.ascii	"U\341\216\242\267^,\337SXTP&t\266\342\273U\025F\365"
 202      B75E2CDF 
 202      53585450 
 202      2674B6E2 
 202      BB551546 
 203 0406 BEEAAADD 		.ascii	"\276\352\252\335\345\346\233\225\025\245{\367\355W\343"
 203      E5E69B95 
 203      15A57BF7 
 203      ED57E3
 204 0415 7BFB2B91 		.ascii	"{\373+\221n\330\013e\360\376?b$\026_"
 204      6ED80B65 
 204      F0FE3F62 
 204      24165F
 205              		.text
 206              		.section	.gnu.lto_u8x8_ls013b7dh03_128x128_display_info.1a3ffea,"",%progbits
 207 0000 789C2DCE 		.ascii	"x\234-\316\273N\002A\030\305\36193{\023\344\"\265Oa"
 207      BB4E0241 
 207      18C5F139 
 207      337B13E4 
 207      22B54F61 
 208 0014 45E373F8 		.ascii	"E\343s\370:\033\303\022M\250ML41\261\000\024d\025$\221"
 208      3A1BC312 
 208      4DA84D4C 
 208      3431B100 
ARM GAS  C:\Users\gjl\AppData\Local\Temp\cc0j38Wv.s 			page 16


 208      14641524 
 209 0029 0A899768 		.ascii	"\012\211\227hh\264\267r\003\015\205\205Y1\006pN>\266"
 209      68B4B772 
 209      030D8585 
 209      59310670 
 209      4E3EB6
 210 003c F9ED3F67 		.ascii	"\371\355?g\2633\216\202\342\263g\2217\245\026\032\375"
 210      B3338E82 
 210      E2B36791 
 210      37A5161A 
 210      FD
 211 004d C9CB53E6 		.ascii	"\311\313S\346[GF!\204\355\316\354\3567\307\0068\277"
 211      5B474621 
 211      84EDCEEC 
 211      EE37C706 
 211      38BF
 212 005f 7F8D4FB3 		.ascii	"\177\215O\263\222E\233\257\347\351\310\225L8\277U\342"
 212      92459BAF 
 212      E7E9C895 
 212      4C38BF55 
 212      E2
 213 0070 1323EDD8 		.ascii	"\023#\355\330|\\\375\014\013\222\332\346t\3761\367\231"
 213      7C5CFD0C 
 213      0B92DAE6 
 213      74FE31F7 
 213      99
 214 0081 1AC3CA2E 		.ascii	"\032\303\312.\177\036%\315@\366\025\017\253\015\356"
 214      7F1E25CD 
 214      40F6150F 
 214      AB0DEE
 215 0090 5B9EF427 		.ascii	"[\236\364';\371k\017\362\322\236\315\336\303su\3759"
 215      3BF96B0F 
 215      F2D29ECD 
 215      DEC37375 
 215      FD39
 216 00a2 D7DBC961 		.ascii	"\327\333\311a\270\276\332\216\315\375\364\350\330/\367"
 216      B8BEDA8E 
 216      CDFDF4E8 
 216      D82FF7
 217 00b1 C383B330 		.ascii	"\303\203\2630v#c\226Z\341\032\333K\0154\210\306\015"
 217      76236396 
 217      5AE11ADB 
 217      4B0D3488 
 217      C60D
 218 00c3 3182239B 		.ascii	"1\202#\233\213\230x\350\020\037W$@\233l\240E2\270$Y"
 218      8B9878E8 
 218      101F5724 
 218      409B6CA0 
 218      4532B824 
 219 00d8 5C904D21 		.ascii	"\\\220M!\207&\311\013\0059\241(l\241NJD\241\213\262"
 219      8726C90B 
 219      0539A128 
 219      6CA14E4A 
 219      44A18BB2 
 220 00ec FA0701D7 		.ascii	"\372\007\001\327t="
 220      743D
 221              		.text
ARM GAS  C:\Users\gjl\AppData\Local\Temp\cc0j38Wv.s 			page 17


 222              		.section	.gnu.lto_.symbol_nodes.1a3ffea,"",%progbits
 223 0000 789C558B 		.ascii	"x\234U\2131\016\3020\014E\237\353\244\351\314\214\004"
 223      310EC230 
 223      0C459FEB 
 223      A4E9CC8C 
 223      04
 224 0011 9CD41D2A 		.ascii	"\234\324\035*X\231aB\352%`b\350\2108\003\255:\"q\002"
 224      58996142 
 224      EA256062 
 224      E8883803 
 224      AD3A2271 
 225 0026 24124A25 		.ascii	"$\022J%\342\345\375\367m;\204\027q\212\312`\177\007"
 225      E2E5FDF7 
 225      6D3B8417 
 225      718ACA60 
 225      7F07
 226 0038 43CECDA9 		.ascii	"C\316\315\251^\307JL~\025\227z\003\036\352\005\250x"
 226      5EC74A4C 
 226      7E15977A 
 226      031EEA05 
 226      A878
 227 004a 2BBE8BE8 		.ascii	"+\276\213\350\351P\234i\346\245\271\314\203\371\314"
 227      E9509C69 
 227      E6A5B9CC 
 227      83F9CC
 228 0059 D5CACC0B 		.ascii	"\325\312\314\013\013\377\256\224\264\303\365\255\212"
 228      0BFFAE94 
 228      B4C3F5AD 
 228      8A
 229 0066 A399437B 		.ascii	"\243\231C{\354R\3604Sp\214\2079\354\236+\215o]\242T"
 229      EC52F034 
 229      53708C87 
 229      39EC9E2B 
 229      8D6F5DA2 
 230 007b 8C8FA54A 		.ascii	"\214\217\245J\240\355#\034\335\2041\001\206\355M\371"
 230      A0ED231C 
 230      DD843101 
 230      86ED4DF9 
 231 008b 004EAE3A 		.ascii	"\000N\256:q"
 231      71
 232              		.text
 233              		.section	.gnu.lto_.refs.1a3ffea,"",%progbits
 234 0000 789C6361 		.ascii	"x\234ca`d`c```ddbbf\000\000\000\255\000\025"
 234      60646063 
 234      60606064 
 234      64626266 
 234      000000AD 
 235              		.text
 236              		.section	.gnu.lto_.decls.1a3ffea,"",%progbits
 237 0000 789CBD58 		.ascii	"x\234\275X{T\024\331\231\357[\267\201\246\273\001\005"
 237      7B5414D9 
 237      99EF5BB7 
 237      81A6BB01 
 237      05
 238 0011 66E2C9F1 		.ascii	"f\342\311\361$\356\014\243\3549\031\"c6\353\331\177"
 238      24EE0CA3 
 238      EC391922 
ARM GAS  C:\Users\gjl\AppData\Local\Temp\cc0j38Wv.s 			page 18


 238      6336EBD9 
 238      7F
 239 0022 368FC93E 		.ascii	"6\217\311>\362G29\311$9'\234\3646\335\215\364\006\232"
 239      F2473239 
 239      C9243927 
 239      9CF436DD 
 239      8DF4069A 
 240 0036 DEEE6646 		.ascii	"\336\356fFf\037)\036\342\010\212 \012>p|\241\342\000"
 240      661F291E 
 240      E2088A20 
 240      0A3E707C 
 240      A1E200
 241 0049 3E404114 		.ascii	">@A\024\241G\361\301\200\002\"\212\362\020\025\025\007"
 241      A147F1C1 
 241      8002228A 
 241      F2101515 
 241      07
 242 005a 50141015 		.ascii	"P\024\020\025\264\363\335{\253\272\252\260\230\371'"
 242      B4F3DD7B 
 242      ABBAAAB0 
 242      98F927
 243 0069 D93EFCA8 		.ascii	"\331>\374\250\372n\375\356\367\272\257\257J\253A\032"
 243      FA6EFDEE 
 243      F7BAAFAF 
 243      4AAB411A 
 244 0079 F27B77A1 		.ascii	"\362{w\241F\363\313\000\215f\004D\037\374\264\320\366"
 244      46F3CB00 
 244      8D660444 
 244      1FFCB4D0 
 244      F6
 245 008a 5B000738 		.ascii	"[\000\0078\004x\256a?\035\340'\300y\037\360s\300\007"
 245      0478AE61 
 245      3F1DE027 
 245      C0791FF0 
 245      73C007
 246 009d 80DF03FE 		.ascii	"\200\337\003\376\0000\001\254\000\2421\001i\024?\322"
 246      003001AC 
 246      00A23101 
 246      69143FD2 
 247 00ad 67BEA02B 		.ascii	"g\276\240+\034\020\011\210\205\266\017\341\372k\270"
 247      1C100988 
 247      85B60FE1 
 247      FA6BB8
 248 00bc 8279CD07 		.ascii	"\202y\315\007\000;\334\247\001V\002>\001\374;\340\277"
 248      003BDCA7 
 248      0156023E 
 248      01FC3BE0 
 248      BF
 249 00cd 01BF04FC 		.ascii	"\001\277\004\374\017\340w\000\014<7\\]\000\017 \360"
 249      0FE07700 
 249      0C3C375C 
 249      5D000F20 
 249      F0
 250 00de 6B7C22FE 		.ascii	"k|\"\376\377/\\\377o\226?\357\177\203?$\366?#\026\367"
 250      FF2F5CFF 
 250      6F963FEF 
 250      7F833F24 
ARM GAS  C:\Users\gjl\AppData\Local\Temp\cc0j38Wv.s 			page 19


 250      F63F2316 
 251 00f3 338005EE 		.ascii	"3\200\005\356y\300\037e\376\244\003~,\350\015\020tZ"
 251      79C01F65 
 251      FEA4037E 
 251      2CE80D10 
 251      745A
 252 0105 853C101F 		.ascii	"\205<\020\037~\"\370\226\001\327L@\026`\025 \033\275"
 252      7E22F896 
 252      01D74C40 
 252      16601520 
 252      1BBD
 253 0117 9E1F2293 		.ascii	"\236\037\"\223\234/\326\260\\,\021\354F\000\356\003"
 253      9C2FD6B0 
 253      5C2C11EC 
 253      4600EE03 
 254 0127 0601B701 		.ascii	"\006\001\267\001C\200\007\200'\200\001\300\035\300\010"
 254      43800780 
 254      278001C0 
 254      1DC008
 255 0136 E0116014 		.ascii	"\340\021`\024\360\025`\0140\001\270\005\030\006\334"
 255      F015600C 
 255      3001B805 
 255      1806DC
 256 0145 033C048C 		.ascii	"\003<\004\214k\324\177/9th\325\340\001\335\004\207\026"
 256      6BD47F2F 
 256      397468D5 
 256      E001DD04 
 256      8716
 257 0157 EA910F11 		.ascii	"\352\221\017\021y\244\356y\010\223\311\343\233\317\313"
 257      79A4EE79 
 257      0893C9E3 
 257      9BCFCB
 258 0166 FE25A682 		.ascii	"\376%\246\202\207_>\317s\234\324\357\250w\274R\213\015"
 258      875F3ECF 
 258      739CD4EF 
 258      A877BC52 
 258      8B0D
 259 0178 84C47554 		.ascii	"\204\304uT_?\033\214\242\365\373\010o\240g\342\307\231"
 259      5F3F1B8C 
 259      A2F5FB08 
 259      6FA067E2 
 259      C799
 260 018a 3C8F5005 		.ascii	"<\217P\005\322\243\317\021F\007P\014t\001\205\360\377"
 260      D2A3CF11 
 260      4607500C 
 260      740185F0 
 260      FF
 261 019b 539ECFE0 		.ascii	"S\236\317\340\307v\363\201\0134h\331B\264t\241\006\225"
 261      C776F381 
 261      0B3468D9 
 261      42B474A1 
 261      0695
 262 01ad A368628C 		.ascii	"\243hb\214\260P\031Z\210\366\243\205D\377\201\035eM"
 262      B050195A 
 262      88F6A385 
 262      44FF811D 
 262      654D
ARM GAS  C:\Users\gjl\AppData\Local\Temp\cc0j38Wv.s 			page 20


 263 01bf 217833A2 		.ascii	"!x3\242\006F7\016\177\212\375\006\012r\027\226\363\374"
 263      0646370E 
 263      7F8AFD06 
 263      0A721796 
 263      F3FC
 264 01d1 3C74080C 		.ascii	"<t\010\014TJ\006\300\236\272\205\203*\026Hg\260\322"
 264      544A06C0 
 264      9EBA8583 
 264      2A164867 
 264      B0D2
 265 01e3 9175B804 		.ascii	"\221u\270\004C\264\341z\244\005\361\361\305\255wBA\214"
 265      43B4E17A 
 265      A405F1F1 
 265      C5AD7742 
 265      418C
 266 01f5 D4A34520 		.ascii	"\324\243E \236\254\255?\027\300\304\245 ^\036k\335n"
 266      9EACAD3F 
 266      17C0C4A5 
 266      205E1E6B 
 266      DD6E
 267 0207 60E47920 		.ascii	"`\344y \236\365My\303\230\310\311\236F\262\247k;k\226"
 267      9EF54D79 
 267      C398C8C9 
 267      9E46B2A7 
 267      6B3B6B96 
 268 021b E1628E26 		.ascii	"\341b\216&q\357\213\3511be1\344\330\207eI^\314\222\334"
 268      71EF8BE9 
 268      31626531 
 268      E4D88765 
 268      495ECC92 
 269 0230 D8D2BCCF 		.ascii	"\330\322\274\317\210\367P2W\352\315X\205\220>\232\006"
 269      88F75032 
 269      57EACD58 
 269      85903E9A 
 269      06
 270 0241 C267F2FA 		.ascii	"\302g\362\372\262P\015:\006n\037%n\237\204X\026\013"
 270      B2500D3A 
 270      066E1F25 
 270      6E9F8458 
 270      160B
 271 0253 B11C87C6 		.ascii	"\261\034\207\306Zh\024\322>\362s\232\366\023\220\225"
 271      5A6814D2 
 271      3EF2739A 
 271      F6139095 
 272 0263 3A292B8B 		.ascii	":)+\213\365l\274\032\012z\356\351\361Af\343\300XkE\330"
 272      F56CBC1A 
 272      0A7AEEE9 
 272      F14166E3 
 272      C0586B45 
 273 0278 9C361AE6 		.ascii	"\2346\032\346\264Q\220\273\270\202d\376\024\330\250"
 273      B45190BB 
 273      B88264FE 
 273      14D8A8
 274 0287 976C9C40 		.ascii	"\227l\234@\202\221\207Yw\007\204\034,\000\261\242\253"
 274      82918759 
 274      7707841C 
 274      2C00B1A2 
ARM GAS  C:\Users\gjl\AppData\Local\Temp\cc0j38Wv.s 			page 21


 274      AB
 275 0298 FB25C2B5 		.ascii	"\373%\302\265,\011\027_\2155`\334\314\204\312\201\354"
 275      2C09175F 
 275      8D3560DC 
 275      CC84CA81 
 275      EC
 276 02a9 CE007C83 		.ascii	"\316\000|\203\011\373fv\0355\342{L(\273W\222gd*\226"
 276      09FB6676 
 276      1D35E27B 
 276      4C28BB57 
 276      9267642A 
 277 02be 83B8F5E4 		.ascii	"\203\270\365\344\304\227\001,\311:\020\317M\235\332"
 277      C497012C 
 277      C93A10CF 
 277      4D9DDA
 278 02cd 13801F33 		.ascii	"\023\200\0373jN\356\347\273Bq6\246\302\266\361\276\007"
 278      6A4EEEE7 
 278      BB427136 
 278      A6C2B6F1 
 278      BE07
 279 02df C1AC5F34 		.ascii	"\301\254_4\210\253\326\226\327c\274\205=k\277Y5\031"
 279      88ABD696 
 279      D763BC85 
 279      3D6BBF59 
 279      3519
 280 02f1 880F32E1 		.ascii	"\210\0172\341f\177\301\177\342Zv\337w\341@9\031\230"
 280      667FC17F 
 280      E25A76DF 
 280      77E14039 
 280      1998
 281 0303 2564607C 		.ascii	"%d`|\2760\331\320,aCsy\375\223\322 \334D\351\334\271"
 281      BE30D9D0 
 281      2C614373 
 281      79FD93D2 
 281      20DC44E9 
 282 0319 75D55506 		.ascii	"u\325U\006i\236\227\032\353H2\332!\031\227\244d,\361"
 282      699E971A 
 282      EB4832DA 
 282      211997A4 
 282      642CF1
 283 032c CFC2FC4C 		.ascii	"\317\302\374L>\374\002$\366\010\344\3600Il\033$v\211"
 283      3EFC0224 
 283      F608E4F0 
 283      30496C1B 
 283      247689
 284 033f 90D88BD0 		.ascii	"\220\330\213\320\330*L\365\322\202\335\201\270\215\331"
 284      D82A4CF5 
 284      D282DD81 
 284      B88DD9
 285 034e D872F4F3 		.ascii	"\330r\364\363)\275l\252\377\200&\274\023ltH6\332\321"
 285      29BD6CAA 
 285      FF8026BC 
 285      136C7448 
 285      36DAD1
 286 0361 DC462EAB 		.ascii	"\334F.\253\033\031\276r\271 \000w\263\270_V\255>\251"
 286      1B19BE72 
 286      B9200077 
ARM GAS  C:\Users\gjl\AppData\Local\Temp\cc0j38Wv.s 			page 22


 286      B3B85F56 
 286      AD3EA9
 287 0374 C5C34CB8 		.ascii	"\305\303L\270\177\341\371\204\001\277d\302\213\323\031"
 287      7FE1F984 
 287      01BF64C2 
 287      8BD319
 288 0383 3079F2B5 		.ascii	"0y\362\265T\2509\375\2745\000\357e\302\303\214\362R"
 288      54A839FD 
 288      BC3500EF 
 288      65C2C38C 
 288      F252
 289 0395 841B98D0 		.ascii	"\204\033\230\320\276i\264\210\303\327\23003]\230\036"
 289      BE69B488 
 289      C3D79830 
 289      335D981E 
 290 03a5 80BF6242 		.ascii	"\200\277bBc\357P\205\001\317\010}\204\371\020\316\346"
 290      63EF5085 
 290      01CF087D 
 290      84F910CE 
 290      E6
 291 03b6 C3E1FAAC 		.ascii	"\303\341\372\254Qayy\311^S\266n\354\214\036o\012 \334"
 291      51617979 
 291      C95E53B6 
 291      6EEC8C1E 
 291      6F0A20DC 
 292 03ca 37D21B2F 		.ascii	"7\322\033/\236\017BQ\344\027\021%\375\242\001\273I\240"
 292      9E0F4251 
 292      E4171125 
 292      FDA201BB 
 292      49A0
 293 03dc 039B867F 		.ascii	"\003\233\206\177T_\323\313\363\331F\272\362\273 \035"
 293      545FD3CB 
 293      F3D946BA 
 293      F2BB201D 
 294 03ec 775184B8 		.ascii	"wQ\204\270\310\277\017{'\252Bd\007\245to\376e\003\177"
 294      C8BF0F7B 
 294      27AA4264 
 294      07A5746F 
 294      FE65037F 
 295 0400 F83F28F5 		.ascii	"\370?(\365\264\222ZMX \370\251\275\227\374\324\353*"
 295      B4925A4D 
 295      5820F8A9 
 295      BD97FCD4 
 295      EB2A
 296 0412 5A8FC9B4 		.ascii	"Z\217\311\264nn\363S\257\250P\233d\324nI\353\015\025"
 296      6E6EF353 
 296      AFA8509B 
 296      64D46E49 
 296      EB0D15
 297 0425 2AB55F20 		.ascii	"*\265_ \354\254<\362hP?\214V\037\031\302^\201\016c\210"
 297      ECAC3CF2 
 297      68503F8C 
 297      561F19C2 
 297      5E810E63 
 298 043a 1EC370DE 		.ascii	"\036\303p\336GQh\020p\0330\004x\000x\002\030\000\334"
 298      47516810 
 298      701B3004 
ARM GAS  C:\Users\gjl\AppData\Local\Temp\cc0j38Wv.s 			page 23


 298      78007802 
 298      1800DC
 299 044d 018C001E 		.ascii	"\001\214\000\036\001F\001_\001\306\000\023\200[\200"
 299      0146015F 
 299      01C60013 
 299      805B80
 300 045c 61C03DC0 		.ascii	"a\300=\300C\3008\212\242\3337\363\257HJ\220W-A\215\262"
 300      43C0388A 
 300      A2DB37F3 
 300      AF484A90 
 300      572D418D 
 301 0471 58AE4AB1 		.ascii	"X\256J\261\364\250\304\022+1\373%f\267\012S\256tL\242"
 301      F4A8C412 
 301      2B31FB25 
 301      66B70A53 
 301      AE744CA2 
 302 0485 5E53A11E 		.ascii	"^S\241\036\221Q'\244\264\237WR\317\242\331\003\277Q"
 302      915127A4 
 302      B49F5752 
 302      CFA2D903 
 302      BF51
 303 0497 8AEB0BB5 		.ascii	"\212\353\013\265\270\344\303\271c}\350\026\336\233\205"
 303      B8E4C3B9 
 303      637DE816 
 303      DE9B85
 304 04a6 E9026B11 		.ascii	"\351\002k\021\330\376\245\304t\313\202\273\336\026R"
 304      D8FEA5C4 
 304      74CB82BB 
 304      DE1652
 305 04b5 CC7BD331 		.ascii	"\314{\3231U\336\254\346\310\005\231\362\332\015\241"
 305      55DEACE6 
 305      C80599F2 
 305      DA0DA1
 306 04c4 9B796F06 		.ascii	"\233yo\006\246\333e\215\300\366\357\262\314\031y\220"
 306      A6DB658D 
 306      C0F6EFB2 
 306      CC197990 
 307 04d4 9D72ED5F 		.ascii	"\235r\355_\252i\227\263\237I)9\247\306eS\221n#\336\306"
 307      AA6997B3 
 307      9F492939 
 307      A7C66553 
 307      916E23DE 
 308 04e9 3C23CFEB 		.ascii	"<#\317\353\010G#l!\3224\030\277$\263zUe\034\344!\325"
 308      0847236C 
 308      21D23418 
 308      BF24B37A 
 308      55651CE4 
 309 04ff C943BAA9 		.ascii	"\311C\272\251\036\222|,|\362\220\316\250\215\006\315"
 309      1E927C2C 
 309      7CF290CE 
 309      A88D06CD 
 310 050f 2EEC05D7 		.ascii	".\354\005\327\327o\333\022\206O\320\275\200\2738\270"
 310      D76FDB12 
 310      864FD0BD 
 310      80BB38B8 
 311 051f B5311445 		.ascii	"\2651\024ED\253/\217)X\022\177\313\345\301r\326\327"
 311      44AB2F8F 
ARM GAS  C:\Users\gjl\AppData\Local\Temp\cc0j38Wv.s 			page 24


 311      2958127F 
 311      CBE5C172 
 311      D6D7
 312 0531 F23D92B3 		.ascii	"\362=\222\263\247`hR\332yI\012\251\277\273\312\366\257"
 312      A7606852 
 312      DA79490A 
 312      A9BFBBCA 
 312      F6AF
 313 0543 43118283 		.ascii	"C\021\202\203\3369\035\324\374\325\275\003\333\3319"
 313      DE391DD4 
 313      FCD5BD03 
 313      DBD939
 314 0552 E3E9C898 		.ascii	"\343\351\310\230#m\377\350\231l\332j\320sd$Lr%{u\326"
 314      236DFFE8 
 314      996CDA6A 
 314      D0736424 
 314      4C72257B 
 315 0568 B95A5D0F 		.ascii	"\271Z]\017\354lpj\012\265'B\354?\242\3200P\021n8\215"
 315      EC6C706A 
 315      0AB52742 
 315      EC3FA2D0 
 315      3050116E 
 316 057e 50C90B4D 		.ascii	"P\311\013M\376\213\206\374\3270>m\223\224\321?\361\352"
 316      FE8B86FC 
 316      D7303E6D 
 316      9394D13F 
 316      F1EA
 317 0590 137F5489 		.ascii	"\023\177T\211\244\035\011\235\220\337\003\326\213=\347"
 317      A41D099D 
 317      90DF03D6 
 317      8B3DE7
 318 059f 44ADECC2 		.ascii	"D\255\354\302I\035d\372\230\2732\237\2202&$\246\350"
 318      491D64FA 
 318      98BB329F 
 318      90322624 
 318      A6E8
 319 05b1 D8E3EA4A 		.ascii	"\330\343\352J\016_\242\323\011\035\254\230>\254\327"
 319      0E5FA2D3 
 319      091DAC98 
 319      3EACD7
 320 05c0 42F18A3E 		.ascii	"B\361\212>4\242x\255\274\\\010g\345\202X\370\205\263"
 320      34A278AD 
 320      BC5C0867 
 320      E58258F8 
 320      85B3
 321 05d2 C28F1FCA 		.ascii	"\302\217\037\312\332\301\3411\326\273q\250\240Q\207"
 321      DAC1E131 
 321      D6BB71A8 
 321      A05187
 322 05e1 7D4C68DF 		.ascii	"}Lh\337?z-\024\027\007Rahgc\225\016W1a\223w\303\214"
 322      3F7A2D14 
 322      17075261 
 322      68676395 
 322      0E573161 
 323 05f9 1E3730A1 		.ascii	"\03670\241\271\356\366R\334\314\356\237\266\\\351\303"
 323      B9EEF652 
 323      DCCCEE9F 
ARM GAS  C:\Users\gjl\AppData\Local\Temp\cc0j38Wv.s 			page 25


 323      B65CE9C3 
 324 0609 B89B09EB 		.ascii	"\270\233\011\353O\237:\243\303\203L8\327{\243K\213\307"
 324      4F9F3AA3 
 324      C3834C38 
 324      D77BA34B 
 324      8BC7
 325 061b 98907EEA 		.ascii	"\230\220~\352Lu\010^\025\304\016\350\352jX-yL\270\227"
 325      4C75085E 
 325      15C40EE8 
 325      EA6A582D 
 325      794CB897 
 326 062f 73E0B111 		.ascii	"s\340\261\021\0273a{\327\355\374`\275P\345\346\177C"
 326      1733617B 
 326      D7EDFC60 
 326      BD50E5E6 
 326      7F43
 327 0641 950BFC07 		.ascii	"\225\013\374\007\275\2653F\305\\\311\345\364\262\271"
 327      BDB53346 
 327      C55CC9E5 
 327      F4B2B9
 328 0650 B296330A 		.ascii	"\262\2263\012)\273}djD\207K\202\346JYO\366\376\026\003"
 328      29BB7D64 
 328      6A44874B 
 328      82E64A59 
 328      4FF6FE16 
 329 0665 6D228B39 		.ascii	"m\"\2139\217\243\215]\335\375]\301\376\306\365\254q"
 329      8FA38D5D 
 329      DDFD5DC1 
 329      FEC6F5AC 
 329      71
 330 0676 B5AFAF49 		.ascii	"\265\257\257I\207\0172MY\373\327m\013\301'\230\220\267"
 330      870F324D 
 330      59FBD76D 
 330      0BC12798 
 330      90B7
 331 0688 E5C9C920 		.ascii	"\345\311\311 |\232\011\235\336\235\333\202q3\023\356"
 331      7C9A099D 
 331      DE9DDB82 
 331      713313EE 
 332 0698 1C9D2A0D 		.ascii	"\034\235*\015\301W\230p\353\321\251-A~\255\314\374\261"
 332      C1579870 
 332      EBD1A92D 
 332      417EADCC 
 332      FCB1
 333 06aa CB3B6E06 		.ascii	"\313;n\006\341^Fx\3216}\002\341\007L\230\252\274\337"
 333      E15E4678 
 333      D1367D02 
 333      E1074C98 
 333      AABCDF
 334 06bd 1B809F0A 		.ascii	"\033\200\237\012\346\266\347\267ql$\277\007b\321\232"
 334      E6B6E7B7 
 334      716C24BF 
 334      0762D19A 
 335 06cd 92012D2B 		.ascii	"\222\001-+9\006H\225>tw\3339=\316\320\261\221\355<\324"
 335      39064895 
 335      3E7477DB 
 335      393DCED0 
ARM GAS  C:\Users\gjl\AppData\Local\Temp\cc0j38Wv.s 			page 26


 335      B191ED3C 
 336 06e2 1A868BA8 		.ascii	"\032\206\213\250\360V\357HU]\010R\324\036QQF\343\002"
 336      F056EF48 
 336      555D0852 
 336      D41E5151 
 336      46E302
 337 06f5 AD3142BC 		.ascii	"\2551B\274\213\216\212\216\216f\033[\361U\331\306\266"
 337      8B8E8A8E 
 337      8E661B5B 
 337      F155D9C6 
 337      B6
 338 0706 9AC36807 		.ascii	"\232\303h\007\347\337\330\372d\373\257b\007\333\306"
 338      E7DFD8FA 
 338      64FBAF62 
 338      07DBC6
 339 0715 2D445B39 		.ascii	"-D[9`l\021:\220\035\354\024\027\215\352\271(T\0038\006"
 339      606C113A 
 339      901DEC14 
 339      178DEAB9 
 339      28540338 
 340 072a 380AA806 		.ascii	"8\012\250\006T\000\312\001\237\003\016\000>\003\224"
 340      5400CA01 
 340      9F030E00 
 340      3E0394
 341 0739 01F603F6 		.ascii	"\001\366\003\366\001\366\002J\001{\000\273\001\273\000"
 341      01F6024A 
 341      017B00BB 
 341      01BB00
 342 0748 3B39F901 		.ascii	";9\371\001_\177\325\177B\224(=|9\373`;!Q}HA}%\013\206"
 342      5F7FD57F 
 342      4294283D 
 342      7C39FB60 
 342      3B21517D 
 343 0762 718F4B5C 		.ascii	"q\217K\\\236S\341\312\367\377\032\211\233\256\306\225"
 343      9E53E1CA 
 343      F7FF1A89 
 343      9BAEC695 
 344 0772 9F2D4725 		.ascii	"\237-G%n\206\032W~\370UI\334L5\256\274\3148,q\263\324"
 344      6E861A57 
 344      7EF85549 
 344      DC4C35AE 
 344      BCCC382C 
 345 0789 B8F27AE0 		.ascii	"\270\362z\3403\211\273J\215++\0327K\324l5\252,\273\033"
 345      3389BB4A 
 345      8D2B2B1A 
 345      374BD46C 
 345      35AA2CBB 
 346 079e 25EAA76A 		.ascii	"%\352\247jSE\236\261\302\"\331\011\273F`\373O\330\276"
 346      53459EB1 
 346      C222D909 
 346      BB4660FB 
 346      4FD8BE
 347 07b1 D7325150 		.ascii	"\3272QP\364\006\253``!\243\034\201\357\257`\372f\273"
 347      F406AB60 
 347      6021A31C 
 347      81EFAF60 
 347      FA66BB
ARM GAS  C:\Users\gjl\AppData\Local\Temp\cc0j38Wv.s 			page 27


 348 07c4 E2EB0C63 		.ascii	"\342\353\014c\364J\240\257\233M\227\327"
 348      F44AA0AF 
 348      9B4D97D7 
 349 07d0 24F22DE3 		.ascii	"$\362-\343\020\267@\"5\302\204=\010\275\331\2118\027"
 349      10B74022 
 349      35C2843D 
 349      08BDD989 
 349      3817
 350 07e2 4D23E314 		.ascii	"M#\343\024\221E\000\257\231\2138\232\0031\032\015\351"
 350      914500AF 
 350      998B389A 
 350      03311A0D 
 350      E9
 351 07f3 00FF0F73 		.ascii	"\000\377\017s\344\373\007Y\355G\240K>Hr\245U\234\374"
 351      E4FB0759 
 351      ED47A04B 
 351      3E4872A5 
 351      559CFC
 352 0806 683BC2B6 		.ascii	"h;\302\266+\365e\325\000\236\375\355\227\325L\247\221"
 352      2BF565D5 
 352      009EFDED 
 352      97D54CA7 
 352      91
 353 0817 CF37D304 		.ascii	"\3177\323\004nPO\240,\337/$r\341l\262JM'\2617\252\263"
 353      6E504FA0 
 353      2CDF2F24 
 353      72E16CB2 
 353      4A4D27B1 
 354 082e 65AAA70A 		.ascii	"e\252\247\012#\331P\326\002}\323l\372\367\325G\262N"
 354      23D950D6 
 354      027DD36C 
 354      FAF7D547 
 354      B24E
 355 0840 3E922721 		.ascii	">\222'!G\307UG\262N1\222\307\325F\362\224b$\353\350"
 355      47C75547 
 355      B24E3192 
 355      C7D546F2 
 355      946224EB 
 356 0855 489E508C 		.ascii	"H\236P\214d\021H\254\226\232\314}\223\324R\304\321b"
 356      641148AC 
 356      969ACC7D 
 356      93D452C4 
 356      D162
 357 0867 CE5F4B1D 		.ascii	"\316_K\035\247c\311\202\231,\374.\013\006j\026\264Y"
 357      A763C982 
 357      992CFC2E 
 357      0B066A16 
 357      B459
 358 0879 359858A9 		.ascii	"5\230X\251\236}\\H\353Y\340\310\353Y\366\254'\367;\344"
 358      9E7D5C48 
 358      EB59E0C8 
 358      EB59F6AC 
 358      27F73BE4 
 359 088d 199936DB 		.ascii	"\031\2316\333%[\204*2\306[\336 \014\222\345\002\211"
 359      255B842A 
 359      32C65BDE 
 359      200C92E5 
ARM GAS  C:\Users\gjl\AppData\Local\Temp\cc0j38Wv.s 			page 28


 359      0289
 360 089f 71907A03 		.ascii	"q\220z\003\247BS\323P\005\322\212A\314 z\372\254\271"
 360      A74253D3 
 360      5005D28A 
 360      41CC207A 
 360      FAACB9
 361 08b2 5C99A95D 		.ascii	"\\\231\251]0\347D\376\202\206\357\245\341\223#\377\340"
 361      30E744FE 
 361      8286EFA5 
 361      E19323FF 
 361      E0
 362 08c3 95FC90B7 		.ascii	"\225\374\220\267v\302\336\303\017L\357\376\257\315U"
 362      76C2DEC3 
 362      0F4CEFFE 
 362      AFCD55
 363 08d2 837CBA3E 		.ascii	"\203|\272>\220\260\320\264TK\302-\271\274\200W*\015"
 363      90B0D0B4 
 363      544BC22D 
 363      B9BC8057 
 363      2A0D
 364 08e4 3ACDBD45 		.ascii	":\315\275E:^\337{-\010\237a\307S\337\332\342\243F\320"
 364      3A5EDF7B 
 364      2D089F61 
 364      C753DFDA 
 364      E2A346D0 
 365 08f8 B2F330CF 		.ascii	"\262\3630\317W\301T\317\340\371t\216.\2623\222\333p"
 365      57C154CF 
 365      E0F9748E 
 365      2EB23392 
 365      DB70
 366 090a 2B2969A2 		.ascii	"+)i\242J\362\322\217\237\325\342~\246$s\337@{\000\236"
 366      4AF2D28F 
 366      9FD5E27E 
 366      A62473DF 
 366      407B009E 
 367 091e 644251A3 		.ascii	"dBQ\243\267$\014BC\347h/r\3507e<\011\366\007\313N\332"
 367      B7240C42 
 367      43E7682F 
 367      72E83765 
 367      3C09F607 
 368 0935 B6C6D692 		.ascii	"\266\306\326\222\257\211\265\231\306zA\214uU^\203/\030"
 368      AF89B599 
 368      C67A418C 
 368      75555E83 
 368      2F18
 369 0947 BC1CE0F9 		.ascii	"\274\034\340\371\201\215\303\316\334=\331\336v\236\237"
 369      818DC3CE 
 369      DC3DD9DE 
 369      769E9F
 370 0956 4779E8AC 		.ascii	"Gy\350\254\350(:\317i\211\304J\265/\251\237\033\012"
 370      E8283ACF 
 370      6989C44A 
 370      B52FA99F 
 370      1B0A
 371 0968 463704E3 		.ascii	"F7\004\343Ws\271\246V\004t\364\266\315\004\372\335\275"
 371      5773B9A6 
 371      560474F4 
ARM GAS  C:\Users\gjl\AppData\Local\Temp\cc0j38Wv.s 			page 29


 371      B6CD04FA 
 371      DDBD
 372 097a C8CA8DC2 		.ascii	"\310\312\215\302\315m\315_\343o\033\365\367\222\350"
 372      CD6DCD5F 
 372      E36F1BF5 
 372      F792E8
 373 0989 6FC693F3 		.ascii	"o\306\223\363/1\363\327\3734~\013\177:\203\377\021\341"
 373      2F31F3D7 
 373      FB347E0B 
 373      7F3A83FF 
 373      11E1
 374 099b A016BFAF 		.ascii	"\240\026\277\257\255\340k\213\350k;\365\265p\327x?\207"
 374      ADE06B8B 
 374      E86B3BF5 
 374      B570D778 
 374      3F87
 375 09ad D707CFE1 		.ascii	"\327\007\317\341\353\306\241\363\301\212\"\213\270 "
 375      EBC6A1F3 
 375      C18A228B 
 375      B820
 376 09bb 2DA04E7F 		.ascii	"-\240N\177\221U\\\277\246\233\005\320\351\317\367`o"
 376      91555CBF 
 376      A69B05D0 
 376      E9CFF760 
 376      6F
 377 09cc F38414E8 		.ascii	"\363\204\024\350\025\026T\353j_;\347\217\264\2135\336"
 377      151654EB 
 377      6A5F3BE7 
 377      8FB48B35 
 377      DE
 378 09dd EB3F5317 		.ascii	"\353?S\0278w\244\327h\244W\305H}\331\317n\031\205H_"
 378      3877A4D7 
 378      68A457C5 
 378      487DD9CF 
 378      6E198548 
 379 09f2 88910207 		.ascii	"\210\221\002\007u\370#\275\014\221v\210\221v\323HO\026"
 379      75F823BD 
 379      0C917688 
 379      9176D348 
 379      4F16
 380 0a04 DD31E05D 		.ascii	"\3351\340]s\005\372Ya\363&\255\240\363\225\250\223\214"
 380      7305FA59 
 380      61F326AD 
 380      A0F395A8 
 380      938C
 381 0a16 F475BFCE 		.ascii	"\364u\277\316\033\240\363\272\250\263\207\352,\317\256"
 381      1BA0F3BA 
 381      A8B387EA 
 381      2CCFAE
 382 0a25 CC09C035 		.ascii	"\314\011\3005L\251\332\224\353\257z\330\027&\017\354"
 382      4CA9DA94 
 382      EBAF7AD8 
 382      17260FEC 
 383 0a35 B76FCAE2 		.ascii	"\267o\312\342\352\247q\365\211qu\266\265~Gp\341T1\006"
 383      EAA771F5 
 383      897175B6 
 383      B57E4770 
ARM GAS  C:\Users\gjl\AppData\Local\Temp\cc0j38Wv.s 			page 30


 383      E1543106 
 384 0a49 1F38C240 		.ascii	"\0378\302@\275\322\242\350\025\315\337\244\346\373w"
 384      BDD2A2E8 
 384      15CDDFA4 
 384      E6FB77
 385 0a58 DF5C1F88 		.ascii	"\337\\\037\210;\230\371\254\232\274\016\226X\262\325"
 385      3B98F9AC 
 385      9ABC0E96 
 385      58B2D5
 386 0a67 30F37773 		.ascii	"0\363ws{&t~\227n\261d\017\325O\0367\314\351\323\035"
 386      7B26747E 
 386      976EB164 
 386      0FD54F1E 
 386      37CCE9D3 
 387 0a7c EAD36DD1 		.ascii	"\352\323m\321\247\372\231k]b^N\\3z? \004(9\375.\015"
 387      A7FA996B 
 387      5D625E4E 
 387      5C337A3F 
 387      20042839 
 388 0a93 882E0D52 		.ascii	"\210.\015R\227\256f\234\0351\340\011\346\322\027\005"
 388      97AE669C 
 388      1D31E009 
 388      E6D21705 
 389 0aa3 BE31EE9D 		.ascii	"\2761\356\235=|\373N\262]\244\355=\000g\033\242\357"
 389      3D7CFB4E 
 389      B25DA4ED 
 389      3D00671B 
 389      A2EF
 390 0ab5 74779902 		.ascii	"tw\231\002\377\253\245\206\266\374\006F\344\036\367"
 390      FFABA586 
 390      B6FC0646 
 390      E41EF7
 391 0ac4 CE4B0ED7 		.ascii	"\316K\016\327_\335V\202\341\031\371\323o\345\341\265"
 391      5FDD5682 
 391      E119F9D3 
 391      6FE5E1B5 
 392 0ad4 80EF40E8 		.ascii	"\200\357@\350\001\247\327Pa\354\237\351=i\346\3072\370"
 392      01A7D750 
 392      61EC9FE9 
 392      3D69E6C7 
 392      32F8
 393 0ae6 C0CDA1E2 		.ascii	"\300\315\241\342\353\202\206>\200\267S8;\207\310\331"
 393      EB82863E 
 393      80B75338 
 393      3B87C8D9 
 394 0af6 092259CC 		.ascii	"\011\"Y\3149\276\373ax+\373\366Y\273\365\225W\213w2"
 394      39BEFB61 
 394      782BFBF6 
 394      59BBF595 
 394      578B7732 
 395 0b0a 21BBC877 		.ascii	"!\273\310w[\217K\2310\361\360zY \256\024h\017\313kC"
 395      5B8F4B99 
 395      30F1F07A 
 395      5920AE14 
 395      680FCB6B 
 396 0b1f 84AF7A44 		.ascii	"\204\257zD\336P\221\223\211p\003}\030\270\366F\177\027"
 396      DE509193 
ARM GAS  C:\Users\gjl\AppData\Local\Temp\cc0j38Wv.s 			page 31


 396      8970037D 
 396      18B8F646 
 396      7F17
 397 0b31 BCC9D32F 		.ascii	"\274\311\323/y\354\320\366\262C\373!\030&G\032\032\205"
 397      79ECD0F6 
 397      B243FB21 
 397      1826471A 
 397      1A85
 398 0b43 80C68443 		.ascii	"\200\306\204C{\022\016\244\0118p\237\000\036\003\306"
 398      7B120EA4 
 398      0938709F 
 398      001E03C6 
 399 0b53 E507EFC0 		.ascii	"\345\007\357\300\246\341\017\352d\037\000\277\022:\316"
 399      A6E10FEA 
 399      641F00BF 
 399      123ACE
 400 0b62 F5ADA24A 		.ascii	"\365\255\242J\372\2744\254B\225\237\2735\022\365\221"
 400      FABC34AC 
 400      42959FBB 
 400      3512F591 
 401 0b72 0A555E9F 		.ascii	"\012U^\237\035\311\023\277\030\301L\031\021\310s\036"
 401      1DC913BF 
 401      18C14C19 
 401      11C8731E 
 402 0b82 54DBD987 		.ascii	"T\333\331\207\2271\345AE\276\371\346<\231\011\305M4"
 402      9731E541 
 402      45BEF9E6 
 402      3C9909C5 
 402      4D34
 403 0b94 49DCCCEE 		.ascii	"I\334\314\35655:\024\035\301\372\334l\211\"}\236\201"
 403      35353A14 
 403      1DC1FADC 
 403      6C89227D 
 403      9E81
 404 0ba6 DEA7D2FC 		.ascii	"\336\247\322\374\031\243\007\230\242\356\361\247p\012"
 404      19A30798 
 404      A2EEF1A7 
 404      700A
 405 0bb4 D2F64D29 		.ascii	"\322\366M)$\253\271|rS\250\362\263\201\242\266z\316"
 405      24ABB97C 
 405      7253A8F2 
 405      B381A2B6 
 405      7ACE
 406 0bc6 099F0D38 		.ascii	"\011\237\0158\362\331`\370\361\231\321\000\005\273Y"
 406      F2D960F8 
 406      F199D100 
 406      05BB59
 407 0bd5 5114BC10 		.ascii	"Q\024\274\020\330/(\273\276s\365p\210\202\335\246`O"
 407      D82F28BB 
 407      BE73F570 
 407      8882DDA6 
 407      604F
 408 0be7 0BEC69CA 		.ascii	"\013\354i\312\336\177z\342\252\362\245\364\232\202="
 408      DE7F7AE2 
 408      AAF2A5F4 
 408      9A823D
 409 0bf6 23B06728 		.ascii	"#\260g({W\347T\267\366\355]\364\203\370\364\356_m\313"
ARM GAS  C:\Users\gjl\AppData\Local\Temp\cc0j38Wv.s 			page 32


 409      7B57E754 
 409      B7F6ED5D 
 409      F483F8F4 
 409      EE5F6DCB 
 410 0c0a E173C862 		.ascii	"\341s\310b\244g&[S/\271\267\311+\344\316\274B\304x\371"
 410      A467265B 
 410      532FB9B7 
 410      C92BE4CE 
 410      BC42C478 
 411 0c1f 40D12839 		.ascii	"@\321(9\257(g\343\320\340\036\255\302\362\035\205e\237"
 411      AF2867E3 
 411      D0E01EAD 
 411      C2F21D85 
 411      659F
 412 0c31 60D9472D 		.ascii	"`\331G-\337\335\236W\255\334\327\373\025l\03636\\\311"
 412      DFDD9E57 
 412      ADDCD7FB 
 412      156C1E33 
 412      365CC9
 413 0c44 325E5357 		.ascii	"2^SW\022\244`\177\241`\247\013\354t\312^\235\323\362"
 413      12A4607F 
 413      A160A70B 
 413      EC74CA5E 
 413      9DD3F2
 414 0c57 C830DBDB 		.ascii	"\3100\333\333&\321\333\014L\274]\337<\224\253c\034\357"
 414      26D1DB0C 
 414      4CBC5DDF 
 414      3C94AB63 
 414      1CEF
 415 0c69 F140216A 		.ascii	"\361@!j?'\223r\372n\0155\007\011\234\206\3278Y\224\223"
 415      3F279372 
 415      FA6E0D35 
 415      07099C86 
 415      D7385994 
 416 0c7e DE535DA9 		.ascii	"\336S]\251\235\323\326*\312\271\2359Y\212\005=\023\257"
 416      9DD3D62A 
 416      CAB99D39 
 416      598A053D 
 416      13AF
 417 0c90 E9C9C66F 		.ascii	"\351\311\306okt\377\372\213\017\027\37546V\023l2\245"
 417      6B74FFFA 
 417      8B0F17FD 
 417      34365613 
 417      6C32A5
 418 0ca3 DA1D9EE5 		.ascii	"\332\035\236\345&O:\262\374S\234\323\225\262\302eN^"
 418      264F3AB2 
 418      FC539CD3 
 418      95B2C265 
 418      4E5E
 419 0cb5 94604FB2 		.ascii	"\224`O\262\271\027E\257\\\376\303\277\217\263\2449]"
 419      B91745AF 
 419      5CFEC3BF 
 419      8FB3A439 
 419      5D
 420 0cc6 36B73BCE 		.ascii	"6\267;\316\351N\261,\262\270lfO\212+\356\0071\261\312"
 420      E94EB12C 
 420      B2B86C66 
ARM GAS  C:\Users\gjl\AppData\Local\Temp\cc0j38Wv.s 			page 33


 420      4F8A2BEE 
 420      0731B1CA 
 421 0cda 067BB233 		.ascii	"\006{\2623\305\345\211[\341H\2153\273\222\343\376!\206"
 421      C5E5895B 
 421      E1488D33 
 421      BB92E3FE 
 421      2186
 422 0cec 30E0EE5D 		.ascii	"0\340\356]G\212\303\366\256\315\034o\217\263;,I\251"
 422      478AC3F6 
 422      AECD1C6F 
 422      8FB33B2C 
 422      49A9
 423 0cfe 565B5CB2 		.ascii	"V[\\\262\331\222hw\330\342LV[\20295\311c\362\2449m\356"
 423      D9926877 
 423      D8E24C56 
 423      5B823935 
 423      C963F2A4 
 424 0d15 98444D90 		.ascii	"\230DM\220\340\312G\377_\236\270\323\334q&\267\307\012"
 424      E0CA47FF 
 424      5F9EB8D3 
 424      DC7126B7 
 424      C70A
 425 0d27 66C1BCC1 		.ascii	"f\301\274\301i_iK2}l\267z\022\365,/\261?4yt\342\315"
 425      695F694B 
 425      327D6CB7 
 425      7A12F52C 
 425      2FB13F34 
 426 0d3f FC8424BB 		.ascii	"\374\204$\27339\305j3\2554\245$$\270m\236yb\004b\203"
 426      3339C56A 
 426      33AD34A5 
 426      2424B86D 
 426      9E796204 
 427 0d55 C103EE9A 		.ascii	"\301\003\356\232\022m\366\025\211\036=\275\247\332\""
 427      126DF615 
 427      891E3DBD 
 427      A7DA22
 428 0d64 3F76D93D 		.ascii	"?v\331=6\22335\311-\264\230\034\356p\253\331c6A\247"
 428      36933335 
 428      C92DB498 
 428      1CEE70AB 
 428      D9633641 
 429 0d79 54A7C963 		.ascii	"T\247\311cO\266AS\244\375=\213)>\325m\262$\245X\376"
 429      4FB64153 
 429      A4FD3D8B 
 429      293ED56D 
 429      B224A558 
 430 0d8e 648A5DBA 		.ascii	"d\212]\272\364O\377\366\211\316\355\264\233\210Y\243"
 430      F44FFFF6 
 430      89CEEDB4 
 430      9B8859A3 
 431 0d9e 1BDAD893 		.ascii	"\033\332\330\223\304O\004\007\227\275'8Hn\302\011Ai"
 431      C44F0407 
 431      97BD2738 
 431      486EC209 
 431      4169
 432 0db0 64BEDB3A 		.ascii	"d\276\333:\313F\2703\305\3551A\036m\036\323\307f\273"
 432      CB46B833 
ARM GAS  C:\Users\gjl\AppData\Local\Temp\cc0j38Wv.s 			page 34


 432      C5ED3141 
 432      1E6D1ED3 
 432      C766BB
 433 0dc3 C794EC8E 		.ascii	"\307\224\354\216d\222\274g\262{\001\344\332\004\003"
 433      6492BC67 
 433      B27B01E4 
 433      DA0403
 434 0dd2 E53459ED 		.ascii	"\3454Y\355ns<\011\205\260\035\360\200(\240Ol\016\371"
 434      6E733C09 
 434      85B01DF0 
 434      8028A04F 
 434      6C0EF9
 435 0de5 8370053B 		.ascii	"\203p\005;\311\366\221-i\276\234F[\026\244._\271\234"
 435      C9F6912D 
 435      69BE9C46 
 435      5B16A42E 
 435      5FB99C
 436 0df8 909C49E6 		.ascii	"\220\234I\3464\223\335\221\220\002\003\340J\265x\214"
 436      3493DD91 
 436      900203E0 
 436      4AB5788C 
 437 0e08 2CFB2C77 		.ascii	",\373,w\337\212\211\211\203\277\324\345+\336\213\263"
 437      DF8A8989 
 437      83BFD4E5 
 437      2BDE8BB3 
 438 0e18 B85D9638 		.ascii	"\270]\2268\322\013\206(\342\365\336\236\277cm\246$\367"
 438      D20B8628 
 438      E2F5DE9E 
 438      BF636DA6 
 438      24F7
 439 0e2a D2D865F1 		.ascii	"\322\330e\361\377hM\\\272\314\024\373\336\362\225\200"
 439      FF684D5C 
 439      BACC14FB 
 439      DEF29580 
 440 0e3a 18A7D9E5 		.ascii	"\030\247\331\345\211Y\032j\265\305\247\244:,60e\366"
 440      89591A6A 
 440      B5C5A7A4 
 440      3A2C3630 
 440      65F6
 441 0e4c D8BEE517 		.ascii	"\330\276\345\027\223\314\020\211\323\356`\355\337\366"
 441      93CC1089 
 441      D3EE60ED 
 441      DFF6
 442 0e5a B78BC3EA 		.ascii	"\267\213\303\352\177dX\341\264\247\220\244A\253>\325"
 442      7F6458E1 
 442      B4A790A4 
 442      41AB3ED5 
 443 0e6a 93B09C35 		.ascii	"\223\260\2345\203\342\217\354\3007[\255db\032\310\360"
 443      83E28FEC 
 443      C0375BAD 
 443      64621AC8 
 443      F0
 444 0e7b C10397C7 		.ascii	"\301\003\227\307f\245\367B{\244\335mJHqx\300\341\217"
 444      66A5F742 
 444      7BA4DD6D 
 444      4A487178 
 444      C0E18F
ARM GAS  C:\Users\gjl\AppData\Local\Temp\cc0j38Wv.s 			page 35


 445 0e8e 6C2EC831 		.ascii	"l.\3101\031M\2358gt6\207%\005\246\340\012-\341\314\247"
 445      194D9D38 
 445      67743687 
 445      2505A6E0 
 445      0A2DE1CC 
 446 0ea3 96CC0E2B 		.ascii	"\226\314\016+8Ab\264\304\033h|\311\356\025p\037\024"
 446      384162B4 
 446      C41B687C 
 446      C9EE1570 
 446      1F14
 447 0eb5 9F06F3C8 		.ascii	"\237\006\363\310\022\037h1[\341\242\0273\001O\034\266"
 447      121F6831 
 447      5BE1A217 
 447      33014F1C 
 447      B6
 448 0ec6 95302AF1 		.ascii	"\2250*\361F\312\266$\232]D\220g\212\351a\311\216\360"
 448      46CAB624 
 448      9A5D4490 
 448      678AE961 
 448      C98EF0
 449 0ed9 87CA6222 		.ascii	"\207\312b\"\352\003\351s\317;j\251W\2467\306\242\371"
 449      EA03E973 
 449      CF3B6AA9 
 449      57A637C6 
 449      A2F9
 450 0eeb F6DC497F 		.ascii	"\366\334I\177\223y\000\016\376\232\244\3427.\263\303"
 450      9379000E 
 450      FE9AA4E2 
 450      372EB3C3 
 451 0efb 9D6073E9 		.ascii	"\235`s\351\034)vG\022\254\373y\322s\233\303\372\323"
 451      1C297647 
 451      12ACFB79 
 451      D2739BC3 
 451      FAD3
 452 0f0d 64EB7C45 		.ascii	"d\353|E\303\373\260*\"\375-?sXE\005\242\311D[\222\323"
 452      C3FBB02A 
 452      22FD2D3F 
 452      73584505 
 452      A2C9445B 
 453 0f23 E6924D02 		.ascii	"\346\222M\002\273\347-\365Gl\336'\333\222S\\i\357P\212"
 453      BBE72DF5 
 453      476CDE27 
 453      DB92535C 
 453      69EF508A 
 454 0f37 8ABB8AD9 		.ascii	"\212\273\212\331\024\260\322\004\263\033[\034\036\035"
 454      14B0D204 
 454      B31B5B1C 
 454      1E1D
 455 0f45 5DBD4E8F 		.ascii	"]\275N\217\213\271K%\226\273\2004\3021H\315\236\277"
 455      8BB94B25 
 455      96BB8034 
 455      C23148CD 
 455      9EBF
 456 0f57 002BD415 		.ascii	"\000+\324\025\245"
 456      A5
 457              		.text
 458              		.section	.gnu.lto_.symtab.1a3ffea,"",%progbits
ARM GAS  C:\Users\gjl\AppData\Local\Temp\cc0j38Wv.s 			page 36


 459 0000 75387838 		.ascii	"u8x8_d_ls013b7dh03_128x128\000"
 459      5F645F6C 
 459      73303133 
 459      62376468 
 459      30335F31 
 460 001b 00       		.ascii	"\000"
 461 001c 00       		.ascii	"\000"
 462 001d 00       		.ascii	"\000"
 463 001e 00000000 		.ascii	"\000\000\000\000\000\000\000\000"
 463      00000000 
 464 0026 44010000 		.ascii	"D\001\000\000"
 465 002a 75387838 		.ascii	"u8x8_cad_StartTransfer\000"
 465      5F636164 
 465      5F537461 
 465      72745472 
 465      616E7366 
 466 0041 00       		.ascii	"\000"
 467 0042 02       		.ascii	"\002"
 468 0043 00       		.ascii	"\000"
 469 0044 00000000 		.ascii	"\000\000\000\000\000\000\000\000"
 469      00000000 
 470 004c 4A010000 		.ascii	"J\001\000\000"
 471 0050 75387838 		.ascii	"u8x8_cad_SendCmd\000"
 471      5F636164 
 471      5F53656E 
 471      64436D64 
 471      00
 472 0061 00       		.ascii	"\000"
 473 0062 02       		.ascii	"\002"
 474 0063 00       		.ascii	"\000"
 475 0064 00000000 		.ascii	"\000\000\000\000\000\000\000\000"
 475      00000000 
 476 006c 50010000 		.ascii	"P\001\000\000"
 477 0070 75387838 		.ascii	"u8x8_cad_SendData\000"
 477      5F636164 
 477      5F53656E 
 477      64446174 
 477      6100
 478 0082 00       		.ascii	"\000"
 479 0083 02       		.ascii	"\002"
 480 0084 00       		.ascii	"\000"
 481 0085 00000000 		.ascii	"\000\000\000\000\000\000\000\000"
 481      00000000 
 482 008d 58010000 		.ascii	"X\001\000\000"
 483 0091 75387838 		.ascii	"u8x8_cad_EndTransfer\000"
 483      5F636164 
 483      5F456E64 
 483      5472616E 
 483      73666572 
 484 00a6 00       		.ascii	"\000"
 485 00a7 02       		.ascii	"\002"
 486 00a8 00       		.ascii	"\000"
 487 00a9 00000000 		.ascii	"\000\000\000\000\000\000\000\000"
 487      00000000 
 488 00b1 5B010000 		.ascii	"[\001\000\000"
 489 00b5 75387838 		.ascii	"u8x8_d_helper_display_init\000"
 489      5F645F68 
ARM GAS  C:\Users\gjl\AppData\Local\Temp\cc0j38Wv.s 			page 37


 489      656C7065 
 489      725F6469 
 489      73706C61 
 490 00d0 00       		.ascii	"\000"
 491 00d1 02       		.ascii	"\002"
 492 00d2 00       		.ascii	"\000"
 493 00d3 00000000 		.ascii	"\000\000\000\000\000\000\000\000"
 493      00000000 
 494 00db 5F010000 		.ascii	"_\001\000\000"
 495 00df 75387838 		.ascii	"u8x8_d_helper_display_setup_memory\000"
 495      5F645F68 
 495      656C7065 
 495      725F6469 
 495      73706C61 
 496 0102 00       		.ascii	"\000"
 497 0103 02       		.ascii	"\002"
 498 0104 00       		.ascii	"\000"
 499 0105 00000000 		.ascii	"\000\000\000\000\000\000\000\000"
 499      00000000 
 500 010d 64010000 		.ascii	"d\001\000\000"
 501              		.text
 502              		.section	.gnu.lto_.opts,"",%progbits
 503 0000 272D666D 		.ascii	"'-fmath-errno' '-fsigned-zeros' '-ftrapping-math' '"
 503      6174682D 
 503      6572726E 
 503      6F272027 
 503      2D667369 
 504 0033 2D666E6F 		.ascii	"-fno-trapv' '-fno-openmp' '-fno-openacc' '-mcpu=cor"
 504      2D747261 
 504      70762720 
 504      272D666E 
 504      6F2D6F70 
 505 0066 7465782D 		.ascii	"tex-m0' '-mthumb' '-g' '-Os' '-ffunction-sections' "
 505      6D302720 
 505      272D6D74 
 505      68756D62 
 505      2720272D 
 506 0099 272D6666 		.ascii	"'-ffat-lto-objects' '-flto'\000"
 506      61742D6C 
 506      746F2D6F 
 506      626A6563 
 506      74732720 
 507              		.text
 508              		.cfi_sections	.debug_frame
 509              		.section	.text.u8x8_d_ls013b7dh03_128x128,"ax",%progbits
 510              		.align	1
 511              		.global	u8x8_d_ls013b7dh03_128x128
 512              		.code	16
 513              		.thumb_func
 514              		.type	u8x8_d_ls013b7dh03_128x128, %function
 515              	u8x8_d_ls013b7dh03_128x128:
 516              	.LFB0:
 517              		.file 1 "..\\..\\u8g2\\csrc\\u8x8_d_ls013b7dh03.c"
   1:..\..\u8g2\csrc/u8x8_d_ls013b7dh03.c **** /*
   2:..\..\u8g2\csrc/u8x8_d_ls013b7dh03.c **** 
   3:..\..\u8g2\csrc/u8x8_d_ls013b7dh03.c ****   u8x8_d_ls013b7dh03.c
   4:..\..\u8g2\csrc/u8x8_d_ls013b7dh03.c ****   
ARM GAS  C:\Users\gjl\AppData\Local\Temp\cc0j38Wv.s 			page 38


   5:..\..\u8g2\csrc/u8x8_d_ls013b7dh03.c ****   Universal 8bit Graphics Library (https://github.com/olikraus/u8g2/)
   6:..\..\u8g2\csrc/u8x8_d_ls013b7dh03.c **** 
   7:..\..\u8g2\csrc/u8x8_d_ls013b7dh03.c ****   Copyright (c) 2016, olikraus@gmail.com
   8:..\..\u8g2\csrc/u8x8_d_ls013b7dh03.c ****   All rights reserved.
   9:..\..\u8g2\csrc/u8x8_d_ls013b7dh03.c **** 
  10:..\..\u8g2\csrc/u8x8_d_ls013b7dh03.c ****   Redistribution and use in source and binary forms, with or without modification, 
  11:..\..\u8g2\csrc/u8x8_d_ls013b7dh03.c ****   are permitted provided that the following conditions are met:
  12:..\..\u8g2\csrc/u8x8_d_ls013b7dh03.c **** 
  13:..\..\u8g2\csrc/u8x8_d_ls013b7dh03.c ****   * Redistributions of source code must retain the above copyright notice, this list 
  14:..\..\u8g2\csrc/u8x8_d_ls013b7dh03.c ****     of conditions and the following disclaimer.
  15:..\..\u8g2\csrc/u8x8_d_ls013b7dh03.c ****     
  16:..\..\u8g2\csrc/u8x8_d_ls013b7dh03.c ****   * Redistributions in binary form must reproduce the above copyright notice, this 
  17:..\..\u8g2\csrc/u8x8_d_ls013b7dh03.c ****     list of conditions and the following disclaimer in the documentation and/or other 
  18:..\..\u8g2\csrc/u8x8_d_ls013b7dh03.c ****     materials provided with the distribution.
  19:..\..\u8g2\csrc/u8x8_d_ls013b7dh03.c **** 
  20:..\..\u8g2\csrc/u8x8_d_ls013b7dh03.c ****   THIS SOFTWARE IS PROVIDED BY THE COPYRIGHT HOLDERS AND 
  21:..\..\u8g2\csrc/u8x8_d_ls013b7dh03.c ****   CONTRIBUTORS "AS IS" AND ANY EXPRESS OR IMPLIED WARRANTIES, 
  22:..\..\u8g2\csrc/u8x8_d_ls013b7dh03.c ****   INCLUDING, BUT NOT LIMITED TO, THE IMPLIED WARRANTIES OF 
  23:..\..\u8g2\csrc/u8x8_d_ls013b7dh03.c ****   MERCHANTABILITY AND FITNESS FOR A PARTICULAR PURPOSE ARE 
  24:..\..\u8g2\csrc/u8x8_d_ls013b7dh03.c ****   DISCLAIMED. IN NO EVENT SHALL THE COPYRIGHT HOLDER OR 
  25:..\..\u8g2\csrc/u8x8_d_ls013b7dh03.c ****   CONTRIBUTORS BE LIABLE FOR ANY DIRECT, INDIRECT, INCIDENTAL, 
  26:..\..\u8g2\csrc/u8x8_d_ls013b7dh03.c ****   SPECIAL, EXEMPLARY, OR CONSEQUENTIAL DAMAGES (INCLUDING, BUT 
  27:..\..\u8g2\csrc/u8x8_d_ls013b7dh03.c ****   NOT LIMITED TO, PROCUREMENT OF SUBSTITUTE GOODS OR SERVICES; 
  28:..\..\u8g2\csrc/u8x8_d_ls013b7dh03.c ****   LOSS OF USE, DATA, OR PROFITS; OR BUSINESS INTERRUPTION) HOWEVER 
  29:..\..\u8g2\csrc/u8x8_d_ls013b7dh03.c ****   CAUSED AND ON ANY THEORY OF LIABILITY, WHETHER IN CONTRACT, 
  30:..\..\u8g2\csrc/u8x8_d_ls013b7dh03.c ****   STRICT LIABILITY, OR TORT (INCLUDING NEGLIGENCE OR OTHERWISE) 
  31:..\..\u8g2\csrc/u8x8_d_ls013b7dh03.c ****   ARISING IN ANY WAY OUT OF THE USE OF THIS SOFTWARE, EVEN IF 
  32:..\..\u8g2\csrc/u8x8_d_ls013b7dh03.c ****   ADVISED OF THE POSSIBILITY OF SUCH DAMAGE.  
  33:..\..\u8g2\csrc/u8x8_d_ls013b7dh03.c **** 
  34:..\..\u8g2\csrc/u8x8_d_ls013b7dh03.c **** 
  35:..\..\u8g2\csrc/u8x8_d_ls013b7dh03.c ****   The LS013B7DH02 is a simple display and controller
  36:..\..\u8g2\csrc/u8x8_d_ls013b7dh03.c ****   --> no support for contrast adjustment, flip and power down.
  37:..\..\u8g2\csrc/u8x8_d_ls013b7dh03.c **** */
  38:..\..\u8g2\csrc/u8x8_d_ls013b7dh03.c **** 
  39:..\..\u8g2\csrc/u8x8_d_ls013b7dh03.c **** #include "u8x8.h"
  40:..\..\u8g2\csrc/u8x8_d_ls013b7dh03.c **** 
  41:..\..\u8g2\csrc/u8x8_d_ls013b7dh03.c **** #define SWAP8(a) ((((a) & 0x80) >> 7) | (((a) & 0x40) >> 5) | (((a) & 0x20) >> 3) | (((a) & 0x10) >
  42:..\..\u8g2\csrc/u8x8_d_ls013b7dh03.c **** 
  43:..\..\u8g2\csrc/u8x8_d_ls013b7dh03.c **** #define LS013B7DH03_CMD_UPDATE     (0x01)
  44:..\..\u8g2\csrc/u8x8_d_ls013b7dh03.c **** #define LS013B7DH03_CMD_ALL_CLEAR  (0x04)
  45:..\..\u8g2\csrc/u8x8_d_ls013b7dh03.c **** #define LS013B7DH03_VAL_TRAILER    (0x00)
  46:..\..\u8g2\csrc/u8x8_d_ls013b7dh03.c **** 
  47:..\..\u8g2\csrc/u8x8_d_ls013b7dh03.c **** static const u8x8_display_info_t u8x8_ls013b7dh03_128x128_display_info =
  48:..\..\u8g2\csrc/u8x8_d_ls013b7dh03.c **** {
  49:..\..\u8g2\csrc/u8x8_d_ls013b7dh03.c ****   /* chip_enable_level = */ 1,
  50:..\..\u8g2\csrc/u8x8_d_ls013b7dh03.c ****   /* chip_disable_level = */ 0,
  51:..\..\u8g2\csrc/u8x8_d_ls013b7dh03.c ****   /* post_chip_enable_wait_ns = */ 50,
  52:..\..\u8g2\csrc/u8x8_d_ls013b7dh03.c ****   /* pre_chip_disable_wait_ns = */ 50,
  53:..\..\u8g2\csrc/u8x8_d_ls013b7dh03.c ****   /* reset_pulse_width_ms = */ 1,
  54:..\..\u8g2\csrc/u8x8_d_ls013b7dh03.c ****   /* post_reset_wait_ms = */ 6,
  55:..\..\u8g2\csrc/u8x8_d_ls013b7dh03.c ****   /* sda_setup_time_ns = */ 227,	/* 227 nsec according to the datasheet */		
  56:..\..\u8g2\csrc/u8x8_d_ls013b7dh03.c ****   /* sck_pulse_width_ns = */  255,	/* 450 nsec according to the datasheet */
  57:..\..\u8g2\csrc/u8x8_d_ls013b7dh03.c ****   /* sck_clock_hz = */ 1000000UL,	/* since Arduino 1.6.0, the SPI bus speed in Hz. Should be  10000
  58:..\..\u8g2\csrc/u8x8_d_ls013b7dh03.c ****   /* spi_mode = */ 2,		/* active low, rising edge */
  59:..\..\u8g2\csrc/u8x8_d_ls013b7dh03.c ****   /* i2c_bus_clock_100kHz = */ 4,
  60:..\..\u8g2\csrc/u8x8_d_ls013b7dh03.c ****   /* data_setup_time_ns = */ 100,
  61:..\..\u8g2\csrc/u8x8_d_ls013b7dh03.c ****   /* write_pulse_width_ns = */ 100,
ARM GAS  C:\Users\gjl\AppData\Local\Temp\cc0j38Wv.s 			page 39


  62:..\..\u8g2\csrc/u8x8_d_ls013b7dh03.c ****   /* tile_width = */ 16,
  63:..\..\u8g2\csrc/u8x8_d_ls013b7dh03.c ****   /* tile_hight = */ 16,
  64:..\..\u8g2\csrc/u8x8_d_ls013b7dh03.c ****   /* default_x_offset = */ 0,
  65:..\..\u8g2\csrc/u8x8_d_ls013b7dh03.c ****   /* flipmode_x_offset = */ 0,
  66:..\..\u8g2\csrc/u8x8_d_ls013b7dh03.c ****   /* pixel_width = */ 128,
  67:..\..\u8g2\csrc/u8x8_d_ls013b7dh03.c ****   /* pixel_height = */ 128
  68:..\..\u8g2\csrc/u8x8_d_ls013b7dh03.c **** };
  69:..\..\u8g2\csrc/u8x8_d_ls013b7dh03.c **** 
  70:..\..\u8g2\csrc/u8x8_d_ls013b7dh03.c **** uint8_t u8x8_d_ls013b7dh03_128x128(u8x8_t *u8x8, uint8_t msg, U8X8_UNUSED uint8_t arg_int, void *ar
  71:..\..\u8g2\csrc/u8x8_d_ls013b7dh03.c **** {
 518              		.loc 1 71 0
 519              		.cfi_startproc
 520              		@ args = 0, pretend = 0, frame = 8
 521              		@ frame_needed = 0, uses_anonymous_args = 0
 522              	.LVL0:
 523 0000 F7B5     		push	{r0, r1, r2, r4, r5, r6, r7, lr}
 524              		.cfi_def_cfa_offset 32
 525              		.cfi_offset 0, -32
 526              		.cfi_offset 1, -28
 527              		.cfi_offset 2, -24
 528              		.cfi_offset 4, -20
 529              		.cfi_offset 5, -16
 530              		.cfi_offset 6, -12
 531              		.cfi_offset 7, -8
 532              		.cfi_offset 14, -4
  72:..\..\u8g2\csrc/u8x8_d_ls013b7dh03.c ****   uint8_t y, c, i;
  73:..\..\u8g2\csrc/u8x8_d_ls013b7dh03.c ****   uint8_t *ptr;
  74:..\..\u8g2\csrc/u8x8_d_ls013b7dh03.c ****   switch(msg)
 533              		.loc 1 74 0
 534 0002 0939     		subs	r1, r1, #9
 535              	.LVL1:
  71:..\..\u8g2\csrc/u8x8_d_ls013b7dh03.c ****   uint8_t y, c, i;
 536              		.loc 1 71 0
 537 0004 0400     		movs	r4, r0
 538              		.loc 1 74 0
 539 0006 0800     		movs	r0, r1
 540              	.LVL2:
 541 0008 0629     		cmp	r1, #6
 542 000a 5ED8     		bhi	.L9
 543 000c FFF7FEFF 		bl	__gnu_thumb1_case_uqi
 544              	.L4:
 545 0010 04       		.byte	(.L3-.L4)/2
 546 0011 09       		.byte	(.L5-.L4)/2
 547 0012 14       		.byte	(.L11-.L4)/2
 548 0013 5D       		.byte	(.L9-.L4)/2
 549 0014 5D       		.byte	(.L9-.L4)/2
 550 0015 5D       		.byte	(.L9-.L4)/2
 551 0016 16       		.byte	(.L7-.L4)/2
 552 0017 00       		.p2align 1
 553              	.L3:
  75:..\..\u8g2\csrc/u8x8_d_ls013b7dh03.c ****   {
  76:..\..\u8g2\csrc/u8x8_d_ls013b7dh03.c ****     case U8X8_MSG_DISPLAY_SETUP_MEMORY:
  77:..\..\u8g2\csrc/u8x8_d_ls013b7dh03.c ****       u8x8_d_helper_display_setup_memory(u8x8, &u8x8_ls013b7dh03_128x128_display_info);
 554              		.loc 1 77 0
 555 0018 2D49     		ldr	r1, .L13
 556 001a 2000     		movs	r0, r4
 557 001c FFF7FEFF 		bl	u8x8_d_helper_display_setup_memory
ARM GAS  C:\Users\gjl\AppData\Local\Temp\cc0j38Wv.s 			page 40


 558              	.LVL3:
 559 0020 0AE0     		b	.L11
 560              	.LVL4:
 561              	.L5:
  78:..\..\u8g2\csrc/u8x8_d_ls013b7dh03.c ****       break;
  79:..\..\u8g2\csrc/u8x8_d_ls013b7dh03.c ****     case U8X8_MSG_DISPLAY_INIT:
  80:..\..\u8g2\csrc/u8x8_d_ls013b7dh03.c ****       u8x8_d_helper_display_init(u8x8);
 562              		.loc 1 80 0
 563 0022 2000     		movs	r0, r4
 564 0024 FFF7FEFF 		bl	u8x8_d_helper_display_init
 565              	.LVL5:
  81:..\..\u8g2\csrc/u8x8_d_ls013b7dh03.c **** 
  82:..\..\u8g2\csrc/u8x8_d_ls013b7dh03.c ****       /* clear screen */
  83:..\..\u8g2\csrc/u8x8_d_ls013b7dh03.c ****       u8x8_cad_SendCmd(u8x8, SWAP8(LS013B7DH03_CMD_ALL_CLEAR) );
 566              		.loc 1 83 0
 567 0028 2021     		movs	r1, #32
 568 002a 2000     		movs	r0, r4
 569 002c FFF7FEFF 		bl	u8x8_cad_SendCmd
 570              	.LVL6:
  84:..\..\u8g2\csrc/u8x8_d_ls013b7dh03.c ****       u8x8_cad_SendCmd(u8x8, LS013B7DH03_VAL_TRAILER);
 571              		.loc 1 84 0
 572 0030 0021     		movs	r1, #0
 573 0032 2000     		movs	r0, r4
 574 0034 FFF7FEFF 		bl	u8x8_cad_SendCmd
 575              	.LVL7:
 576              	.L11:
  85:..\..\u8g2\csrc/u8x8_d_ls013b7dh03.c **** 
  86:..\..\u8g2\csrc/u8x8_d_ls013b7dh03.c ****       break;
  87:..\..\u8g2\csrc/u8x8_d_ls013b7dh03.c ****     case U8X8_MSG_DISPLAY_SET_POWER_SAVE:
  88:..\..\u8g2\csrc/u8x8_d_ls013b7dh03.c ****       /* not available for the ls013b7dh03 */
  89:..\..\u8g2\csrc/u8x8_d_ls013b7dh03.c ****       break;
  90:..\..\u8g2\csrc/u8x8_d_ls013b7dh03.c ****     case U8X8_MSG_DISPLAY_DRAW_TILE:
  91:..\..\u8g2\csrc/u8x8_d_ls013b7dh03.c ****       /* each tile is 8 lines, with the data starting at the left edge */
  92:..\..\u8g2\csrc/u8x8_d_ls013b7dh03.c ****       y = ((((u8x8_tile_t *)arg_ptr)->y_pos) * 8) + 1;
  93:..\..\u8g2\csrc/u8x8_d_ls013b7dh03.c **** 
  94:..\..\u8g2\csrc/u8x8_d_ls013b7dh03.c ****       c = ((u8x8_tile_t *)arg_ptr)->cnt;
  95:..\..\u8g2\csrc/u8x8_d_ls013b7dh03.c ****       ptr = ((u8x8_tile_t *)arg_ptr)->tile_ptr;
  96:..\..\u8g2\csrc/u8x8_d_ls013b7dh03.c **** 
  97:..\..\u8g2\csrc/u8x8_d_ls013b7dh03.c ****       /* send data mode byte */
  98:..\..\u8g2\csrc/u8x8_d_ls013b7dh03.c ****       u8x8_cad_StartTransfer(u8x8);
  99:..\..\u8g2\csrc/u8x8_d_ls013b7dh03.c ****       u8x8_cad_SendCmd(u8x8, SWAP8(LS013B7DH03_CMD_UPDATE) );
 100:..\..\u8g2\csrc/u8x8_d_ls013b7dh03.c **** 
 101:..\..\u8g2\csrc/u8x8_d_ls013b7dh03.c ****       /* send 8 lines of 16 bytes (=128 pixels) */
 102:..\..\u8g2\csrc/u8x8_d_ls013b7dh03.c ****       for( i = 0; i < 8; i++ )
 103:..\..\u8g2\csrc/u8x8_d_ls013b7dh03.c ****       {
 104:..\..\u8g2\csrc/u8x8_d_ls013b7dh03.c ****         u8x8_cad_SendCmd(u8x8, SWAP8(y + i) );
 105:..\..\u8g2\csrc/u8x8_d_ls013b7dh03.c ****         u8x8_cad_SendData(u8x8, c, ptr);
 106:..\..\u8g2\csrc/u8x8_d_ls013b7dh03.c ****         u8x8_cad_SendCmd(u8x8, LS013B7DH03_VAL_TRAILER);
 107:..\..\u8g2\csrc/u8x8_d_ls013b7dh03.c **** 
 108:..\..\u8g2\csrc/u8x8_d_ls013b7dh03.c ****         ptr += c;
 109:..\..\u8g2\csrc/u8x8_d_ls013b7dh03.c ****       }
 110:..\..\u8g2\csrc/u8x8_d_ls013b7dh03.c **** 
 111:..\..\u8g2\csrc/u8x8_d_ls013b7dh03.c ****       /* finish with a trailing byte */
 112:..\..\u8g2\csrc/u8x8_d_ls013b7dh03.c ****       u8x8_cad_SendCmd(u8x8, LS013B7DH03_VAL_TRAILER);
 113:..\..\u8g2\csrc/u8x8_d_ls013b7dh03.c ****       u8x8_cad_EndTransfer(u8x8);
 114:..\..\u8g2\csrc/u8x8_d_ls013b7dh03.c **** 
 115:..\..\u8g2\csrc/u8x8_d_ls013b7dh03.c ****       break;
ARM GAS  C:\Users\gjl\AppData\Local\Temp\cc0j38Wv.s 			page 41


 116:..\..\u8g2\csrc/u8x8_d_ls013b7dh03.c ****     default:
 117:..\..\u8g2\csrc/u8x8_d_ls013b7dh03.c ****       return 0;
 118:..\..\u8g2\csrc/u8x8_d_ls013b7dh03.c ****   }
 119:..\..\u8g2\csrc/u8x8_d_ls013b7dh03.c ****   return 1;
 577              		.loc 1 119 0
 578 0038 0120     		movs	r0, #1
  86:..\..\u8g2\csrc/u8x8_d_ls013b7dh03.c ****     case U8X8_MSG_DISPLAY_SET_POWER_SAVE:
 579              		.loc 1 86 0
 580 003a 47E0     		b	.L2
 581              	.LVL8:
 582              	.L7:
 583              	.LBB4:
 584              	.LBB5:
  92:..\..\u8g2\csrc/u8x8_d_ls013b7dh03.c **** 
 585              		.loc 1 92 0
 586 003c 9A79     		ldrb	r2, [r3, #6]
 587              	.LVL9:
  98:..\..\u8g2\csrc/u8x8_d_ls013b7dh03.c ****       u8x8_cad_SendCmd(u8x8, SWAP8(LS013B7DH03_CMD_UPDATE) );
 588              		.loc 1 98 0
 589 003e 2000     		movs	r0, r4
  92:..\..\u8g2\csrc/u8x8_d_ls013b7dh03.c **** 
 590              		.loc 1 92 0
 591 0040 D200     		lsls	r2, r2, #3
 592 0042 0132     		adds	r2, r2, #1
 593 0044 D2B2     		uxtb	r2, r2
 594 0046 0192     		str	r2, [sp, #4]
 595              	.LVL10:
  94:..\..\u8g2\csrc/u8x8_d_ls013b7dh03.c ****       ptr = ((u8x8_tile_t *)arg_ptr)->tile_ptr;
 596              		.loc 1 94 0
 597 0048 1F79     		ldrb	r7, [r3, #4]
 598              	.LVL11:
  95:..\..\u8g2\csrc/u8x8_d_ls013b7dh03.c **** 
 599              		.loc 1 95 0
 600 004a 1E68     		ldr	r6, [r3]
 601              	.LVL12:
  98:..\..\u8g2\csrc/u8x8_d_ls013b7dh03.c ****       u8x8_cad_SendCmd(u8x8, SWAP8(LS013B7DH03_CMD_UPDATE) );
 602              		.loc 1 98 0
 603 004c FFF7FEFF 		bl	u8x8_cad_StartTransfer
 604              	.LVL13:
  99:..\..\u8g2\csrc/u8x8_d_ls013b7dh03.c **** 
 605              		.loc 1 99 0
 606 0050 8021     		movs	r1, #128
 607 0052 2000     		movs	r0, r4
 608 0054 FFF7FEFF 		bl	u8x8_cad_SendCmd
 609              	.LVL14:
 610 0058 0025     		movs	r5, #0
 611              	.LVL15:
 612              	.L8:
 104:..\..\u8g2\csrc/u8x8_d_ls013b7dh03.c ****         u8x8_cad_SendData(u8x8, c, ptr);
 613              		.loc 1 104 0
 614 005a 0122     		movs	r2, #1
 615 005c 0220     		movs	r0, #2
 616 005e 019B     		ldr	r3, [sp, #4]
 617 0060 5B19     		adds	r3, r3, r5
 618 0062 D911     		asrs	r1, r3, #7
 619 0064 1140     		ands	r1, r2
 620 0066 5A11     		asrs	r2, r3, #5
ARM GAS  C:\Users\gjl\AppData\Local\Temp\cc0j38Wv.s 			page 42


 621 0068 0240     		ands	r2, r0
 622 006a 1143     		orrs	r1, r2
 623 006c DA01     		lsls	r2, r3, #7
 624 006e 1143     		orrs	r1, r2
 625 0070 0422     		movs	r2, #4
 626 0072 D810     		asrs	r0, r3, #3
 627 0074 0240     		ands	r2, r0
 628 0076 1143     		orrs	r1, r2
 629 0078 0822     		movs	r2, #8
 630 007a 5810     		asrs	r0, r3, #1
 631 007c 0240     		ands	r2, r0
 632 007e 1143     		orrs	r1, r2
 633 0080 1022     		movs	r2, #16
 634 0082 5800     		lsls	r0, r3, #1
 635 0084 0240     		ands	r2, r0
 636 0086 1143     		orrs	r1, r2
 637 0088 2022     		movs	r2, #32
 638 008a D800     		lsls	r0, r3, #3
 639 008c 0240     		ands	r2, r0
 640 008e 1143     		orrs	r1, r2
 641 0090 4022     		movs	r2, #64
 642 0092 5B01     		lsls	r3, r3, #5
 643 0094 1340     		ands	r3, r2
 644 0096 0B43     		orrs	r3, r1
 645 0098 D9B2     		uxtb	r1, r3
 646 009a 2000     		movs	r0, r4
 647 009c FFF7FEFF 		bl	u8x8_cad_SendCmd
 648              	.LVL16:
 105:..\..\u8g2\csrc/u8x8_d_ls013b7dh03.c ****         u8x8_cad_SendCmd(u8x8, LS013B7DH03_VAL_TRAILER);
 649              		.loc 1 105 0
 650 00a0 3200     		movs	r2, r6
 651 00a2 3900     		movs	r1, r7
 652 00a4 2000     		movs	r0, r4
 653 00a6 FFF7FEFF 		bl	u8x8_cad_SendData
 654              	.LVL17:
 655 00aa 0135     		adds	r5, r5, #1
 656              	.LVL18:
 106:..\..\u8g2\csrc/u8x8_d_ls013b7dh03.c **** 
 657              		.loc 1 106 0
 658 00ac 0021     		movs	r1, #0
 659 00ae 2000     		movs	r0, r4
 660 00b0 FFF7FEFF 		bl	u8x8_cad_SendCmd
 661              	.LVL19:
 662 00b4 F619     		adds	r6, r6, r7
 663              	.LVL20:
 102:..\..\u8g2\csrc/u8x8_d_ls013b7dh03.c ****       {
 664              		.loc 1 102 0
 665 00b6 082D     		cmp	r5, #8
 666 00b8 CFD1     		bne	.L8
 112:..\..\u8g2\csrc/u8x8_d_ls013b7dh03.c ****       u8x8_cad_EndTransfer(u8x8);
 667              		.loc 1 112 0
 668 00ba 0021     		movs	r1, #0
 669 00bc 2000     		movs	r0, r4
 670 00be FFF7FEFF 		bl	u8x8_cad_SendCmd
 671              	.LVL21:
 113:..\..\u8g2\csrc/u8x8_d_ls013b7dh03.c **** 
 672              		.loc 1 113 0
ARM GAS  C:\Users\gjl\AppData\Local\Temp\cc0j38Wv.s 			page 43


 673 00c2 2000     		movs	r0, r4
 674 00c4 FFF7FEFF 		bl	u8x8_cad_EndTransfer
 675              	.LVL22:
 676 00c8 B6E7     		b	.L11
 677              	.LVL23:
 678              	.L9:
 679              	.LBE5:
 680              	.LBE4:
 117:..\..\u8g2\csrc/u8x8_d_ls013b7dh03.c ****   }
 681              		.loc 1 117 0
 682 00ca 0020     		movs	r0, #0
 683              	.LVL24:
 684              	.L2:
 120:..\..\u8g2\csrc/u8x8_d_ls013b7dh03.c **** }
 685              		.loc 1 120 0
 686              		@ sp needed
 687              	.LVL25:
 688 00cc FEBD     		pop	{r1, r2, r3, r4, r5, r6, r7, pc}
 689              	.L14:
 690 00ce C046     		.align	2
 691              	.L13:
 692 00d0 00000000 		.word	.LANCHOR0
 693              		.cfi_endproc
 694              	.LFE0:
 695              		.size	u8x8_d_ls013b7dh03_128x128, .-u8x8_d_ls013b7dh03_128x128
 696              		.section	.rodata
 697              		.align	2
 698              		.set	.LANCHOR0,. + 0
 699              		.type	u8x8_ls013b7dh03_128x128_display_info, %object
 700              		.size	u8x8_ls013b7dh03_128x128_display_info, 24
 701              	u8x8_ls013b7dh03_128x128_display_info:
 702 0000 01       		.byte	1
 703 0001 00       		.byte	0
 704 0002 32       		.byte	50
 705 0003 32       		.byte	50
 706 0004 01       		.byte	1
 707 0005 06       		.byte	6
 708 0006 E3       		.byte	-29
 709 0007 FF       		.byte	-1
 710 0008 40420F00 		.word	1000000
 711 000c 02       		.byte	2
 712 000d 04       		.byte	4
 713 000e 64       		.byte	100
 714 000f 64       		.byte	100
 715 0010 10       		.byte	16
 716 0011 10       		.byte	16
 717 0012 00       		.byte	0
 718 0013 00       		.byte	0
 719 0014 8000     		.short	128
 720 0016 8000     		.short	128
 721              		.text
 722              	.Letext0:
 723              		.file 2 "c:\\program files (x86)\\cypress\\psoc creator\\4.1\\psoc creator\\import\\gnu\\arm\\5.4.
 724              		.file 3 "c:\\program files (x86)\\cypress\\psoc creator\\4.1\\psoc creator\\import\\gnu\\arm\\5.4.
 725              		.file 4 "..\\..\\u8g2\\csrc\\u8x8.h"