ARM GAS  C:\Users\gjl\AppData\Local\Temp\ccIJCYYn.s 			page 1


   1              		.syntax unified
   2              		.cpu cortex-m0
   3              		.fpu softvfp
   4              		.eabi_attribute 20, 1
   5              		.eabi_attribute 21, 1
   6              		.eabi_attribute 23, 3
   7              		.eabi_attribute 24, 1
   8              		.eabi_attribute 25, 1
   9              		.eabi_attribute 26, 1
  10              		.eabi_attribute 30, 4
  11              		.eabi_attribute 34, 0
  12              		.eabi_attribute 18, 4
  13              		.thumb
  14              		.syntax unified
  15              		.file	"u8x8_d_a2printer.c"
  16              		.text
  17              	.Ltext0:
  18              		.section	.gnu.lto_.profile.50a2654d,"",%progbits
  19 0000 789C6361 		.ascii	"x\234ca`d`e`\000\222\327\231\252\001\003\202\001`"
  19      60646065 
  19      600092D7 
  19      99AA0103 
  19      820160
  20              		.text
  21              		.section	.gnu.lto_.icf.50a2654d,"",%progbits
  22 0000 789C6361 		.ascii	"x\234ca`d\000\001\005\006\004`e\330\263\360]?\013\343"
  22      60640001 
  22      05060460 
  22      65D8B3F0 
  22      5D3F0BE3 
  23 0014 A777B3D7 		.ascii	"\247w\263\327\3603\035\274\365k\027\007s\363\315\217"
  23      F0331DBC 
  23      F56B1707 
  23      73F3CD8F 
  24 0024 3DCC2CA7 		.ascii	"=\314,\247W\337Y\315\315\000\000\004\344\017\204"
  24      57DF59CD 
  24      CD000004 
  24      E40F84
  25              		.text
  26              		.section	.gnu.lto_.jmpfuncs.50a2654d,"",%progbits
  27 0000 789C65D2 		.ascii	"x\234e\322=O\3030\020\006\340{\317\021\215(\320\212"
  27      3D4FC330 
  27      1006E07B 
  27      CF118D28 
  27      D08A
  28 0012 B5153B0C 		.ascii	"\265\025;\014\254\014\374\262L\216D2\264B\335\012l\214"
  28      AC0CFCB2 
  28      4C8E4432 
  28      B442DD0A 
  28      6C8C
  29 0024 B450CAC7 		.ascii	"\264P\312\307\014B \201\012\010\025\261\200X\370\011"
  29      0C422081 
  29      0A0815B1 
  29      8058F809 
  30 0034 155F4B45 		.ascii	"\025_KE%\354\\R\022s\213\243<\347\263\357\022\217@6"
  30      25EC5C52 
  30      12738BA3 
ARM GAS  C:\Users\gjl\AppData\Local\Temp\ccIJCYYn.s 			page 2


  30      3CE7B3EF 
  30      128F4036 
  31 0048 D699A6E1 		.ascii	"\326\231\246\341\021\003Jk\310\302\034$oe\301\2041\370"
  31      11034A6B 
  31      C8C21C24 
  31      6F65C184 
  31      31F8
  32 005a 8EDEE7BF 		.ascii	"\216\336\347\2778V\204\032\366P/\340\365\333e\253,\270"
  32      3856841A 
  32      F6502FE0 
  32      F5DB65AB 
  32      2CB8
  33 006c 868E835B 		.ascii	"\206\216\203[\361\325\260$H\350:\370\324\214\226\304"
  33      F1D5B024 
  33      48E83AF8 
  33      D48C96C4 
  34 007c 06C0BE83 		.ascii	"\006\300\276\203g\273\233\335YQ\306\201\203\355\207"
  34      67BB9BDD 
  34      5951C681 
  34      83ED87
  35 008b F31725B8 		.ascii	"\363\027%\270\210\236\203Q\377\276Q\021\\\301\241\203"
  35      889E8351 
  35      FFBE5111 
  35      5CC1A183 
  36 009b CDF173CB 		.ascii	"\315\361s\313\027\364\321\317\241\211\231\351S2\024"
  36      17F4D1CF 
  36      A18999E9 
  36      533214
  37 00aa CA4FA1D8 		.ascii	"\312O\241\330\366\277>o\357\266;sR\266\204#\007_\177"
  37      F6BF3E6F 
  37      EFB63B73 
  37      52B68423 
  37      075F7F
  38 00bd 461F293E 		.ascii	"F\037)>\022\216\013\205\222\316\322\211\373\177[z\355"
  38      128E0B85 
  38      92CED289 
  38      FB7F5B7A 
  38      ED
  39 00ce 1B4F762C 		.ascii	"\033Ov,\343\304\246\244\003\002V\353\346\346\244\253"
  39      E3C4A6A4 
  39      030256EB 
  39      E6E6A4AB 
  40 00de 59B230E5 		.ascii	"Y\2620\345\211=\230(\263&\330s\314\007\347@A\2161\213"
  40      893D9828 
  40      B326D873 
  40      CC07E740 
  40      418E318B 
  41 00f2 4AB8C21A 		.ascii	"J\270\302\032\3603\266?\005\007LYj\272\317^ec|\361\271"
  41      F033B63F 
  41      05074C59 
  41      6ABACF5E 
  41      65637CF1 
  42 0107 A027E14E 		.ascii	"\240'\341N\030Vc\205\206\262g\235\302\026'\372\005="
  42      18566385 
  42      86B2679D 
  42      C21627FA 
  42      053D
ARM GAS  C:\Users\gjl\AppData\Local\Temp\ccIJCYYn.s 			page 3


  43 0119 F26620   		.ascii	"\362f "
  44              		.text
  45              		.section	.gnu.lto_.inline.50a2654d,"",%progbits
  46 0000 789C6361 		.ascii	"x\234ca`d\000\201)\020\012\014X\030\030\270/0022p\000"
  46      60640081 
  46      29100A0C 
  46      581818B8 
  46      2F303032 
  47 0017 05990426 		.ascii	"\005\231\004&\034\340d`[ \317\004\022\007\252\276\316"
  47      1CE06460 
  47      5B20CF04 
  47      1207AABE 
  47      CE
  48 0028 70509591 		.ascii	"pP\225\221\201I\246\177r\014\003\327\326\027\254L -"
  48      8149A67F 
  48      720C03D7 
  48      D617AC4C 
  48      202D
  49 003a 4CDC40A9 		.ascii	"L\334@\251\011~\314<@\346\004?\006\012\351\011~,\274"
  49      097ECC3C 
  49      40E6043F 
  49      060AE909 
  49      7E2CBC
  50 004d 4C0CCCD5 		.ascii	"L\014\314\325\325\020\006S5\361&C\035\302.\014tn5\320"
  50      D5100653 
  50      35F12643 
  50      1DC22E0C 
  50      746E35D0 
  51 0061 61ECC28C 		.ascii	"a\354\302\214\014,w8\031@R\014\202<\214,\214\034Y\177"
  51      0C2C7738 
  51      1940520C 
  51      823C8C2C 
  51      8C1C597F 
  52 0075 9918CF2E 		.ascii	"\231\030\317.\\s\216\355\013S+3\003#\027\343rF\031\006"
  52      5C738EED 
  52      0B532B33 
  52      032317E3 
  52      72461906 
  53 0089 88F0EF1F 		.ascii	"\210\360\357\037\347\366\262C\204\271\031W\300\205\327"
  53      E7F6B243 
  53      84B91957 
  53      C085D7
  54 0098 2CFB7880 		.ascii	",\373x\200\037\"\314\317\270\022,\014\014\031f\240\361"
  54      1F22CCCF 
  54      B8122C0C 
  54      0C1966A0 
  54      F1
  55 00a9 E0701138 		.ascii	"\340p\0218`\247\000\0167^\006\001\210\363\201\256`\001"
  55      60A7000E 
  55      375E0601 
  55      88F381AE 
  55      6001
  56 00bb 87078380 		.ascii	"\207\007\203\200\020#\023\304\220ig'\356\202Z\311\311"
  56      102313C4 
  56      90696727 
  56      EE825AC9 
  56      C9
ARM GAS  C:\Users\gjl\AppData\Local\Temp\ccIJCYYn.s 			page 4


  57 00cc B80AC310 		.ascii	"\270\012\303\020\216\005\362\034 C\330\370\201\006\201"
  57      8E05F21C 
  57      2043D8F8 
  57      810681
  58 00db CC0041A0 		.ascii	"\314\000A\240\257X\300\336b\000\000\271\201D\355"
  58      AF58C0DE 
  58      620000B9 
  58      8144ED
  59              		.text
  60              		.section	.gnu.lto_.pureconst.50a2654d,"",%progbits
  61 0000 789C6361 		.ascii	"x\234ca`d\340d```a`e\264d\222`\226\000\000\002\261\000"
  61      6064E064 
  61      60606061 
  61      6065B464 
  61      92609600 
  62 0018 87       		.ascii	"\207"
  63              		.text
  64              		.section	.gnu.lto_get_delay_in_milliseconds.50a2654d,"",%progbits
  65 0000 789C4D53 		.ascii	"x\234MSKOSQ\020\2369s\037\245\345\265\227E\023B\032"
  65      4B4F5351 
  65      109E3973 
  65      1FA5E5B5 
  65      97451342 
  66 0015 12431437 		.ascii	"\022C\0247\374\016\327\030\202\205\230. \2125q\307\245"
  66      FC0ED718 
  66      8285982E 
  66      208A3571 
  66      C7A5
  67 0027 B7083E12 		.ascii	"\267\010>\022\\( \226t!\010\002Z\260 \240\306\\\037"
  67      5C282096 
  67      74210802 
  67      5AB020A0 
  67      C65C1F
  68 003a D84411A3 		.ascii	"\330D\021\243\013]\220\370\300\004\0235\221V\221\200"
  68      0B5D90F8 
  68      C0041335 
  68      91569180 
  69 004a 913AE79C 		.ascii	"\221:\347\234\022z\223\336{g\316\367}3\337\314\255\001"
  69      127A93DE 
  69      7B67CEF7 
  69      7D33DFCC 
  69      AD01
  70 005c 08F29A25 		.ascii	"\010\362\232%\200z~\266\362\017}\200\342\362\012@\227"
  70      807A7EB6 
  70      F20F7D80 
  70      E2F20A40 
  70      97
  71 006d 4FA0A55F 		.ascii	"O\240\245_H\030\275!p\374\246\274\227\032h\352\264\251"
  71      4818BD21 
  71      70FCA6BC 
  71      971A68EA 
  71      B4A9
  72 007f CF1FFB2C 		.ascii	"\317\037\373,A\2272\300\000;n3\300F\224y\307\207\320"
  72      419732C0 
  72      003B6E33 
  72      C0469479 
  72      C787D0
ARM GAS  C:\Users\gjl\AppData\Local\Temp\ccIJCYYn.s 			page 5


  73 0092 29C8302D 		.ascii	")\3100-\033;\205\005\350\031\230\327\0057\305?\201K"
  73      1B3B8505 
  73      E81998D7 
  73      0537C53F 
  73      814B
  74 00a4 F92DAFE2 		.ascii	"\371-\257\342\267\350&.\310\341\333\215\345\341\200"
  74      B7E8262E 
  74      C8E1DB8D 
  74      E5E180
  75 00b3 0C112B39 		.ascii	"\014\021+9\234\030I\345|\265c\216\023s>-]/\033\034\367"
  75      9C1849E5 
  75      7CB5638E 
  75      13733E2D 
  75      5D2F1B1C 
  76 00c8 F848405E 		.ascii	"\370H@^\000\216c\025\216a\225l\366\026\3262v~h\3273"
  76      008E6315 
  76      8E61956C 
  76      F616D632 
  76      767E68D7 
  77 00dd A81A81DF 		.ascii	"\250\032\201\337\337\377L'\355\320\250\3449\213\307"
  77      DFFF4C27 
  77      EDD0A8E4 
  77      398BC7
  78 00ec 1CEA26C2 		.ascii	"\034\352&\302\011$\311;R\205\207\252\200\023\200\223"
  78      0924C93B 
  78      528587AA 
  78      80138093 
  79 00fc 1862EC9B 		.ascii	"\030b\354\233\370t\202t\007\006\207\331WC_\312u\007"
  79      F8748274 
  79      070687D9 
  79      57435FCA 
  79      7507
  80 010e 410E27FF 		.ascii	"A\016'\377d\036\"\205\224\352\316\305]\327*\250n\266"
  80      641E2285 
  80      94EACEC5 
  80      5DD72AA8 
  80      6EB6
  81 0120 3A25DD64 		.ascii	":%\335d\340\035\255z\233\273\231B\251k\000\2460$\341"
  81      E01DAD7A 
  81      9BBB9942 
  81      A96B00A6 
  81      3024E1
  82 0133 E7BD0BCF 		.ascii	"\347\275\013\317\374tP7\264:<\340\257\271!\251\336\257"
  82      FC745037 
  82      B43A3CE0 
  82      AFB921A9 
  82      DEAF
  83 0145 53838E17 		.ascii	"S\203\216\027\013\262\021\234\326\354}/ \301\243/\237"
  83      0BB2119C 
  83      D6EC7D2F 
  83      20C1A32F 
  83      9F
  84 0156 3E2AA7C3 		.ascii	">*\247\303\2128\262\226\274B\005b\266m\300\361\272\202"
  84      8A38B296 
  84      BC420562 
  84      B66DC0F1 
  84      BA82
ARM GAS  C:\Users\gjl\AppData\Local\Temp\ccIJCYYn.s 			page 6


  85 0168 D2CCDD62 		.ascii	"\322\314\335b3\005\332\332\314\356\3252+\356\360\025"
  85      3305DADA 
  85      CCEED532 
  85      2BEEF015 
  86 0178 C434D6E0 		.ascii	"\3044\326\340\014\326\310Q\361\204f\321\342\231\213"
  86      0CD6C851 
  86      F18466D1 
  86      E2998B
  87 0187 BD6CEAA8 		.ascii	"\275l\352\250\347\344\363\256\343}4\267\251\024A\346"
  87      E7E4F3AE 
  87      E37D34B7 
  87      A91441E6 
  88 0197 598D4F48 		.ascii	"Y\215OH\335\015\224\2631\331\015X(\355\330\322X\011"
  88      DD0D94B3 
  88      31D90D58 
  88      28EDD8D2 
  88      5809
  89 01a9 DF4CBF02 		.ascii	"\337L\277\002\004\024\005`\203\325y\333Y!\370Ak\030"
  89      04140560 
  89      83D579DB 
  89      5921F841 
  89      6B18
  90 01bb 6373AA18 		.ascii	"cs\252\030c\270\243\251\233Y\275\\\201\0258\307\006"
  90      63B8A3A9 
  90      9B59BD5C 
  90      811538C7 
  90      06
  91 01cc 2562B34D 		.ascii	"%b\263M!\322\012\321\337\375\344\265-\021\304]\334S"
  91      21D20AD1 
  91      DFFDE4B5 
  91      2D11C45D 
  91      DC53
  92 01de 23C80A02 		.ascii	"#\310\012\002\376\220h\035c\271\236\017_I\242]2]F\254"
  92      FE90681D 
  92      63B99E0F 
  92      5F49A25D 
  92      325D46AC 
  93 01f2 A39BB074 		.ascii	"\243\233\260tl\273$\263\234\212\355\370u\252\244X\317"
  93      6CBB24B3 
  93      9C8AEDF8 
  93      75AAA458 
  93      CF
  94 0203 50D3DBCA 		.ascii	"P\323\333\312\274\350-M\3420r\001\346\340\274\254\200"
  94      BCE82D4D 
  94      E2307201 
  94      E6E0BCAC 
  94      80
  95 0214 0B9844F8 		.ascii	"\013\230D\370\214\361U\367\370>3\365cq\273L2M\356d\261"
  95      8CF155F7 
  95      F83E33F5 
  95      6371BB4C 
  95      324DEE64 
  96 0229 B08CAC30 		.ascii	"\260\214\2540\340y5\267\342\366\237[\317\024Z\361\273"
  96      E07935B7 
  96      E2F69F5B 
  96      CF145AF1 
  96      BB
ARM GAS  C:\Users\gjl\AppData\Local\Temp\ccIJCYYn.s 			page 7


  97 023a 4472BD89 		.ascii	"Dr\275\211k\223\2666Gx_\231\023{\336\031\244\330\246"
  97      6B93B636 
  97      47785F99 
  97      137BDE19 
  97      A4D8A6
  98 024d 72C2AE2B 		.ascii	"r\302\256+A\247\005(\255wc\266\326\012\260-\326\232"
  98      41A70528 
  98      AD7763B6 
  98      D60AB02D 
  98      D69A
  99 025f EB599EF1 		.ascii	"\353Y\236\361\3531 >(\322JKR\000 \207\202\253\022\262"
  99      EB31203E 
  99      28D24A4B 
  99      52002087 
  99      82AB12B2 
 100 0273 B0B1DC27 		.ascii	"\260\261\334''n\001\377\275\212\245\011t\240(\312\337"
 100      276E01FF 
 100      BD8AA509 
 100      74A028CA 
 100      DF
 101 0284 8AFBFD80 		.ascii	"\212\373\375\200.\303<C\372\311\261<OY,\3604\002\346"
 101      2EC33C43 
 101      FAC9B13C 
 101      4F592CF0 
 101      3402E6
 102 0297 B89DE3D6 		.ascii	"\270\235\343\326y/\"\321\307\363\024\354<+l\271\311"
 102      792F22D1 
 102      C7F314EC 
 102      3C2B6CB9 
 102      C9
 103 02a8 6FBCA7BF 		.ascii	"o\274\247\277\021\315%I\334\020\310y\336v\260\256\256"
 103      11CD2549 
 103      DC10C879 
 103      DE76B0AE 
 103      AE
 104 02b9 F14CC389 		.ascii	"\361L\303\211\372\306\360\351\2160\277\235mhjij\256"
 104      FAC6F0E9 
 104      8E30BF9D 
 104      6D686A69 
 104      6AAE
 105 02cb 3FD91169 		.ascii	"?\331\021i\217\266v\324\205\201\302\355Q\243\2459\332"
 105      8FB676D4 
 105      8581C2ED 
 105      51A3A539 
 105      DA
 106 02dc 6C44236D 		.ascii	"lD#m\255\030\371\017\367\3138\253"
 106      AD18F90F 
 106      F7CB38AB 
 107              		.text
 108              		.section	.gnu.lto_u8x8_d_a2printer_common.part.0.50a2654d,"",%progbits
 109 0000 789C8D56 		.ascii	"x\234\215Vkl\024U\024\276g\356\354\316\354\354\243O"
 109      6B6C1455 
 109      14BE67EE 
 109      ECCEECEC 
 109      A34F
 110 0012 A0604348 		.ascii	"\240`CH\014AH\004\004\023\370\341\017\177\232\370Kb"
 110      0C414804 
ARM GAS  C:\Users\gjl\AppData\Local\Temp\ccIJCYYn.s 			page 8


 110      0413F8E1 
 110      0F7F9AF8 
 110      4B62
 111 0024 8C312488 		.ascii	"\2141$\210m\203\030@\322B\242\341\007\323\356n[\021"
 111      6D831840 
 111      D242A2E1 
 111      07D3EE6E 
 111      5B11
 112 0036 B11A5A2A 		.ascii	"\261\032Z*RJ\202\310C\036-\210m)\305-\217\026ZZh)o\344"
 112      524A82C8 
 112      431E2D88 
 112      6D29C52D 
 112      8F165A5A 
 113 004e 51B0AC58 		.ascii	"Q\260\254X\241\273<JHi=\347\336\331\007\270\254L2\257"
 113      A1BB3C4A 
 113      48693DE7 
 113      DED907B8 
 113      AC4C32AF 
 114 0062 3BE7FBCE 		.ascii	";\347\373\316=\337=\347\334Q\0310:\336s3\366\011\336"
 114      3DDF3DE7 
 114      DC511930 
 114      3ADE7333 
 114      F609DE
 115 0075 EBF0040F 		.ascii	"\353\360\004\017\003wY'>\270A\021w\005\034t/\3249\250"
 115      03775927 
 115      3EB84111 
 115      77051C74 
 115      2FD439A8 
 116 0089 F4D0ACAB 		.ascii	"\364\320\254\253\012_\335\312\230i\330|\0323]6\320\204"
 116      0A5FDDCA 
 116      9869D87C 
 116      1A335D36 
 116      D084
 117 009b A15DDE9B 		.ascii	"\241]\336\233uM\261\313\357\272\370\256K\202f\335\241"
 117      754DB1CB 
 117      EFBAF8AE 
 117      4B8266DD 
 117      A1
 118 00ac 180DC768 		.ascii	"\030\015\307h\334y^\307qC\362\201\023\\\322\201\013"
 118      DC795EC7 
 118      7143F281 
 118      135CD281 
 118      0B
 119 00bd 801E4C1D 		.ascii	"\200\036L\035\330J\267\302U\233]\323\035\206\323\005"
 119      D84AB7C2 
 119      559B5DD3 
 119      1D86D305 
 120 00cd 2B550783 		.ascii	"+U\007\203\200\012\272\270\320\2245&\017\325\272?T\236"
 120      800ABAB8 
 120      D0943526 
 120      0FD5BA3F 
 120      549E
 121 00df 2AD03E78 		.ascii	"*\320>x|\2651y\253i\026\231\327\375\275\357\204\212"
 121      7CB53179 
 121      AB691699 
 121      D7FDBDEF 
 121      848A
ARM GAS  C:\Users\gjl\AppData\Local\Temp\ccIJCYYn.s 			page 9


 122 00f1 FC597ECE 		.ascii	"\374Y~\316\330\210\302`f6L\317\246\360\266\302d\264"
 122      D888C260 
 122      66364CCF 
 122      A6F0B6C2 
 122      64B4
 123 0103 ECF2D56C 		.ascii	"\354\362\325l\340\017\024?\007P\3615\324\261\376\246"
 123      E00F143F 
 123      0750F135 
 123      D4B1FEA6 
 124 0113 875E1598 		.ascii	"\207^\025\230\200\257\233z6_\261\363W\201\341sE[\317"
 124      80AF9B7A 
 124      365FB1F3 
 124      5781E173 
 124      455BCF
 125 0126 5DF7A42D 		.ascii	"]\367\244-\304i\356\3133\035~\316a\007p\342\334\016"
 125      C469EECB 
 125      331D7ECE 
 125      610770E2 
 125      DC0E
 126 0138 D9B00DB2 		.ascii	"\331\260\015\262\031\0161\370\005&\241\365\305\333\035"
 126      190E31F8 
 126      0526A1F5 
 126      C5DB1D
 127 0147 670CFE9A 		.ascii	"g\014\376\232@\356\330\177m\257f!GZ\\f\031\370\271\012"
 127      40EED87F 
 127      6DAF6621 
 127      475A5C66 
 127      19F8B90A 
 128 015b 3B9FC7AA 		.ascii	";\237\307\252\014v\301$\002\234\254i8\257\362\351\002"
 128      0C76C124 
 128      029CAC69 
 128      38AFF2E9 
 128      02
 129 016c DCDF31D0 		.ascii	"\334\3371\320i\233\270Y\272\235kz\337\306@`\267\304"
 129      699BB859 
 129      BA9D6B7A 
 129      DFC64060 
 129      B7C4
 130 017e 46626164 		.ascii	"FbadX\331u\375\033\203\277)@UC\276\207N\013\264\333"
 130      58D975FD 
 130      1B83BF29 
 130      405543BE 
 130      874E0BB4 
 131 0193 34A17002 		.ascii	"4\241p\002\241j\022\240\216\215\014\006Rd\374$\\\367"
 131      A16A12A0 
 131      8E8D0C06 
 131      5264FC24 
 131      5CF7
 132 01a5 C0C92AA7 		.ascii	"\300\311*\247\214?\025_\203m?\017{\370[\202\363\353"
 132      8C3F155F 
 132      836D3F0F 
 132      7BF85B82 
 132      F3EB
 133 01b7 A35D75BA 		.ascii	"\243]u\272\344\014\374P\354\2514\003E\310j\203_%\353"
 133      E40CFC50 
 133      ECA93403 
 133      45C86A83 
ARM GAS  C:\Users\gjl\AppData\Local\Temp\ccIJCYYn.s 			page 10


 133      5F25EB
 134 01ca 3E8C632F 		.ascii	">\214c/Dy\327\364\254\352\345|\216@n1kV9,d\005\305_"
 134      4479D7F4 
 134      ACEAE57C 
 134      8E406E31 
 134      6B56392C 
 135 01e2 A8FBB91D 		.ascii	"\250\373\271\035~{V\000\013X\337\375\260\311\315?\020"
 135      7E7B5600 
 135      0B58DFFD 
 135      B0C9CD3F 
 135      10
 136 01f3 C0D6A6AD 		.ascii	"\300\326\246\255\217\334\026\260\274%s\235\031\220\201"
 136      8FDC16B0 
 136      BC25739D 
 136      199081
 137 0202 D4270864 		.ascii	"\324'\010dK\373\221C\036\376\241\300\375\324[\275\226"
 137      4BFB9143 
 137      1EFEA1C0 
 137      FDD45BBD 
 137      96
 138 0213 5BE13745 		.ascii	"[\3417E4;\220\000\324\271u\313Z\203\177$@\325\025\007"
 138      343B9000 
 138      D4B975CB 
 138      5A837F24 
 138      40D51507 
 139 0227 2E58B334 		.ascii	".X\2634\353\"\240\203\011@\275\265\303\345n\273\317"
 139      EB22A083 
 139      0940BDB5 
 139      C3E56EBB 
 139      CF
 140 0238 C4630234 		.ascii	"\304c\0024\301Dh\304\263\001\317:<\367\343Y\213\347"
 140      C14468C4 
 140      B301CF3A 
 140      3CF7E359 
 140      8BE7
 141 024a 1E9848E9 		.ascii	"\036\230H\351\206yv\010\313\001\32342*,\352,\004!\221"
 141      86797608 
 141      CB01D334 
 141      322A2CEA 
 141      2C042191 
 142 025e 61CF1C4C 		.ascii	"a\317\034L\214\021\257Yv3\023f\000P\012)\230\020\032"
 142      8C11AF59 
 142      76331366 
 142      00500A29 
 142      98101A
 143 0271 4E00BFAA 		.ascii	"N\000\277\252@yac\204\262\213\253\206\037u\235\021\225"
 143      40796163 
 143      84B28BAB 
 143      861F759D 
 143      1195
 144 0283 435C0D1C 		.ascii	"C\\\015\034\000\247\370\346b\304\352\026W\017\016;R"
 144      00A7F8E6 
 144      62C4EA16 
 144      570F0E3B 
 144      52
 145 0294 8445AAB8 		.ascii	"\204E\252\270\246\321@:^\214\014F\023\310\024\327Q8"
 145      A6D1403A 
ARM GAS  C:\Users\gjl\AppData\Local\Temp\ccIJCYYn.s 			page 11


 145      5E8C0C46 
 145      13C814D7 
 145      5138
 146 02a6 C0460BC4 		.ascii	"\300F\013\304\030\301\221%\214\307\212\35381\302\330"
 146      18C19125 
 146      8CC78AEB 
 146      3831C2D8 
 147 02b6 000633C0 		.ascii	"\000\0063\300XHq\343\215\367BQ\032i\321|vO\2771e\033"
 147      584871E3 
 147      8DF74251 
 147      1A69D17C 
 147      764FBF31 
 148 02cc 691138DD 		.ascii	"i\0218\335\356,U\250\314\344\001\277\303\024\2648\336"
 148      EE2C55A8 
 148      CCE401BF 
 148      C314B438 
 148      DE
 149 02dd D4B182CF 		.ascii	"\324\261\202\317\025\012\267\335\354\253\267\253(g\000"
 149      150AB7DD 
 149      ECABB7AB 
 149      286700
 150 02ec B894B2B5 		.ascii	"\270\224\262\265\370~)\227\225\021\370\256\370\375P"
 150      F87E2997 
 150      9511F8AE 
 150      F8FD50
 151 02fb 9199154D 		.ascii	"\221\231\025MT\220\252C3\250D\012\207\2616\320-\006"
 151      5490AA43 
 151      33A8440A 
 151      87B136D0 
 151      2D06
 152 030d 424A2239 		.ascii	"BJ\"9K4\211\256w\327m\322\343&qDLb\360\340\221\247\356"
 152      4B3489AE 
 152      77D76DD2 
 152      E3267144 
 152      4C62F0E0 
 153 0324 889F9659 		.ascii	"\210\237\226Y\230H\020-#\313\017\023N\216F\235\320R"
 153      9848102D 
 153      23CB0F13 
 153      4E8E469D 
 153      D052
 154 0336 219851C8 		.ascii	"!\230Q\310\012\205|\013\012Si1M\264\013\202/p\271\205"
 154      0A857C0B 
 154      0A536931 
 154      4DB40B82 
 154      2F70B985 
 155 034a D32B4DA0 		.ascii	"\323+M\240\241\241\377\262\266\362\251Yj\232\251~\356"
 155      A1A1FFB2 
 155      B6F2A959 
 155      6A9AA97E 
 155      EE
 156 035b 1C410083 		.ascii	"\034A\000\203c\260\222y9\372q\241\271?p\325\236\330"
 156      63B09279 
 156      39FA71A1 
 156      B93F70D5 
 156      9ED8
 157 036d DA3DA290 		.ascii	"\332=\242\220\343\026iM\202=\364\205\334T\202\014^\201"
 157      E316694D 
ARM GAS  C:\Users\gjl\AppData\Local\Temp\ccIJCYYn.s 			page 12


 157      823DF485 
 157      DC54820C 
 157      5E81
 158 037f 56C8F673 		.ascii	"V\310\366s\217 \030HNp<Jp\354Z\363\032\247$\230\005"
 158      8F201848 
 158      4E703C4A 
 158      70EC5AF3 
 158      1AA72498 
 159 0394 2762040F 		.ascii	"'b\004\017\222\023\264E\011*\374\207Oi\222\200A{\214"
 159      9213B445 
 159      092AFC87 
 159      4F699280 
 159      417B8C
 160 03a7 E0517282 		.ascii	"\340Qr\202\223Q\202\356U\276\361\022\177\034\240#F\360"
 160      935182EE 
 160      55BEF112 
 160      7F1CA023 
 160      46F0
 161 03b9 38394167 		.ascii	"89Ag\224\340`\365\352\355\206dP\340\224$\350\203\242"
 161      94E060F5 
 161      EAED8664 
 161      50E09424 
 161      E883A2
 162 03cc 03A16B21 		.ascii	"\003\241k!!\272\227+\361\363\344\"\275\006[\333J]\325"
 162      21BA972B 
 162      F1F3E422 
 162      BD065BDB 
 162      4A5DD5
 163 03df 5055680A 		.ascii	"PUh\012\322\024\244\202\323\324X\250;\334*\332\255M"
 163      D214A482 
 163      D3D458A8 
 163      3BDC2ADA 
 163      AD4D
 164 03f1 7B1D6B0A 		.ascii	"{\035k\012\272\240\032\206\025\221\034\3350M\320\336"
 164      BAA01A86 
 164      15911CDD 
 164      304DD0DE 
 165 0401 7049521E 		.ascii	"pIR\036O\252%\"ME\317p\306\"\335XY\177\3373m\227Y\206"
 165      4FAA2522 
 165      4D45CF70 
 165      C622DD58 
 165      597FDF33 
 166 0419 DF56F879 		.ascii	"\337V\370y\032\364\010j\332J\341,Rc\"\2313E\375c\025"
 166      1AF4086A 
 166      DA4AE12C 
 166      52632299 
 166      3345FD63 
 167 042e 23BBF055 		.ascii	"#\273\360U{\253\326\012\301\026\357-=\221\267\014/\356"
 167      7BABD60A 
 167      C116EF2D 
 167      3D91B70C 
 167      2FEE
 168 0440 13E79E09 		.ascii	"\023\347\236\011a\027e\271\371#P\003=/\334\211&s\301"
 168      611765B9 
 168      F9235003 
 168      3D2FDC89 
 168      2673C1
ARM GAS  C:\Users\gjl\AppData\Local\Temp\ccIJCYYn.s 			page 13


 169 0453 72374BB8 		.ascii	"r7K\270\253#w6!yy\353\013\262\324\322\374bT\363\362"
 169      AB237736 
 169      217979EB 
 169      0BB2D4D2 
 169      FC6254F3 
 170 0468 8EA60B5C 		.ascii	"\216\246\013\\j\236\016\227b\213V\241%%\270\034%\360"
 170      6A9E0E97 
 170      628B56A1 
 170      2525B81C 
 170      25F0
 171 047a ED6EFF2A 		.ascii	"\355n\377*E\022L\201+1\202\312\344\004\177D\011V=9\277"
 171      45124C81 
 171      2B3182CA 
 171      E4047F44 
 171      09563D39 
 172 048f 4697043A 		.ascii	"F\227\004:\\\215\021\254ONpM\022\240\300\004@\025\002"
 172      5C8D11AC 
 172      4F4E704D 
 172      12A0C004 
 172      401502
 173 04a2 D5252942 		.ascii	"\325%)B\007j\261\355bk\011\241%\376\211\360 \024\007"
 173      076AB1ED 
 173      626B09A1 
 173      25FE89F0 
 173      201407
 174 04b5 1A4B94C4 		.ascii	"\032K\224\304|\231#\012\376E\300\365(\237\227\333\375"
 174      7C99230A 
 174      FE45C0F5 
 174      289F97DB 
 174      FD
 175 04c6 7C949843 		.ascii	"|\224\230CS\353x\271j\332\177`\243G\024\033\302n\010"
 175      53EB78B9 
 175      6ADA7F60 
 175      A347141B 
 175      C26E08
 176 04d9 98C48CC1 		.ascii	"\230\304\214\301\245\366V\024\367X+\355@\230\227\353"
 176      A5F65614 
 176      F7582BED 
 176      409897EB 
 177 04e9 3837E199 		.ascii	"87\341\231\332*\016R:\204K\206\253\246K#Cf\210w\203"
 177      DA2A0E52 
 177      3A844B86 
 177      ABA64B23 
 177      43668877 
 178 04fe 5DBE3B91 		.ascii	"]\276;\221\011G\243 \261\250NI|\265\352\012H+\267\227"
 178      0947A320 
 178      B1A84E49 
 178      7CB5EA0A 
 178      482BB797 
 179 0512 BB7046FB 		.ascii	"\273pF\373KN\326Z\005\003\320\213!GP\215\204r\013\005"
 179      4B4ED65A 
 179      0503D08B 
 179      2147508D 
 179      84720B05 
 180 0526 5486FF54 		.ascii	"T\206\377T\\v71\003\335ju\202\331n\275\010\200\213\335"
 180      5C763731 
 180      03DD6A75 
ARM GAS  C:\Users\gjl\AppData\Local\Temp\ccIJCYYn.s 			page 14


 180      82D96EBD 
 180      08808BDD 
 181 053a 00DF25AF 		.ascii	"\000\337%\257!}\270,\021Y\030\\H\306\203\350t\264\001"
 181      217DB82C 
 181      1159185C 
 181      48C683E8 
 181      74B401
 182 054d 61314B3E 		.ascii	"a1K>\324\370\261\227\217\241W\035\203\342\375\215A\224"
 182      D4F8B197 
 182      8FA1571D 
 182      83E2FD8D 
 182      4194
 183 055f 2ECB00F4 		.ascii	".\313\000\364hc>\334\303\3020\026}\2514`\027\213 \312"
 183      68633EDC 
 183      C3C23016 
 183      7DA93460 
 183      178B20CA 
 184 0573 E051A125 		.ascii	"\340Q\241%\216\347eK7\013n\212\204\247\346\016\2670"
 184      8EE7654B 
 184      370B6E8A 
 184      84A7E60E 
 184      B730
 185 0585 E1835062 		.ascii	"\341\203Pb:\304R\"\213\225C;\313[T\251\303d\370\023"
 185      3AC45222 
 185      8B95433B 
 185      CB5B54A9 
 185      C364F813 
 186 0599 FF2CB0FB 		.ascii	"\377,\260\373\300T\314\244\261R\270\273\033\227I\257"
 186      C054CCA4 
 186      B152B8BB 
 186      1B9749AF 
 187 05a9 58C82968 		.ascii	"X\310)h~\356@\3379 {\033\324\017s\350\213SNH\224*\224"
 187      7EEE40DF 
 187      39207B1B 
 187      D40F73E8 
 187      8B534E48 
 188 05c0 D39E572E 		.ascii	"\323\236W.\205\364\271\340\375\345[M\262\021U\245\257"
 188      85F4B9E0 
 188      FDE55B4D 
 188      B21155A5 
 188      AF
 189 05d1 BB4F212A 		.ascii	"\273O!*\235\272\336\355\210b\030\313X\033*\222j\277"
 189      9DBADEED 
 189      886218CB 
 189      581B2A92 
 189      6ABF
 190 05e3 D214240D 		.ascii	"\322\024$\015t\022E4\263\301\371\022\235\366\362\012"
 190      74124534 
 190      B3C1F912 
 190      9DF6F20A 
 191 05f3 04630AFC 		.ascii	"\004c\012\374%\233W\270$S\262\244\323\264\202\240Y\202"
 191      259B57B8 
 191      2453B2A4 
 191      D3B482A0 
 191      5982
 192 0605 A4912024 		.ascii	"\244\221 $\001~\211W`xC\231\225`\231^\236\361L\2564"
 192      017E8957 
ARM GAS  C:\Users\gjl\AppData\Local\Temp\ccIJCYYn.s 			page 15


 192      60784399 
 192      9560995E 
 192      9EF14CAE 
 193 061a 50689922 		.ascii	"Ph\231\"b\007{\240\361\270\354\030ge\2070\311\240\350"
 193      62077BA0 
 193      F1B8EC18 
 193      67658730 
 193      C9A0E8
 194 062d 4F79AD82 		.ascii	"Oy\255\202\310\300\031\236h[\267\315%e\327\340N$\364"
 194      C8C0199E 
 194      685BB7CD 
 194      2565D7E0 
 194      4E24F4
 195 0640 0CCA1B25 		.ascii	"\014\312\033%\210%\221\251\227\276\021\206q\330\224"
 195      882591A9 
 195      97BE1186 
 195      71D894
 196 064f 94D50D8B 		.ascii	"\224\325\015\2130\331tR\302\260\322c4\3319\0166\346"
 196      30D97452 
 196      C2B0D263 
 196      34D9390E 
 196      36E6
 197 0661 86610CBA 		.ascii	"\206a\014\272r`*e\305\367F\033nC\177\243\305\316\306"
 197      72602A65 
 197      C5F7461B 
 197      6E437FA3 
 197      C5CEC6
 198 0674 EB0473D2 		.ascii	"\353\004s\322nL59\370?\275\255_\026r\374&\3728y+\371"
 198      6E4C3539 
 198      F83FBDAD 
 198      5F1672FC 
 198      26FA3879 
 199 068a C742C4ED 		.ascii	"\307B\304\355\232O\222#\356Z\210;1\304Pr\304\275h\277"
 199      9A4F9223 
 199      EE5A883B 
 199      31C45072 
 199      C4BD68BF 
 200 069e BB34742F 		.ascii	"\2734t/l\251v\232\301@\214a89C\310\362y*\202\360\005"
 200      6CA9769A 
 200      C1408C61 
 200      383943C8 
 200      F2792A82 
 201 06b4 BE375EF8 		.ascii	"\2767^\370/bGD8\366/B\253\353\212\374\3170\023\267\316"
 201      2F624744 
 201      38F62F42 
 201      ABEB8AFC 
 201      CF3013B7 
 202 06c9 3BB4B25E 		.ascii	";\264\262^\354s\264f\243(#\234C]\237\342\017\037\240"
 202      EC73B466 
 202      A328239C 
 202      435D9FE2 
 202      0F1FA0
 203 06dc 19EE2E13 		.ascii	"\031\356.\023\246N\235\273|\366\202\031ss\012\362s\360"
 203      A64E9DBB 
 203      7CF68219 
 203      73730AF2 
 203      73F0
ARM GAS  C:\Users\gjl\AppData\Local\Temp\ccIJCYYn.s 			page 16


 204 06ee E98BD9F3 		.ascii	"\351\213\331\363r\347\315\237\2614\177\341\222ey\371"
 204      72E7CD9F 
 204      B1347FE1 
 204      926579F9 
 205 06fe 5373984A 		.ascii	"Ss\230Jc\332\374\374\005\363\226.\313\347\213\013\026"
 205      63DAFCFC 
 205      05F3962E 
 205      CBE78B0B 
 205      16
 206 070f 8867FC3A 		.ascii	"\210g\374:*7o\321\374/\361i\336\342\205\213\026-,\310"
 206      2A376FD1 
 206      FC2FF169 
 206      DEE2858B 
 206      162D2CC8 
 207 0723 CBF97C49 		.ascii	"\313\371|In\001G+\370\014\026B\216}\371\222\345\005"
 207      6E01472B 
 207      F80C1642 
 207      8E7DF992 
 207      E505
 208 0735 79B9FF02 		.ascii	"y\271\377\002)fV\371"
 208      296656F9 
 209              		.text
 210              		.section	.gnu.lto_u8x8_d_a2printer_common.50a2654d,"",%progbits
 211 0000 789C7594 		.ascii	"x\234u\224]l\024U\024\307\357\23133\273\235\272\245"
 211      5D6C1455 
 211      14C7EF99 
 211      3333BB9D 
 211      BAA5
 212 0012 899AF8B0 		.ascii	"\211\232\370\2601\233\230\246BLC\340\205\204\027\023"
 212      319B98A6 
 212      424C43E0 
 212      85841713 
 213 0022 5F4C7C33 		.ascii	"_L|3\361\301\244dS\267M\255)\225ti\202\361a\357\356"
 213      F1C1A464 
 213      53B74DAD 
 213      29957469 
 213      82F161EF 
 214 0037 7610F10B 		.ascii	"v\020\361\013b[\300/j\240,b\245[\240\266\005\026\246"
 214      625BC02F 
 214      6AA02C62 
 214      A55BA0B6 
 214      0516A6
 215 004a 1F2C75DB 		.ascii	"\037,u\333\255\331R\003D\022\310\242\330\030b\272*\326"
 215      ADD95203 
 215      4412C8A2 
 215      D81862BA 
 215      2AD6
 216 005c 44CB7ACE 		.ascii	"D\313z\316\235\331\244(Nr\347\314=\367\374\316\374\347"
 216      9DD9A428 
 216      4E72E7CC 
 216      3DF7FCCE 
 216      FCE7
 217 006e 9CB3AB0B 		.ascii	"\234\263\253\013\020|=i\010\361\012\331\227h\201O\200"
 217      107C3D69 
 217      08F10AD9 
 217      9768814F 
 217      80
ARM GAS  C:\Users\gjl\AppData\Local\Temp\ccIJCYYn.s 			page 17


 218 007f B66F5E88 		.ascii	"\266o^\210\270_\323\315\351G\205\364\243\272\033\352"
 218      B85FD3CD 
 218      E94785F4 
 218      A3BA1BEA 
 219 008f AEBB1E30 		.ascii	"\256\273\0360\335\020\335}\000\303\263&\000[\351\007"
 219      DD10DD7D 
 219      00C3B326 
 219      005BE907 
 220 009f 11D35037 		.ascii	"\021\323P7L\210\351\261X\354\236\266\252\301\354\312"
 220      4C88E9B1 
 220      58EC9EB6 
 220      AAC1ECCA 
 221 00af CCBBD6FA 		.ascii	"\314\273\326\372\224\224\011y\313.>_J\330O\330(DY\023"
 221      94940979 
 221      CB2E3E5F 
 221      4AD84FD8 
 221      28445913 
 222 00c3 B039081B 		.ascii	"\2609\010\033\203\374\362\024\254\247\310Bw\372\023"
 222      83FCF214 
 222      ACA7C842 
 222      77FA13
 223 00d2 FC5DB311 		.ascii	"\374]\263\021@\247m)\377\321\355\032\336j\020\242m\377"
 223      40A76D29 
 223      FFD1ED1A 
 223      DE6A10A2 
 223      6DFF
 224 00e4 E2911B26 		.ascii	"\342\221\033&>\005\202\236\373r\213\277\004\352\007"
 224      3E05829E 
 224      FB728BBF 
 224      04EA07
 225 00f3 38A73CDD 		.ascii	"8\247<\335\"\253lD8\001\3109\277\200 \034\207\240 \227"
 225      22AB6C44 
 225      3801C839 
 225      BF80201C 
 225      87A02097 
 226 0107 802FA19E 		.ascii	"\200/\241\236\242\347\322\343Wu|Z\221+\347\247V+\344"
 226      A2E7D2E3 
 226      57757C5A 
 226      912BE7A7 
 226      562BE4
 227 011a CD6D1249 		.ascii	"\315m\022I\012\014\272\244\253\206\265\301W\212\233"
 227      0A0CBAA4 
 227      AB86B5C1 
 227      578A9B
 228 0129 C9E4DFC4 		.ascii	"\311\344\337\304g\024\226\273}g\314\324)\350$\3209{"
 228      671496BB 
 228      7D67CCD4 
 228      29E824D0 
 228      397B
 229 013b 0E166EBD 		.ascii	"\016\026n\275g\341fuzy\367o{\320KZ\310V\313\215\234"
 229      67E16675 
 229      7A79F76F 
 229      7BD04B5A 
 229      C856CB8D 
 230 0150 35BD262B 		.ascii	"5\275&+\014\201\256\022\017\253\304\327\177\312_\261"
 230      0C81AE12 
 230      0FABC4D7 
ARM GAS  C:\Users\gjl\AppData\Local\Temp\ccIJCYYn.s 			page 18


 230      7FCA5FB1 
 231 0160 70AB624F 		.ascii	"p\253bO\214\334<\345\363\330r\366\021\271\017l\324\341"
 231      8CDC3CE5 
 231      F3D872F6 
 231      11B90F6C 
 231      D4E1
 232 0172 D4BF3F46 		.ascii	"\324\277?F\027p\032\352\031\270T^q\326\271U\342\362"
 232      17701AEA 
 232      19B8545E 
 232      71D6B955 
 232      E2F2
 233 0184 2E2CCF7D 		.ascii	".,\317}Z\355V\251\226\266K\271c\367k\3609\225\372\235"
 233      5AED56A9 
 233      96B64BB9 
 233      63F76BF0 
 233      3995FA9D 
 234 0198 E9C2A8BF 		.ascii	"\351\302\250\277\356\010\247v\016\355\2569(\235D\310"
 234      EE08A776 
 234      0EEDAE39 
 234      289D44C8 
 235 01a8 4603BE76 		.ascii	"F\003\276v\223\217P\3623\020T\243@\321\357/\356-\"\276"
 235      938F50F2 
 235      331054A3 
 235      40D1EF2F 
 235      EE2D22BE 
 236 01bc ACC80199 		.ascii	"\254\310\001\231\336[\345\221},*\356\267\321\204\261"
 236      DE5BE591 
 236      7D2C2AEE 
 236      B7D184B1 
 237 01cc 075579E0 		.ascii	"\007Uy\340\330\302\275L\000\267\271\225\310\244\376"
 237      D8C2BD4C 
 237      00B7B995 
 237      C8A4FE
 238 01db 0878606F 		.ascii	"\010x`o\366\261\003\322\211\207\270\030g\327\226\330"
 238      F6B103D2 
 238      8987B818 
 238      67D796D8 
 239 01eb E30666A7 		.ascii	"\343\006f\247.\324`XqG\213\207{\320\345d\246Q&\237e"
 239      2ED46058 
 239      71478B87 
 239      7BD0E564 
 239      A651269F 
 240 0200 E8FC43A0 		.ascii	"\350\374C\240\371\324@\217\205M\012:\334w\366\232\247"
 240      F9D4408F 
 240      854D0A3A 
 240      DC77F69A 
 240      A7
 241 0211 528E56A0 		.ascii	"R\216V\240\013\017\201\212\303\367{\003f\267\244+\004"
 241      0B0F818A 
 241      C3F77B03 
 241      66B7A42B 
 241      04
 242 0222 17A10E32 		.ascii	"\027\241\0162\264\316\321\032\2475\012u<\214\324\034"
 242      B4CED11A 
 242      A7350A75 
 242      3C8CD41C 
 243 0232 87E698EC 		.ascii	"\207\346\230\354\320\213\216,\227\223\322\371\320\234"
ARM GAS  C:\Users\gjl\AppData\Local\Temp\ccIJCYYn.s 			page 19


 243      D08B8E2C 
 243      9793D2F9 
 243      D09C
 244 0240 485BD5C0 		.ascii	"H[\325\300#\241\001\267\216JN\223a\000\317U\025pC,5"
 244      23A101B7 
 244      8E4A4E93 
 244      6100CF55 
 244      1570432C 
 245 0255 2F6299F8 		.ascii	"/b\231\370I\024%M#\203?\202\355|\234\005\316\227D\344"
 245      4914254D 
 245      23833F82 
 245      ED7C9C05 
 245      CE9744E4 
 246 0269 71BD7E74 		.ascii	"q\275~t\311\330\017\037\304I\202s(G\315\362\321\217"
 246      C9D80F1F 
 246      C4498273 
 246      2847CDF2 
 246      D18F
 247 027b 85410113 		.ascii	"\205A\001\023\260\037($\377\371\340\274\311m\024`\321"
 247      B01F2824 
 247      FFF9E0BC 
 247      C96D1460 
 247      D1
 248 028c 36F1F6D5 		.ascii	"6\361\366\325\001\177\205\0303\011\200I\252\270D\026"
 248      017F8518 
 248      33098049 
 248      AAB84416 
 249 029c 08532EF3 		.ascii	"\010S.\363\327\237\363\031\237\313T\363h\367\336\351"
 249      D79FF319 
 249      9FCB54F3 
 249      68F7DEE9 
 250 02ac 372BCC82 		.ascii	"7+\314\202b\246\025\243>\356\222\313\014\036+\271\323"
 250      62A615A3 
 250      3EEE92CB 
 250      0C1E2BB9 
 250      D3
 251 02bd 23601D6D 		.ascii	"#`\035m?;\223\352\011T\230k\212\311*\206\305\301eb\310"
 251      3F3B93EA 
 251      0954986B 
 251      8AC92A86 
 251      C5C16562 
 252 02d2 963414CB 		.ascii	"\2264\024\313\002\177\200x-\177\023\213X\202n\347\\"
 252      027F8078 
 252      2D7F138B 
 252      58826EE7 
 252      5C
 253 02e3 1679CB05 		.ascii	"\026y\313\005\036\037\277\373\275/\266*\367HYk\243\277"
 253      1E1FBFFB 
 253      BD2FB62A 
 253      F748596B 
 253      A3BF
 254 02f5 AC110633 		.ascii	"\254\021\0063\020\023I4l\254R9\364\007s\240(BB=\023"
 254      10134934 
 254      6CAC5239 
 254      F40773A0 
 254      2842423D 
 255 030a 3FF1DDD0 		.ascii	"?\361\335\320]k\303qn\220Sx\341@\277_UU]\360\015lH\376"
ARM GAS  C:\Users\gjl\AppData\Local\Temp\ccIJCYYn.s 			page 20


 255      5D6BC371 
 255      6E905378 
 255      E140BF5F 
 255      55555DF0 
 256 0322 6FB43CE9 		.ascii	"o\264<\351\324\2125\3019\016\326H\236]\353\226\337\372"
 256      D48A35C1 
 256      390ED648 
 256      9E5DEB96 
 256      DFFA
 257 0334 8F3AAB4C 		.ascii	"\217:\253L]\0220\353\252K\"\375yT+\201FE\240W\262\222"
 257      5D1230EB 
 257      AA4B22FD 
 257      79542B81 
 257      4645A057 
 258 034a 6672373D 		.ascii	"fr7=\217\020?\223\002B\270\"\277\002\327\262\317\236"
 258      8F103F93 
 258      0242B822 
 258      BF02D7B2 
 258      CF9E
 259 035c FCD6ABBF 		.ascii	"\374\326\253\277\2009\010j7\012\273\310=\362\326\334"
 259      8039086A 
 259      370ABBC8 
 259      3DF2D6DC 
 260 036c B0E5BA01 		.ascii	"\260\345\272\001\362\0204\376.\274\312\026\011\266t"
 260      F21034FE 
 260      2EBCCA16 
 260      09B674
 261 037b A06101CA 		.ascii	"\240a\001\312Ko\010544vmi\335\324\030\211vF\350i\327"
 261      4B6F0835 
 261      3434766D 
 261      69DDD418 
 261      897646E8 
 262 0391 967073B8 		.ascii	"\226ps\270i\323\216\316\266\216\235-\235\015\021\241"
 262      69D38ECE 
 262      B68E9D2D 
 262      9D0D11A1 
 263 03a1 B30FB747 		.ascii	"\263\017\267G[\315\256\216\256hK\263\257\251\2635L\207"
 263      5BCDAE8E 
 263      AE684BB3 
 263      AFA9B335 
 263      4C87
 264 03b3 CAEED8D9 		.ascii	"\312\356\330\331\371xsK{\323\033\344\011ookoo\213\266"
 264      F978734B 
 264      7BD31BE4 
 264      096F6F6B 
 264      6F6F8BB6 
 265 03c7 445EEF68 		.ascii	"D^\357h\216\"\235\300k\320\006\221\177\000\270\240\314"
 265      8E229DC0 
 265      6BD00691 
 265      7F00B8A0 
 265      CC
 266 03d8 EB       		.ascii	"\353"
 267              		.text
 268              		.section	.gnu.lto_u8x8_d_a2printer_384x240.50a2654d,"",%progbits
 269 0000 789C6552 		.ascii	"x\234eR[H\024a\024\376\27793;{I\363\321\207E\204\036"
 269      5B481461 
 269      14FEBF39 
ARM GAS  C:\Users\gjl\AppData\Local\Temp\ccIJCYYn.s 			page 21


 269      333B7B49 
 269      F3D18745 
 270 0016 540815EB 		.ascii	"T\010\025\353A\010z\357\265gC\304\304\"\012Y\015z\333"
 270      41087AEF 
 270      B56743C4 
 270      C4220A59 
 270      0D7ADB
 271 0029 7F5D078B 		.ascii	"\177]\007\213\212\364\241\020S\014J,-/k[\255.\264\031"
 271      8AF4A110 
 271      530C4A2C 
 271      2D2F6B5B 
 271      AD2EB419 
 272 003d 48B55A49 		.ascii	"H\265ZI\013!\006I)\211H\265]\020\"\333\316\231U\210"
 272      0B210649 
 272      298948B5 
 272      5D1022DB 
 272      CE995588 
 273 0051 1C98F9FF 		.ascii	"\034\230\371\377s\371\316\371\316w\306TP\362\224\223"
 273      73F9CEF9 
 273      CE77C654 
 273      50F29493 
 274 0061 5287F83C 		.ascii	"R\207\370<\314/<\012F\327K\245\"^\30303UJ{)Y\"_Xy\267"
 274      CC2F3C0A 
 274      46D74BA5 
 274      225EC330 
 274      33554A7B 
 275 007c B973B100 		.ascii	"\271s\261\000\271h/T\330 \323B\030?\215-\003\351\315"
 275      B9682F54 
 275      D820D342 
 275      183F8D2D 
 275      03E9CD
 276 008f 6797FC15 		.ascii	"g\227\374\025CZ\267\353\345\301\311#\331v\247\330\341"
 276      435AB7EB 
 276      E5C1C923 
 276      D976A7D8 
 276      E1
 277 00a0 0E3943E1 		.ascii	"\0169C\341@\020\325A\3512\204\012\316\\\350\030\357"
 277      4010D541 
 277      E932840A 
 277      CE5CE818 
 277      EF
 278 00b1 A31F8643 		.ascii	"\243\037\206C\200\311fv\276\367c\241\230\006J\331\274"
 278      80C96676 
 278      BEF763A1 
 278      98064AD9 
 278      BC
 279 00c2 91B9F9CE 		.ascii	"\221\271\371\316C\373\240\370~\355E\346sA\331\240\324"
 279      43FBA0F8 
 279      7EED45E6 
 279      7341D9A0 
 279      D4
 280 00d3 D4F126ED 		.ascii	"\324\361&\355s\2100\014\222\232w\020\304m\004\025\273"
 280      7388300C 
 280      929A7710 
 280      C46D0415 
 280      BB
 281 00e4 144650C6 		.ascii	"\024FP\306\331s\343\211\267&\225\273\310\315\344\323"
ARM GAS  C:\Users\gjl\AppData\Local\Temp\ccIJCYYn.s 			page 22


 281      D973E389 
 281      B72695BB 
 281      C8CDE4D3 
 282 00f4 AD1D64F6 		.ascii	"\255\035d\366\230&\246\202\273yd\236\215p\303=\027\327"
 282      9826A682 
 282      BB79649E 
 282      8D70C33D 
 282      17D7
 283 0106 B3B07CD9 		.ascii	"\263\260|\331O\373]\\\337\352\227Ek\033w}6\240\253\005"
 283      4FFB5D5C 
 283      DFEA9745 
 283      6B1B777D 
 283      36A0AB05 
 284 011a 38BA0B38 		.ascii	"8\272\0138\346\002\027?\315\277\361\323A\0278\034\177"
 284      E602173F 
 284      CDBFF1D3 
 284      4117381C 
 284      7F
 285 012b 1FB3B781 		.ascii	"\037\263\267\201\213\263{t\027\03421\376?YSa\002e\002"
 285      8BB37B74 
 285      171C3231 
 285      FE3F5953 
 285      61026502 
 286 013f F830F1E7 		.ascii	"\3700\361\347j\201\247C\363S**q\325\030<\262\232\261"
 286      6A81A743 
 286      F3532A2A 
 286      71D5183C 
 286      B29AB1
 287 0152 A3299DCB 		.ascii	"\243)\235\313Eu\252?\360\344u \000i\311Z1Y\326\236G"
 287      4575AA3F 
 287      F0E47520 
 287      0069C95A 
 287      3159D69E 
 288 0167 F540FADB 		.ascii	"\365@\372\333\220J>\227\217\372\312x\331J\3260\344\244"
 288      904A3E97 
 288      8FFACA78 
 288      D94AD630 
 288      E4A4
 289 0179 55445303 		.ascii	"UDS\003iH\305(\221(\271xk\315\352\306\225\0107L%\322"
 289      6948C528 
 289      9128B978 
 289      6BCDEAC6 
 289      9508374C 
 290 018f ACB6C53B 		.ascii	"\254\266\305;\024\250\302$\272!)\363\335S\036\331\203"
 290      14A8C224 
 290      BA2129F3 
 290      DD531ED9 
 290      83
 291 01a0 828FCD99 		.ascii	"\202\217\315\231\215\245\025\354 b\001\006\340>\217"
 291      8DA515EC 
 291      20620106 
 291      E03E8F
 292 01af A0492822 		.ascii	"\240I(\"\316!%\375H%Kh\005\221\"\351%\30158\251x\232"
 292      CE2125FD 
 292      48254B68 
 292      059122E9 
 292      25C13538 
ARM GAS  C:\Users\gjl\AppData\Local\Temp\ccIJCYYn.s 			page 23


 293 01c6 C4943113 		.ascii	"\304\2241\023\211\215%;\274\245\317k]\344\220'g0\014"
 293      898D253B 
 293      BCA5CF6B 
 293      5DE49027 
 293      67300C
 294 01d9 0F105651 		.ascii	"\017\020VQ\262\244\2513\363\312\226\246\266\253b\364"
 294      B2A4A933 
 294      F3CA96A6 
 294      B6AB62F4 
 295 01e9 D7E3EF85 		.ascii	"\327\343\357\205\234\335\343f\333\027\210\347b\367\363"
 295      9CDDE366 
 295      DB1788E7 
 295      62F7F3
 296 01f8 DE915303 		.ascii	"\336\221S\003\350\217t\271n/\036\361O\367\220\311H,"
 296      E88F74B9 
 296      6E2F1EF1 
 296      4FF790C9 
 296      482C
 297 020a B71E1BF5 		.ascii	"\267\036\033\3651\244Xj$0\340\016\2550\205\260C>\227"
 297      31A4586A 
 297      2430E00E 
 297      AD3085B0 
 297      433E97
 298 021d A2A93255 		.ascii	"\242\2512U\377PTL\26135}qo^\035\337.\222\376\034\253"
 298      FF50544C 
 298      B133357D 
 298      716F5E1D 
 298      DF2E92FE 
 299 0233 A8309D27 		.ascii	"\2500\235'\311\372E\211\363l\207\002n9\313Ux\035\355"
 299      C9FA4589 
 299      F36C8702 
 299      6E39CB55 
 299      781DED
 300 0246 451C1611 		.ascii	"E\034\026\021\276\001\\\306\0242\361\316\271\011\177"
 300      BE015CC6 
 300      1432F1CE 
 300      B9097F
 301 0255 5E432089 		.ascii	"^C \211 \375^:\301\313\201@\270fiee\335\331\332\346"
 301      20FD5E3A 
 301      C1CB8140 
 301      B8666965 
 301      65DDD9DA 
 302 026a 9ABAC6D6 		.ascii	"\232\272\306\326P#\337\316\325\326\037\257o\250i\011"
 302      5023DFCE 
 302      D5D61FAF 
 302      6FA86909 
 303 027a 9D3CD3D6 		.ascii	"\235<\323\326\024\252lT\246\370\350tk\263\335\020j\256"
 303      14AA6C54 
 303      A6F8E874 
 303      6BB3DD10 
 303      6AAE
 304 028c 67AF7BB6 		.ascii	"g\257{\266\264\205\376\002m\016\037L"
 304      B485FE02 
 304      6D0E1F4C 
 305              		.text
 306              		.section	.gnu.lto_u8x8_a2printer_384x240_display_info.50a2654d,"",%progbits
 307 0000 789C2DCE 		.ascii	"x\234-\316\275J\003A\024\206\341\371fv\223\254I\326"
ARM GAS  C:\Users\gjl\AppData\Local\Temp\ccIJCYYn.s 			page 24


 307      BD4A0341 
 307      1486E1F9 
 307      667693AC 
 307      49D6
 308 0012 1F2C83B5 		.ascii	"\037,\203\265\245e\032/\307\373Xp\023,\322\010\351T"
 308      A5651A2F 
 308      C7FB5870 
 308      132CD208 
 308      E954
 309 0024 1054FC89 		.ascii	"\020T\374\2111\253\006\203\253\001\013Q\264\020\274"
 309      31AB0683 
 309      AB010B51 
 309      B410BC
 310 0033 80341210 		.ascii	"\2004\022\020A\304\240E\304\030<\037'\323\274\363\314"
 310      41C4A045 
 310      C4183C1F 
 310      27D3BCF3 
 310      CC
 311 0044 9C61D733 		.ascii	"\234a\32730\\+\022\335\031\363gQ]\177\331\011\277m\305"
 311      305C2B12 
 311      DD19F367 
 311      515D7FD9 
 311      09BF6DC5 
 312 0058 197C42DC 		.ascii	"\031|B\334\356\016\366\002u\344\304\255\367\313\237"
 312      EE0EF602 
 312      75E4C4AD 
 312      F7CB9F
 313 0067 220D703C 		.ascii	"\"\015p<]m$\023.\010\257:\327w\276rI\270\361\325{\013"
 313      5D6D2413 
 313      2E08AF3A 
 313      D777BE72 
 313      49B8F1D5 
 314 007d 948BC2E7 		.ascii	"\224\213\302\3478\331tJO\370:\354\015\263\244\305M\274"
 314      38D9744A 
 314      4FF83AEC 
 314      0DB3A4C5 
 314      4DBC
 315 008f 2C0771FF 		.ascii	",\007q\377\343)\257\3675~{0\332\352L\236\317\013\373"
 315      E329AFF7 
 315      357E7B30 
 315      DAEA4C9E 
 315      CF0BFB
 316 00a2 BFCD3454 		.ascii	"\277\3154Tf\370g\267\367\325\234\222\303\017\273\351"
 316      66F867B7 
 316      F7D59C92 
 316      C30FBBE9 
 317 00b2 A8A0F485 		.ascii	"\250\240\364\205\217\365z\315/_Dk\333Q\342W\234\033"
 317      8FF57ACD 
 317      2F5F446B 
 317      DB51E257 
 317      9C1B
 318 00c4 5B833394 		.ascii	"[\2033\224\306\0268d,\316\031\247\361\364\316\307)\223"
 318      C6163864 
 318      2CCE19A7 
 318      F1F4CEC7 
 318      2993
 319 00d6 41C264D1 		.ascii	"A\302d\321br8a\002}7\205&\223\307\021S\3001SD\203\011"
ARM GAS  C:\Users\gjl\AppData\Local\Temp\ccIJCYYn.s 			page 25


 319      62723861 
 319      027D3785 
 319      2693C711 
 319      53C03153 
 320 00ed F5705A27 		.ascii	"\365pZ'g4\2638`\346\260\217\222A\033e\363\017T\227x"
 320      6734B338 
 320      60E6B08F 
 320      92411B65 
 320      F30F5497 
 321 0102 BE       		.ascii	"\276"
 322              		.text
 323              		.section	.gnu.lto_.symbol_nodes.50a2654d,"",%progbits
 324 0000 789C55CF 		.ascii	"x\234U\317\275\015\3020\020\005\340w\276\374R\262@`"
 324      BD0DC230 
 324      1005E077 
 324      BEFC52B2 
 324      4060
 325 0012 0776610F 		.ascii	"\007va\017\026\270\024\021\0054HH\224 P\0326\000*\212"
 325      16B81411 
 325      05344848 
 325      9420501A 
 325      36002A8A 
 326 0026 D419800A 		.ascii	"\324\031\200\012\"\323\301\010 l\270\002W\237\337\363"
 326      22D3C108 
 326      206CB802 
 326      579FDFF3 
 327 0036 D9962310 		.ascii	"\331\226#\020&\004\300@\200E\013\317\251\034\272\242"
 327      2604C040 
 327      80450BCF 
 327      A91CBAA2 
 328 0046 27A4051D 		.ascii	"'\244\005\035\253m9p\025\211\011gX8(b\203\262\0170\305"
 328      AB6D3970 
 328      15890967 
 328      58382862 
 328      83B20F30 
 329 005b 127D3780 		.ascii	"\022}7\200\322\237\244D\342 \247\222\0049\2234\310\221"
 329      D29FA444 
 329      E220A792 
 329      04399334 
 329      C891
 330 006d 6441CE25 		.ascii	"dA\316%\377\317L\031\252\356\374b\246\004v\363(\274"
 330      FFCF4C19 
 330      AAEEFC62 
 330      A60476F3 
 330      28BC
 331 007f 8D5AAB95 		.ascii	"\215Z\253\225j\327^\240\233\337\237c\246\024\315o\341"
 331      6AD75EA0 
 331      9BDF9F63 
 331      A614CD6F 
 331      E1
 332 0090 26E63A31 		.ascii	"&\346:1\323\033\324Z\265S\355\325Z\255T{{\223\373+\032"
 332      D31BD45A 
 332      B553EDD5 
 332      5AAD547B 
 332      7B93FB2B 
 333 00a5 6744585E 		.ascii	"gDX^\356/\206_\254\334\003`\223\303^\0136\204\356V0"
 333      EE2F865F 
ARM GAS  C:\Users\gjl\AppData\Local\Temp\ccIJCYYn.s 			page 26


 333      ACDC0360 
 333      93C35E0B 
 333      3684EE56 
 334 00ba F7600F23 		.ascii	"\367`\017#f\203\335\276%|\000b\333`\206"
 334      6683DDBE 
 334      257C0062 
 334      DB6086
 335              		.text
 336              		.section	.gnu.lto_.refs.50a2654d,"",%progbits
 337 0000 789C6361 		.ascii	"x\234ca`d`c```dfbaf\000\000\000\275\000\031"
 337      60646063 
 337      60606064 
 337      66626166 
 337      000000BD 
 338              		.text
 339              		.section	.gnu.lto_.decls.50a2654d,"",%progbits
 340 0000 789CBD58 		.ascii	"x\234\275XiP\024Y\236\257\227\257\200\242(A\201\356"
 340      69501459 
 340      9EAF97AF 
 340      80A22841 
 340      81EE
 341 0012 613BD85E 		.ascii	"a;\330^\243\233Q6b\206\361\352Yb?\365\356\354\356LL"
 341      A39B5136 
 341      6286F1EA 
 341      59623FF5 
 341      EEECEE4C 
 342 0027 746CCCEE 		.ascii	"tl\314\356N\317\364\007bj\212\252Bk\032\252*\252\212"
 342      4ECFF407 
 342      626A8AAA 
 342      426B1AAA 
 342      2AAA8A
 343 003a 6EED0FBB 		.ascii	"n\355\017\273\311\251\202\007x\240\200\266\367\011^"
 343      C9A98207 
 343      78A080B6 
 343      F7095E
 344 0049 40832847 		.ascii	"@\203(G\265\"\036`\203\322(\310!\212\"*(\002\212(Z\373"
 344      B5221E60 
 344      83D228C8 
 344      218A222A 
 344      28028A28 
 345 005f 7FEF6556 		.ascii	"\177\357eVfB\322\375eg3\370\221\371\177\371{\377\353"
 345      6642D2FD 
 345      656733F8 
 345      91F97FF9 
 345      7BFFEB
 346 0072 5DFF4AAD 		.ascii	"]\377J\255\006i\310\365\316\337j4\256\000\215f7\247"
 346      0669C8F5 
 346      CEDF6A34 
 346      AE008D66 
 346      37A7
 347 0084 D1F8E00A 		.ascii	"\321\370\340\012\204\266?\000@\324\234\000Lj\330\245"
 347      84B63F00 
 347      40D49C00 
 347      4C6AD8A5 
 348 0094 27FFA0CB 		.ascii	"'\377\240\313o\000\277\005|\002\370O\300g\000# \021"
 348      6F00BF05 
 348      7C02F84F 
ARM GAS  C:\Users\gjl\AppData\Local\Temp\ccIJCYYn.s 			page 27


 348      C0670023 
 348      2011
 349 00a6 9004F81C 		.ascii	"\220\004\370\034Q\232&\005i\224\027\310Dw8 \022P+\350"
 349      519A2605 
 349      699417C8 
 349      44773820 
 349      12502BE8 
 350 00ba 9F02444B 		.ascii	"\237\002DK\024\341\237\362\"6\337\023\370b\377\177\200"
 350      14E19FF2 
 350      2236DF13 
 350      F862FF7F 
 350      80
 351 00cb B64F053D 		.ascii	"\266O\005=S\202\237\013\000\313\020\323g\207\373\177"
 351      53829F0B 
 351      00CB10D3 
 351      6787FB7F 
 352 00db 001C803F 		.ascii	"\000\034\200?\002\342\001/\241}\036\334\377\007\360"
 352      02E2012F 
 352      A17D1EDC 
 352      FF07F0
 353 00ea DF001EF0 		.ascii	"\337\000\036\360'@\032\300\007\357\226\302\375#\200"
 353      27401AC0 
 353      07EF96C2 
 353      FD2380
 354 00f9 169EFF19 		.ascii	"\026\236\377\031\356\343p\377\012\356K\000A\032)vy\334"
 354      EEE370FF 
 354      0AEE4B00 
 354      411A2976 
 354      79DC
 355 010b 1A217692 		.ascii	"\032!v\222\257t\270gL\363\237\360\015?\342;\311w&\264"
 355      AF74B867 
 355      4CF39FF0 
 355      0D3FE23B 
 355      C97726B4 
 356 011f 59015980 		.ascii	"Y\001Y\200_\013:\260\320?I\310;\361+\033\356\253\001"
 356      5F0B3AB0 
 356      D03F49C8 
 356      3BF12B1B 
 356      EEAB01
 357 0132 6B006BA7 		.ascii	"k\000k\247\331\372\344\007l\021\0339\210\345\211\344"
 357      D9FAE407 
 357      6C111B39 
 357      88E589E4 
 358 0142 E12F88E5 		.ascii	"\341/\210\345\352#\231\255O\204\361#6\211\234\013\367"
 358      EA2399AD 
 358      4F84F123 
 358      36899C0B 
 358      F7
 359 0153 7568E658 		.ascii	"uh\346X\246\010\276,\020\306n\241\2403\002\360\000p"
 359      A608BE2C 
 359      10C66EA1 
 359      A03302F0 
 359      0070
 360 0165 0F701730 		.ascii	"\017p\0270\010x\010\030\005\364\001\372\001C\200\247"
 360      08780818 
 360      05F401FA 
 360      014380A7 
ARM GAS  C:\Users\gjl\AppData\Local\Temp\ccIJCYYn.s 			page 28


 361 0175 8061C023 		.ascii	"\200a\300#\300\210\206\345\371\016\3401`\000\360\004"
 361      C08886E5 
 361      F90EE031 
 361      6000F004 
 362 0185 3036731A 		.ascii	"06s\032\320\353\015\207Nd\335;\242\033\347P\264\036"
 362      D0EB0D87 
 362      4E64DD3B 
 362      A21BE750 
 362      B41E
 363 0197 F9109187 		.ascii	"\371\020\221\207\252'\3470\231\274\276=y\370\337\342"
 363      AA27E730 
 363      99BCBE3D 
 363      79F8DFE2 
 364 01a7 4A79B8F2 		.ascii	"Jy\270\362x\236\343\244~\025\336\261cZ\034BH\334\265"
 364      789EE3A4 
 364      7E15DEB1 
 364      635A1C42 
 364      48DCB5
 365 01ba F2CE0BC1 		.ascii	"\362\316\013\301(V\177\220\360\372\272\306\377)\203"
 365      28567F90 
 365      F0FABAC6 
 365      FF2983
 366 01c9 E7112A45 		.ascii	"\347\021*Ezt\024at\004\305\221\221\215&\223~\015\317"
 366      7A741461 
 366      7404C591 
 366      918D2693 
 366      7E0DCF
 367 01dc A7F3237B 		.ascii	"\247\363#{\371\300(\015Z\032\215\026EkP\011\212%\306"
 367      F9C0280D 
 367      5A1A8D16 
 367      456B5009 
 367      8A25C6
 368 01ef 080B1D46 		.ascii	"\010\013\035F\321\350\020\212&\372\217\354:\3340\007"
 368      D1E8108A 
 368      26FA8FEC 
 368      3ADC3007 
 369 01ff 6F47D4C0 		.ascii	"oG\324\300\360\226\307k\260\337@~nt\011\317\317E'\300"
 369      F096C76B 
 369      B0DF407E 
 369      6E7409CF 
 369      CF4527C0 
 370 0213 C031C900 		.ascii	"\3001\311\000\330S\267p\\\305\002\351\014V\256e\236"
 370      D853B770 
 370      5CC502E9 
 370      0C56AE65 
 370      9E
 371 0224 DC8121DA 		.ascii	"\334\201!\332p=\322\202\370\354jQ\177(\210\221z4\037"
 371      703DD282 
 371      F8EC6A51 
 371      7F288891 
 371      7A341F
 372 0237 C4B35535 		.ascii	"\304\263U5\215\001L\\\004\342\365\221\346\235!\214<"
 372      8D014C5C 
 372      04E2F591 
 372      E69D218C 
 372      3C
 373 0248 17C40BBE 		.ascii	"\027\304\013\276\011o\030\0239\331\333H\366v][\345R"
ARM GAS  C:\Users\gjl\AppData\Local\Temp\ccIJCYYn.s 			page 29


 373      096F1813 
 373      39D9DB48 
 373      F6765D5B 
 373      E552
 374 025a BC8DA349 		.ascii	"\274\215\243I<\360\352\365\010\261\262\000r\354\303"
 374      3CF0EAF5 
 374      08B1B200 
 374      72ECC3
 375 0269 B2242F60 		.ascii	"\262$/`I\256o\272|\320\200\367Q2\267\337\233\236\205"
 375      49AE6FBA 
 375      7CD080F7 
 375      5132B7DF 
 375      9B9E85
 376 027c 903E9606 		.ascii	"\220>\226\006\302g\360\372\303\241\032\364\015\270]"
 376      C267F0FA 
 376      C3A11AF4 
 376      0DB85D
 377 028b 41DC3E0B 		.ascii	"A\334>\013\261,\020b9\015\215U\320(\244}\350\2674\355"
 377      B12C1062 
 377      390D8D55 
 377      D028A47D 
 377      E8B734ED 
 378 029f 67202BD5 		.ascii	"g +\325RV\026\350\331x\325\345w\015\350\361qf\343\310"
 378      525616E8 
 378      D978D5E5 
 378      770DE8F1 
 378      7166E3C8 
 379 02b3 487369D8 		.ascii	"Hsi\330\2546\352f\265\221\237\273\240\224d\276\026l"
 379      AC36EA66 
 379      B5919FBB 
 379      A09464BE 
 379      166C
 380 02c5 D44836CE 		.ascii	"\324H6\316 \301\310\223\314\373}B\016\242@,m\357x\203"
 380      20C1C893 
 380      CCFB7D42 
 380      0EA2402C 
 380      6DEF7883 
 381 02d9 70154BC2 		.ascii	"p\025K\302\325\267#u\030_f\302\261\276\354\266\000|"
 381      D5B72375 
 381      185F66C2 
 381      B1BEECB6 
 381      007C
 382 02eb 8B0907A7 		.ascii	"\213\011\007\247\366T\030\360\000\023\016\017\354\330"
 382      F65418F0 
 382      00130E0F 
 382      ECD8
 383 02f9 60602AE2 		.ascii	"``*\342A,:;~%\200%Y\007b\343D\355\276\000\374\214Qs"
 383      412C3A3B 
 383      7E258025 
 383      590762E3 
 383      44EDBE00 
 384 0311 728FEE09 		.ascii	"r\217\356\011\305\331\230\012\305c=\017\203Y\277X\020"
 384      C5D9980A 
 384      C5633D0F 
 384      8359BF58 
 384      10
 385 0322 B3D695D4 		.ascii	"\263\326\225\324`\\\310\336\265\336.{\036\210\2173\341"
ARM GAS  C:\Users\gjl\AppData\Local\Temp\ccIJCYYn.s 			page 30


 385      605CC8DE 
 385      B5DE2E7B 
 385      1E888F33 
 385      E1
 386 0333 766FFE5F 		.ascii	"vo\376_p\025{\356\271t\244\204\014\314B20>_\230lh\026"
 386      70157BEE 
 386      B974A484 
 386      0CCC4232 
 386      303E5F98 
 387 034a B2A1B9BE 		.ascii	"\262\241\271\276qt\177\020n\240t\256q}yY\2104\317\367"
 387      71747F10 
 387      6EA074AE 
 387      717D7959 
 387      8834CFF7 
 388 035e 1BAA4932 		.ascii	"\033\252I2Z!\031\337I\311X\350\237\205y\031|\370%H\354"
 388      5A2119DF 
 388      49C958E8 
 388      9F857919 
 388      7CF82548 
 389 0373 29C8E149 		.ascii	")\310\341I\222\330\026H\354B!\261W\241\261Y\230\352"
 389      92D81648 
 389      EC4221B1 
 389      57A1B159 
 389      98EA
 390 0385 FBF3F706 		.ascii	"\373\363\367\006\342\026f\243\260\342\350\204^6\325"
 390      E21666A3 
 390      B0E2E884 
 390      5E36D5
 391 0394 97D184B7 		.ascii	"\227\321\204\267\201\215k\222\215V4\273\221\353\352"
 391      818D6B92 
 391      8D5634BB 
 391      91EBEA
 392 03a3 461E7F7F 		.ascii	"F\036\177\177=?\000w\260\270\337\224\255>\253\305\217"
 392      3D3F0077 
 392      B0B8DF94 
 392      AD3EABC5 
 392      8F
 393 03b4 99F0E0D2 		.ascii	"\231\360\340\322\344x\010~\303\204W\347\322a\362\344"
 393      E478087E 
 393      C38457E7 
 393      D261F2E4 
 394 03c4 69A95079 		.ascii	"i\251Pyn\2629\000\037`\302\223\364\222\375\010\3271"
 394      6EB23900 
 394      1F60C293 
 394      F492FD08 
 394      D731
 395 03d6 A175EB70 		.ascii	"\241u\353p\001\207o2a\352\365\346\264\000\374\210\011"
 395      01876F32 
 395      61EAF5E6 
 395      B400FC88 
 395      09
 396 03e7 F5DD83A5 		.ascii	"\365\335\203\245!xJ\350#\314\207p6\037N\326d\016\013"
 396      21784AE8 
 396      23CC8770 
 396      361F4ED6 
 396      640E0B
 397 03fa CBCB4BF6 		.ascii	"\313\313K\366\232\303\353G\316\353\361\326\000\302}"
ARM GAS  C:\Users\gjl\AppData\Local\Temp\ccIJCYYn.s 			page 31


 397      9AC3EB47 
 397      CEEBF1D6 
 397      00C27D
 398 0409 27ADFEEA 		.ascii	"'\255\376\352\305 \024C\256\210\030\351\212\005\354"
 398      C5201443 
 398      AE8818E9 
 398      8A05EC
 399 0418 2581F66D 		.ascii	"%\201\366m}\374qMe7\317g\033\350\312o\207t\334G\021"
 399      7DFC714D 
 399      6537CF67 
 399      1BE8CA6F 
 399      8774DC47 
 400 042d E222FF05 		.ascii	"\342\"\377\005\354\235\250\014\221\035\224\322\275y"
 400      EC9DA80C 
 400      911D94D2 
 400      BD79
 401 043b D743F893 		.ascii	"\327C\370\223\177\246\324sJj9a\201\340\247v\177\347"
 401      7FA6D473 
 401      4A6A3961 
 401      81E0A776 
 401      7FE7
 402 044d A776AA68 		.ascii	"\247v\252h\375F\246u{\213\237\372\275\012\265AF\355"
 402      FD46A675 
 402      7B8B9FFA 
 402      BD0AB541 
 402      46ED
 403 045f 90B4DE52 		.ascii	"\220\264\336R\241R\373\371\302\316\312#\217\006\365"
 403      A152FBF9 
 403      C2CECA23 
 403      8F06F5
 404 046e C268F590 		.ascii	"\302h\365\220!\354\026\3500\206\350\031\014\347\003"
 404      21EC16E8 
 404      3086E819 
 404      0CE703
 405 047d 1483EE01 		.ascii	"\024\203\356\001\356\002\006\001\017\001\243\200>@?"
 405      EE020601 
 405      0F01A380 
 405      3E403F
 406 048c 6008F014 		.ascii	"`\010\360\0240\014x\004\030\001\214\003\356\000\036"
 406      300C7804 
 406      18018C03 
 406      EE001E
 407 049b 0306004F 		.ascii	"\003\006\000O\000c(\206n\337\314\277\002)A^\265\004"
 407      00632886 
 407      6EDFCCBF 
 407      0229415E 
 407      B504
 408 04ad D5CB62B9 		.ascii	"\325\313b\271!\305\322\245\022\313b\211\331+1;T\230"
 408      21C5D2A5 
 408      12CB6289 
 408      D92B313B 
 408      5498
 409 04bf 72A52312 		.ascii	"r\245#\022\365\246\012\365\224\214:.\245\375\242\222"
 409      F5A60AF5 
 409      948C3A2E 
 409      A5FDA292 
 410 04cf 7A014D1F 		.ascii	"z\001M\037\370-R\\\337\252\305%\037\316]\033C\013yo"
ARM GAS  C:\Users\gjl\AppData\Local\Temp\ccIJCYYn.s 			page 32


 410      F82D525C 
 410      DFAAC525 
 410      1FCE5D1B 
 410      430B796F 
 411 04e3 26A60BAC 		.ascii	"&\246\013\254I`\373\227\022\323-\013\256\263e\3166\336"
 411      4960FB97 
 411      12D32D0B 
 411      AEB365CE 
 411      36DE
 412 04f5 9B86A9F2 		.ascii	"\233\206\251\362\313j\216\\\222)\257\332\024\272\235"
 412      CB6A8E5C 
 412      9229AFDA 
 412      14BA9D
 413 0504 F7A663BA 		.ascii	"\367\246c\272]V\012l\377.\313\234\221\007\331&\327~"
 413      5D560A6C 
 413      FF2ECB9C 
 413      9107D926 
 413      D77E
 414 0516 454DBB9C 		.ascii	"EM\273\234\375RJI\243\032\227ME\272\215x\3537\030x^"
 414      FD524A49 
 414      A31A974D 
 414      45BA8D78 
 414      EB371878 
 415 052b 47381A61 		.ascii	"G8\032a\013\221\246\301\330w2\2537T\306A\036R\265<\244"
 415      0B91A6C1 
 415      D87732AB 
 415      3754C641 
 415      1E52B53C 
 416 0540 DBEA21C9 		.ascii	"\333\352!\311\307\302'\017\351\274\332h\320\354\302"
 416      C7C2270F 
 416      E9BCDA68 
 416      D0ECC2
 417 054f 5ED0B9B1 		.ascii	"^\320\271\261\2700\014W\321\275\200\273z\257\250>\024"
 417      B8300C57 
 417      D1BD80BB 
 417      7AAFA83E 
 417      14
 418 0560 45C4AA2F 		.ascii	"E\304\252/\217\011X\022\177\315\345\301r\326\323\364"
 418      8F095812 
 418      7FCDE5C1 
 418      72D6D3F4 
 419 0570 3392B317 		.ascii	"3\222\263\027`\350\271\264\363\222\024R\177\367\034"
 419      60E8B9B4 
 419      F3921452 
 419      7FF71C
 420 057f 3EB41E45 		.ascii	">\264\036E\010\016zguP\363\177\356\035\330\316\316\031"
 420      080E7A67 
 420      7550F37F 
 420      EE1DD8CE 
 420      CE19
 421 0591 4B43861C 		.ascii	"KC\206\034i\373G/e\323V\203&\021)\\\351\235\354\325"
 421      69FB472F 
 421      65D35683 
 421      2611295C 
 421      E99DECD5 
 422 05a5 998D55BA 		.ascii	"\231\215U\272.\330\331\340\324\024jO\304~\034\300\215"
 422      2ED8D9E0 
ARM GAS  C:\Users\gjl\AppData\Local\Temp\ccIJCYYn.s 			page 33


 422      D4146A4F 
 422      C47E1CC0 
 422      8D
 423 05b6 40C34045 		.ascii	"@\303@Ex\3404\302\257\016\241\311\177\323\220\377\032"
 423      78E034C2 
 423      AF0EA1C9 
 423      7FD390FF 
 423      1A
 424 05c7 C6A76D92 		.ascii	"\306\247m\2222\372'\336}\342\305*z\277v$tB~\017X/\366"
 424      32FA27DE 
 424      7DE2C52A 
 424      7ABF7624 
 424      74427E0F 
 425 05de 9E13B5B2 		.ascii	"\236\023\265\262\033'u\220\351c\356\312|B\312\230\220"
 425      1B277590 
 425      E963EECA 
 425      7C42CA98 
 425      90
 426 05ef 98A2D635 		.ascii	"\230\242\3265#\347u\270\211N'\264e\360b\260\"]d6J\351"
 426      23E775B8 
 426      894E27B4 
 426      65F062B0 
 426      225D6436 
 427 0605 9A62E902 		.ascii	"\232b\351\002\342\266\232\265\035\201Z\216\265\241D"
 427      E2B69AB5 
 427      1D815A8E 
 427      B5A144
 428 0614 2D69BBD7 		.ascii	"-i\273\327}y<\210\266\221^o\020m\254\336\230\346\015"
 428      7D793C88 
 428      B6915E6F 
 428      106DACDE 
 428      98E60D
 429 0627 8A2A20A3 		.ascii	"\212* \243\017\345\323|\216\256\007q\035h\240\222\216"
 429      0FE5D37C 
 429      8EAE0771 
 429      1D68A092 
 429      8E
 430 0638 82FF6F91 		.ascii	"\202\377o\221\226\251\315\235\034p~\260\233\357;\311"
 430      96A9CD9D 
 430      1C707EB0 
 430      9BEF3BC9 
 431 0648 F7153F75 		.ascii	"\367\025?u\036\334\227\315\267B\277\2179\302C\257\245"
 431      1EDC97CD 
 431      B742BF8F 
 431      39C243AF 
 431      A5
 432 0659 C9058FE4 		.ascii	"\311\005\217\344\366\012\366X\015\342\271\017\240\353"
 432      F60AF658 
 432      0DE2B90F 
 432      A0EB
 433 0667 9D5BBBB6 		.ascii	"\235[\273\266\352pv \215\343x\351\353\223z\352\312\247"
 433      EA707620 
 433      8DE378E9 
 433      EB937AEA 
 433      CAA7
 434 0679 A27762D9 		.ascii	"\242wb\331\023\316\312\036\261\200\015g\005,?\230\271"
 434      13CECA1E 
ARM GAS  C:\Users\gjl\AppData\Local\Temp\ccIJCYYn.s 			page 34


 434      B1800D67 
 434      052C3F98 
 434      B9
 435 068a 8BC30758 		.ascii	"\213\303\007X\357\372\301\374z\035\256`B\353\241\341"
 435      EFFAC1FC 
 435      7A1DAE60 
 435      42EBA1E1 
 436 069a 9BA1B899 		.ascii	"\233\241\270\231\011\203\273\353\313t\370\001\023\266"
 436      0983BBEB 
 436      CB74F801 
 436      13B6
 437 06a8 7A374DE9 		.ascii	"z7M\351\361\030\023.W\337]\204\337\262\347\027M\337"
 437      F118132E 
 437      57DF5D84 
 437      DFB2E717 
 437      4DDF
 438 06ba F760BC3E 		.ascii	"\367`\274>\210\012\033\317\325B~\013\231\320\330}\253"
 438      880A1BCF 
 438      D5427E0B 
 438      99D0D87D 
 438      AB
 439 06cb 5D8B0F30 		.ascii	"]\213\0170!\255\366|\371\034|\206\011o\312\313a\325"
 439      21ADF67C 
 439      F91C7C86 
 439      096FCACB 
 439      61D5
 440 06dd 9F67C240 		.ascii	"\237g\302@\316\221g\006\334\314\204\235\355w\363\202"
 440      CE916706 
 440      DCCC849D 
 440      ED77F382 
 441 06ed F542B59E 		.ascii	"\365B\265\236\367#\325:\360\037vWM\031\024\203\230\317"
 441      F723D53A 
 441      F01F7657 
 441      4D191483 
 441      98CF
 442 06ff C9077113 		.ascii	"\311\007q\023'\016\342\335S\023C:|-h\266\224ue\037j"
 442      270EE2DD 
 442      5313433A 
 442      7C2D68B6 
 442      9475651F 
 443 0714 0AF10FE8 		.ascii	"\012\361\017\350\026\2166\266w\364\266\007\373\033\267"
 443      168E36B6 
 443      77F4B607 
 443      FB1BB7
 444 0723 B2C6D5BE 		.ascii	"\262\306\325\276\236\006\035\356g\2322\017\255/\236"
 444      9E061DEE 
 444      679A320F 
 444      AD2F9E
 445 0732 839F3261 		.ascii	"\203\2372aC\341\350\331 <\301\2046\357\356\342`\374"
 445      43E1E8D9 
 445      203CC184 
 445      36EFEEE2 
 445      60FC
 446 0744 9609FD15 		.ascii	"\226\011\375\025\023\373\347\340\265:*\334yZ[(\315\035"
 446      13FBE7E0 
 446      B53A2ADC 
 446      795A5B28 
ARM GAS  C:\Users\gjl\AppData\Local\Temp\ccIJCYYn.s 			page 35


 446      CD1D
 447 0756 66FE9BEB 		.ascii	"f\376\233\353\273n\007\341|Fx\325\362\372\014\302_3"
 447      BB6E07E1 
 447      7C4678D5 
 447      F2FA0CC2 
 447      5F33
 448 0768 61E2D883 		.ascii	"a\342\330\203\356\000\\\302\204\314\235y-\034\033\311"
 448      EE005CC2 
 448      84CC9D79 
 448      2D1C1BC9 
 449 0778 9F8158B0 		.ascii	"\237\201X\260vG\237\226\225N}\344\327\306\340\375\342"
 449      76479F96 
 449      954E7DE4 
 449      D7C6E0FD 
 449      E2
 450 0789 463DAE62 		.ascii	"F=\256b\334\372\266\023\315a\270\211\012\037t\017\225"
 450      DCFAB613 
 450      CD61B889 
 450      0A1F740F 
 450      95
 451 079a 55CF418A 		.ascii	"U\317A\212\032*&\306`\210\322\032\"\304\247\330\230"
 451      1A2A26C6 
 451      6088D21A 
 451      22C4A7D8 
 451      98
 452 07ab D8D858B1 		.ascii	"\330\330X\261\250\372\254CVT\255\3470:\300\371\267\350"
 452      A8FAAC43 
 452      5654ADE7 
 452      303AC0F9 
 452      B7E8
 453 07bd 1ED949A2 		.ascii	"\036\331I\242\330\213\367p\321h7\007\214]B\007\262\027"
 453      D88BF770 
 453      D1683707 
 453      8C5D4207 
 453      B217
 454 07cf 9F       		.ascii	"\237"
 455 07d0 E762D139 		.ascii	"\347b\3219.\006\325\000\316\002\316\000\252\001e\200"
 455      2E06D500 
 455      CE02CE00 
 455      AA016580 
 456 07e0 53809380 		.ascii	"S\200\223\200\023\200\375\200\343\200c\200R@\011\340"
 456      1380FD80 
 456      E3806380 
 456      524009E0 
 457 07f0 28E008E0 		.ascii	"(\340\010\3400\340\020\340 '/Ujn\370\317\272\275J\017"
 457      30E010E0 
 457      20272F55 
 457      6A6EF8CF 
 457      BABD4A0F 
 458 0804 33B86947 		.ascii	"3\270iG\364\031\211\232\245\244fr\323+\264\323\0227"
 458      F419899A 
 458      A5A46672 
 458      D32BB4D3 
 458      1237
 459 0816 5B8D2B3F 		.ascii	"[\215+?\311*%\356j5\256\374\224\254\220\270k\324\270"
 459      C92A25EE 
 459      6A35AEFC 
ARM GAS  C:\Users\gjl\AppData\Local\Temp\ccIJCYYn.s 			page 36


 459      94AC90B8 
 459      6BD4B8
 460 0829 F263BC4C 		.ascii	"\362c\274L\342\256U\343\312\013\246\223\0227G\215+\257"
 460      E2AE55E3 
 460      CA0BA693 
 460      1237478D 
 460      2BAF
 461 083b 6CBE96B8 		.ascii	"l\276\226\270\271j\\Y\371\273]\242\256S\243\312\262"
 461      B96A5C59 
 461      F9BB5DA2 
 461      AE53A3CA 
 461      B2
 462 084c BB45A26E 		.ascii	"\273E\242nP\233*\362\214m.\220\325\012\033\005\266\277"
 462      509B2AF2 
 462      8C6D2E90 
 462      D50A1B05 
 462      B6BF
 463 085e 56E89951 		.ascii	"V\350\231Q\320\344\027\274\303j1X\312(O\340\373k\261"
 463      D0E417BC 
 463      C36A3158 
 463      CA284FE0 
 463      FB6BB1
 464 0871 9EE9B598 		.ascii	"\236\351\265\230\257-\214\321\313\201\276y:]^]\3117"
 464      AF2D8CD1 
 464      CB81BE79 
 464      3A5D5E5D 
 464      C937
 465 0883 8D6FB828 		.ascii	"\215o\270(Y}\007\023\266\002z\263\355w6\232F\306\221"
 465      597D0713 
 465      B6027AB3 
 465      ED77369A 
 465      46C691
 466 0896 EDF82714 		.ascii	"\355\370'\024;>t\200\377\225\034\331\361\311z\257\202"
 466      3B3E7480 
 466      FF951CD9 
 466      F1C97AAF 
 466      82
 467 08a7 2E0520C9 		.ascii	".\005 \311\225\236\346\344\207t\025\333\260\324\227"
 467      959EE6E4 
 467      877415DB 
 467      B0D497
 468 08b6 550378F6 		.ascii	"U\003x\366\327_VSm\006>\317D\023\270]=\201\262|\277"
 468      D75F5653 
 468      6D063ECF 
 468      4413B85D 
 468      3D81B27C 
 469 08cb 92C885D3 		.ascii	"\222\310\205\323\311*\325\251\304.Rg\313TOl\216dCY\013"
 469      C92AD5A9 
 469      C42E5267 
 469      CB544F6C 
 469      8E644359 
 470 08e0 F4E2E9F4 		.ascii	"\364\342\351\364_\250\217d\275|$\277\205\034\325\251"
 470      5FA88F64 
 470      BD7C24BF 
 470      851CD5A9 
 471 08f0 8E64BD62 		.ascii	"\216d\275b$\353\324FRyv\327\323\221\364*Fr\007H\254"
 471      24EBD446 
ARM GAS  C:\Users\gjl\AppData\Local\Temp\ccIJCYYn.s 			page 37


 471      527976D7 
 471      D391F42A 
 471      46720748 
 472 0905 2A7C9EFB 		.ascii	"*|\236\373.\251\012\211\243;9\377\301]G\307\222\005"
 472      2EA90A89 
 472      A33B39FF 
 472      C15D47C7 
 472      9205
 473 0917 F37CF3DF 		.ascii	"\363|\363\337\261`\240\372B_\253\006\263X\252\314\237"
 473      B160A0FA 
 473      425FAB06 
 473      B358AACC 
 473      9F
 474 0928 6DA69539 		.ascii	"m\246\2259p\344\2259{\327\225\373>yG\246\315>\311\026"
 474      70E49539 
 474      7BD795FB 
 474      3E7947A6 
 474      CD3EC916 
 475 093c A18A8CB1 		.ascii	"\241\212\214\261\246w\010\203dy\233\304\250\240\336"
 475      A6770883 
 475      64799BC4 
 475      A8A0DE
 476 094b C0B9D0D0 		.ascii	"\300\271\320\3200X\212\264b\020\351\354P[{\375X\206"
 476      30588AB4 
 476      6210E9EC 
 476      505B7BFD 
 476      5886
 477 095d 366AD689 		.ascii	"6j\326\211|\221\206\337\310\011\245\313\236\241\211"
 477      7C9186DF 
 477      C809A5CB 
 477      9EA189
 478 096c 511DD42E 		.ascii	"Q\035\324.^Z\273|\274\275\354\036\237\246\017$,\224"
 478      5E5ABB7C 
 478      BCBDEC1E 
 478      9FA60F24 
 478      2C94
 479 097e 26598447 		.ascii	"&Y\204G\251p\271D\013\227s\245{\3639|\235\035PC\355"
 479      A970B944 
 479      0B9773A5 
 479      7BF3397C 
 479      9D1D5043 
 480 0993 A7864359 		.ascii	"\247\206CY\005\304\227\301TO\347\3714\216.\262\313\222"
 480      05C497C1 
 480      544FE7F9 
 480      348E2EB2 
 480      CB92
 481 09a5 92CB7225 		.ascii	"\222\313r%W\250\222+\317+^\204\340GLIm\335\375J\014"
 481      57A8922B 
 481      CF2B5E84 
 481      E0474C49 
 481      6DDDFD4A 
 482 09ba 4A769FE4 		.ascii	"Jv\237\344\275EM\006VCQ%M\222\222&\271\222f\252dC\332"
 482      BD454D06 
 482      56435125 
 482      4D929226 
 482      B99266AA 
 483 09d1 E90B5A9C 		.ascii	"\351\013Z\234\021L\225d\034\354k\015\300EL(\250\367"
ARM GAS  C:\Users\gjl\AppData\Local\Temp\ccIJCYYn.s 			page 38


 483      114C9564 
 483      1CEC6B0D 
 483      C0454C28 
 483      A8F7
 484 09e3 EE0883FC 		.ascii	"\356\010\203\374\240\357h/R;4\244\217\006\3733\306\016"
 484      A0EF682F 
 484      523B34A4 
 484      8F06FB33 
 484      C60E
 485 09f5 EC96FAE6 		.ascii	"\354\226\372\346\035?\220\260k4a\255b\302\2626\324\371"
 485      1D3F90B0 
 485      6B3461AD 
 485      62C2B236 
 485      D4F9
 486 0a07 8249A83C 		.ascii	"\202I\250<\337\267\345\2613w_\266\027\034\235Ky\350"
 486      DFB7E5B1 
 486      33775FB6 
 486      171C9D4B 
 486      79E8
 487 0a19 AAE8286A 		.ascii	"\252\350(j\341\264Db\225\353u\352\347\246\374\341M\301"
 487      E1B44462 
 487      95EB75EA 
 487      E7A6FCE1 
 487      4DC1
 488 0a2b 78DF6CAE 		.ascii	"x\337l\256\251\325\022\327\272[\246\002\375\356\266"
 488      A9D512D7 
 488      BA5BA602 
 488      FDEEB6
 489 0a3a B301DEBC 		.ascii	"\263\001\336\274\275\345\362\017\370{\223\372{C\364"
 489      BDE5F20F 
 489      F87B93FA 
 489      7B43F4
 490 0a49 377DF4E2 		.ascii	"7}\364\342\033\314\374\365\276H,\344\317\245CR\201\203"
 490      1BCCFCF5 
 490      BE482CE4 
 490      CFA54352 
 490      8183
 491 0a5b DAFCBE7E 		.ascii	"\332\374\276~\017\276\266\211\276vP_7\357\031\353\345"
 491      0FBEB689 
 491      BE76505F 
 491      37EF19EB 
 491      E5
 492 0a6c 70C56CBE 		.ascii	"p\305l\276\376x\035\335\305|m^\355\203\314\211\001t"
 492      FE781DDD 
 492      C57C6D5E 
 492      ED83CC89 
 492      0174
 493 0a7e B3C681DE 		.ascii	"\263\306\201\336\363\325\201\263\007\320K\003\350\021"
 493      F3D581B3 
 493      07D04B03 
 493      E811
 494 0a8c 03F065BF 		.ascii	"\003\360e\277\274c\020\002x%\006\000\034\324\351\017"
 494      BC631002 
 494      78250600 
 494      1CD4E90F 
 495 0a9c E01604D0 		.ascii	"\340\026\004\320)\006p\233\006p\266\240?\0047\316\346"
 495      2906709B 
ARM GAS  C:\Users\gjl\AppData\Local\Temp\ccIJCYYn.s 			page 39


 495      0670B6A0 
 495      3F0437CE 
 495      E6
 496 0aad FFD79B2F 		.ascii	"\377\327\233/o\325\012:\337\212:\311\000\366\371u\336"
 496      6FD50A3A 
 496      DF8A3AC9 
 496      00F6F975 
 496      DE
 497 0abe 019D7DA2 		.ascii	"\001\235}\242\316\273TgI\366\261\234\000\334\305\224"
 497      CEBB5467 
 497      49F6B19C 
 497      00DCC594 
 498 0ace AACDA4DE 		.ascii	"\252\315\244\336\262'=a\362\300\376\360\256,\256\373"
 498      B2273D61 
 498      F2C0FEF0 
 498      AE2CAEFB 
 499 0ade 34AE7B62 		.ascii	"4\256{b\\m-\315\357\013.\324n\303\340\003G\030\250_"
 499      5C6D2DCD 
 499      EF0B2ED4 
 499      6EC3E003 
 499      4718A85F 
 500 0af2 9AEBFDA2 		.ascii	"\232\353\375\242\371\001j\276w\357\355\215\201\370\005"
 500      F9016ABE 
 500      77EFED8D 
 500      81F805
 501 0b01 339F59B9 		.ascii	"3\237Y\271\341\032K\354\244\177\004\356\347v\215\353"
 501      E11A4BEC 
 501      A47F04EE 
 501      E7768DEB 
 502 0b11 FC2E0DB2 		.ascii	"\374.\015\262d\017\326<?\0352\253O\217\250O\017E\237"
 502      640FD63C 
 502      3F1D32AB 
 502      4F8FA84F 
 502      0F459F
 503 0b24 6AA66EB6 		.ascii	"j\246n\266\213y9s\323\340\375\035!\240\007\222K\017"
 503      8B793973 
 503      D3E0FD1D 
 503      21A00792 
 503      4B0F
 504 0b36 44971E53 		.ascii	"D\227\036S\227\272\356o\317\014\301\205\354S\352\321"
 504      97BAEE6F 
 504      CF0CC185 
 504      EC53EAD1 
 505 0b46 AB9D15C1 		.ascii	"\253\235\025\301?\335\307\267\356&[\311gG\266d\361|"
 505      3FDDC7B7 
 505      EE265BC9 
 505      6747B664 
 505      F17C
 506 0b58 38FDE53A 		.ascii	"8\375\345:\304\024\370\177@kh\313\357aD\206\271\237"
 506      C414F87F 
 506      406B68CB 
 506      EF614486 
 506      B99F
 507 0b6a 926F97CF 		.ascii	"\222o\227\317\316\017\007(j\377k\212]\375\011;J\311"
 507      CE0F0728 
 507      6AFF6B8A 
 507      5DFD093B 
ARM GAS  C:\Users\gjl\AppData\Local\Temp\ccIJCYYn.s 			page 40


 507      4AC9
 508 0b7c 9D38D9B6 		.ascii	"\2358\331\266\372\361\034\005\373\246\202\375T`?\245"
 508      FAF11C05 
 508      FBA682FD 
 508      54603FA5 
 509 0b8c ECAC1CDF 		.ascii	"\354\254\034\337\2030\\\313\\\254*z\353\325\342\363"
 509      83305CCB 
 509      5CAC2A7A 
 509      EBD5E2F3 
 510 0b9c 4CC82EF0 		.ascii	"L\310.\360\335\325\343\213L\030\177\322y8\020\267\012"
 510      DDD5E38B 
 510      4C187FD2 
 510      793810B7 
 510      0A
 511 0bad B4272555 		.ascii	"\264'%Us\204\357\230D\336T\232\223\201\360\035\3722"
 511      7384EF98 
 511      44DE549A 
 511      9381F01D 
 511      FA32
 512 0bbf 70DDADDE 		.ascii	"p\335\255\336\366PDkm\341\373\205\227\035\356\343p\270"
 512      F650446B 
 512      6DE1FB85 
 512      971DEEE3 
 512      70B8
 513 0bd1 93A30F8D 		.ascii	"\223\243\017\215Ap/\204\303\3755\034\\\257\340`~\011"
 513      41702F84 
 513      C3FD351C 
 513      5CAFE060 
 513      7E09
 514 0be3 98004CCA 		.ascii	"\230\000L\312\017h\250\316\177W-\253\316G\204\216\263"
 514      0F68A8CE 
 514      7F572DAB 
 514      CE47848E 
 514      B3
 515 0bf4 7D9D2993 		.ascii	"}\235)\223>\250=S\241\312\317\347J\211\372\\\205*\257"
 515      3EA83D53 
 515      A1CACFE7 
 515      4A89FA5C 
 515      852AAF
 516 0c07 E34E6D10 		.ascii	"\343Nm\020\276\221\221\265<*\220g=\320v\262OM/\224\007"
 516      BE9191B5 
 516      3C2A9067 
 516      3DD076B2 
 516      4F4D2F94 
 517 0c1c 1AF9CA9D 		.ascii	"\032\371\312\2353:\025\212\037\320$qS{\327V\352Pl\004"
 517      333A158A 
 517      1FD02471 
 517      537BD756 
 517      EA506C04 
 518 0c30 EB73BB29 		.ascii	"\353s\273)\206\364y\013z\247\244\271\364\202\036t\212"
 518      86F4790B 
 518      7AA7A4B9 
 518      F4821E74 
 518      8A
 519 0c41 FAC89FC2 		.ascii	"\372\310\237\3027\220\266\037K!Y\331%\317\267\206*\246"
 519      3790B61F 
 519      4B2159D9 
ARM GAS  C:\Users\gjl\AppData\Local\Temp\ccIJCYYn.s 			page 41


 519      25CFB786 
 519      2AA6
 520 0c53 C25B450D 		.ascii	"\302[E\015\346\023\246\202\217N\205C\347\306o(\177b"
 520      E613A682 
 520      8F4E8543 
 520      E7C66F28 
 520      7F62
 521 0c65 F62A260E 		.ascii	"\366*&\016\217\031\033\356\300~[{5\227S\260\311\257"
 521      8F191BEE 
 521      C07E5B7B 
 521      359753B0 
 521      C9AF
 522 0c77 79899D26 		.ascii	"y\211\235&\260\323({\335\361\376\301\340\017\367\320"
 522      B0D3287B 
 522      DDF1FEC1 
 522      E00FF7D0 
 523 0c87 8FFAC54F 		.ascii	"\217\372\305O\377\\\224\303\347\220\245FOK\266b\322"
 523      FF5C94C3 
 523      E790A546 
 523      4F4BB662 
 523      D2
 524 0c98 F187E417 		.ascii	"\361\207\344\027{\347)\037f\274<\240h\224\234\014\312"
 524      7BE7291F 
 524      66BC3CA0 
 524      68949C0C 
 524      CA
 525 0ca9 B9BF7343 		.ascii	"\271\277sC\271\362{\306}\205\237\231\202\345Lj\371\333"
 525      B9F27BC6 
 525      7D859F99 
 525      82E54C6A 
 525      F9DB
 526 0cbb B5D53B82 		.ascii	"\265\325;\202\024\354\213\012v\226\300\316\242\354\346"
 526      14EC8B0A 
 526      7696C0CE 
 526      A2ECE6
 527 0cca B686F581 		.ascii	"\266\206\365\201\323\355_\021\355gS\373\247\276m\036"
 527      D3ED5F11 
 527      ED6753FB 
 527      A7BE6D1E 
 528 0cda D7318EF7 		.ascii	"\3271\216\367t\240\020\207\237\263\232r\212j\253\017"
 528      74A01087 
 528      9FB39A72 
 528      8A6AAB0F 
 529 0cea CC88C3CF 		.ascii	"\314\210\303\317YC9\225\307\213\252\203\004=\0353\364"
 529      59433995 
 529      C78BAA83 
 529      043D1D33 
 529      F4
 530 0cfb ACA59C2D 		.ascii	"\254\245\234-\203\367\366i\025\336?Rx\237#x\237C\275"
 530      83F7F669 
 530      15DE3F52 
 530      789F2378 
 530      9F43BD
 531 0d0e BFD0575C 		.ascii	"\277\320W\\\356\367,D\320\330,j\314\245\032\007\312"
 531      EEF72C44 
 531      D0D82C6A 
 531      CCA51A07 
ARM GAS  C:\Users\gjl\AppData\Local\Temp\ccIJCYYn.s 			page 42


 531      CA
 532 0d1f 5F9F133C 		.ascii	"_\237\023<\363\226\315\340\254\303\037jt\277\376\367"
 532      F396CDE0 
 532      ACC31F6A 
 532      74BFFEF7 
 533 0d2f 4FE7FF6A 		.ascii	"O\347\377j\361bM\260\321\230j\263{\342\215\2364d\376"
 533      F1624DB0 
 533      D1986AB3 
 533      7BE28D9E 
 533      3464FE
 534 0d42 C704A7CB 		.ascii	"\307\004\247\313\261\334eJ\231\237dK\266\272\347\307"
 534      B1DC654A 
 534      999F644B 
 534      B6BAE7C7 
 535 0d52 AE8CFFE5 		.ascii	"\256\214\377\345\337'\230W9]V\267;\301\351v\230\347"
 535      DF279857 
 535      395D56B7 
 535      3BC1E976 
 535      98E7
 536 0d64 9B5D5693 		.ascii	"\233]V\223\307\341JX\026\267X\331`Kq:\\\236\204\345"
 536      C7E14A58 
 536      16B758D9 
 536      604B713A 
 536      5C9E84E5 
 537 0d78 F6D40493 		.ascii	"\366\324\004\223+%\341\2438\302\200\247\237\333\035"
 537      2B25E1A3 
 537      38C280A7 
 537      9FDB1D
 538 0d87 76EBCFAD 		.ascii	"v\353\317\255\246D[\202\315nNN\265X\023RL\346\0256\273"
 538      A6445B82 
 538      CD6E4E4E 
 538      B5581352 
 538      4CE61536 
 539 0d9c 35C168B1 		.ascii	"5\301h\261&\231R\223=F\317*\247\325\035\267B\023$\270"
 539      26995293 
 539      3D46CF2A 
 539      A7D51DB7 
 539      421324B8 
 540 0db0 F2C5FF97 		.ascii	"\362\305\377\227'\356U\356\004\243\333c\001\263`>\304"
 540      27EE55EE 
 540      04A3DB63 
 540      01B3603E 
 540      C4
 541 0dc1 695B694D 		.ascii	"i[iM6~i\263xV\350Y^\026\377\322\350\321\211\017\363"
 541      367E69B3 
 541      7856E859 
 541      5E16FFD2 
 541      E8D1890F 
 542 0dd6 92926DCE 		.ascii	"\222\222m\316\024\207\305j\\it$%\271\255\236\271b\004"
 542      1487C56A 
 542      5C697424 
 542      25B9AD9E 
 542      B96204
 543 0de9 62438807 		.ascii	"bC\210\007\3345\256\260\332\226\257\360\350\3513\325"
 543      DC35AEB0 
 543      DA96AFF0 
 543      E8E933D5 
ARM GAS  C:\Users\gjl\AppData\Local\Temp\ccIJCYYn.s 			page 43


 544 0df9 16F9A5CB 		.ascii	"\026\371\245\313\346\261\032\235\251\311n\241\305hw"
 544      E6B11A9D 
 544      A9C96EA1 
 544      C56877
 545 0e08 875B4C1E 		.ascii	"\207[L\036\223\021:\245:\215\036[\212\025\232\"mK\314"
 545      93113AA5 
 545      3A8D1E5B 
 545      8A159A22 
 545      6D4BCC
 546 0e1b C6C454B7 		.ascii	"\306\304T\267\321\234\3540\177n\\\274h\321\347\277\371"
 546      D19CEC30 
 546      7F6E5CBC 
 546      68D1E7BF 
 546      F9
 547 0e2c 4AE776DA 		.ascii	"J\347v\332\214\304\254\301\015m\354\315\212\257\004"
 547      8CC4ACC1 
 547      0D6DECCD 
 547      8AAF04
 548 0e3b 07972E11 		.ascii	"\007\227.\021\034$\017\341\204\24042\317m\231f#\334"
 548      1C240FE1 
 548      84A03432 
 548      CF6D9966 
 548      23DC
 549 0e4d E9707B8C 		.ascii	"\351p{\214\220G\253\307\370\245\311\3461\246\270#\231"
 549      9047ABC7 
 549      F8A5C9E6 
 549      31A6B823 
 549      99
 550 0e5e 24EF99E2 		.ascii	"$\357\231\342\216\202\\\033a\240\234F\213\315mJ$\241"
 550      8E825C1B 
 550      61A09C46 
 550      8BCD6D4A 
 550      24A1
 551 0e70 10B61D5E 		.ascii	"\020\266\035^\020\005\364\215\325.\177\021\256`'[\277"
 551      1005F48D 
 551      D52E7F11 
 551      AE60275B 
 551      BF
 552 0e81 B026CF93 		.ascii	"\260&\317\223\323hKTj\374\312xBr&\233V\031m\366$\007"
 552      D3684B54 
 552      6AFCCA78 
 552      4272269B 
 552      56196DF6 
 553 0e97 0C802BD5 		.ascii	"\014\200+\325\3541\260\354\263\334E\306\305%\244\306"
 553      EC31B0EC 
 553      B3DC45C6 
 553      C525A4C6 
 554 0ea7 2F5F9260 		.ascii	"/_\222`v\273\314\011\244\013\214O\304\314\256\236\277"
 554      76BBCC09 
 554      A40B8C4F 
 554      C4CCAE9E 
 554      BF
 555 0eb8 590E8E5B 		.ascii	"Y\016\216[\254\254\301\230bKN\266\271\255f\207\335\342"
 555      ACACC198 
 555      624B4EB6 
 555      B9AD6687 
 555      DDE2
ARM GAS  C:\Users\gjl\AppData\Local\Temp\ccIJCYYn.s 			page 44


 556 0eca 9E3F4385 		.ascii	"\236?C\205\321b4-q\272 YVW\234Y\363\376\3646\243\331"
 556      D162342D 
 556      71BA2059 
 556      56579C59 
 556      F3FEF436 
 557 0ee0 9192E2B0 		.ascii	"\221\222\342\260\3079M.O\334\242P\2135\321\221j7[\301"
 557      C7394D2E 
 557      4FDCA250 
 557      8B35D191 
 557      6A375BC1 
 558 0ef4 3F93C7FA 		.ascii	"?\223\307\372\023\277\230l\202\360\235`\215\266\277"
 558      13BF986C 
 558      82F09D60 
 558      8DB6BF
 559 0f03 E76F17E7 		.ascii	"\347o\027\347\202\377U\310r\247\315A2\015\255\372TO"
 559      82FF55C8 
 559      72A7CD41 
 559      320DADFA 
 559      544F
 560 0f15 523C6B06 		.ascii	"R<k\006\305_\330\200o\262X\310l\016!c\016/\\\036\253"
 560      C55FD880 
 560      6FB258C8 
 560      6C0E2163 
 560      0E2F5C1E 
 561 0f2a 853E0BED 		.ascii	"\205>\013\355\2216\2671\311a\367@\\_X]00d\012\350\304"
 561      9136B731 
 561      C961F740 
 561      5C5F585D 
 561      3030640A 
 562 0f40 89A6B3DA 		.ascii	"\211\246\263\332\315\016\230\267\313\265\2043\217Z2"
 562      CD0E98B7 
 562      CBB58433 
 562      8F5A32
 563 0f4f D92D422A 		.ascii	"\331-B*\314\211!4\270\024\367rx\016J\\\005\223\317\234"
 563      CC892134 
 563      B814F772 
 563      780E4A5C 
 563      0593CF9C 
 564 0f63 18683659 		.ascii	"\030h6Y\340\246\0273\010o\354\326\2250\224\211\006\312"
 564      E0A61733 
 564      086FECD6 
 564      95309489 
 564      06CA
 565 0f75 36AF30B9 		.ascii	"6\2570\271\210 \3170\323\303F(\302\037*\213\211\250"
 565      8820CF30 
 565      D3C34628 
 565      C21F2A8B 
 565      89A8
 566 0f87 0FA4EF3D 		.ascii	"\017\244\357=?\231%\227Q3\332\227\306/[\271d\331\242"
 566      3F992597 
 566      5133DA97 
 566      C62F5BB9 
 566      64D9A2
 567 0f9a 77994570 		.ascii	"w\231Ep\350\277"
 567      E8BF
 568 0fa0 48E8BF77 		.ascii	"H\350\277w\231\354\356$\253Kgw\330\354\311\2609\314"
 568      99ECEE24 
ARM GAS  C:\Users\gjl\AppData\Local\Temp\ccIJCYYn.s 			page 45


 568      AB4B6777 
 568      D8ECC9B0 
 568      39CC
 569 0fb2 95DE5BED 		.ascii	"\225\336[\355\226_\245X\346)\032\376\005\226N\244\277"
 569      965FA558 
 569      E6291AFE 
 569      05964EA4 
 569      BF
 570 0fc3 E55FED16 		.ascii	"\345_\355\026Q\301{\202\301\025\326d'X\223B\261y>P\177"
 570      51C17B82 
 570      C115D664 
 570      27589342 
 570      B1793E50 
 571 0fd8 C516478A 		.ascii	"\305\026G\2125\305\341Z\365!\245\314pV1\347\002V\032"
 571      35C5E15A 
 571      F521A5CC 
 571      705631E7 
 571      02561A
 572 0feb 610160B3 		.ascii	"a\001`\263\335\243\243\013\334\351q1g\251\3042\025\260"
 572      DDA3A30B 
 572      DCE97131 
 572      67A9C432 
 572      15B0
 573 0ffd 8A7042   		.ascii	"\212pB"
 574 1000 A466CFFF 		.ascii	"\244f\317\377\0022\302\200\367"
 574      0232C280 
 574      F7
 575              		.text
 576              		.section	.gnu.lto_.symtab.50a2654d,"",%progbits
 577 0000 6765745F 		.ascii	"get_delay_in_milliseconds\000"
 577      64656C61 
 577      795F696E 
 577      5F6D696C 
 577      6C697365 
 578 001a 00       		.ascii	"\000"
 579 001b 00       		.ascii	"\000"
 580 001c 00       		.ascii	"\000"
 581 001d 00000000 		.ascii	"\000\000\000\000\000\000\000\000"
 581      00000000 
 582 0025 00010000 		.ascii	"\000\001\000\000"
 583 0029 75387838 		.ascii	"u8x8_d_a2printer_common\000"
 583      5F645F61 
 583      32707269 
 583      6E746572 
 583      5F636F6D 
 584 0041 00       		.ascii	"\000"
 585 0042 00       		.ascii	"\000"
 586 0043 00       		.ascii	"\000"
 587 0044 00000000 		.ascii	"\000\000\000\000\000\000\000\000"
 587      00000000 
 588 004c 4A010000 		.ascii	"J\001\000\000"
 589 0050 75387838 		.ascii	"u8x8_d_a2printer_384x240\000"
 589      5F645F61 
 589      32707269 
 589      6E746572 
 589      5F333834 
 590 0069 00       		.ascii	"\000"
ARM GAS  C:\Users\gjl\AppData\Local\Temp\ccIJCYYn.s 			page 46


 591 006a 00       		.ascii	"\000"
 592 006b 00       		.ascii	"\000"
 593 006c 00000000 		.ascii	"\000\000\000\000\000\000\000\000"
 593      00000000 
 594 0074 4C010000 		.ascii	"L\001\000\000"
 595 0078 75387838 		.ascii	"u8x8_cad_StartTransfer\000"
 595      5F636164 
 595      5F537461 
 595      72745472 
 595      616E7366 
 596 008f 00       		.ascii	"\000"
 597 0090 02       		.ascii	"\002"
 598 0091 00       		.ascii	"\000"
 599 0092 00000000 		.ascii	"\000\000\000\000\000\000\000\000"
 599      00000000 
 600 009a 52010000 		.ascii	"R\001\000\000"
 601 009e 75387838 		.ascii	"u8x8_cad_SendCmd\000"
 601      5F636164 
 601      5F53656E 
 601      64436D64 
 601      00
 602 00af 00       		.ascii	"\000"
 603 00b0 02       		.ascii	"\002"
 604 00b1 00       		.ascii	"\000"
 605 00b2 00000000 		.ascii	"\000\000\000\000\000\000\000\000"
 605      00000000 
 606 00ba 58010000 		.ascii	"X\001\000\000"
 607 00be 75387838 		.ascii	"u8x8_cad_SendData\000"
 607      5F636164 
 607      5F53656E 
 607      64446174 
 607      6100
 608 00d0 00       		.ascii	"\000"
 609 00d1 02       		.ascii	"\002"
 610 00d2 00       		.ascii	"\000"
 611 00d3 00000000 		.ascii	"\000\000\000\000\000\000\000\000"
 611      00000000 
 612 00db 5F010000 		.ascii	"_\001\000\000"
 613 00df 75387838 		.ascii	"u8x8_cad_EndTransfer\000"
 613      5F636164 
 613      5F456E64 
 613      5472616E 
 613      73666572 
 614 00f4 00       		.ascii	"\000"
 615 00f5 02       		.ascii	"\002"
 616 00f6 00       		.ascii	"\000"
 617 00f7 00000000 		.ascii	"\000\000\000\000\000\000\000\000"
 617      00000000 
 618 00ff 62010000 		.ascii	"b\001\000\000"
 619 0103 75387838 		.ascii	"u8x8_d_helper_display_init\000"
 619      5F645F68 
 619      656C7065 
 619      725F6469 
 619      73706C61 
 620 011e 00       		.ascii	"\000"
 621 011f 02       		.ascii	"\002"
 622 0120 00       		.ascii	"\000"
ARM GAS  C:\Users\gjl\AppData\Local\Temp\ccIJCYYn.s 			page 47


 623 0121 00000000 		.ascii	"\000\000\000\000\000\000\000\000"
 623      00000000 
 624 0129 66010000 		.ascii	"f\001\000\000"
 625 012d 75387838 		.ascii	"u8x8_d_helper_display_setup_memory\000"
 625      5F645F68 
 625      656C7065 
 625      725F6469 
 625      73706C61 
 626 0150 00       		.ascii	"\000"
 627 0151 02       		.ascii	"\002"
 628 0152 00       		.ascii	"\000"
 629 0153 00000000 		.ascii	"\000\000\000\000\000\000\000\000"
 629      00000000 
 630 015b 6B010000 		.ascii	"k\001\000\000"
 631              		.text
 632              		.section	.gnu.lto_.opts,"",%progbits
 633 0000 272D666D 		.ascii	"'-fmath-errno' '-fsigned-zeros' '-ftrapping-math' '"
 633      6174682D 
 633      6572726E 
 633      6F272027 
 633      2D667369 
 634 0033 2D666E6F 		.ascii	"-fno-trapv' '-fno-openmp' '-fno-openacc' '-mcpu=cor"
 634      2D747261 
 634      70762720 
 634      272D666E 
 634      6F2D6F70 
 635 0066 7465782D 		.ascii	"tex-m0' '-mthumb' '-g' '-Os' '-ffunction-sections' "
 635      6D302720 
 635      272D6D74 
 635      68756D62 
 635      2720272D 
 636 0099 272D6666 		.ascii	"'-ffat-lto-objects' '-flto'\000"
 636      61742D6C 
 636      746F2D6F 
 636      626A6563 
 636      74732720 
 637              		.text
 638              		.cfi_sections	.debug_frame
 639              		.section	.text.get_delay_in_milliseconds,"ax",%progbits
 640              		.align	1
 641              		.global	get_delay_in_milliseconds
 642              		.code	16
 643              		.thumb_func
 644              		.type	get_delay_in_milliseconds, %function
 645              	get_delay_in_milliseconds:
 646              	.LFB0:
 647              		.file 1 "..\\u8g2\\csrc\\u8x8_d_a2printer.c"
   1:..\u8g2\csrc/u8x8_d_a2printer.c **** /*
   2:..\u8g2\csrc/u8x8_d_a2printer.c **** 
   3:..\u8g2\csrc/u8x8_d_a2printer.c ****   u8x8_d_a2printer.c
   4:..\u8g2\csrc/u8x8_d_a2printer.c ****   
   5:..\u8g2\csrc/u8x8_d_a2printer.c ****   Universal 8bit Graphics Library (https://github.com/olikraus/u8g2/)
   6:..\u8g2\csrc/u8x8_d_a2printer.c **** 
   7:..\u8g2\csrc/u8x8_d_a2printer.c ****   Copyright (c) 2016, olikraus@gmail.com
   8:..\u8g2\csrc/u8x8_d_a2printer.c ****   All rights reserved.
   9:..\u8g2\csrc/u8x8_d_a2printer.c **** 
  10:..\u8g2\csrc/u8x8_d_a2printer.c ****   Redistribution and use in source and binary forms, with or without modification, 
ARM GAS  C:\Users\gjl\AppData\Local\Temp\ccIJCYYn.s 			page 48


  11:..\u8g2\csrc/u8x8_d_a2printer.c ****   are permitted provided that the following conditions are met:
  12:..\u8g2\csrc/u8x8_d_a2printer.c **** 
  13:..\u8g2\csrc/u8x8_d_a2printer.c ****   * Redistributions of source code must retain the above copyright notice, this list 
  14:..\u8g2\csrc/u8x8_d_a2printer.c ****     of conditions and the following disclaimer.
  15:..\u8g2\csrc/u8x8_d_a2printer.c ****     
  16:..\u8g2\csrc/u8x8_d_a2printer.c ****   * Redistributions in binary form must reproduce the above copyright notice, this 
  17:..\u8g2\csrc/u8x8_d_a2printer.c ****     list of conditions and the following disclaimer in the documentation and/or other 
  18:..\u8g2\csrc/u8x8_d_a2printer.c ****     materials provided with the distribution.
  19:..\u8g2\csrc/u8x8_d_a2printer.c **** 
  20:..\u8g2\csrc/u8x8_d_a2printer.c ****   THIS SOFTWARE IS PROVIDED BY THE COPYRIGHT HOLDERS AND 
  21:..\u8g2\csrc/u8x8_d_a2printer.c ****   CONTRIBUTORS "AS IS" AND ANY EXPRESS OR IMPLIED WARRANTIES, 
  22:..\u8g2\csrc/u8x8_d_a2printer.c ****   INCLUDING, BUT NOT LIMITED TO, THE IMPLIED WARRANTIES OF 
  23:..\u8g2\csrc/u8x8_d_a2printer.c ****   MERCHANTABILITY AND FITNESS FOR A PARTICULAR PURPOSE ARE 
  24:..\u8g2\csrc/u8x8_d_a2printer.c ****   DISCLAIMED. IN NO EVENT SHALL THE COPYRIGHT HOLDER OR 
  25:..\u8g2\csrc/u8x8_d_a2printer.c ****   CONTRIBUTORS BE LIABLE FOR ANY DIRECT, INDIRECT, INCIDENTAL, 
  26:..\u8g2\csrc/u8x8_d_a2printer.c ****   SPECIAL, EXEMPLARY, OR CONSEQUENTIAL DAMAGES (INCLUDING, BUT 
  27:..\u8g2\csrc/u8x8_d_a2printer.c ****   NOT LIMITED TO, PROCUREMENT OF SUBSTITUTE GOODS OR SERVICES; 
  28:..\u8g2\csrc/u8x8_d_a2printer.c ****   LOSS OF USE, DATA, OR PROFITS; OR BUSINESS INTERRUPTION) HOWEVER 
  29:..\u8g2\csrc/u8x8_d_a2printer.c ****   CAUSED AND ON ANY THEORY OF LIABILITY, WHETHER IN CONTRACT, 
  30:..\u8g2\csrc/u8x8_d_a2printer.c ****   STRICT LIABILITY, OR TORT (INCLUDING NEGLIGENCE OR OTHERWISE) 
  31:..\u8g2\csrc/u8x8_d_a2printer.c ****   ARISING IN ANY WAY OUT OF THE USE OF THIS SOFTWARE, EVEN IF 
  32:..\u8g2\csrc/u8x8_d_a2printer.c ****   ADVISED OF THE POSSIBILITY OF SUCH DAMAGE.  
  33:..\u8g2\csrc/u8x8_d_a2printer.c **** 
  34:..\u8g2\csrc/u8x8_d_a2printer.c **** 
  35:..\u8g2\csrc/u8x8_d_a2printer.c ****   Use DC2 bitmap command of the A2 Micro panel termal printer
  36:..\u8g2\csrc/u8x8_d_a2printer.c ****   double stroke
  37:..\u8g2\csrc/u8x8_d_a2printer.c ****   
  38:..\u8g2\csrc/u8x8_d_a2printer.c ****   
  39:..\u8g2\csrc/u8x8_d_a2printer.c **** */
  40:..\u8g2\csrc/u8x8_d_a2printer.c **** 
  41:..\u8g2\csrc/u8x8_d_a2printer.c **** 
  42:..\u8g2\csrc/u8x8_d_a2printer.c **** #include "u8x8.h"
  43:..\u8g2\csrc/u8x8_d_a2printer.c **** 
  44:..\u8g2\csrc/u8x8_d_a2printer.c **** #define LINE_MIN_DELAY_MS 15
  45:..\u8g2\csrc/u8x8_d_a2printer.c **** /* higher values improve quality */
  46:..\u8g2\csrc/u8x8_d_a2printer.c **** /* however if the value is too high (>=5) then form feed does not work any more */
  47:..\u8g2\csrc/u8x8_d_a2printer.c **** #define LINE_EXTRA_8PIXEL_DELAY_MS 3
  48:..\u8g2\csrc/u8x8_d_a2printer.c **** /* this must be a power of two and between 1 and 8 */
  49:..\u8g2\csrc/u8x8_d_a2printer.c **** /* best quality only with 1 */
  50:..\u8g2\csrc/u8x8_d_a2printer.c **** #define NO_OF_LINES_TO_SEND_WITHOUT_DELAY 1
  51:..\u8g2\csrc/u8x8_d_a2printer.c **** 
  52:..\u8g2\csrc/u8x8_d_a2printer.c **** /* calculates the delay, based on the number of black pixel */
  53:..\u8g2\csrc/u8x8_d_a2printer.c **** /* actually only "none-zero" bytes are calculated which is, of course not so accurate, but should b
  54:..\u8g2\csrc/u8x8_d_a2printer.c **** uint16_t get_delay_in_milliseconds(uint8_t cnt, uint8_t *data)
  55:..\u8g2\csrc/u8x8_d_a2printer.c **** {
 648              		.loc 1 55 0
 649              		.cfi_startproc
 650              		@ args = 0, pretend = 0, frame = 0
 651              		@ frame_needed = 0, uses_anonymous_args = 0
 652              		@ link register save eliminated.
 653              	.LVL0:
 654 0000 0B18     		adds	r3, r1, r0
  56:..\u8g2\csrc/u8x8_d_a2printer.c ****   uint8_t i;
  57:..\u8g2\csrc/u8x8_d_a2printer.c ****   uint16_t time = LINE_MIN_DELAY_MS;
 655              		.loc 1 57 0
 656 0002 0F20     		movs	r0, #15
 657              	.LVL1:
ARM GAS  C:\Users\gjl\AppData\Local\Temp\ccIJCYYn.s 			page 49


 658              	.L2:
  58:..\u8g2\csrc/u8x8_d_a2printer.c ****   for ( i = 0; i < cnt; i++ )
 659              		.loc 1 58 0 discriminator 1
 660 0004 9942     		cmp	r1, r3
 661 0006 06D0     		beq	.L9
  59:..\u8g2\csrc/u8x8_d_a2printer.c ****     if ( data[i] != 0 )
 662              		.loc 1 59 0
 663 0008 0A78     		ldrb	r2, [r1]
 664 000a 002A     		cmp	r2, #0
 665 000c 01D0     		beq	.L3
  60:..\u8g2\csrc/u8x8_d_a2printer.c ****       time += LINE_EXTRA_8PIXEL_DELAY_MS;
 666              		.loc 1 60 0
 667 000e 0330     		adds	r0, r0, #3
 668              	.LVL2:
 669 0010 80B2     		uxth	r0, r0
 670              	.LVL3:
 671              	.L3:
 672 0012 0131     		adds	r1, r1, #1
 673              	.LVL4:
 674 0014 F6E7     		b	.L2
 675              	.LVL5:
 676              	.L9:
  61:..\u8g2\csrc/u8x8_d_a2printer.c ****   return time;
  62:..\u8g2\csrc/u8x8_d_a2printer.c **** }
 677              		.loc 1 62 0
 678              		@ sp needed
 679 0016 7047     		bx	lr
 680              		.cfi_endproc
 681              	.LFE0:
 682              		.size	get_delay_in_milliseconds, .-get_delay_in_milliseconds
 683              		.section	.text.u8x8_d_a2printer_common,"ax",%progbits
 684              		.align	1
 685              		.global	u8x8_d_a2printer_common
 686              		.code	16
 687              		.thumb_func
 688              		.type	u8x8_d_a2printer_common, %function
 689              	u8x8_d_a2printer_common:
 690              	.LFB1:
  63:..\u8g2\csrc/u8x8_d_a2printer.c **** 
  64:..\u8g2\csrc/u8x8_d_a2printer.c **** uint8_t u8x8_d_a2printer_common(u8x8_t *u8x8, uint8_t msg, U8X8_UNUSED uint8_t arg_int, void *arg_p
  65:..\u8g2\csrc/u8x8_d_a2printer.c **** {
 691              		.loc 1 65 0
 692              		.cfi_startproc
 693              		@ args = 0, pretend = 0, frame = 8
 694              		@ frame_needed = 0, uses_anonymous_args = 0
 695              	.LVL6:
 696 0000 F7B5     		push	{r0, r1, r2, r4, r5, r6, r7, lr}
 697              		.cfi_def_cfa_offset 32
 698              		.cfi_offset 0, -32
 699              		.cfi_offset 1, -28
 700              		.cfi_offset 2, -24
 701              		.cfi_offset 4, -20
 702              		.cfi_offset 5, -16
 703              		.cfi_offset 6, -12
 704              		.cfi_offset 7, -8
 705              		.cfi_offset 14, -4
 706              		.loc 1 65 0
ARM GAS  C:\Users\gjl\AppData\Local\Temp\ccIJCYYn.s 			page 50


 707 0002 0400     		movs	r4, r0
 708 0004 1D00     		movs	r5, r3
  66:..\u8g2\csrc/u8x8_d_a2printer.c ****   uint8_t c, i, j;
  67:..\u8g2\csrc/u8x8_d_a2printer.c ****   uint8_t *ptr;
  68:..\u8g2\csrc/u8x8_d_a2printer.c ****   uint16_t delay_in_milliseconds;
  69:..\u8g2\csrc/u8x8_d_a2printer.c ****   switch(msg)
  70:..\u8g2\csrc/u8x8_d_a2printer.c ****   {
  71:..\u8g2\csrc/u8x8_d_a2printer.c ****     /* U8X8_MSG_DISPLAY_SETUP_MEMORY is handled by the calling function */
  72:..\u8g2\csrc/u8x8_d_a2printer.c ****     /*
  73:..\u8g2\csrc/u8x8_d_a2printer.c ****     case U8X8_MSG_DISPLAY_SETUP_MEMORY:
  74:..\u8g2\csrc/u8x8_d_a2printer.c ****       break;
  75:..\u8g2\csrc/u8x8_d_a2printer.c ****     */
  76:..\u8g2\csrc/u8x8_d_a2printer.c ****     case U8X8_MSG_DISPLAY_INIT:
  77:..\u8g2\csrc/u8x8_d_a2printer.c ****       u8x8_d_helper_display_init(u8x8);
  78:..\u8g2\csrc/u8x8_d_a2printer.c ****       // no setup required
  79:..\u8g2\csrc/u8x8_d_a2printer.c ****       // u8x8_cad_SendSequence(u8x8, u8x8_d_a2printer_init_seq);
  80:..\u8g2\csrc/u8x8_d_a2printer.c ****       break;
  81:..\u8g2\csrc/u8x8_d_a2printer.c ****     case U8X8_MSG_DISPLAY_SET_POWER_SAVE:
  82:..\u8g2\csrc/u8x8_d_a2printer.c ****       // no powersave 
  83:..\u8g2\csrc/u8x8_d_a2printer.c ****       break;
  84:..\u8g2\csrc/u8x8_d_a2printer.c ****     case U8X8_MSG_DISPLAY_DRAW_TILE:
  85:..\u8g2\csrc/u8x8_d_a2printer.c ****       u8x8_cad_StartTransfer(u8x8);
  86:..\u8g2\csrc/u8x8_d_a2printer.c ****       
  87:..\u8g2\csrc/u8x8_d_a2printer.c ****       u8x8_cad_SendCmd(u8x8, 27);      /* ESC */
  88:..\u8g2\csrc/u8x8_d_a2printer.c ****       u8x8_cad_SendCmd(u8x8, 55 );      /* parameter command */
  89:..\u8g2\csrc/u8x8_d_a2printer.c ****       /* increasing the "max printing dots" requires a good power supply, but LINE_EXTRA_8PIXEL_DEL
  90:..\u8g2\csrc/u8x8_d_a2printer.c ****       u8x8_cad_SendCmd(u8x8, 0);      /* Max printing dots,Unit(8dots),Default:7(64 dots) 8*(x+1) .
  91:..\u8g2\csrc/u8x8_d_a2printer.c ****       u8x8_cad_SendCmd(u8x8, 200);      /* 3-255 Heating time,Unit(10us),Default:80(800us) */
  92:..\u8g2\csrc/u8x8_d_a2printer.c ****       u8x8_cad_SendCmd(u8x8, 2);      /* 0-255 Heating interval,Unit(10us),Default:2(20us) ... does
  93:..\u8g2\csrc/u8x8_d_a2printer.c ****       
  94:..\u8g2\csrc/u8x8_d_a2printer.c ****       //c = ((u8x8_tile_t *)arg_ptr)->cnt;	/* number of tiles */
  95:..\u8g2\csrc/u8x8_d_a2printer.c ****       c = u8x8->display_info->tile_width;
  96:..\u8g2\csrc/u8x8_d_a2printer.c ****       ptr = ((u8x8_tile_t *)arg_ptr)->tile_ptr;	/* data ptr to the tiles */
  97:..\u8g2\csrc/u8x8_d_a2printer.c ****     
  98:..\u8g2\csrc/u8x8_d_a2printer.c ****       u8x8_cad_SendCmd(u8x8, 18);      /* DC2 */
  99:..\u8g2\csrc/u8x8_d_a2printer.c ****       u8x8_cad_SendCmd(u8x8, 42 );      /* *  */
 100:..\u8g2\csrc/u8x8_d_a2printer.c ****       u8x8_cad_SendCmd(u8x8, 8 ); 	/* height */
 101:..\u8g2\csrc/u8x8_d_a2printer.c ****       u8x8_cad_SendCmd(u8x8, c ); 	/* c, u8x8->display_info->tile_width */
 102:..\u8g2\csrc/u8x8_d_a2printer.c ****       
 103:..\u8g2\csrc/u8x8_d_a2printer.c ****       for( j = 0; j < 8 / NO_OF_LINES_TO_SEND_WITHOUT_DELAY; j ++ )
 104:..\u8g2\csrc/u8x8_d_a2printer.c ****       {
 105:..\u8g2\csrc/u8x8_d_a2printer.c **** 
 106:..\u8g2\csrc/u8x8_d_a2printer.c **** 	delay_in_milliseconds = 0;
 107:..\u8g2\csrc/u8x8_d_a2printer.c **** 	for( i = 0; i < NO_OF_LINES_TO_SEND_WITHOUT_DELAY; i++ )
 108:..\u8g2\csrc/u8x8_d_a2printer.c **** 	{
 109:..\u8g2\csrc/u8x8_d_a2printer.c **** 	  u8x8_cad_SendData(u8x8, c, ptr);	/* c, note: SendData can not handle more than 255 bytes, send o
 110:..\u8g2\csrc/u8x8_d_a2printer.c **** 	  delay_in_milliseconds += get_delay_in_milliseconds(c, ptr);
 111:..\u8g2\csrc/u8x8_d_a2printer.c **** 	  ptr += c;
 112:..\u8g2\csrc/u8x8_d_a2printer.c **** 	}
 113:..\u8g2\csrc/u8x8_d_a2printer.c **** 	
 114:..\u8g2\csrc/u8x8_d_a2printer.c **** 	while( delay_in_milliseconds > 200 )
 115:..\u8g2\csrc/u8x8_d_a2printer.c **** 	{
 116:..\u8g2\csrc/u8x8_d_a2printer.c **** 	  u8x8->gpio_and_delay_cb(u8x8, U8X8_MSG_DELAY_MILLI, 200, NULL);	
 117:..\u8g2\csrc/u8x8_d_a2printer.c **** 	  delay_in_milliseconds -= 200;
 118:..\u8g2\csrc/u8x8_d_a2printer.c **** 	}
 119:..\u8g2\csrc/u8x8_d_a2printer.c **** 	u8x8->gpio_and_delay_cb(u8x8, U8X8_MSG_DELAY_MILLI, delay_in_milliseconds, NULL);	
 120:..\u8g2\csrc/u8x8_d_a2printer.c ****       }
ARM GAS  C:\Users\gjl\AppData\Local\Temp\ccIJCYYn.s 			page 51


 121:..\u8g2\csrc/u8x8_d_a2printer.c **** 
 122:..\u8g2\csrc/u8x8_d_a2printer.c ****       /* set parameters back to their default values */
 123:..\u8g2\csrc/u8x8_d_a2printer.c ****       u8x8_cad_SendCmd(u8x8, 27);      /* ESC */
 124:..\u8g2\csrc/u8x8_d_a2printer.c ****       u8x8_cad_SendCmd(u8x8, 55 );      /* parameter command */
 125:..\u8g2\csrc/u8x8_d_a2printer.c ****       u8x8_cad_SendCmd(u8x8, 7);      /* Max printing dots,Unit(8dots),Default:7(64 dots) 8*(x+1)*/
 126:..\u8g2\csrc/u8x8_d_a2printer.c ****       u8x8_cad_SendCmd(u8x8, 80);      /* 3-255 Heating time,Unit(10us),Default:80(800us) */
 127:..\u8g2\csrc/u8x8_d_a2printer.c ****       u8x8_cad_SendCmd(u8x8, 2);      /* 0-255 Heating interval,Unit(10us),Default:2(20us)*/
 128:..\u8g2\csrc/u8x8_d_a2printer.c **** 
 129:..\u8g2\csrc/u8x8_d_a2printer.c ****       u8x8_cad_EndTransfer(u8x8);
 130:..\u8g2\csrc/u8x8_d_a2printer.c **** 
 131:..\u8g2\csrc/u8x8_d_a2printer.c ****       break;
 132:..\u8g2\csrc/u8x8_d_a2printer.c ****     default:
 133:..\u8g2\csrc/u8x8_d_a2printer.c ****       return 0;
 134:..\u8g2\csrc/u8x8_d_a2printer.c ****   }
 135:..\u8g2\csrc/u8x8_d_a2printer.c ****   return 1;
 709              		.loc 1 135 0
 710 0006 0120     		movs	r0, #1
 711              	.LVL7:
  69:..\u8g2\csrc/u8x8_d_a2printer.c ****   {
 712              		.loc 1 69 0
 713 0008 0B29     		cmp	r1, #11
 714 000a 71D0     		beq	.L11
 715 000c 0F29     		cmp	r1, #15
 716 000e 06D0     		beq	.L13
 133:..\u8g2\csrc/u8x8_d_a2printer.c ****   }
 717              		.loc 1 133 0
 718 0010 0020     		movs	r0, #0
  69:..\u8g2\csrc/u8x8_d_a2printer.c ****   {
 719              		.loc 1 69 0
 720 0012 0A29     		cmp	r1, #10
 721 0014 6CD1     		bne	.L11
  77:..\u8g2\csrc/u8x8_d_a2printer.c ****       // no setup required
 722              		.loc 1 77 0
 723 0016 2000     		movs	r0, r4
 724 0018 FFF7FEFF 		bl	u8x8_d_helper_display_init
 725              	.LVL8:
 726 001c 67E0     		b	.L21
 727              	.LVL9:
 728              	.L13:
 729              	.LBB4:
 730              	.LBB5:
  85:..\u8g2\csrc/u8x8_d_a2printer.c ****       
 731              		.loc 1 85 0
 732 001e 2000     		movs	r0, r4
 733 0020 FFF7FEFF 		bl	u8x8_cad_StartTransfer
 734              	.LVL10:
  87:..\u8g2\csrc/u8x8_d_a2printer.c ****       u8x8_cad_SendCmd(u8x8, 55 );      /* parameter command */
 735              		.loc 1 87 0
 736 0024 1B21     		movs	r1, #27
 737 0026 2000     		movs	r0, r4
 738 0028 FFF7FEFF 		bl	u8x8_cad_SendCmd
 739              	.LVL11:
  88:..\u8g2\csrc/u8x8_d_a2printer.c ****       /* increasing the "max printing dots" requires a good power supply, but LINE_EXTRA_8PIXEL_DEL
 740              		.loc 1 88 0
 741 002c 3721     		movs	r1, #55
 742 002e 2000     		movs	r0, r4
 743 0030 FFF7FEFF 		bl	u8x8_cad_SendCmd
ARM GAS  C:\Users\gjl\AppData\Local\Temp\ccIJCYYn.s 			page 52


 744              	.LVL12:
  90:..\u8g2\csrc/u8x8_d_a2printer.c ****       u8x8_cad_SendCmd(u8x8, 200);      /* 3-255 Heating time,Unit(10us),Default:80(800us) */
 745              		.loc 1 90 0
 746 0034 0021     		movs	r1, #0
 747 0036 2000     		movs	r0, r4
 748 0038 FFF7FEFF 		bl	u8x8_cad_SendCmd
 749              	.LVL13:
  91:..\u8g2\csrc/u8x8_d_a2printer.c ****       u8x8_cad_SendCmd(u8x8, 2);      /* 0-255 Heating interval,Unit(10us),Default:2(20us) ... does
 750              		.loc 1 91 0
 751 003c C821     		movs	r1, #200
 752 003e 2000     		movs	r0, r4
 753 0040 FFF7FEFF 		bl	u8x8_cad_SendCmd
 754              	.LVL14:
  92:..\u8g2\csrc/u8x8_d_a2printer.c ****       
 755              		.loc 1 92 0
 756 0044 0221     		movs	r1, #2
 757 0046 2000     		movs	r0, r4
 758 0048 FFF7FEFF 		bl	u8x8_cad_SendCmd
 759              	.LVL15:
  95:..\u8g2\csrc/u8x8_d_a2printer.c ****       ptr = ((u8x8_tile_t *)arg_ptr)->tile_ptr;	/* data ptr to the tiles */
 760              		.loc 1 95 0
 761 004c 2368     		ldr	r3, [r4]
  98:..\u8g2\csrc/u8x8_d_a2printer.c ****       u8x8_cad_SendCmd(u8x8, 42 );      /* *  */
 762              		.loc 1 98 0
 763 004e 1221     		movs	r1, #18
  95:..\u8g2\csrc/u8x8_d_a2printer.c ****       ptr = ((u8x8_tile_t *)arg_ptr)->tile_ptr;	/* data ptr to the tiles */
 764              		.loc 1 95 0
 765 0050 1F7C     		ldrb	r7, [r3, #16]
 766              	.LVL16:
  96:..\u8g2\csrc/u8x8_d_a2printer.c ****     
 767              		.loc 1 96 0
 768 0052 2B68     		ldr	r3, [r5]
  98:..\u8g2\csrc/u8x8_d_a2printer.c ****       u8x8_cad_SendCmd(u8x8, 42 );      /* *  */
 769              		.loc 1 98 0
 770 0054 2000     		movs	r0, r4
  96:..\u8g2\csrc/u8x8_d_a2printer.c ****     
 771              		.loc 1 96 0
 772 0056 0093     		str	r3, [sp]
 773              	.LVL17:
  98:..\u8g2\csrc/u8x8_d_a2printer.c ****       u8x8_cad_SendCmd(u8x8, 42 );      /* *  */
 774              		.loc 1 98 0
 775 0058 FFF7FEFF 		bl	u8x8_cad_SendCmd
 776              	.LVL18:
  99:..\u8g2\csrc/u8x8_d_a2printer.c ****       u8x8_cad_SendCmd(u8x8, 8 ); 	/* height */
 777              		.loc 1 99 0
 778 005c 2A21     		movs	r1, #42
 779 005e 2000     		movs	r0, r4
 780 0060 FFF7FEFF 		bl	u8x8_cad_SendCmd
 781              	.LVL19:
 100:..\u8g2\csrc/u8x8_d_a2printer.c ****       u8x8_cad_SendCmd(u8x8, c ); 	/* c, u8x8->display_info->tile_width */
 782              		.loc 1 100 0
 783 0064 0821     		movs	r1, #8
 784 0066 2000     		movs	r0, r4
 785 0068 FFF7FEFF 		bl	u8x8_cad_SendCmd
 786              	.LVL20:
 101:..\u8g2\csrc/u8x8_d_a2printer.c ****       
 787              		.loc 1 101 0
ARM GAS  C:\Users\gjl\AppData\Local\Temp\ccIJCYYn.s 			page 53


 788 006c 3900     		movs	r1, r7
 789 006e 2000     		movs	r0, r4
 790 0070 FFF7FEFF 		bl	u8x8_cad_SendCmd
 791              	.LVL21:
 792 0074 0823     		movs	r3, #8
 793 0076 0193     		str	r3, [sp, #4]
 794              	.LVL22:
 795              	.L15:
 109:..\u8g2\csrc/u8x8_d_a2printer.c **** 	  delay_in_milliseconds += get_delay_in_milliseconds(c, ptr);
 796              		.loc 1 109 0
 797 0078 009A     		ldr	r2, [sp]
 798 007a 3900     		movs	r1, r7
 799 007c 2000     		movs	r0, r4
 800 007e FFF7FEFF 		bl	u8x8_cad_SendData
 801              	.LVL23:
 110:..\u8g2\csrc/u8x8_d_a2printer.c **** 	  ptr += c;
 802              		.loc 1 110 0
 803 0082 0099     		ldr	r1, [sp]
 804 0084 3800     		movs	r0, r7
 805 0086 FFF7FEFF 		bl	get_delay_in_milliseconds
 806              	.LVL24:
 807 008a 0500     		movs	r5, r0
 808              	.LVL25:
 809 008c 009B     		ldr	r3, [sp]
 810 008e DB19     		adds	r3, r3, r7
 811 0090 0093     		str	r3, [sp]
 812              	.LVL26:
 813              	.L18:
 814 0092 6369     		ldr	r3, [r4, #20]
 815 0094 1E00     		movs	r6, r3
 114:..\u8g2\csrc/u8x8_d_a2printer.c **** 	{
 816              		.loc 1 114 0
 817 0096 C82D     		cmp	r5, #200
 818 0098 07D9     		bls	.L22
 116:..\u8g2\csrc/u8x8_d_a2printer.c **** 	  delay_in_milliseconds -= 200;
 819              		.loc 1 116 0
 820 009a 0023     		movs	r3, #0
 821 009c C822     		movs	r2, #200
 822 009e 2921     		movs	r1, #41
 823 00a0 2000     		movs	r0, r4
 117:..\u8g2\csrc/u8x8_d_a2printer.c **** 	}
 824              		.loc 1 117 0
 825 00a2 C83D     		subs	r5, r5, #200
 826              	.LVL27:
 116:..\u8g2\csrc/u8x8_d_a2printer.c **** 	  delay_in_milliseconds -= 200;
 827              		.loc 1 116 0
 828 00a4 B047     		blx	r6
 829              	.LVL28:
 117:..\u8g2\csrc/u8x8_d_a2printer.c **** 	}
 830              		.loc 1 117 0
 831 00a6 ADB2     		uxth	r5, r5
 832              	.LVL29:
 833 00a8 F3E7     		b	.L18
 834              	.L22:
 119:..\u8g2\csrc/u8x8_d_a2printer.c ****       }
 835              		.loc 1 119 0
 836 00aa 0023     		movs	r3, #0
ARM GAS  C:\Users\gjl\AppData\Local\Temp\ccIJCYYn.s 			page 54


 837 00ac EAB2     		uxtb	r2, r5
 838 00ae 2921     		movs	r1, #41
 839 00b0 2000     		movs	r0, r4
 840 00b2 B047     		blx	r6
 841              	.LVL30:
 842 00b4 019B     		ldr	r3, [sp, #4]
 843 00b6 013B     		subs	r3, r3, #1
 844 00b8 DBB2     		uxtb	r3, r3
 845 00ba 0193     		str	r3, [sp, #4]
 846              	.LVL31:
 103:..\u8g2\csrc/u8x8_d_a2printer.c ****       {
 847              		.loc 1 103 0
 848 00bc 002B     		cmp	r3, #0
 849 00be DBD1     		bne	.L15
 123:..\u8g2\csrc/u8x8_d_a2printer.c ****       u8x8_cad_SendCmd(u8x8, 55 );      /* parameter command */
 850              		.loc 1 123 0
 851 00c0 1B21     		movs	r1, #27
 852 00c2 2000     		movs	r0, r4
 853 00c4 FFF7FEFF 		bl	u8x8_cad_SendCmd
 854              	.LVL32:
 124:..\u8g2\csrc/u8x8_d_a2printer.c ****       u8x8_cad_SendCmd(u8x8, 7);      /* Max printing dots,Unit(8dots),Default:7(64 dots) 8*(x+1)*/
 855              		.loc 1 124 0
 856 00c8 3721     		movs	r1, #55
 857 00ca 2000     		movs	r0, r4
 858 00cc FFF7FEFF 		bl	u8x8_cad_SendCmd
 859              	.LVL33:
 125:..\u8g2\csrc/u8x8_d_a2printer.c ****       u8x8_cad_SendCmd(u8x8, 80);      /* 3-255 Heating time,Unit(10us),Default:80(800us) */
 860              		.loc 1 125 0
 861 00d0 0721     		movs	r1, #7
 862 00d2 2000     		movs	r0, r4
 863 00d4 FFF7FEFF 		bl	u8x8_cad_SendCmd
 864              	.LVL34:
 126:..\u8g2\csrc/u8x8_d_a2printer.c ****       u8x8_cad_SendCmd(u8x8, 2);      /* 0-255 Heating interval,Unit(10us),Default:2(20us)*/
 865              		.loc 1 126 0
 866 00d8 5021     		movs	r1, #80
 867 00da 2000     		movs	r0, r4
 868 00dc FFF7FEFF 		bl	u8x8_cad_SendCmd
 869              	.LVL35:
 127:..\u8g2\csrc/u8x8_d_a2printer.c **** 
 870              		.loc 1 127 0
 871 00e0 0221     		movs	r1, #2
 872 00e2 2000     		movs	r0, r4
 873 00e4 FFF7FEFF 		bl	u8x8_cad_SendCmd
 874              	.LVL36:
 129:..\u8g2\csrc/u8x8_d_a2printer.c **** 
 875              		.loc 1 129 0
 876 00e8 2000     		movs	r0, r4
 877 00ea FFF7FEFF 		bl	u8x8_cad_EndTransfer
 878              	.LVL37:
 879              	.L21:
 880 00ee 0120     		movs	r0, #1
 881              	.L11:
 882              	.LBE5:
 883              	.LBE4:
 136:..\u8g2\csrc/u8x8_d_a2printer.c **** }
 884              		.loc 1 136 0
 885              		@ sp needed
ARM GAS  C:\Users\gjl\AppData\Local\Temp\ccIJCYYn.s 			page 55


 886              	.LVL38:
 887 00f0 FEBD     		pop	{r1, r2, r3, r4, r5, r6, r7, pc}
 888              		.cfi_endproc
 889              	.LFE1:
 890              		.size	u8x8_d_a2printer_common, .-u8x8_d_a2printer_common
 891              		.section	.text.u8x8_d_a2printer_384x240,"ax",%progbits
 892              		.align	1
 893              		.global	u8x8_d_a2printer_384x240
 894              		.code	16
 895              		.thumb_func
 896              		.type	u8x8_d_a2printer_384x240, %function
 897              	u8x8_d_a2printer_384x240:
 898              	.LFB2:
 137:..\u8g2\csrc/u8x8_d_a2printer.c **** 
 138:..\u8g2\csrc/u8x8_d_a2printer.c **** 
 139:..\u8g2\csrc/u8x8_d_a2printer.c **** static const u8x8_display_info_t u8x8_a2printer_384x240_display_info =
 140:..\u8g2\csrc/u8x8_d_a2printer.c **** {
 141:..\u8g2\csrc/u8x8_d_a2printer.c ****   /* most of the settings are not required, because this is a serial RS232 printer */
 142:..\u8g2\csrc/u8x8_d_a2printer.c ****   
 143:..\u8g2\csrc/u8x8_d_a2printer.c ****   /* chip_enable_level = */ 1,
 144:..\u8g2\csrc/u8x8_d_a2printer.c ****   /* chip_disable_level = */ 0,
 145:..\u8g2\csrc/u8x8_d_a2printer.c ****   
 146:..\u8g2\csrc/u8x8_d_a2printer.c ****   /* post_chip_enable_wait_ns = */ 5,
 147:..\u8g2\csrc/u8x8_d_a2printer.c ****   /* pre_chip_disable_wait_ns = */ 5,
 148:..\u8g2\csrc/u8x8_d_a2printer.c ****   /* reset_pulse_width_ms = */ 1, 
 149:..\u8g2\csrc/u8x8_d_a2printer.c ****   /* post_reset_wait_ms = */ 6, 
 150:..\u8g2\csrc/u8x8_d_a2printer.c ****   /* sda_setup_time_ns = */ 20,		
 151:..\u8g2\csrc/u8x8_d_a2printer.c ****   /* sck_pulse_width_ns = */  140,	
 152:..\u8g2\csrc/u8x8_d_a2printer.c ****   /* sck_clock_hz = */ 1000000UL,	/* since Arduino 1.6.0, the SPI bus speed in Hz. Should be  10000
 153:..\u8g2\csrc/u8x8_d_a2printer.c ****   /* spi_mode = */ 0,		/* old: sck_takeover_edge, new: active high (bit 1), rising edge (bit 0) */
 154:..\u8g2\csrc/u8x8_d_a2printer.c ****   /* i2c_bus_clock_100kHz = */ 4,
 155:..\u8g2\csrc/u8x8_d_a2printer.c ****   /* data_setup_time_ns = */ 30,
 156:..\u8g2\csrc/u8x8_d_a2printer.c ****   /* write_pulse_width_ns = */ 40,
 157:..\u8g2\csrc/u8x8_d_a2printer.c ****   /* tile_width = */ 48,
 158:..\u8g2\csrc/u8x8_d_a2printer.c ****   /* tile_hight = */ 30,
 159:..\u8g2\csrc/u8x8_d_a2printer.c ****   /* default_x_offset = */ 0,
 160:..\u8g2\csrc/u8x8_d_a2printer.c ****   /* flipmode_x_offset = */ 0,
 161:..\u8g2\csrc/u8x8_d_a2printer.c ****   /* pixel_width = */ 384,
 162:..\u8g2\csrc/u8x8_d_a2printer.c ****   /* pixel_height = */ 240
 163:..\u8g2\csrc/u8x8_d_a2printer.c **** };
 164:..\u8g2\csrc/u8x8_d_a2printer.c **** 
 165:..\u8g2\csrc/u8x8_d_a2printer.c **** uint8_t u8x8_d_a2printer_384x240(u8x8_t *u8x8, uint8_t msg, uint8_t arg_int, void *arg_ptr)
 166:..\u8g2\csrc/u8x8_d_a2printer.c **** {
 899              		.loc 1 166 0
 900              		.cfi_startproc
 901              		@ args = 0, pretend = 0, frame = 0
 902              		@ frame_needed = 0, uses_anonymous_args = 0
 903              	.LVL39:
 904 0000 10B5     		push	{r4, lr}
 905              		.cfi_def_cfa_offset 8
 906              		.cfi_offset 4, -8
 907              		.cfi_offset 14, -4
 167:..\u8g2\csrc/u8x8_d_a2printer.c ****   switch(msg)
 908              		.loc 1 167 0
 909 0002 0929     		cmp	r1, #9
 910 0004 04D1     		bne	.L27
 168:..\u8g2\csrc/u8x8_d_a2printer.c ****   {
ARM GAS  C:\Users\gjl\AppData\Local\Temp\ccIJCYYn.s 			page 56


 169:..\u8g2\csrc/u8x8_d_a2printer.c ****     case U8X8_MSG_DISPLAY_SETUP_MEMORY:
 170:..\u8g2\csrc/u8x8_d_a2printer.c ****       u8x8_d_helper_display_setup_memory(u8x8, &u8x8_a2printer_384x240_display_info);
 911              		.loc 1 170 0
 912 0006 0449     		ldr	r1, .L28
 913              	.LVL40:
 914 0008 FFF7FEFF 		bl	u8x8_d_helper_display_setup_memory
 915              	.LVL41:
 171:..\u8g2\csrc/u8x8_d_a2printer.c ****       break;
 172:..\u8g2\csrc/u8x8_d_a2printer.c ****     default:
 173:..\u8g2\csrc/u8x8_d_a2printer.c ****       return u8x8_d_a2printer_common(u8x8, msg, arg_int, arg_ptr);
 174:..\u8g2\csrc/u8x8_d_a2printer.c ****   }
 175:..\u8g2\csrc/u8x8_d_a2printer.c ****   return 1;
 916              		.loc 1 175 0
 917 000c 0120     		movs	r0, #1
 918 000e 01E0     		b	.L26
 919              	.LVL42:
 920              	.L27:
 173:..\u8g2\csrc/u8x8_d_a2printer.c ****   }
 921              		.loc 1 173 0
 922 0010 FFF7FEFF 		bl	u8x8_d_a2printer_common
 923              	.LVL43:
 924              	.L26:
 176:..\u8g2\csrc/u8x8_d_a2printer.c **** }
 925              		.loc 1 176 0
 926              		@ sp needed
 927 0014 10BD     		pop	{r4, pc}
 928              	.L29:
 929 0016 C046     		.align	2
 930              	.L28:
 931 0018 00000000 		.word	.LANCHOR0
 932              		.cfi_endproc
 933              	.LFE2:
 934              		.size	u8x8_d_a2printer_384x240, .-u8x8_d_a2printer_384x240
 935              		.section	.rodata
 936              		.align	2
 937              		.set	.LANCHOR0,. + 0
 938              		.type	u8x8_a2printer_384x240_display_info, %object
 939              		.size	u8x8_a2printer_384x240_display_info, 24
 940              	u8x8_a2printer_384x240_display_info:
 941 0000 01       		.byte	1
 942 0001 00       		.byte	0
 943 0002 05       		.byte	5
 944 0003 05       		.byte	5
 945 0004 01       		.byte	1
 946 0005 06       		.byte	6
 947 0006 14       		.byte	20
 948 0007 8C       		.byte	-116
 949 0008 40420F00 		.word	1000000
 950 000c 00       		.byte	0
 951 000d 04       		.byte	4
 952 000e 1E       		.byte	30
 953 000f 28       		.byte	40
 954 0010 30       		.byte	48
 955 0011 1E       		.byte	30
 956 0012 00       		.byte	0
 957 0013 00       		.byte	0
 958 0014 8001     		.short	384
ARM GAS  C:\Users\gjl\AppData\Local\Temp\ccIJCYYn.s 			page 57


 959 0016 F000     		.short	240
 960              		.text
 961              	.Letext0:
 962              		.file 2 "c:\\program files (x86)\\cypress\\psoc creator\\4.1\\psoc creator\\import\\gnu\\arm\\5.4.
 963              		.file 3 "c:\\program files (x86)\\cypress\\psoc creator\\4.1\\psoc creator\\import\\gnu\\arm\\5.4.
 964              		.file 4 "..\\u8g2\\csrc\\u8x8.h"