ARM GAS  C:\Users\gjl\AppData\Local\Temp\cciLWtO0.s 			page 1


   1              		.syntax unified
   2              		.cpu cortex-m0
   3              		.fpu softvfp
   4              		.eabi_attribute 20, 1
   5              		.eabi_attribute 21, 1
   6              		.eabi_attribute 23, 3
   7              		.eabi_attribute 24, 1
   8              		.eabi_attribute 25, 1
   9              		.eabi_attribute 26, 1
  10              		.eabi_attribute 30, 4
  11              		.eabi_attribute 34, 0
  12              		.eabi_attribute 18, 4
  13              		.thumb
  14              		.syntax unified
  15              		.file	"u8x8_d_uc1701_mini12864.c"
  16              		.text
  17              	.Ltext0:
  18              		.section	.gnu.lto_.profile.1a3f30d,"",%progbits
  19 0000 789C6361 		.ascii	"x\234ca`d`e`\000\222o\030c\000\003\240\001U"
  19      60646065 
  19      6000926F 
  19      18630003 
  19      A00155
  20              		.text
  21              		.section	.gnu.lto_.icf.1a3f30d,"",%progbits
  22 0000 789C6361 		.ascii	"x\234ca`d\000\001m\006\004`g\270\376\362\372[>\306E"
  22      60640001 
  22      6D060460 
  22      67B8FEF2 
  22      FA5B3EC6 
  23 0015 6F7F1E62 		.ascii	"o\177\036bbj|\330\373\201\205\371\317\271g\217\331X"
  23      626A7CD8 
  23      FB8185F9 
  23      CFB9678F 
  23      D958
  24 0027 663D5D9B 		.ascii	"f=]\233\316\272\363\311\304\023Ll\347\227\315\333\315"
  24      CEBAF3C9 
  24      C4134C6C 
  24      E797CDDB 
  24      CD
  25 0038 CB0000F8 		.ascii	"\313\000\000\370\363\026\015"
  25      F3160D
  26              		.text
  27              		.section	.gnu.lto_.jmpfuncs.1a3f30d,"",%progbits
  28 0000 789C858E 		.ascii	"x\234\205\216;\016\3020\020D=\273KJ\302\001r1n\002U"
  28      3B0EC230 
  28      10443DBB 
  28      4B4AC201 
  28      72316E02 
  29 0015 8C500ADF 		.ascii	"\214P\012\337\200\033\360\347\012\320\244\347\030\364"
  29      801BF0E7 
  29      0AD0A4E7 
  29      18F4
  30 0023 2045428A 		.ascii	" EB\212`\027\013\323Dx\232\261g\337\330+\016\3164\213"
  30      60170BD3 
  30      44789AB1 
  30      67DFD82B 
ARM GAS  C:\Users\gjl\AppData\Local\Temp\cciLWtO0.s 			page 2


  30      0ECE348B 
  31 0037 F6119C40 		.ascii	"\366\021\234@U\326*\242\271EE\264(I\227\241\2235\020"
  31      55D62AA2 
  31      B94545B4 
  31      284997A1 
  31      933510
  32 004a ED97D3B4 		.ascii	"\355\227\323\264'\264\257\356R>\250a\007\302\032\025"
  32      27B4AFEE 
  32      523EA861 
  32      07C21A15 
  33 005a A531747A 		.ascii	"\2451tz\353\256\241\260)\260\0006\250\322S\022\315\240"
  33      EBAEA1B0 
  33      29B00036 
  33      A8D25312 
  33      CDA0
  34 006c E5F37C1F 		.ascii	"\345\363|\037\327\275_y?i\230\002[y\213\372?d\371.\007"
  34      D7BD5F79 
  34      3F699802 
  34      5B798BFA 
  34      3F64F92E 
  35 0081 E936D8E7 		.ascii	"\3516\330\347 \375\017\207/\344\206 \016,\232\037\015"
  35      20FD0F87 
  35      2FE48620 
  35      0E2C9A1F 
  35      0D
  36 0092 CAED2F81 		.ascii	"\312\355/\201G\232\237\224\205\226\336\027\303V("
  36      479A9F94 
  36      8596DE17 
  36      C35628
  37              		.text
  38              		.section	.gnu.lto_.inline.1a3f30d,"",%progbits
  39 0000 789C6DD0 		.ascii	"x\234m\320\261J\003A\020\006\340\371\347\366\2225\311"
  39      B14A0341 
  39      1006E0F9 
  39      E7F69235 
  39      C9
  40 0011 997B8040 		.ascii	"\231{\200@\316G\260\265\220{\202{\015A_b\013\323\312"
  40      CE47B0B5 
  40      907B827B 
  40      0D415F62 
  40      0BD3CA
  41 0024 D9588884 		.ascii	"\331X\210\204X\250\321\234Xj\004!\225]RZ\372\004\012"
  41      58A8D19C 
  41      586A0421 
  41      955D525A 
  41      FA040A
  42 0037 062C1411 		.ascii	"\006,\024\021\234\335=7\026n\261\363\357\267;0\254\""
  42      9CDD3D37 
  42      166EB1F3 
  42      EFB73B30 
  42      AC22
  43 0049 905DB7BE 		.ascii	"\220]\267\276\270%\361\231\266\320\202\336\375f\034"
  43      B825F199 
  43      B6D082DE 
  43      FD661C
  44 0058 CD0FEF1B 		.ascii	"\315\017\357\033\357<\210\2005\\\240G\236\347\247\325"
  44      EF3C8880 
ARM GAS  C:\Users\gjl\AppData\Local\Temp\cciLWtO0.s 			page 3


  44      355CA047 
  44      9EE7A7D5 
  45 0068 A2E616C6 		.ascii	"\242\346\026\306\201\277>\026\017M\317m\\\006~\233\236"
  45      81BF3E16 
  45      0F4DCF6D 
  45      5C067E9B 
  45      9E
  46 0079 8DD97382 		.ascii	"\215\331s\202\253\300\257O\223*\362\274\216I\340\352"
  46      ABC0AF4F 
  46      932AF2BC 
  46      8E49E0EA 
  47 0089 7C39EB7A 		.ascii	"|9\353z\356\242\022f\3077/\323\317\304r\014\302\265"
  47      EEA21266 
  47      C7372FD3 
  47      CFC4720C 
  47      C2B5
  48 009b E33D57A1 		.ascii	"\343=W\241ed\266[G\306o\214\372L\275\331\266\321\024"
  48      6564B65B 
  48      47C66F8C 
  48      FA4CBDD9 
  48      B6D114
  49 00ae 3FC6064C 		.ascii	"?\306\006L\033\303\035\003\342\0236iN\352N\2314#>\200"
  49      1BC31D03 
  49      E2133669 
  49      4EEA4E99 
  49      34233E80 
  50 00c2 51199312 		.ascii	"Q\031\223\022U\376\310\365\2213\377(\265\237\301m\222"
  50      55FEC8F5 
  50      9133FF28 
  50      B59FC16D 
  50      92
  51 00d3 5E94854A 		.ascii	"^\224\205J !:\336,\213\375f\324\261\312eQ\026\377\307"
  51      20213ADE 
  51      2C8BFD66 
  51      D4B1CA65 
  51      5116FFC7 
  52 00e7 D02621B7 		.ascii	"\320&!\267U\356\362\360\312%\372s\345F\020\262\221W"
  52      55EEF2F0 
  52      CA25FA73 
  52      E54610B2 
  52      9157
  53 00f9 51A52B0D 		.ascii	"Q\245+\015Q\3776\353\272Y9\240\037\366\023]\026"
  53      51FF36EB 
  53      BA5939A0 
  53      1FF6135D 
  53      16
  54              		.text
  55              		.section	.gnu.lto_.pureconst.1a3f30d,"",%progbits
  56 0000 789C6361 		.ascii	"x\234ca`d`f`\000\222R\000\000r\000$"
  56      60646066 
  56      60009252 
  56      00007200 
  56      24
  57              		.text
  58              		.section	.gnu.lto_u8x8_d_uc1701_mini12864.1a3f30d,"",%progbits
  59 0000 789C9D57 		.ascii	"x\234\235WkPU\327\025\336\353\354\373~C\324\032K\015"
  59      6B5055D7 
ARM GAS  C:\Users\gjl\AppData\Local\Temp\cciLWtO0.s 			page 4


  59      15DEEBEC 
  59      FB7E43D4 
  59      1A4B0D
  60 0013 1A1FA1CA 		.ascii	"\032\037\241\3123\022\375\321\351\264\177:\235N\373"
  60      3312FDD1 
  60      E9B47F3A 
  60      9D4EFB
  61 0022 A7BFCD38 		.ascii	"\247\277\3158\031\354X\333I\246c\222\031\377t8p\271"
  61      19EC58DB 
  61      49A66392 
  61      19FF7438 
  61      70B9
  62 0034 08045F89 		.ascii	"\010\004_\211 \022\324\330\204j#\012\342#@bsc\022M\020"
  62      2012D4D8 
  62      846A230A 
  62      E2234062 
  62      7363124D 
  63 0049 302A1515 		.ascii	"0*\025\025\255J\304P\212Q@\012\032\345v\255\265\317"
  63      AD4AC450 
  63      8A51400A 
  63      1AE576AD 
  63      B5CF
  64 005b B970E55E 		.ascii	"\271p\345^I{\007\326\331{\237\375\255\375\255o\257\263"
  64      497B07D6 
  64      D97B9FFD 
  64      ADFDAD6F 
  64      AFB3
  65 006d F6391601 		.ascii	"\3669\026\001\202~\243\001!~\203\327q\374\207\247\004"
  65      827EA301 
  65      217E83D7 
  65      71FC87A7 
  65      04
  66 007e 685B3A84 		.ascii	"h[:\204(ph\366\244\012\267\320\035\222\255\205\255\225"
  66      287068F6 
  66      A40AB7D0 
  66      1D92AD85 
  66      AD95
  67 0090 AD83AD9B 		.ascii	"\255\203\255\233\255G\315\201$\005\262\230\015\253f"
  67      AD47CD81 
  67      2405B298 
  67      0DAB66
  68 009f 2B592C74 		.ascii	"+Y,t\227\235\254\307f\016\333\315\206Cs\362}\027\337"
  68      979DACC7 
  68      660EDBCD 
  68      864373F2 
  68      7D17DF
  69 00b2 779AC32E 		.ascii	"w\232\303.\263\3416\033\036\315\313\023}<\321\013>5"
  69      B3E1361B 
  69      1ECDCB13 
  69      7D3CD10B 
  69      3E35
  70 00c4 EC033F35 		.ascii	"\354\003?5\300\257%\227\237\022x?Pd\307\373\311j\370"
  70      C0AF2597 
  70      9F12783F 
  70      5064C7FB 
  70      C96AF8
  71 00d7 E701139E 		.ascii	"\347\001\023\236\004@\015\335\001\"_\223\026\253\315"
ARM GAS  C:\Users\gjl\AppData\Local\Temp\cciLWtO0.s 			page 5


  71      04400DDD 
  71      01225F93 
  71      16ABCD
  72 00e6 EE70BADC 		.ascii	"\356p\272\334\036\257\317\237\034H\202|\315/ l\201\210"
  72      1EAFCF9F 
  72      1C48827C 
  72      CD2F206C 
  72      8188
  73 00f8 5262447B 		.ascii	"RbD{\244\301\351\321/\312]i{u\275P\277\336\033\371\345"
  73      A4C1E9D1 
  73      2FCA5D69 
  73      7B75BD50 
  73      BFDE1BF9 
  74 010d 60616876 		.ascii	"`ahvH\012\021\321\004<\237\002Y)\244\322^H\303\231g"
  74      480A11D1 
  74      043C9F02 
  74      5929A4D2 
  74      5E48C399 
  75 0122 8B1A6AE4 		.ascii	"\213\032j\344=-$\001,\330\035l\257\376\332G]\015R\261"
  75      3D2D2401 
  75      2CD81D6C 
  75      AFFEDA47 
  75      5D0D52B1 
  76 0136 FB4EE7BB 		.ascii	"\373N\347\273Wl2\035\004\266+[;\277\365.\256%\237\372"
  76      576C321D 
  76      04B62B5B 
  76      3BBFF52E 
  76      AE259FFA 
  77 014a E1DFE9CE 		.ascii	"\341\337\351\316\220\224\360>H\362\3717H\201}\220\""
  77      9094F03E 
  77      48F2F937 
  77      48817D90 
  77      22
  78 015b 7048C07E 		.ascii	"pH\300~X\214\263\333\032\232\273,2\207\221\243\037}"
  78      588CB3DB 
  78      1A9ABB2C 
  78      328791A3 
  78      1F7D
  79 016d FAC8445E 		.ascii	"\372\310D^{Q\227H\005\352\024R\261!np\200qUg\257ot\311"
  79      7B519748 
  79      05EA1452 
  79      B1216E70 
  79      80715567 
  80 0185 171857D3 		.ascii	"\027\030W\323{\347\222\325\300\3558\351\326\263\010"
  80      7BE792D5 
  80      C0ED38E9 
  80      D6B308
  81 0194 78700AB0 		.ascii	"xp\012\260\236\201\227\276i?\357\222?e\340\373G\257"
  81      9E8197BE 
  81      693FEF92 
  81      3F65E0FB 
  81      47AF
  82 01a6 35DA0D60 		.ascii	"5\332\015`\327I\217\276\005B\322\002\015\217\223\265"
  82      D7498FBE 
  82      0542D202 
  82      0D8F93B5 
  83 01b6 0838048B 		.ascii	"\0108\004\213\011\260\251\263\254G\312_0\270Vo(s.|\227"
ARM GAS  C:\Users\gjl\AppData\Local\Temp\cciLWtO0.s 			page 6


  83      09B0A9B3 
  83      AC47CA5F 
  83      30B8566F 
  83      28732E7C 
  84 01cb C0E18A32 		.ascii	"\300\341\2122\337\016=\\\224\032\222Vh\214\205\323\017"
  84      DF0E3D5C 
  84      941A9256 
  84      688C85D3 
  84      0F
  85 01dc 6777ECAD 		.ascii	"gw\354\255\335\346\222\277b\344\356\312\226\213&\362"
  85      DDE692BF 
  85      62E4EECA 
  85      968B26F2 
  86 01ec AD32FF76 		.ascii	"\2552\377v=\\\220J\224\217L\246l\340\252[6\024\272\344"
  86      3D5C904A 
  86      948F4CA6 
  86      6CE0AA5B 
  86      3614BAE4 
  87 0200 AF19176C 		.ascii	"\257\031\027l\352\372\320\257p\372\007+\365\340\317"
  87      EAFAD0AF 
  87      70FA072B 
  87      F5E0CF
  88 020f 08742C0E 		.ascii	"\010t,\016\250\347\320x\205\327V\244\343/\025>\200\205"
  88      A8E7D078 
  88      85D756A4 
  88      E32F153E 
  88      8085
  89 0221 7014FF0F 		.ascii	"p\024\377\017\303B\332X\024\242\011l\230\003r\362\235"
  89      C342DA58 
  89      14A2096C 
  89      980372F2 
  89      9D
  90 0232 FADF86F5 		.ascii	"\372\337\206\365H$\250\207\267\272>9\346[\016\254\026"
  90      4824A887 
  90      B7BA3E39 
  90      E65B0EAC 
  90      16
  91 0243 BAC5DB92 		.ascii	"\272\305\333\222\324\263\362\200\035H}'\320\336y\201"
  91      D4B3F280 
  91      1D487D27 
  91      D0DE7981 
  92 0253 4692F0A6 		.ascii	"F\222\360\246-\031\215}&\265fQk\016\231\271@\232=#h"
  92      2D198D7D 
  92      26B56651 
  92      6B0E99B9 
  92      409A3D23 
  93 0268 9154B6F3 		.ascii	"\221T\266\363hx>7\237\245\346\0022\213\310<G&\215\314"
  93      68783E37 
  93      9FA5E602 
  93      328BC83C 
  93      47268DCC 
  94 027c 125E7129 		.ascii	"\022^q)\333tA\3042p\330\221I&\213L6\032g\016\337_\306"
  94      DB7441C4 
  94      3270D891 
  94      49268B4C 
  94      361A670E 
  95 0293 36978909 		.ascii	"6\227\211\011q\027#\253\316\026\203\232\206\027\331"
ARM GAS  C:\Users\gjl\AppData\Local\Temp\cciLWtO0.s 			page 7


  95      711723AB 
  95      CE16839A 
  95      8617D9
  96 02a2 0B55FAD8 		.ascii	"\013U\372\330_\236\246H\203\322NIy\351\275>\353V\330"
  96      5F9EA648 
  96      83D24E49 
  96      79E9BD3E 
  96      EB56D8
  97 02b5 5C80A284 		.ascii	"\\\200\242\204ww`\342\272\360A\221\244\0274\303V\240"
  97      777760E2 
  97      BAF04191 
  97      A41734C3 
  97      56A0
  98 02c7 29ED5B5B 		.ascii	")\355[[l\224\322\002\234\330=1\320}\023LD\265\013\001"
  98      6C94D202 
  98      9CD83D31 
  98      D07D134C 
  98      44B50B01 
  99 02db D082DBA9 		.ascii	"\320\202\333\251Kz|\340C\205i\337S\327a`\\\330-,\355"
  99      4B7A7CE0 
  99      438569DF 
  99      53D76160 
  99      5CD82D2C 
 100 02f0 AA759898 		.ascii	"\252u\230\230\006\306|\304\030\226\375\270\302|7\326"
 100      06C67CC4 
 100      1896FDB8 
 100      C27C37D6 
 101 0300 71DCAE30 		.ascii	"q\334\2560nJ\372\212[\357\330LL\023c\376\316\030\"\007"
 101      6E4AFA8A 
 101      5BEFD84C 
 101      4C1363FE 
 101      CE182207 
 102 0314 1F2BCCDD 		.ascii	"\037+\314\335\346\332}\232\302x\261\333{lG\21141\235"
 102      E6DA7D9A 
 102      C278B1DB 
 102      7B6C4789 
 102      34319D
 103 0327 8C0933C6 		.ascii	"\214\0113\306B\230O\024\346\366\205\375uRa|\330\035"
 103      42984F14 
 103      E6F685FD 
 103      7552617C 
 103      D81D
 104 0339 E9B8BCCF 		.ascii	"\351\270\274\317cb\306\031s\2021V\302|\2520u\177\035"
 104      6362C619 
 104      73823156 
 104      C27CAA30 
 104      757F1D
 105 034c 0CFB15C6 		.ascii	"\014\373\025\306\217\335]G\366n\363\232\230\0327a>c"
 105      8FDD5D47 
 105      F66EF39A 
 105      981A3761 
 105      3E63
 106 035e 8C8D309F 		.ascii	"\214\2150\237#\006\257\203\232\024Evy\023\012\002\244"
 106      2306AF83 
 106      9A144576 
 106      79130A02 
 106      A4
ARM GAS  C:\Users\gjl\AppData\Local\Temp\cciLWtO0.s 			page 8


 107 036f 3709D407 		.ascii	"7\011\324\007\241\360\316VI]J\307\346\346\201n{\376"
 107      A1F0CE56 
 107      495D4AC7 
 107      E6E6816E 
 107      7BFE
 108 0381 23BD44D7 		.ascii	"#\275D\327\003!\351\216h\010\203\223\220/\202\222\224"
 108      0321E98E 
 108      68088393 
 108      902F8292 
 108      94
 109 0392 AE0C9D38 		.ascii	"\256\014\2358\303\202\330T\226?\370x\330\207\263\253"
 109      C382D854 
 109      963FF878 
 109      D887B3AB 
 110 03a2 78B6AD54 		.ascii	"x\266\255T\3329\247\277\254\336\377\307\335\260\263"
 110      DA39A7BF 
 110      ACDEFFC7 
 110      DDB0B3
 111 03b1 600B0F7B 		.ascii	"`\013\017{\340\013\310\207S\364|\341\275H\177\343A'"
 111      E00BC887 
 111      53F47CE1 
 111      BD487FE3 
 111      4127
 112 03c3 4266938F 		.ascii	"Bf\223\217/a7\360\312\320\012\371!\351e\212\226X\212"
 112      2F6137F0 
 112      CAD00AF9 
 112      21E9658A 
 112      96588A
 113 03d6 1A522C0A 		.ascii	"\032R,\0127\272\3423\364E0\213\004\234V\014C\322\317"
 113      37BAE233 
 113      F445308B 
 113      049C560C 
 113      43D2CF
 114 03e9 011D4930 		.ascii	"\001\035I0;\020\321\250\272\264M\215')N<I\245\322\021"
 114      3B10D1A8 
 114      BAB44D8D 
 114      27294E3C 
 114      49A5D211 
 115 03fd 279E64E8 		.ascii	"'\236d\350\300x\332\037\213\007!\372v Gg\242A}EA=\305"
 115      C078DA1F 
 115      8B0721FA 
 115      76204767 
 115      A2417D45 
 116 0414 41596383 		.ascii	"AYc\203\222\342\006\024]\016\216n\233\243\362\2362\245"
 116      92E20614 
 116      5D0E8E6E 
 116      9BA3F29E 
 116      32A5
 117 0426 7EA0F9BE 		.ascii	"~\240\371\276\227\270\330\361\221>k\224\243A\315&NH"
 117      97B8D8F1 
 117      913E6B94 
 117      A341CD26 
 117      4E48
 118 0438 49411D2F 		.ascii	"IA\035/\203'FunjT3\342D5\243T:\343D5\023:1\252\363q"
 118      83274675 
 118      6E6A5433 
 118      E24435A3 
ARM GAS  C:\Users\gjl\AppData\Local\Temp\cciLWtO0.s 			page 9


 118      543AE344 
 119 0453 A2FA33F9 		.ascii	"\242\3723\371\371G4\250\013\023A\331Mjg\247\241\326"
 119      F94734A8 
 119      0B1341D9 
 119      4D6A67A7 
 119      A1D6
 120 0465 15A53685 		.ascii	"\025\2456\205\213+.\227\213O\342r)\312\345\362\004\027"
 120      8B2B2E97 
 120      8B4FE272 
 120      29CAE5F2 
 120      0417
 121 0477 47ACC016 		.ascii	"G\254\300\026%p}\205)\360$E\235&\355\356ihw'\246\355"
 121      25707D85 
 121      29F02445 
 121      9D26EDEE 
 121      69687727 
 122 048d 8E4BFBCA 		.ascii	"\216K\373\312\223h_\215\322\376\247\242}\013\012[\016"
 122      93685F8D 
 122      D2FEA7A2 
 122      7D0B0A5B 
 122      0E
 123 049e 750D5915 		.ascii	"u\015Y\025\303\231\2237N\252C\366Tk\211\007\375cZ\315"
 123      C3999337 
 123      4EAA43F6 
 123      546B8907 
 123      FD635ACD 
 124 04b2 421E70CD 		.ascii	"B\036p\315p]{\263\360\240=3\235\236\240\353\350t\\\343"
 124      705D7BB3 
 124      F0A03D33 
 124      9D9EA0EB 
 124      E8745CE3 
 125 04c6 DA780332 		.ascii	"\332x\0032\331\345\215E\312\341\254X\017\036\\\"\372"
 125      D9E58D45 
 125      CAE1AC58 
 125      0F1E5C22 
 125      FA
 126 04d7 14EEAA6A 		.ascii	"\024\356\252j\032\366e\036 \326?\200\036\366\301\265"
 126      1AF6651E 
 126      20D63F80 
 126      1EF6C1B5 
 127 04e7 F26BE5A3 		.ascii	"\362k\345\243\362\306\014\3621\311A\001\035P\336D<\004"
 127      F2C60CF2 
 127      31C94101 
 127      1D50DE44 
 127      3C04
 128 04f9 DC641F5C 		.ascii	"\334d\037\\;{!\023\027g\245]\246\322#\323(}+\261\322"
 128      3B7B2113 
 128      1767A55D 
 128      A6D223D3 
 128      287D2BB1 
 129 050e 9EB84A7F 		.ascii	"\236\270J\177\363$\245\373\242J\377kB\351\301\253\246"
 129      F324A5FB 
 129      A24AFF6B 
 129      42E9C1AB 
 129      A6
 130 051f D249DF4F 		.ascii	"\322I\337O\332\376\011i\377\375\230\264\311S\244M\212"
 130      DAFE0969 
ARM GAS  C:\Users\gjl\AppData\Local\Temp\cciLWtO0.s 			page 10


 130      FFFD98B4 
 130      C953A44D 
 130      8A
 131 0530 2FED00FB 		.ascii	"/\355\000\373\340\343\341\366\377+\355\267\023\322\336"
 131      E0E3E1F6 
 131      FF2BEDB7 
 131      13D2DE
 132 053f 21699359 		.ascii	"!i\223YZwl\276[\271Jn=\235\240\220\317\216`Y\025p\327"
 132      5A776CBE 
 132      5BB94A6E 
 132      3D9DA090 
 132      CF8E6059 
 133 0556 2C934F73 		.ascii	",\223Os\231|\323\035\177\366\234\010\326+\001\203\321"
 133      997CD31D 
 133      7FF69C08 
 133      D62B0183 
 133      D1
 134 0567 4DE91BFD 		.ascii	"M\351\033\375\252\3248;\013\000\206 %$\177\210\301\004"
 134      AAD4383B 
 134      0B008620 
 134      25247F88 
 134      C104
 135 0579 878ACF2D 		.ascii	"\207\212\317-U\212\314Q5\354\363\310\250:\224\034\240"
 135      558ACC51 
 135      35ECF3C8 
 135      A83A941C 
 135      A0
 136 058a C130C6D2 		.ascii	"\3010\306\322\007\326\204k\340\311\004\367\324\032\350"
 136      07D6846B 
 136      E0C904F7 
 136      D41AE8
 137 0599 805C520C 		.ascii	"\200\\R\014\225\011Ha\010x\272\300\310D\010$\203'V\006"
 137      95094861 
 137      0878BAC0 
 137      C8440824 
 137      83275606 
 138 05ad 1BBBD895 		.ascii	"\033\273\330\225\330\005\251\360\237\011\027\234\030"
 138      D805A9F0 
 138      9F09179C 
 138      18
 139 05ba 036F4A15 		.ascii	"\003oJ\025\3043\223\037\301\224\230G\2207i;\340+\315"
 139      C433931F 
 139      C1949847 
 139      9037693B 
 139      E02BCD
 140 05cd 8F82722E 		.ascii	"\217\202r.\214N\335\2461\336&>\325\357\343V\367@\241"
 140      8C4EDDA6 
 140      31DE263E 
 140      D5EFE356 
 140      F740A1
 141 05e0 FE3CBFBE 		.ascii	"\376<\277\276\341K\024\272&\271\252\213\317\245\253"
 141      E14B14BA 
 141      26B9AA8B 
 141      CFA5AB
 142 05ef 9552D562 		.ascii	"\225R\325be\017\27269\224\256\016x\200>{P\266(&U\321"
 142      650FBA36 
 142      3994AE0E 
ARM GAS  C:\Users\gjl\AppData\Local\Temp\cciLWtO0.s 			page 11


 142      78803E7B 
 142      50B62826 
 143 0605 BB5D68E4 		.ascii	"\273]h\344\355\274\357\223\267\002\276\233\310\227\207"
 143      EDBCEF93 
 143      B702BE9B 
 143      C89787
 144 0614 9C73C1CA 		.ascii	"\234s\301\312\3426P.\346\363\322\363b\327\231\257\266"
 144      E236502E 
 144      E6F3D2F3 
 144      62D799AF 
 144      B6
 145 0625 F2D6019F 		.ascii	"\362\326\001\237\232\364,\016M\376\214p\200\005\036"
 145      9AF42C0E 
 145      4DFE8C70 
 145      80051E
 146 0634 E13A386B 		.ascii	"\341:8k\314\246\246,\300Y8\345\334\335\266\235nud\005"
 146      CCA6A62C 
 146      C05938E5 
 146      DCDDB69D 
 146      6E756405 
 147 0648 607C9AED 		.ascii	"`|\232\355\246\224\212\230\333\275\300\310\240\207\305"
 147      A6948A98 
 147      DBBDC0C8 
 147      A087C5
 148 0657 FD86248B 		.ascii	"\375\206$\213pU~e\231\316\207\256\031>\026)\037XD\357"
 148      70557E65 
 148      99CE87AE 
 148      193E1629 
 148      1F5844EF 
 149 066b 0CF99593 		.ascii	"\014\371\225\223\347b%J\264W\005\032I\304oS\205\032"
 149      E762254A 
 149      B457051A 
 149      49C46F53 
 149      851A
 150 067d 4B3456FC 		.ascii	"K4V\374\023\345!M9\351\334\263\375\272\021Y\003@P\233"
 150      13E5214D 
 150      39E9DCB3 
 150      FDBA1159 
 150      0340509B 
 151 0691 9E569149 		.ascii	"\236V\221I+-J\353\236\231XK\376\247L\0121;~o+\326&g"
 151      2B2D4AEB 
 151      9E99584B 
 151      FEA74C0A 
 151      313B7E6F 
 152 06a9 D251DAAD 		.ascii	"\322Q\332\255%*\223Z3\224\353\2458\022\223:<i\251\""
 152      252A935A 
 152      3394EBA5 
 152      3812933A 
 152      3C69A922 
 153 06bd 30D26810 		.ascii	"0\322h\020H\177\234\300\333\211\011Xa\003\023\260\023"
 153      487F9CC0 
 153      DB890958 
 153      610313B0 
 153      13
 154 06ce 811283C0 		.ascii	"\201\022\203\300r\366}\230|\247\223\357\241\015\027"
 154      72F67D98 
 154      7CA793EF 
ARM GAS  C:\Users\gjl\AppData\Local\Temp\cciLWtO0.s 			page 12


 154      A10D17
 155 06dd EA0DC532 		.ascii	"\352\015\3052\214\345\206\354\252\237idT\245\221+Y<"
 155      8CE586EC 
 155      AA9F6964 
 155      54A5912B 
 155      593C
 156 06ef 2553A13A 		.ascii	"%S\241:55\230\215\343tD_\014\376\301\030@\012\033\337"
 156      3535988D 
 156      E374445F 
 156      0CFEC118 
 156      400A1BDF 
 157 0703 3BBCD94A 		.ascii	";\274\331J\242;\241\010\240T3\017l/\035#\310\"|\377"
 157      A23BA108 
 157      A054330F 
 157      6C2F1D23 
 157      C8227CFF 
 158 0717 8D688C38 		.ascii	"\215h\2148}\317\303\003-^\365\364\340\3642\2153\264"
 158      7DCFC303 
 158      2D5EF5F4 
 158      E0F4328D 
 158      33B4
 159 0729 AAB83F53 		.ascii	"\252\270?Sy\314\241!\342\022\243L\016{\364Q\331\020"
 159      79CCA121 
 159      E212A34C 
 159      0E7BF451 
 159      D910
 160 073b 4360C5B2 		.ascii	"C`\305\262\345\0014^\254j\3130\020O\315\325\3258\311"
 160      E501345E 
 160      AC6ACB30 
 160      104FCDD5 
 160      D538C9
 161 074e 7BE55A00 		.ascii	"{\345Z\000\247\371\005~\244\343\371X\030\020\012\255"
 161      A7F9057E 
 161      A4E3F958 
 161      18100AAD 
 162 075e 09D5C1EF 		.ascii	"\011\325\301\357\230 \277<\027\207\337\332\224\340h"
 162      9820BF3C 
 162      1787DFDA 
 162      94E068
 163 076d 9B1BC197 		.ascii	"\233\033\301\227\022\001o\230y\241\241t!U\010*\213/"
 163      12016F98 
 163      79A1A174 
 163      2155082A 
 163      8B2F
 164 077f 34E52896 		.ascii	"4\345(\226\271\350\007\241\347\203\237\2351\276\000"
 164      B9E807A1 
 164      E7839F9D 
 164      31BE00
 165 078e 2200E5DA 		.ascii	"\"\000\345\332\304~\362R\271\244Uw\260\276\306\3208"
 165      C47EF252 
 165      B9A45577 
 165      B0BEC6D0 
 165      38
 166 079f D77C9D19 		.ascii	"\327|\235\031\302\344\224V\037\232\334\344\272\301\325"
 166      C2E49456 
 166      1F9ADCE4 
 166      BAC1D5
ARM GAS  C:\Users\gjl\AppData\Local\Temp\cciLWtO0.s 			page 13


 167 07ae 4380AB2C 		.ascii	"C\200\253,\243\256\226\014\370\241\225,\312Oa!\327\002"
 167      A3AE960C 
 167      F8A1952C 
 167      CA4F6121 
 167      D702
 168 07c0 142F95C6 		.ascii	"\024/\225\306\267;\022\237\020T^7j1\3455"
 168      B73B129F 
 168      10545E37 
 168      6A31E535 
 169 07d0 49D46473 		.ascii	"I\324dsy\345\017\260~\212=\310_;C '\027K\201\257\254"
 169      79E50FB0 
 169      7E8A3DC8 
 169      5F3B4320 
 169      27174B81 
 170 07e6 9BB414AD 		.ascii	"\233\264\024\255|x=\016\037\335\320v\310\245\206\001"
 170      7C783D0E 
 170      1FDDD076 
 170      C8A58601 
 171 07f6 366B2996 		.ascii	"6k)\226\272\341\337\323\025\373h\235lml\003l\335l]l"
 171      BAE1DFD3 
 171      15FB689D 
 171      6C6D6C03 
 171      6CDD6C5D 
 172 080b EDF47D08 		.ascii	"\355\364}\010\270,\026\260\037gd\254\304\277\327W\254"
 172      B82C16B0 
 172      1F6764AC 
 172      C4BFD757 
 172      AC
 173 081c C95999F7 		.ascii	"\311Y\231\367\352\272<l\255_\261j\365\252\327\363\262"
 173      EABA3C6C 
 173      AD5FB16A 
 173      F5AAD7F3 
 173      B2
 174 082d 976765AF 		.ascii	"\227ge\257zy\355+k\263sV\274\260,#OX\350\226|\371\325"
 174      7A79ED2B 
 174      6BB37356 
 174      BCB02C23 
 174      4F58E896 
 175 0844 35F697D6 		.ascii	"5\366\227\326\255Y\265\366\225\327\370\372\247\327\326"
 175      AD59B5F6 
 175      95D7F8FA 
 175      A7D7D6
 176 0853 49FC873C 		.ascii	"I\374\207<X\377_\267\307\230\255"
 176      58FF5FB7 
 176      C798AD
 177              		.text
 178              		.section	.gnu.lto_u8x8_uc1701_display_info.1a3f30d,"",%progbits
 179 0000 789C2DCD 		.ascii	"x\234-\315M/\003Q\024\306\361\373\314KM\333\231\266"
 179      4D2F0351 
 179      14C6F1FB 
 179      CC4B4DDB 
 179      99B6
 180 0012 AC1B6B1F 		.ascii	"\254\033k\037\241_\314~\022\212\265t\205&\026\304\313"
 180      A15FCC7E 
 180      128AB574 
 180      852616C4 
 180      CB
ARM GAS  C:\Users\gjl\AppData\Local\Temp\cciLWtO0.s 			page 14


 181 0023 A88E411B 		.ascii	"\250\216A\033\303\202\244!\305\206]\027\335\211\220"
 181      C382A421 
 181      C5865D17 
 181      DD8990
 182 0032 34223189 		.ascii	"4\"1\211Hi\234\307q7\377\373\233\234s\30710<\363\022"
 182      48699CC7 
 182      7137FFFB 
 182      9B9C73C7 
 182      31303CF3 
 183 0047 BD19F363 		.ascii	"\275\031\363c\241\373\026u\203\314\252\333\006\227t"
 183      A1FB1675 
 183      83CCAADB 
 183      069774
 184 0056 E7B97F5D 		.ascii	"\347\271\177]P\207\020?,\306\0336\0158\302\366\350\354"
 184      5087103F 
 184      2CC61B36 
 184      0D38C2F6 
 184      E8EC
 185 0068 2B50727A 		.ascii	"+Prz\355<\273u\225\236\360\361\375\276YTV\204\353\037"
 185      ED3CBB75 
 185      959EF0F1 
 185      FDBE5954 
 185      5684EB1F 
 186 007c C3D7BC72 		.ascii	"\303\327\274rN\230.D\361\377\356\254p\230$\315\277]"
 186      4E982E44 
 186      F1FFEEAC 
 186      709824CD 
 186      BF5D
 187 008e 0BE16AC6 		.ascii	"\013\341j\306\177]}^\214\312:p\307\327\307/\215\001"
 187      7F5D7D5E 
 187      8CCA3A70 
 187      C7D7C72F 
 187      8D01
 188 00a0 D4BEF069 		.ascii	"\324\276\360i\334JK\312\234\360\244w\263\344)\271\334"
 188      DC4A4BCA 
 188      9CF0A477 
 188      B3E429B9 
 188      DC
 189 00b1 DF4ABF7D 		.ascii	"\337J\277}\245+\034l7\226\275Z'\\\331\014c\267n\333"
 189      A52B1C6C 
 189      3796BD5A 
 189      275CD90C 
 189      63B76EDB 
 190 00c5 13CB601F 		.ascii	"\023\313`\037\325\211\005\0343\262\317\330\032G?\272"
 190      D589051C 
 190      33B2CFD8 
 190      1A473FBA 
 191 00d5 48981C8E 		.ascii	"H\230\034\216\230)\304\214\2076\223\327\365\002\366"
 191      9829C48C 
 191      873693D7 
 191      F502F6
 192 00e4 98220E19 		.ascii	"\230\"\016\031\037-&\300\001SB\304\224u\262\242\223"
 192      1F2D26C0 
 192      015342C4 
 192      9475B2A2 
 192      93
 193 00f5 D3D86566 		.ascii	"\323\330ef\260\203\252\301)j\346\027\206\236\177?"
ARM GAS  C:\Users\gjl\AppData\Local\Temp\cciLWtO0.s 			page 15


 193      B083AAC1 
 193      296AE617 
 193      869E7F3F 
 194              		.text
 195              		.section	.gnu.lto_u8x8_d_uc1701_mini12864_init_seq.1a3f30d,"",%progbits
 196 0000 789C4D91 		.ascii	"x\234M\221[S\222Q\024\206\277\015x A;\037\351|\321e"
 196      5B539251 
 196      1486BF0D 
 196      7820413B 
 196      1FE97CD1 
 197 0015 93DEF817 		.ascii	"\223\336\370\027\372\037\375\020\230\240\314\031\033"
 197      FA1FFD10 
 197      98A0CC19 
 197      1B
 198 0022 C79CA169 		.ascii	"\307\234\241ir\"\203\220\220\223\025\237|\036B\210\004"
 198      72228390 
 198      9093159F 
 198      7C1E4288 
 198      04
 199 0033 81123C85 		.ascii	"\201\022<\205:fj\3414\306\250\241f\202\366n\366\272"
 199      3A666AE1 
 199      34C6A8A1 
 199      6682F66E 
 199      F6BA
 200 0045 8099673E 		.ascii	"\200\231g>\236y\327\336{\355\2655\022\223\370\257E#"
 200      9E79D7DE 
 200      7BEDB535 
 200      1293F8AF 
 200      4523
 201 0057 D13F492A 		.ascii	"\321?I*\253\230\317\262\346\252/\252,j\211\0351x\327"
 201      AB98CFB2 
 201      E6AA2FAA 
 201      2C6A891D 
 201      3178D7
 202 006a 63B94BC5 		.ascii	"c\271K\305\235\261\033\320\2425\225k\022\361\005h\333"
 202      9DB11BD0 
 202      A235956B 
 202      12F10568 
 202      DB
 203 007b C2465127 		.ascii	"\302FQ'\322\353\320\335\244b\323\211\324\301\027o\245"
 203      D2EBD0DD 
 203      A462D389 
 203      D4C1176F 
 203      A5
 204 008c 9FAD368A 		.ascii	"\237\2556\212\370\032t\325yh\255\025\361\031\350\023"
 204      F81A74D5 
 204      7968AD15 
 204      F119E813 
 205 009c BB37A417 		.ascii	"\2737\244\027\351U\350D`v\214N\366\362\305\312}\267"
 205      E955E844 
 205      60768C4E 
 205      F6F2C5CA 
 205      7DB7
 206 00ae 9FE22BD0 		.ascii	"\237\342+\320\336\365t\242F\350e\250g^YR\211\352~^="
 206      DEF574A2 
 206      46E865A8 
 206      675E5952 
ARM GAS  C:\Users\gjl\AppData\Local\Temp\cciLWtO0.s 			page 16


 206      89EA7E5E 
 207 00c3 38F2BB59 		.ascii	"8\362\273Y\244\006X_,\"3\241\227\240\0169wW\324\336"
 207      A406585F 
 207      2C2233A1 
 207      97A00E39 
 207      7757D4DE 
 208 00d7 82E5F32F 		.ascii	"\202\345\363/\273\251\351\213\325Wb\225+\015\271|yj"
 208      BBA9E98B 
 208      D5576295 
 208      2B0DB97C 
 208      796A
 209 00e9 D2C4372E 		.ascii	"\322\3047.\230\177,7\210\370<\364\217\325\362\250^\350"
 209      987F2C37 
 209      88F83CF4 
 209      8FD5F2A8 
 209      5EE8
 210 00fb 39E88A7F 		.ascii	"9\350\212\177wQ-\252oBw\366\333\013Z\221\236\255\276"
 210      77512DAA 
 210      6F4277F6 
 210      DB0B5A91 
 210      9EADBE
 211 010e 30AB5CD8 		.ascii	"0\253\\\330\267\021\332\327\213b>\352\255R\217L\305"
 211      B711DAD7 
 211      8B623EEA 
 211      AD528F4C 
 211      C5
 212 011f A7791FA1 		.ascii	"\247y\037\241\007\377hX\247xj\354xH\263\374\313\373"
 212      07FF6858 
 212      A7786AEC 
 212      7848B3FC 
 212      CBFB
 213 0131 082C9786 		.ascii	"\010,\227\2065\">\311'?\2764C7<\001\215/t\214R\327\267"
 213      35223EC9 
 213      273FBE34 
 213      43373C01 
 213      8D2F748C 
 214 0148 A1D9CD54 		.ascii	"\241\331\315T\0175}\034\352\335.z\251\217&\350@f\307"
 214      0F357D1C 
 214      EADD2E7A 
 214      A98F26E8 
 214      4066C7
 215 015b 444DF7F2 		.ascii	"DM\367\362\255\313\213\246Cz\343F\350\253_\241(MZ\017"
 215      ADCB8BA6 
 215      437AE346 
 215      E8AB5FA1 
 215      284D5A0F 
 216 016f 75BE989A 		.ascii	"u\276\230\232\246F^\363\352\203\365\356\034\235\254"
 216      A6465EF3 
 216      EA83F5EE 
 216      1C9DAC
 217 017e 83CEE5CC 		.ascii	"\203\316\345\314!\322\006\350Ss\366'\275K\274\262\367"
 217      21D206E8 
 217      5373F627 
 217      BD4BBCB2 
 217      F7
 218 018f E6649986 		.ascii	"\346d\231\206}\014\352\016:\024\252\326\362\364[gg\235"
 218      7D0CEA0E 
ARM GAS  C:\Users\gjl\AppData\Local\Temp\cciLWtO0.s 			page 17


 218      3A14AAD6 
 218      F2F45B67 
 218      679D
 219 01a1 A8B6F1EA 		.ascii	"\250\266\361\352b\273eO-\342:\250\\p\3134\2600\237\330"
 219      62BB654F 
 219      2DE23AA8 
 219      5C70CB34 
 219      B0309FD8 
 220 01b5 DA8147A1 		.ascii	"\332\201G\241\021\325B\023v\245D{\327@3f\377sZ\254\201"
 220      11D54213 
 220      76A5447B 
 220      D7403366 
 220      FF735AAC 
 221 01ca 46B6FD4E 		.ascii	"F\266\375NJ\325<\365|\277'\266Z\341'\305\216\366\302"
 221      4AD53CF5 
 221      7CBF27B6 
 221      5AE127C5 
 221      8EF6C2
 222 01dd F4EAAAEA 		.ascii	"\364\352\252\352W\226*\257lJF\355\372\326\240\261\315"
 222      57962AAF 
 222      6C4A46ED 
 222      FAD6A0B1 
 222      CD
 223 01ee 66F46B2D 		.ascii	"f\364k-j\025\273c`9f`\315\006\346\301\347+\230\003\263"
 223      6A15BB63 
 223      60396660 
 223      CD06E6C1 
 223      E72B9803 
 224 0203 4CF80CF0 		.ascii	"L\370\014\360\201i\362)\220\005\031\362\026\003\233"
 224      8169F229 
 224      900519F2 
 224      16039B
 225 0212 C4E70BE9 		.ascii	"\304\347\013\351g\220\006)\362$\230\000\011\3628\030"
 225      67900629 
 225      F2249800 
 225      09F23818 
 226 0222 079FC863 		.ascii	"\007\237\310c\340#\210\222G\300\030\010\223\177\000"
 226      E0238892 
 226      47C01808 
 226      937F00
 227 0231 A360847C 		.ascii	"\243`\204|\030\014\001\205<\004\006\201L\036\004\357"
 227      180C0185 
 227      3C040681 
 227      4C1E04EF 
 228 0241 C13BF2B7 		.ascii	"\301;\362\267`\000\004\310\375t\035/y?p\2037\300\005"
 228      600004C8 
 228      FD741D2F 
 228      793F7083 
 228      37C005
 229 0254 FA809319 		.ascii	"\372\200\223\031$6\317Z\245\377\204dj\324"
 229      2436CF5A 
 229      A5FF8464 
 229      6AD4
 230              		.text
 231              		.section	.gnu.lto_u8x8_d_uc1701_mini12864_powersave0_seq.1a3f30d,"",%progbits
 232 0000 789C2D8B 		.ascii	"x\234-\213\275\016\301P\030\206\317\327\037\021D'\011"
 232      BD0EC150 
ARM GAS  C:\Users\gjl\AppData\Local\Temp\cciLWtO0.s 			page 18


 232      1886CFD7 
 232      1F114427 
 232      09
 233 0011 496F82A9 		.ascii	"Io\202\251\227\345\022:\264\211\304f \021\203\201TQ"
 233      97E5123A 
 233      B489C466 
 233      20118381 
 233      5451
 234 0023 AD0E864E 		.ascii	"\255\016\206N\"1\010\213Qb\220`5P1\370}\233\317I\236"
 234      2231088B 
 234      51629060 
 234      355031F8 
 234      7D9BCF49 
 235 0038 9CEFC993 		.ascii	"\234\357\311\223W\021$\222w\007|\011\361\226\310\267"
 235      57112492 
 235      77077C09 
 235      F196C8B7 
 236 0048 4F6E3A96 		.ascii	"On:\226lY\320\227\340\247\247\027\345\023'JA\343\326"
 236      6C59D097 
 236      E0A7A717 
 236      E513274A 
 236      41E3D6
 237 005b 66A7712E 		.ascii	"f\247q.AW\275\350\225\343\252B\033\317u3\303\325O\306"
 237      4157BDE8 
 237      95E3AA42 
 237      1BCF7533 
 237      C3D54FC6 
 238 006f 5B2BE8C8 		.ascii	"[+\350\310\234\025\350\321\371\264R\234\013\320\305"
 238      9C15E8D1 
 238      F9B4529C 
 238      0BD0C5
 239 007e 3570FE63 		.ascii	"5p\376c\031Z\017o}\225k/\031/\277\217\271\306Y\202^"
 239      195A0F6F 
 239      7D956B2F 
 239      192FBF8F 
 239      B9C65982 
 240 0093 ACF321CB 		.ascii	"\254\363!\313\271\010m/\366\253\27413k]\263j\313\022"
 240      B9086D2F 
 240      F6ABBC31 
 240      336B5DB3 
 240      6ACB12
 241 00a6 95759A92 		.ascii	"\225u\232\222N\025\235<|\001\360\301\204\330\307`\004"
 241      4E159D3C 
 241      7C01F0C1 
 241      84D8C760 
 241      04
 242 00b7 86C00503 		.ascii	"\206\300\005\003\340\220.($C\374\000\312BTO"
 242      E0902E28 
 242      2443FC00 
 242      CA42544F 
 243              		.text
 244              		.section	.gnu.lto_u8x8_d_uc1701_mini12864_powersave1_seq.1a3f30d,"",%progbits
 245 0000 789C2D8D 		.ascii	"x\234-\215\271\012\302@\024E\347%Q\004\203\251\004\205"
 245      B90AC240 
 245      1445E725 
 245      510483A9 
 245      0485
ARM GAS  C:\Users\gjl\AppData\Local\Temp\cciLWtO0.s 			page 19


 246 0012 FC8456F9 		.ascii	"\374\204V\371,?!E\002\342\017\330XX\250q\313fa\221J"
 246      2C3F2145 
 246      02E20FD8 
 246      5858A871 
 246      CB666191 
 247 0027 050B97C6 		.ascii	"\005\013\227\306F\260\023\324\326B\\\012\327;<\007\016"
 247      46B013D4 
 247      D6425C0A 
 247      D73B3C07 
 247      0E
 248 0038 3387C365 		.ascii	"3\207\303e4AB\236\033\340\227\020o\205B\367\330\313"
 248      3441429E 
 248      1BE09710 
 248      6F8542F7 
 248      D8CB
 249 004a 5C155715 		.ascii	"\\\025W\025\364%\370\361\351'9\351Di\350\265\276\336"
 249      F425F8F1 
 249      E92739E9 
 249      4469E8B5 
 249      BEDE
 250 005c 199C8BD0 		.ascii	"\031\234\213\320E+y\351\\S\320\373*i\352\\\333r\274"
 250      452B79E9 
 250      5C53D0FB 
 250      2A69EA5C 
 250      DB72BC
 251 006f 71A286CA 		.ascii	"q\242\206\312Y\203\036\274O=\3159\017\235]\"\357?V\241"
 251      59831EBC 
 251      4F3DCD39 
 251      0F9D5D22 
 251      EF3F56A1 
 252 0083 CB783BFD 		.ascii	"\313x;\375\377\034\310\361\374\373\230\030\234\025\350"
 252      FF1CC8F1 
 252      FCFB9818 
 252      9C15E8
 253 0092 D939EDB3 		.ascii	"\3319\355\263\234\013\320N\315=\2235\266\253M\273\342"
 253      9C0BD04E 
 253      CD3D9335 
 253      B6AB4DBB 
 253      E2
 254 00a3 AA0A954C 		.ascii	"\252\012\225L\212\311\244\262I>\256\010\204  \366!\030"
 254      8AC9A4B2 
 254      493EAE08 
 254      842020F6 
 254      2118
 255 00b5 803EE881 		.ascii	"\200>\350\201.\360\310\0244\"K\374\000\350\343TS"
 255      2EF0C814 
 255      34224BFC 
 255      00E8E354 
 255      53
 256              		.text
 257              		.section	.gnu.lto_u8x8_d_uc1701_mini12864_flip0_seq.1a3f30d,"",%progbits
 258 0000 789C2D8B 		.ascii	"x\234-\213=\013AQ\030\307\317s\216\267\"&E\235/\301"
 258      3D0B4151 
 258      18C7CF73 
 258      8EB72226 
 258      459D2FC1 
 259 0014 E463F908 		.ascii	"\344c\371\010\206{\313hc0\030\324\365\356\222\014&)"
ARM GAS  C:\Users\gjl\AppData\Local\Temp\cciLWtO0.s 			page 20


 259      867BCB68 
 259      633018D4 
 259      F5EE920C 
 259      2629
 260 0026 A22C6C26 		.ascii	"\242,l&\312e4\350\312\340\345\372\237\036\247~\235\347"
 260      CA6534E8 
 260      CAE0E5FA 
 260      9F1EA77E 
 260      9DE7
 261 0038 D7AF7F48 		.ascii	"\327\257\177H\2200\357\001\370\022\342#ih{\355\230/"
 261      9030EF01 
 261      F812E223 
 261      69687BED 
 261      982F
 262 004a 6D252820 		.ascii	"m%( \270\367\352\317\222\306\211\"P\277\272=\2448g\241"
 262      B8F7EACF 
 262      92C68922 
 262      50BFBA3D 
 262      A43867A1 
 263 005e 9BE6EC9D 		.ascii	"\233\346\354\235\340\032\206\326\254\375Ur]\233\361"
 263      E01A86D6 
 263      ACFD5572 
 263      5D9BF1
 264 006d CE72EB8A 		.ascii	"\316r\353\212s\010zv\276\325\010\3474tqw\235\377XA?"
 264      73087A76 
 264      BED508E7 
 264      34747177 
 264      9DFF5841 
 265 0082 C74A25CA 		.ascii	"\307J%\312\265a\306\313\3409Oq\226\320\233u9\3059g\240"
 265      B561C6CB 
 265      E0394F71 
 265      96D09B75 
 265      39C53967 
 266 0097 ABC9B41C 		.ascii	"\253\311\264\034+LK\345F\251h+I9M#\322\224\327\324\307"
 266      2B4C4BE5 
 266      46A9682B 
 266      49394D23 
 266      D294D7D4 
 267 00ac E7822118 		.ascii	"\347\202!\030\020{\017tA\007\264A\0138\244\005\215\251"
 267      107B0F74 
 267      4107B441 
 267      0B38A405 
 267      8DA9
 268 00be 207EBEEB 		.ascii	" ~\276\353T\034"
 268      541C
 269              		.text
 270              		.section	.gnu.lto_u8x8_d_uc1701_mini12864_flip1_seq.1a3f30d,"",%progbits
 271 0000 789C2D8C 		.ascii	"x\234-\214=\013\202P\030F\357\253%A\242SP\340\237\250"
 271      3D0B8250 
 271      1846EFAB 
 271      2541A253 
 271      50E09FA8 
 272 0014 C99FD54F 		.ascii	"\311\237\325OpPhjmi(\010\354[kh\220\006\011\032\202"
 272      7050686A 
 272      6D692808 
 272      EC5B6B68 
 272      9006091A 
ARM GAS  C:\Users\gjl\AppData\Local\Temp\cciLWtO0.s 			page 21


 273 0029 866AA968 		.ascii	"\206j\251h\011\262\261\2060\032\372|\344\355\302\341"
 273      09B2B186 
 273      301AFA7C 
 273      E4EDC2E1 
 274 0039 DEC3E1B9 		.ascii	"\336\303\341\271)A\"9w\300/!\336\022yN\324\311\304\222"
 274      29412239 
 274      77C02F21 
 274      DE12794E 
 274      D4C9C492 
 275 004d 230BFA12 		.ascii	"#\013\372\022<z\016\002-q\"\005\032\327\226{\235s\001"
 275      3C7A0E02 
 275      2D712205 
 275      1AD7967B 
 275      9D7301
 276 0060 BA68052F 		.ascii	"\272h\005/\225k\032\352O\355\213\3065L\306k\333\257"
 276      956B1AEA 
 276      4FED8BC6 
 276      354CC66B 
 276      DBAF
 277 0072 CB9C53D0 		.ascii	"\313\234S\320\223\373\251)\234s\320\331\315w\377c\031"
 277      93FBA929 
 277      9C73D0D9 
 277      CD77FF63 
 277      19
 278 0083 BA3A6CBC 		.ascii	"\272:l\274\377\327\315d<\377>B\235\263\004\275\332\347"
 278      FFD7CD64 
 278      3CFF3E42 
 278      9DB304BD 
 278      DAE7
 279 0095 6396731E 		.ascii	"c\226s\036Z\235\355\266\2529\261*\015\253\354\310\022"
 279      5A9DEDB6 
 279      AA39B12A 
 279      0DABECC8 
 279      12
 280 00a6 150D1A91 		.ascii	"\025\015\032\221A%\203\006\270|\340\201!\261\367A\017"
 280      41258306 
 280      B87CE081 
 280      21B1F741 
 280      0F
 281 00b7 744107B4 		.ascii	"tA\007\264\201K\206\2401\231\342\007\3673T\255"
 281      814B86A0 
 281      3199E207 
 281      F73354AD 
 282              		.text
 283              		.section	.gnu.lto_.symbol_nodes.1a3f30d,"",%progbits
 284 0000 789C55CC 		.ascii	"x\234U\314\273\015\3020\024\205\341\343W\234w\201\030"
 284      BB0DC230 
 284      1485E1E3 
 284      579C7781 
 284      18
 285 0011 004A4661 		.ascii	"\000JFa\252\353\302\035R@Bb\002OAm\021\211\002Zj\310"
 285      AAEBC21D 
 285      52404262 
 285      024F416D 
 285      1189025A 
 286 0027 0094D091 		.ascii	"\000\224\320\221\330)p\365\351\327}H0l\031\000\236\021"
 286      D82970F5 
ARM GAS  C:\Users\gjl\AppData\Local\Temp\cciLWtO0.s 			page 22


 286      E9D77D48 
 286      306C1900 
 286      9E11
 287 0039 70B80123 		.ascii	"p\270\001#g\263\006\224Rf\001\010\005\031e\"\312yT\260"
 287      67B30694 
 287      52660108 
 287      05196522 
 287      CA7954B0 
 288 004d A8449035 		.ascii	"\250D\2205\304\302\003\300\230\025\300Z\342IW$\222."
 288      C4C203C0 
 288      9815C05A 
 288      E2495724 
 288      922E
 289 005f 49265D93 		.ascii	"I&]\223J\272\240,\351\234t\322\232\362\377\026h1|\226"
 289      4ABAA02C 
 289      E99C74D2 
 289      9AF2FF16 
 289      68317C96 
 290 0073 020DDC77 		.ascii	"\002\015\334w\244\206\217\270K\317B\316\272~\366:Y\302"
 290      A4868FB8 
 290      4BCF42CE 
 290      BA7EF63A 
 290      59C2
 291 0085 EFEE5CA0 		.ascii	"\357\356\\\240\300\020\254\340\272I\015\037,a\367q\356"
 291      C010ACE0 
 291      BA490D1F 
 291      2C61F771 
 291      EE
 292 0096 8F517B9A 		.ascii	"\217Q{\232\367\2039\354\363\321\351\351\300\276\336"
 292      F78339EC 
 292      F3D1E9E9 
 292      C0BEDE
 293 00a5 1BFC0001 		.ascii	"\033\374\000\001wE\216"
 293      77458E
 294              		.text
 295              		.section	.gnu.lto_.refs.1a3f30d,"",%progbits
 296 0000 789C6361 		.ascii	"x\234ca`d\020e```c`bdfbbcb\346db\341bb\345eb\023d\000"
 296      60641065 
 296      60606063 
 296      60626466 
 296      62626362 
 297 0020 00060600 		.ascii	"\000\006\006\000|"
 297      7C
 298              		.text
 299              		.section	.gnu.lto_.decls.1a3f30d,"",%progbits
 300 0000 789CBD59 		.ascii	"x\234\275Y\013PTW\232\356sO\003M\323@\004\222XS\324"
 300      0B505457 
 300      9AEE734F 
 300      034DD340 
 300      04925853 
 301 0015 C44D88B2 		.ascii	"\304M\210\262[3Fb&cM\325Lejvg\247\266\266v3\217\244"
 301      5B334662 
 301      26634DD5 
 301      4C656A76 
 301      67A7B6B6 
 302 002d 6AB7A8EA 		.ascii	"j\267\250\3524M\243=\201\206\320\215Qkj\352\362TA\220"
 302      344DA33D 
ARM GAS  C:\Users\gjl\AppData\Local\Temp\cciLWtO0.s 			page 23


 302      8186D08D 
 302      516B6AEA 
 302      F2544190 
 303 0041 B7F2302A 		.ascii	"\267\3620*\242\242\370@T^\202t\024\237\240\250\210/"
 303      A2A2F840 
 303      545E8274 
 303      149FA0A8 
 303      882F
 304 0053 5A404544 		.ascii	"Z@EDA\004\001Q\001\331\377\234so\337\333x\333\331T\355"
 304      41040151 
 304      01D9FF9C 
 304      736FDFDB 
 304      78DBD954 
 305 0068 6C971FE7 		.ascii	"l\227\037\347\376\347|\347\177\235\347\275\252UHE~K"
 305      FEE77CE7 
 305      7F9DE7BD 
 305      AA554845 
 305      7E4B
 306 007a DF53A9A6 		.ascii	"\337S\251\246=T\252\001N\245\232\205\237\006\352\276"
 306      3D54AA01 
 306      4EA59A85 
 306      9F06EABE 
 307 008a 0478023E 		.ascii	"\004x\002>\007\034\004\324\003\354\000/\350\022\254"
 307      071C04D4 
 307      03EC002F 
 307      E812AC
 308 0099 623F6FC0 		.ascii	"b?o\300\277\203\374\007\300\177\003\276\002\030\001"
 308      BF83FC07 
 308      C07F03BE 
 308      021801
 309 00a8 5180AF01 		.ascii	"Q\200\257\001\261\000\033bzVB\271\012\260\006\360\027"
 309      B1001B62 
 309      7A5642B9 
 309      0AB006F0 
 309      17
 310 00b9 C05F013C 		.ascii	"\300_\001<R\271\374\210\256\005\202\275\000@\020\340"
 310      52B9FC88 
 310      AE0582BD 
 310      004010E0 
 311 00c9 9750F705 		.ascii	"\227P\367\005\224_ \3116\361\351?\005\037\023\211~\200"
 311      945F20C9 
 311      36F1E93F 
 311      051F1389 
 311      7E80
 312 00db 159004B0 		.ascii	"\025\220\004\260\000\222\021\363\265\031\360g\304|\257"
 312      009211F3 
 312      B519F067 
 312      C47CAF
 313 00ea 03FC0A9E 		.ascii	"\003\374\012\236k\241L\201\362\367\200T\200\036P\000"
 313      6BA14C81 
 313      F2F78054 
 313      801E5000 
 314 00fa C8071402 		.ascii	"\310\007\024\002\376\013@\342\377\035\224/\240\374\031"
 314      FE0B40E2 
 314      FF1D942F 
 314      A0FC19
 315 0109 94E35066 		.ascii	"\224\343PfB\271\021\220\005\310FR\3546!\316\257\205"
ARM GAS  C:\Users\gjl\AppData\Local\Temp\cciLWtO0.s 			page 24


 315      42B91190 
 315      05C84652 
 315      EC3621CE 
 315      AF85
 316 011b D8BF12E2 		.ascii	"\330\277\022\342\027s\342\013\274MPn\006\024\001\212"
 316      1773E20B 
 316      BC4D506E 
 316      0614018A 
 317 012b 01258052 		.ascii	"\001%\200R\300\026!\007\177\025r\262F\310\321\3129y"
 317      C0162107 
 317      7F1572B2 
 317      46C8D1CA 
 317      3979
 318 013d 211C3594 		.ascii	"!\0345\224\013U,\376E*\026s \224\023\200\247\200\021"
 318      0B552CFE 
 318      452A1673 
 318      20941380 
 318      A78011
 319 0150 C033C024 		.ascii	"\3003\300$\351\000m\303P\214\002^\002f\000S\200\347"
 319      E9006DC3 
 319      508C025E 
 319      02660053 
 319      80E7
 320 0162 8057000E 		.ascii	"\200W\000\016\332\237\250X|$\266i\322e\216M\361G|\303"
 320      DA9FA858 
 320      7C24B669 
 320      D2658E4D 
 320      F1477CC3 
 321 0176 82DD2021 		.ascii	"\202\335 !\247\356~\177\231\303\255{\003w\315\017\340"
 321      A7EE7E7F 
 321      99C3AD7B 
 321      0377CD0F 
 321      E0
 322 0187 AEFA01DC 		.ascii	"\256\372\001\334\225?\200;\303\241\203\251}{4\343\034"
 322      953F803B 
 322      C3A183A9 
 322      7D7B34E3 
 322      1C
 323 0198 0AD6A259 		.ascii	"\012\326\242YD\344\241\372\027\276L&\315=/*~\273x\037"
 323      44E4A1FA 
 323      17BE4C26 
 323      CD3D2F2A 
 323      7EBB781F 
 324 01ac 0FBF6C9E 		.ascii	"\017\277l\236\3478\251\337\021\373\330~5\366!$\356\362"
 324      E738A9DF 
 324      11FBD87E 
 324      35F62124 
 324      EEF2
 325 01be E19BA7BC 		.ascii	"\341\233\247\274Q\250v\027\341\365v\215\377:\231\347"
 325      51A87617 
 325      E1F5768D 
 325      FF3A99E7 
 326 01ce 11DA87B4 		.ascii	"\021\332\207\264h/\302h\017Z\014]@!\374]\307\363I\374"
 326      682FC268 
 326      0F5A0C5D 
 326      4021FC5D 
 326      C7F349FC 
ARM GAS  C:\Users\gjl\AppData\Local\Temp\cciLWtO0.s 			page 25


 327 01e2 4819EF39 		.ascii	"H\031\3579_\205\226\006\243%\301*T\211B\2111\302B\025"
 327      5F859606 
 327      A325C12A 
 327      54894289 
 327      31C24215 
 328 01f6 2818ED46 		.ascii	"(\030\355F\301D\377\236\255\025-\276x3\242\006\036\347"
 328      C144FF9E 
 328      AD152DBE 
 328      7833A206 
 328      1EE7
 329 0208 0FAEC34E 		.ascii	"\017\256\303N\0039\031\301\225<\377\026:\010\006\366"
 329      033919C1 
 329      953CFF16 
 329      3A0806F6 
 330 0218 4B06C09E 		.ascii	"K\006\300\236\262\205\003\012\026Hg\260r9\245\252\024"
 330      B285030A 
 330      164867B0 
 330      7239A5AA 
 330      14
 331 0229 43B4015A 		.ascii	"C\264\001Z\244\006q\364B\361=?\020\203\264h\001\210"
 331      A40671F4 
 331      42F13D3F 
 331      1083B468 
 331      0188
 332 023b 7D53FB1B 		.ascii	"}S\373\033\374X\253'\210O\356M\336\325h\327\321d$\363"
 332      FC58AB27 
 332      884FEE4D 
 332      DED568D7 
 332      D16424F3 
 333 024f 0167FD48 		.ascii	"\001g\375H\303!PX\005\012U\3500\261\217>\012F\325,\202"
 333      C3215058 
 333      050A55E8 
 333      30B18F3E 
 333      0A46D52C 
 334 0264 F1F4D449 		.ascii	"\361\364\324IA\267\027\210\025\375\245Y:\246{\031\210"
 334      41B71788 
 334      15FDA559 
 334      3AA67B19 
 334      88
 335 0275 F627FCA4 		.ascii	"\366'\374\244\177@\266\220\331\317\020\215\346((;B\225"
 335      7F40B690 
 335      D9CF108D 
 335      E628283B 
 335      4295
 336 0287 D5A00051 		.ascii	"\325\240\000Q%\321\265\245\363n\266\267V\210-\373o\304"
 336      25D1B5A5 
 336      F36EB6B7 
 336      56882DFB 
 336      6FC4
 337 0299 06FCFD65 		.ascii	"\006\374\375e\311\3479\271\366\3327io(=\343\360\320"
 337      C9E739B9 
 337      F6DA3769 
 337      6F283DE3 
 337      F0D0
 338 02ab A513ED42 		.ascii	"\245\023\355B`u(@\026Y=\322\221Q'%\260s\263js9\026\327"
 338      60752840 
 338      16593DD2 
ARM GAS  C:\Users\gjl\AppData\Local\Temp\cciLWtO0.s 			page 26


 338      91512725 
 338      B073B36A 
 339 02c3 FB203E1A 		.ascii	"\373 >\032\276f\177CV\216\211Yi`\236\335\255z\346\020"
 339      BE667F43 
 339      568E8959 
 339      69609EDD 
 339      AD7AE610 
 340 02d7 B2F20188 		.ascii	"\262\362\001\210\231{^\275\307\222\262\231\003\321Q"
 340      997B5EBD 
 340      C792B299 
 340      03D151
 341 02e6 5A36EC3D 		.ascii	"Z6\354=7+M\240\254\221*;N\375>&\372=\224\377\260\332"
 341      372B4DA0 
 341      AC912A3B 
 341      4EFD3E26 
 341      FA3D94FF 
 342 02fc 7B6E946E 		.ascii	"{n\224n\331{\247\323vz\271D\331\354\022\245]\210\322"
 342      D97BA7D3 
 342      767AB944 
 342      D9EC12A5 
 342      5D88D2
 343 030f 4EA33C56 		.ascii	"N\243<V\333x\332\203y\266\004\304+#m[|\230\333o\201"
 343      DB78DA83 
 343      79B604C4 
 343      2B236D5B 
 343      7C98DB6F 
 344 0324 786A76D2 		.ascii	"xjv\322\356\317DN\326\032\304Z7t\324,\305\2338\272\200"
 344      EECF444E 
 344      D61AC45A 
 344      3774D42C 
 344      C59B38BA 
 345 0339 76BE9C1A 		.ascii	"v\276\234\032!\361.\204\3655\213e\013l![`\315\255\347"
 345      21F12E84 
 345      F5358B65 
 345      0B6C215B 
 345      60CDADE7 
 346 034d 76E9F00E 		.ascii	"v\351\360\016J\346\312\355I\251\010iC\351@\363\311\274"
 346      4AE6CAED 
 346      49A90869 
 346      43E940F3 
 346      C9BC
 347 035f B6C24F85 		.ascii	"\266\302O\205Z\300\303\223d\312\236\207\261^(\214\365"
 347      5AC0C393 
 347      64CA9E87 
 347      B15E288C 
 347      F5
 348 0370 19A83C0D 		.ascii	"\031\250<\015\225\302\222\033\3727\272\344\316A\374"
 348      95C2921B 
 348      FA37BAE4 
 348      CE41FC
 349 037f 67A515B1 		.ascii	"g\245\025\261P\210\374xNW\277\026\037`6\366\214\264"
 349      5088FC78 
 349      4E57BF16 
 349      1F6036F6 
 349      8CB4
 350 0391 EDF3776B 		.ascii	"\355\363wk\343\202[\0339\031\013\367\221U\327\0066Z"
 350      E3825B1B 
ARM GAS  C:\Users\gjl\AppData\Local\Temp\cciLWtO0.s 			page 27


 350      39190BF7 
 350      9155D706 
 350      365A
 351 03a3 251BE7C4 		.ascii	"%\033\347\304\364\016\247\334\357\025r0\037\304}\235"
 351      F40EA7DC 
 351      EF157230 
 351      1FC47D9D 
 352 03b3 376610AE 		.ascii	"7f\020\256eI\270\360j\3448\306\347\230\260\2777\255"
 352      6549B8F0 
 352      6AE438C6 
 352      E798B0BF 
 352      37AD
 353 03c5 C303DF62 		.ascii	"\303\003\337b\302\256\351\355Gt\270\237\011\305\307"
 353      C2AEE9ED 
 353      4774B89F 
 353      09C5C7
 354 03d4 C6CF7BB0 		.ascii	"\306\317{\260\254j@<=\331\264\303\003\217\262\266\364"
 354      AC6A403C 
 354      3DD9B4C3 
 354      038FB2B6 
 354      F4
 355 03e5 8CBDDBFD 		.ascii	"\214\275\333\375p\032\246B\311\330\355\207\336\314V"
 355      701AA642 
 355      C9D8ED87 
 355      DECC56
 356 03f4 2888A91B 		.ascii	"(\210\251\033*\0331.bm\227z\252'<\361\001&\364t\347"
 356      2A1B312E 
 356      626D977A 
 356      AA273CF1 
 356      0126F474 
 357 0409 FC19D7B2 		.ascii	"\374\031\327\262\347\333g\367T\222\221XDFbv\326_6\026"
 357      E7DB67F7 
 357      54929158 
 357      44466276 
 357      D65F3616 
 358 041d 8BD8585C 		.ascii	"\213\330X\\\331\370\264\334\013\267P:w:\363p\265\217"
 358      D9F8B4DC 
 358      0BB7503A 
 358      773AF370 
 358      B58F
 359 042f B4A995EB 		.ascii	"\264\251\225\353\352I\364\335\020\275C\212~\221s\313"
 359      EA49F4DD 
 359      10BD438A 
 359      7E9173CB 
 360 043f 61534AE5 		.ascii	"aSJ\345\234O\3506dr\221\220\311.\250\274%\354k\3459"
 360      9C4FE836 
 360      64729190 
 360      C92EA8BC 
 360      25EC6BE5 
 361 0454 659EB89D 		.ascii	"e\236\270\235\331(:\262wR+\333\327>\241\031\276\003"
 361      D9283AB2 
 361      77522BDB 
 361      D73EA119 
 361      BE03
 362 0466 367A241B 		.ascii	"6z$\033\335\310\275\221^e#\203W\257\344x\340\033,\356"
 362      DDC8BD91 
 362      5E652383 
ARM GAS  C:\Users\gjl\AppData\Local\Temp\cciLWtO0.s 			page 28


 362      57AFE478 
 362      E01B2CEE 
 363 047a 99EAB5C7 		.ascii	"\231\352\265\307\324x\220\011\017\316\276\030\367\301"
 363      D4789009 
 363      0FCEBE18 
 363      F7C1
 364 0488 334C7879 		.ascii	"3Lxy\"\251\036\341l5\025jN\274h\363\300;\2310\234TY"
 364      22A91EE1 
 364      6C35156A 
 364      4EBC68F3 
 364      C03B9930 
 365 049f 8EF07126 		.ascii	"\216\360q&\\*x\\\310\341\353L\230\236\312K\364\300\217"
 365      5C2A785C 
 365      C8E1EB4C 
 365      989ECA4B 
 365      F4C08F
 366 04b2 98D0EC18 		.ascii	"\230\320\354\030\330\347\203\247\205>\302\004\010`\023"
 366      D8E783A7 
 366      853EC204 
 366      086013
 367 04c1 A0AA31E5 		.ascii	"\240\2521\345\261\260\227\332\311\301R\2219rR\213\013"
 367      B1B097DA 
 367      C9C15291 
 367      3972528B 
 367      0B
 368 04d2 3C08F7ED 		.ascii	"<\010\367\355\304\346\013g\274P\010\371\005\206H\277"
 368      C4E60B67 
 368      BC5008F9 
 368      058648BF 
 369 04e2 50401909 		.ascii	"P@\031\011\264\267`\360\263\306\032\007\317\247\351"
 369      B4B760F0 
 369      B3C61A07 
 369      CFA7E9
 370 04f1 E816700F 		.ascii	"\350\026p\017\3221\206\002\305]\357#\262^\277'\253V"
 370      D2318602 
 370      C55DEF23 
 370      B25EBF27 
 370      AB56
 371 0503 45E9F6EC 		.ascii	"E\351\366\354+>|\325W\224z\331\225z\202\256\355\245"
 371      2B3E7CD5 
 371      57947AD9 
 371      957A82AE 
 371      EDA5
 372 0515 12D571D1 		.ascii	"\022\325q\321I}\240\240\265E\246us\273\223zW\201zTF"
 372      497DA0A0 
 372      B545A675 
 372      73BB937A 
 372      57817A54 
 373 052a BD21691D 		.ascii	"\275!i\035P\240R\3739\302F\305#\233\012\015\301h\015"
 373      50A052FB 
 373      39C246C5 
 373      239B0A0D 
 373      C1680D
 374 053d 92217C24 		.ascii	"\222!|$\320a\014\341\004\016E\023(\004=\005\214\000"
 374      D0610CE1 
 374      040E4513 
 374      28043D05 
ARM GAS  C:\Users\gjl\AppData\Local\Temp\cciLWtO0.s 			page 29


 374      8C00
 375 054f 9E012601 		.ascii	"\236\001&\001<\027\202\206\241\034\005\274\004\314\000"
 375      3C178286 
 375      A11C05BC 
 375      04CC00
 376 055e A600CF01 		.ascii	"\246\000\317\001\257\000I\320\376\004\312\027\200q\300"
 376      AF0049D0 
 376      FE04CA17 
 376      8071C0
 377 056d 3420910B 		.ascii	"4 \221\013\241g5\363\257PJP\273R\202.\312b\271&\305"
 377      A16735F3 
 377      AF504A50 
 377      BB52822E 
 377      CA62B926 
 378 0582 F2502196 		.ascii	"\362P!\2260\211\331-1\373\025\230r\245#\022\365\276"
 378      3089D92D 
 378      31FB1598 
 378      72A52312 
 378      F5BE
 379 0594 02F5908C 		.ascii	"\002\365\220\214:.\245\275\323\225\332\201\346\016|"
 379      3A2EA5BD 
 379      D395DA81 
 379      E60E7C
 380 05a3 BE14D725 		.ascii	"\276\024\327%\245\270\344\303\271u\243_\021oO\301t\201"
 380      A5B8E4C3 
 380      B975A35F 
 380      116F4FC1 
 380      7481
 381 05b5 DD14D8CE 		.ascii	"\335\024\330\316\245\304t\313\202\273\331\356\273\211"
 381      A5C474CB 
 381      82BBD9EE 
 381      BB89
 382 05c3 B72762AA 		.ascii	"\267'b\252\374\272\222#\327d\312ks\3756\363\366$L\367"
 382      FCBA9223 
 382      D764CA6B 
 382      73FD36F3 
 382      F6244CF7 
 383 05d7 C75302DB 		.ascii	"\307S\002\333\271\2552g\344Av\310\265\337P\322.g?\227"
 383      B9AD3267 
 383      E44176C8 
 383      B5DF50D2 
 383      2E673F97 
 384 05eb 52725589 		.ascii	"RrU\211\313\246\"\335F\354\315Y:\236\327\020\216J\330"
 384      CBA622DD 
 384      46ECCD59 
 384      3A9ED710 
 384      8E4AD8
 385 05fe 42A46930 		.ascii	"B\244i0vQf\265Oa\034\344!\325\313Cz\254\034\222|,f\345"
 385      765166B5 
 385      4F611CE4 
 385      21D5CB43 
 385      7AAC1C92 
 386 0616 215D511A 		.ascii	"!]Q\032\015\232]\330\013nn,)\362\307\015t/\340.\364"
 386      0D9A5DD8 
 386      0B6E6E2C 
 386      29F2C70D 
 386      742FE02E 
ARM GAS  C:\Users\gjl\AppData\Local\Temp\cciLWtO0.s 			page 30


 387 062b 1537FBA1 		.ascii	"\0257\373\241\300P\345\345\221\312\205\376]\227\007"
 387      C050E5E5 
 387      91CA85FE 
 387      5D9707
 388 063a CBD9EDD6 		.ascii	"\313\331\355\326\237\220\234\245p\201(\231s\356\274"
 388      9F909CA5 
 388      70812899 
 388      73EEBC
 389 0649 2485D4DF 		.ascii	"$\205\324\337\355\025\2733Q\240\340\240\335\255\203"
 389      ED15BB33 
 389      51A0E0A0 
 389      DDAD83
 390 0658 AAFF73EF 		.ascii	"\252\377s\357\300vZ\372X\"r\271\266\244q\201\262k\313"
 390      C0765AFA 
 390      582272B9 
 390      B6A47181 
 390      B26BCB
 391 066b 5A8E5D5B 		.ascii	"Z\216][\240${u\312\351ZM\027\314n85\205\027\032\366"
 391      A0247B75 
 391      CAE95A4D 
 391      17CC6E38 
 391      3585171A 
 392 0680 6283A020 		.ascii	"b\203\240 P1P\021\0368\372W\345\254r\026*\362W\305\370"
 392      50315011 
 392      1E38FA57 
 392      E5AC7216 
 392      2AF257C5 
 393 0695 B44E5246 		.ascii	"\264NRF\377\211\345\254\370\243J$\355H\350\204\234\036"
 393      FF89E5AC 
 393      F8A34A24 
 393      ED48E884 
 393      9C1E
 394 06a7 B05EAC9D 		.ascii	"\260^\254\235\023\265\262\202\223:\310\3641we>!\327"
 394      13B5B282 
 394      933AC8F4 
 394      3177653E 
 394      21D7
 395 06b9 989098A2 		.ascii	"\230\220\230\242\324\202g\247}\361E:\235\320\201}SU"
 395      D48267A7 
 395      7DF1453A 
 395      9DD0817D 
 395      5355
 396 06cb 5A35BCA9 		.ascii	"Z5\274\251\240/t(BM\252\272\322v\267\372\320*23\323"
 396      A02F7428 
 396      424DAABA 
 396      D276B7FA 
 396      D02A3233 
 397 06e0 395AD979 		.ascii	"9Z\331y\243\273\323\333Y\231\301*\305\213E\000\273X"
 397      A3BBD3DB 
 397      5999C12A 
 397      C58B4500 
 397      BB58
 398 06f2 88EF0301 		.ascii	"\210\357\003\001\354}\200\037H\331\312\341~f\247y \247"
 398      EC7D801F 
 398      48D9CAE1 
 398      7E66A779 
 398      20A7
ARM GAS  C:\Users\gjl\AppData\Local\Temp\cciLWtO0.s 			page 31


 399 0704 59832798 		.ascii	"Y\203'\230pi\367\343\353~8\323\223\012\003\333\232\253"
 399      7069F7E3 
 399      EB7E38D3 
 399      930A03DB 
 399      9AAB
 400 0716 35B88209 		.ascii	"5\270\202\011\005\366\334i->\302\204s\365w\227\340f"
 400      05F6DC69 
 400      2D3EC284 
 400      73F57797 
 400      E066
 401 0728 F6FCACF5 		.ascii	"\366\374\254\365\352m\214/2a\343\211\246\223\032|\213"
 401      EA6D8C2F 
 401      3261E389 
 401      A6931A7C 
 401      8B
 402 0739 09A71DB7 		.ascii	"\011\247\035\267:\325\270\237\011\211M'\017\373\342"
 402      3AD5B89F 
 402      09894D27 
 402      0FFBE2
 403 0748 2926CC1C 		.ascii	")&\314\034>|\022\341\024/*\364\247\357\031\325\341L"
 403      3E7C12E1 
 403      142F2AF4 
 403      A7EF19D5 
 403      E14C
 404 075a 263C74D4 		.ascii	"&<t\324N\353\\f\011\271\013K\263\244\204\315\022r\001"
 404      4EEB5C66 
 404      09B90B4B 
 404      B3A484CD 
 404      127201
 405 076d 3F3439A4 		.ascii	"?49\244\301\271\254\333\332\331\333-\032\\\316\204\224"
 405      C1B9ACDB 
 405      DAD9DB2D 
 405      1A5CCE84 
 405      94
 406 077e DD9925BE 		.ascii	"\335\231%\276\270\212\011YEO\217y\341:&t\330\267\225"
 406      B88A0959 
 406      454F8F79 
 406      E13A2674 
 406      D8B795
 407 0791 78E36626 		.ascii	"x\343f&\334;2Y\356\213\3173\341\316\223\246\"/g\026"
 407      DC3B3259 
 407      EE8BCF33 
 407      E1CE93A6 
 407      222F6716 
 408 07a5 59BA8F5E 		.ascii	"Y\272\217^\331\332\343\205\2570\302\313\366\251\006"
 408      D9DAE385 
 408      AF30C2CB 
 408      F6A906
 409 07b4 847B9830 		.ascii	"\204{\2300\271\377\201\303\003\017\011\346\266d\267"
 409      B9FF81C3 
 409      030F09E6 
 409      B664B7
 410 07c3 0BEF113F 		.ascii	"\013\357\021?\001\261p}i\257\232\335\027"
 410      01B1707D 
 410      69AF9ADD 
 410      17
 411 07d0 7AC99D7A 		.ascii	"z\311\235z\340~\311i-~\316\270\315\035\007\333\374\361"
ARM GAS  C:\Users\gjl\AppData\Local\Temp\cciLWtO0.s 			page 32


 411      E07EC969 
 411      2D7ECEB8 
 411      CD1D07DB 
 411      FCF1
 412 07e2 060D11DE 		.ascii	"\006\015\021\336w\014U\327\373\"\227\213CH\210N7_\255"
 412      770C55D7 
 412      FB22978B 
 412      4348884E 
 412      375FAD
 413 07f5 0B149F42 		.ascii	"\013\024\237BCBCC\331\256\264\351\232lW\332\004\213"
 413      43424343 
 413      D9AEB4E9 
 413      9A6C57DA 
 413      048B
 414 0807 BB9273EE 		.ascii	"\273\222s\356J\203\262\315\323e\373\331\315\005\243"
 414      4A83B2CD 
 414      D365FBD9 
 414      CD05A3
 415 0816 5D1C3076 		.ascii	"]\0340v\012\035\310\366s\016V\372YX\254'\000\337\003"
 415      0A1DC8F6 
 415      730E56FA 
 415      5958AC27 
 415      00DF03
 416 0829 EC806640 		.ascii	"\354\200f@\035\240\026P\0038\012\330\0138\0028\014\250"
 416      1DA01650 
 416      03380AD8 
 416      0B380238 
 416      0CA8
 417 083b 061C0254 		.ascii	"\006\034\002T\001\016\002\016\000\366\003\366\271\234"
 417      010E020E 
 417      00F603F6 
 417      B99C
 418 0849 CE8DD79C 		.ascii	"\316\215\327\234\333{\205\253\207\231\334\234S\251A"
 418      DB7B85AB 
 418      8799DC9C 
 418      53A941
 419 0858 A26E74A5 		.ascii	"\242nt\245fqs/%u\0227[\211+\337\274k$n\216\022W~0\034"
 419      6671732F 
 419      25751237 
 419      5B892BDF 
 419      BC6B246E 
 420 0872 91B8B94A 		.ascii	"\221\270\271J\\\371\311U-q\363\224\270\362;B\225\304"
 420      5CF9C955 
 420      2D71F394 
 420      B8F23B42 
 420      95C4
 421 0884 CD57E2CA 		.ascii	"\315W\342\312\017\363\357$n\201\022Wv\343\333,Q\013"
 421      0FF3EF24 
 421      6E811257 
 421      76E3DB2C 
 421      510B
 422 0896 95A8B2EC 		.ascii	"\225\250\262\354\346K\324\315JSE\236\261\274B\331\361"
 422      E64BD4CD 
 422      4A53459E 
 422      B1BC42D9 
 422      F1
 423 08a7 5824B09D 		.ascii	"X$\260\235\307\343\340kgxN\341\333\354\372\001k\021"
ARM GAS  C:\Users\gjl\AppData\Local\Temp\cciLWtO0.s 			page 33


 423      C7E3E06B 
 423      67784EE1 
 423      DBECFA01 
 423      6B11
 424 08b9 150B7CE7 		.ascii	"\025\013|\347\365cp\356\365c\266\303\237\321\353\201"
 424      F56370EE 
 424      F563B6C3 
 424      9FD1EB81 
 425 08c9 5E3A972E 		.ascii	"^:\227.\277P\310W\3751n\276Dj\205\011\333\000\275\331"
 425      BF50C857 
 425      FD316EBE 
 425      446A8509 
 425      DB00BDD9 
 426 08dd 71E68EA6 		.ascii	"q\346\216\246\222q\012\311\"\200\227\302\005\034\315"
 426      92710AC9 
 426      228097C2 
 426      051CCD
 427 08ec 81188D8A 		.ascii	"\201\030\215\212t\200\277\215\034\371\012GV{\023t\331"
 427      7480BF8D 
 427      1CF90A47 
 427      567B1374 
 427      D9
 428 08fd 00925CE9 		.ascii	"\000\222\\\351q\227s\251\211\3558\312\313\352<x\366"
 428      719773A9 
 428      89ED38CA 
 428      CBEA3C78 
 428      F6
 429 090e F75F56D3 		.ascii	"\367_V\323\035:>\333@\023\370\235r\002e\371~)\221\267"
 429      1D3A3EDB 
 429      4013F89D 
 429      720265F9 
 429      7E2991B7 
 430 0922 CE252B5C 		.ascii	"\316%+\\\310$\3666e\266L\365d^\020\033\312\223@\337"
 430      C824F636 
 430      65B64CF5 
 430      645E101B 
 430      CA9340DF 
 431 0936 3E97FE91 		.ascii	">\227\376\221\362H\236\222\217\344\031\310Q\213\342"
 431      F2489E92 
 431      8FE419C8 
 431      518BE2
 432 0945 489E7219 		.ascii	"H\236r\031\311\026\245\221ls\031\311St$O\273\214d\031"
 432      C916A591 
 432      6C7319C9 
 432      5374244F 
 432      BB8C6419 
 433 0959 48EC2234 		.ascii	"H\354\"4\221\361\016\271\010\021GwH\027\241\026:\226"
 433      91F10EB9 
 433      08114777 
 433      4817A116 
 433      3A96
 434 096b 2C9889BC 		.ascii	",\230\211\274\367X0p\341@\345\212\301\204I\227\321\321"
 434      F7583070 
 434      E140E58A 
 434      C1844997 
 434      D1D1
 435 097d 3C7A1905 		.ascii	"<z\031\005\216\3742\312\332\2722~L\332\310\264\331#"
ARM GAS  C:\Users\gjl\AppData\Local\Temp\cciLWtO0.s 			page 34


 435      8EFC32CA 
 435      DABA327E 
 435      4CDAC8B4 
 435      D923
 436 098f D9225491 		.ascii	"\331\"T\2211\326\3726a\220,o\221\030\015\324\033\362"
 436      31D6FA36 
 436      61902C6F 
 436      91180DD4 
 436      1BF2
 437 09a1 55CCB1AE 		.ascii	"U\314\261\256\302\377\375m\374\266*\276\367z\331\352"
 437      C2FFFD6D 
 437      FCB62ABE 
 437      F77AD9EA 
 438 09b1 ADD57D3C 		.ascii	"\255\325}<\257U\323\311\275^\242\303#)\326q]p}h\343"
 438      AF55D3C9 
 438      BD5EA2C3 
 438      2329D671 
 438      5D707D68 
 439 09c6 C837AB63 		.ascii	"\3107\253c\205\367|\360qz\232\240\344]\275\227<p\007"
 439      85F77CF0 
 439      717A9AA0 
 439      E45DBD97 
 439      3C7007
 440 09d9 130A9BED 		.ascii	"\023\012\233\355\245\376p\234\241\213\264\0239.[\222"
 440      A5FE709C 
 440      A18BB413 
 440      392E5B92 
 441 09e9 9EB26B02 		.ascii	"\236\262k\002I\024;\340\332\233\333J\325\363\335\256"
 441      49143BE0 
 441      DA9BDB4A 
 441      D5F3DDAE 
 442 09f9 95CB34C3 		.ascii	"\225\3134\303\227h\206\201\375]\336\271\0025x\331\013"
 442      97688681 
 442      FD5DDEB9 
 442      023578D9 
 442      0B
 443 0a0a AFF8F983 		.ascii	"\257\370\371\203\2532v\244\331/\301k>\345\241\013\242"
 443      AB3276A4 
 443      D92FC16B 
 443      3EE5A10B 
 443      A2
 444 0a1b 9FA89D53 		.ascii	"\237\250\235S\023\211]o\256P7\363\266\217us\330\341"
 444      13895D6F 
 444      AE5037F3 
 444      B68F7573 
 444      D8E1
 445 0a2d CEB5FC81 		.ascii	"\316\265\374\2013\336.G\376A\227#\277\323y\344oj\\\177"
 445      33DE2E47 
 445      FE419723 
 445      BFD379E4 
 445      6F6A5C7F 
 446 0a41 C393C6D0 		.ascii	"\303\223\306\320\351\214\241\317qn\\:\270\257\261\353"
 446      E98CA1CF 
 446      716E5C3A 
 446      B8AFB1EB 
 447 0a51 4FDBDA59 		.ascii	"O\333\332Yp[\014\366:\253\354\357>Y\357\351>\332\233"
 447      705B0CF6 
ARM GAS  C:\Users\gjl\AppData\Local\Temp\cciLWtO0.s 			page 35


 447      3AABECEF 
 447      3E59EFE9 
 447      3EDA9B
 448 0a64 34DA1B62 		.ascii	"4\332\033b\264\263i\317\357\350X\264\366\227\021E\374"
 448      B4B369CF 
 448      EFE858B4 
 448      F6971145 
 448      FC
 449 0a75 8924FE33 		.ascii	"\211$\3763\302A\035\316H\257B\244\035b\244\267h\244"
 449      C2411DCE 
 449      48AF42A4 
 449      1D62A4B7 
 449      68A4
 450 0a87 B9398F73 		.ascii	"\2719\217s\275\361\260\273H\225n\031\227\035\355\323"
 450      BDF1B0BB 
 450      48956E19 
 450      971DEDD3 
 451 0a97 9E4E5F6F 		.ascii	"\236N_o3_\3636\267\237{\303\310\364P_\273E_\223\236"
 451      335FF336 
 451      B79F7BC3 
 451      C8F4505F 
 451      BB455F93 
 452 0aac 9E99C182 		.ascii	"\236\231\301\202\257\317D_\201\203\272\234\276:\300"
 452      AFCF445F 
 452      8183BA9C 
 452      BE3AC0
 453 0abb D72ED1D7 		.ascii	"\327.\321\327^\352kVb\335)5\236u\347kj\326\361YoA\351"
 453      5EEA6B56 
 453      62DD2935 
 453      9E75E76B 
 453      6AD6F159 
 454 0ad2 B4A8940C 		.ascii	"\264\250\224\014\365\035\247\322\273\240\364\216\250"
 454      F51DA7D2 
 454      BBA0F48E 
 454      A8
 455 0adf F41E557A 		.ascii	"\364\036Uz\350|\343\003o\\\350\355F\351\231\314\355"
 455      E87CE303 
 455      6F5CE8ED 
 455      46E999CC 
 455      ED
 456 0af0 43A2D2E7 		.ascii	"C\242\322\347rO\373\234J\357\203\322>Qi?UZ\221b\177"
 456      724FFB9C 
 456      4AEF83D2 
 456      3E51693F 
 456      555A9162 
 457 0b05 EA8D7733 		.ascii	"\352\215w3\245\335\343SS,_%\316I\340\350n28S8\300RX"
 457      A5DDE353 
 457      532C5F25 
 457      CE49E0E8 
 457      6E323853 
 458 0b1d 5CB66B2F 		.ascii	"\\\266k/\222\247\360\313wd\031|D3\370P\314`\3265\307"
 458      92A7F0CB 
 458      7764197C 
 458      4433F850 
 458      CC60D635 
 459 0b32 2D1FC1AF 		.ascii	"-\037\301\257\211{K\3001\216P\320\003i\371=\020}\032"
 459      897B4BC0 
ARM GAS  C:\Users\gjl\AppData\Local\Temp\cciLWtO0.s 			page 36


 459      318E50D0 
 459      0369F93D 
 459      107D1A
 460 0b45 A43E55A6 		.ascii	"\244>U\246\355O\367\300M\314'\245\305\325]=|\333\337"
 460      ED4FF7C0 
 460      4DCC27A5 
 460      C5D55D3D 
 460      7CDBDF
 461 0b58 ADFD616A 		.ascii	"\255\375aj\377\261h\277\243\275\355\307\202\371\306"
 461      FFB168BF 
 461      A3BDEDC7 
 461      82F9C6
 462 0b67 EB3AFBE7 		.ascii	"\353:\373\347\244\035\015I\306\207D\343O\250\361\356"
 462      A41D0D49 
 462      C68744E3 
 462      4FA8F1EE 
 463 0b77 B29E8D9E 		.ascii	"\262\236\215\236\370\0063\236R\223u\231M\366\265N\343"
 463      F806339E 
 463      52937599 
 463      4DF6B54E 
 463      E3
 464 0b88 F733BAC6 		.ascii	"\3673\272\3065N\207FYF\006\032'\352|\334z4F=z*z\324"
 464      354E8746 
 464      5946061A 
 464      27EA7CDC 
 464      7A34463D 
 465 0ba0 387DBD53 		.ascii	"8}\275SX\355\366\006\352\022\020\320\210\344\322\210"
 465      58EDF606 
 465      EA1210D0 
 465      88E4D288 
 466 0bb0 E8D23875 		.ascii	"\350\3228u\351D\341}x?\230b.5U\347\335\326}\270\203"
 466      E944E17D 
 466      783F9862 
 466      2E3555E7 
 466      DDD67DB8 
 467 0bc5 BFB48D6C 		.ascii	"\277\264\215lh\337\2248Rx\336\223~\214\237`\012d\337"
 467      68DF9438 
 467      5278DE93 
 467      7E8C9F60 
 467      0A64DF
 468 0bd8 F049CD9F 		.ascii	"\360I\315\237`\216<\343>\204\236\257\036\326\215\373"
 468      608E3CE3 
 468      3E849EAF 
 468      1ED68DFB 
 469 0be8 E22DEC3B 		.ascii	"\342-\354;\346L\361\366+\210\251\261;~\313/\241\032"
 469      E64CF1F6 
 469      2B88A9B1 
 469      3B7ECB2F 
 469      A11A
 470 0bfa 265FD330 		.ascii	"&_\3230)hxN5\264\226\317l\363\300\315L\303\245\261\216"
 470      2968784E 
 470      35B496CF 
 470      6CF3C0CD 
 470      4CC3A5B1 
 471 0c0f 247F4143 		.ascii	"$\177AC\243\250\341\305k\032^\010\032^R\015\031k\217"
 471      A3A8E1C5 
 471      6B1A5E08 
ARM GAS  C:\Users\gjl\AppData\Local\Temp\cciLWtO0.s 			page 37


 471      1A5E520D 
 471      196B8F
 472 0c22 8F7AE37E 		.ascii	"\217z\343~\246\241\263\241\351\274V\320P*j\230zM\303"
 472      A6A1B3A1 
 472      E9BC56D0 
 472      502A6A98 
 472      7A4DC3
 473 0c35 94A0619A 		.ascii	"\224\240a\232j\230\335\271\253\330\003g\322\377UB\353"
 473      6A98DDB9 
 473      ABD80367 
 473      D2FF5542 
 473      EB
 474 0c46 9E57AFF7 		.ascii	"\236W\257\367\0264T{\360\230~\256\237\0214H_\371g\004"
 474      1634547B 
 474      F0987EAE 
 474      9F113448 
 474      5FF96704 
 475 0c5a 0DAF980F 		.ascii	"\015\257\230\017\223)-\276\370\000\323P\331t\264BH\247"
 475      93292DBE 
 475      F800D350 
 475      D974B442 
 475      48A7
 476 0c6c 7DEBDA0F 		.ascii	"}\353\332\017\023y\273\232\276<\317\012J\304wx\025\255"
 476      1379BB9A 
 476      BE3CCF0A 
 476      4AC47778 
 476      15AD
 477 0c7e 214A78FC 		.ascii	"!Jx\374!\335X\373v\250]v\3261\227S6\021\263Wn(\311\234"
 477      21DD58FB 
 477      76A85D76 
 477      D6319753 
 477      3611B357 
 478 0c96 D99275D8 		.ascii	"\331\222u\330u\037\036va'\011\354$\312~Q\323\372\275"
 478      751F1E76 
 478      612709EC 
 478      24CA7E51 
 478      D3FABD
 479 0ca9 BF0BFB91 		.ascii	"\277\013\373\221\013;Y`'S\366\340\350\311\307\256\377"
 479      0B3B5960 
 479      2753F6E0 
 479      E8C9C7AE 
 479      FF
 480 0cba 3373D985 		.ascii	"3s\331\205\235\"\260S(\273\261c\355\240\257\013\273"
 480      9D22B053 
 480      28BBB163 
 480      EDA0AF0B 
 480      BB
 481 0ccb C7859D2A 		.ascii	"\307\205\235*\260S);5}\366\201?>\303RU[\374\312\256"
 481      B053293B 
 481      357DF681 
 481      3F3EC352 
 481      555BFCCA 
 482 0ce0 C6179890 		.ascii	"\306\027\230\220V8{W\213/3a|\370f\205'\276%\320\206"
 482      56387B57 
 482      8B2F3361 
 482      7CF86685 
 482      27BE25D0 
ARM GAS  C:\Users\gjl\AppData\Local\Temp\cciLWtO0.s 			page 38


 483 0cf5 2B6B7D85 		.ascii	"+k}\205\217\272D\316\335\227\236\214\360 m\364\334p"
 483      8FBA44CE 
 483      DD979E8C 
 483      F0206DF4 
 483      DC70
 484 0d07 ABBBD30F 		.ascii	"\253\273\323\017\321w0\341c\216\235]\373\322q0\275\024"
 484      D17730E1 
 484      638E9D5D 
 484      FBD27130 
 484      BD14
 485 0d19 A1F518A3 		.ascii	"\241\365\030\243\015\230]\373rp(\312\306!(\013\220\011"
 485      0D985DFB 
 485      727028CA 
 485      C621280B 
 485      9009
 486 0d2b D8886557 		.ascii	"\330\210eW\267\336\202\301\317\353e\337\177\323\204"
 486      B7DE82C1 
 486      CFEB65DF 
 486      7FD384
 487 0d3a 8EEE3E55 		.ascii	"\216\356>UUK_\027\327*P\3457\267\032\211\232\241@\225"
 487      554B5F17 
 487      D72A50E5 
 487      37B71A89 
 487      9AA14095 
 488 0d4e DFF00F65 		.ascii	"\337\360\017e\011\037\014\311\261\271N \273\275\352"
 488      091F0CC9 
 488      B1B94E20 
 488      BBBDEA
 489 0d5d 6C61DFDD 		.ascii	"la\337\335\200#\277\352\220O\376\351O\247\375\360(\373"
 489      8023BFEA 
 489      904FFEE9 
 489      4FA7FDF0 
 489      28FB
 490 0d6f BFD2E9B2 		.ascii	"\277\322\351\262\3655\032\024\032\310\372\364\264\206"
 490      F5351A14 
 490      1AC8FAF4 
 490      B486
 491 0d7d 903EF9A0 		.ascii	"\220>\371\2407\027;\267\010\242b\316\315\331\231\302"
 491      37173BB7 
 491      08A262CE 
 491      CDD999C2 
 492 0d8d 3C48DBDF 		.ascii	"<H\333\337J!9B*'\012\374\\\246B>\226\337\316\013\204"
 492      4A213942 
 492      2A270AFC 
 492      5CA6423E 
 492      96DFCE0B 
 493 0da2 A95040A7 		.ascii	"\251P@\247\302\356\023\343\327\\\277\036\334t\2318\205"
 493      C2EE13E3 
 493      D75CBF1E 
 493      DC749938 
 493      85
 494 0db3 02BB90B2 		.ascii	"\002\273\220\262s\366tU\353>\330\316\334K\207U\363\345"
 494      73F67455 
 494      EB3ED8CE 
 494      DC4B8755 
 494      F3E5
 495 0dc5 3BF462C5 		.ascii	";\364b\305\266\265M\230\374\277^q\367\341\233\034\343"
ARM GAS  C:\Users\gjl\AppData\Local\Temp\cciLWtO0.s 			page 39


 495      B6B54D98 
 495      FCBF5E71 
 495      F7E19B1C 
 495      E3
 496 0dd6 C04E66AE 		.ascii	"\300Nf\256H\007\242+o3\345\345_{Y\216\031\317^\245\235"
 496      4807A22B 
 496      6F33E5E5 
 496      5F7B598E 
 496      19CF5EA5 
 497 0deb CB29A29C 		.ascii	"\313)\242\234\332\376\024\336O\340\324\275\306)\246"
 497      DAFE14DE 
 497      4FE0D4BD 
 497      C629A6
 498 0dfa 1C47774F 		.ascii	"\034GwO\212\257\300\271\372\032\247\204r\032\037\036"
 498      8AAFC0B9 
 498      FA1AA784 
 498      721A1F1E 
 499 0e0a BB8C04CE 		.ascii	"\273\214\004\316\253\3278\245\224\263u\274\264O-pJ}"
 499      ABD738A5 
 499      94B375BC 
 499      B44F2D70 
 499      4A7D
 500 0e1c E672B6E0 		.ascii	"\346r\266\340\017T\232\177\375\217/\026\374&,L\345\255"
 500      0F549A7F 
 500      FD8F2F16 
 500      FC262C4C 
 500      E5AD
 501 0e2e D727982D 		.ascii	"\327'\230-\266ez[\"2\376\"<.>vy\274!fA\2249\332d]\020"
 501      B6657A5B 
 501      2232FE22 
 501      3C2E3E76 
 501      79BC2166 
 502 0e49 BA6AD9A7 		.ascii	"\272j\331\247\377\030n\\\035\027o\262Z\303\343\254\261"
 502      FF186E5C 
 502      1D176FB2 
 502      5AC3E3AC 
 502      B1
 503 0e5a C605C678 		.ascii	"\306\005\306x\223\301\026\033\037\376\311\3420\327\012"
 503      93C1161B 
 503      1FFEC9E2 
 503      30D70A
 504 0e69 734C5C6C 		.ascii	"sL\\l\274-|\271%!\334\020\037\023\376\263\305\204\001"
 504      BC2D7CB9 
 504      2521DC10 
 504      1F13FEB3 
 504      C58401
 505 0e7c 4F3FB5C4 		.ascii	"O?\265\304ZL?5\031\"\314\341f\2131:!\322\024\036c0\256"
 505      5A4C3F35 
 505      1922CCE1 
 505      668B313A 
 505      21D2141E 
 506 0e93 305B4CE1 		.ascii	"0[L\341\372HS\224!!\332\246\267\255\2163Y\027\257Py"
 506      FA485394 
 506      2121DAA6 
 506      B7AD8E33 
 506      5917AF50 
 507 0ea8 09AEACFC 		.ascii	"\011\256\254\374\377\362\304\272\332\032\256\267\332"
ARM GAS  C:\Users\gjl\AppData\Local\Temp\cciLWtO0.s 			page 40


 507      FFF2C4BA 
 507      DA1AAEB7 
 507      DA
 508 0eb5 22C12C98 		.ascii	"\"\301,\230\367\2113\2572E\353\2775G\332VhY^\302>\325"
 508      F78933AF 
 508      3245EBBF 
 508      3547DA56 
 508      68595EC2 
 509 0ecb DB34E2C3 		.ascii	"\3334\342\303\274\250hs\\Ll\244I\277J\037\033\025e5"
 509      BCA86873 
 509      5C4C6CA4 
 509      49BF4A1F 
 509      1B156535 
 510 0edf D9DE1223 		.ascii	"\331\336\022#\020+|l\340\256~\205\311\274|\205MK\237"
 510      102B7C6C 
 510      E0AE7E85 
 510      C9BC7C85 
 510      4D4B9F
 511 0ef2 A9B6A06F 		.ascii	"\251\266\240o\343\3156\223>.!\332*\324\350-\326\200"
 511      E3CD3693 
 511      3E2E21DA 
 511      2AD4E82D 
 511      D680
 512 0f04 4883CDA0 		.ascii	"H\203\315\240\207N\011qz\2339\306\004UA\346\217\215"
 512      874E0971 
 512      7A9B39C6 
 512      045541E6 
 512      8F8D
 513 0f16 FA8804AB 		.ascii	"\372\210\004\253\336\030\035k\374Z\037\266d\311\327"
 513      DE181D6B 
 513      FC5A1FB6 
 513      64C9D7
 514 0f25 BF5BA3B1 		.ascii	"\277[\243\261\306\231\365\304\254\316\012u\254e\305"
 514      C699F5C4 
 514      ACCE0A75 
 514      AC65C5
 515 0f34 1AC1C1A5 		.ascii	"\032\301\301\245\037\013\016\222\207\000Bp52\317\032"
 515      1F0B0E92 
 515      87004270 
 515      3532CF1A 
 516 0f44 39C74640 		.ascii	"9\307F@\\\254\325\246\207<\232l\372o\015f\233>\306\032"
 516      5CACD5A6 
 516      873C9A6C 
 516      FA6F0D66 
 516      9B3EC61A 
 517 0f58 C42479CF 		.ascii	"\304$y\317\030\353|\310\265\036\006*N\037i\266\032\""
 517      18EB7CC8 
 517      B51E062A 
 517      4E1F69B6 
 517      1A22
 518 0f6a 4828846D 		.ascii	"H(\204m\201\006\242\200\266\230,\362\206\000\027v\264"
 518      8106A280 
 518      B6982CF2 
 518      86001776 
 518      B4
 519 0f7b 69A5297A 		.ascii	"i\245)z\236\234Fk\346',[\265\214\220\342\242\015\253"
 519      9E9C466B 
ARM GAS  C:\Users\gjl\AppData\Local\Temp\cciLWtO0.s 			page 41


 519      E6272C5B 
 519      B58C90E2 
 519      A20DAB
 520 0f8e F5664B54 		.ascii	"\365fKT,\014@|\202\321\246c\331g\271{w\361"
 520      2C0C407C 
 520      82D1A663 
 520      D967B97B 
 520      77F1
 521 0fa0 E270F897 		.ascii	"\342p\370\227\260l\371\307\341Fk\2741\234\364\202!\012"
 521      B06CF9C7 
 521      E1466BBC 
 521      319CF482 
 521      210A
 522 0fb2 7CBDB7ED 		.ascii	"|\275\267\355]V\247O0\206\375|I\230>\306l1\207}\274"
 522      5D56A74F 
 522      3086FD7C 
 522      49983EC6 
 522      6C31877D 
 523 0fc7 ECD34FFC 		.ascii	"\354\323O\374\"M\021\261\011\026\243\011\014\030l\246"
 523      224D11B1 
 523      0916A309 
 523      0C186CA6 
 524 0fd7 779D62B4 		.ascii	"w\235b\264\001\374\2173[X\375\217\234\365\342`:\233"
 524      01FC8F33 
 524      5B58FD8F 
 524      9CF5E260 
 524      3A9B
 525 0fe9 7C96C799 		.ascii	"|\226\307\231cI\252\240V\233`\213Z\306\252A\361J3\360"
 525      6349AAA0 
 525      569B608B 
 525      5AC6AA41 
 525      F14A33F0 
 526 0ffd 0D9191   		.ascii	"\015\221\221"
 527 1000 643AFA90 		.ascii	"d:\372\220A\203\206x\233)\222>\013\365Af\253>*\326b"
 527      41838678 
 527      9B29923E 
 527      0BF54166 
 527      AB3E2AD6 
 528 1015 0337579A 		.ascii	"\0037W\232\342!\263d\0145\342L\321\230,\306X\230x\313"
 528      E221B364 
 528      0C35E24C 
 528      D1982CC6 
 528      589878CB 
 529 1029 D584338F 		.ascii	"\325\2043\217Z2X\"\301\011\022\2311\302\207F\025c]\016"
 529      5A325822 
 529      C1091299 
 529      31C28746 
 529      15635D0E 
 530 103d CF5E11AB 		.ascii	"\317^\021\253a\366\030#<\215\206H(\264b\374\320b1\255"
 530      61F61823 
 530      3C8D8648 
 530      28B462FC 
 530      D06231AD 
 531 1051 82B188D0 		.ascii	"\202\261\210\320Q\266q\205!\236\010\362\3740=,\305\201"
 531      51B67185 
 531      219E08F2 
 531      FC303D2C 
ARM GAS  C:\Users\gjl\AppData\Local\Temp\cciLWtO0.s 			page 42


 531      C581
 532 1063 CE50594C 		.ascii	"\316PYLD\275'm\267\375\223R\302\025\222\272\330\250"
 532      44BD276D 
 532      B7FD9352 
 532      C21592BA 
 532      D8A8
 533 1075 0A62B6C0 		.ascii	"\012b\266\300\225\177\261D\376)\336`\261F\231\3425\226"
 533      957FB144 
 533      FE29DE60 
 533      B14699E2 
 533      3596
 534 1087 58B3251A 		.ascii	"X\263%\032V\365<g\353\037M\226\310\177\206)\376\226"
 534      56F53C67 
 534      EB1F4D96 
 534      C87F8629 
 534      FE96
 535 1099 4BCD6F62 		.ascii	"K\315ob\"\337\221*H\326D\025\256\274_\307/\177\333\245"
 535      22DF912A 
 535      48D64415 
 535      AEBC5FC7 
 535      2F7FDBA5 
 536 10ad E28FA66F 		.ascii	"\342\217\246o\022 g\246\037\011\236\2550E\307\231\342"
 536      122067A6 
 536      1F099EAD 
 536      3045C799 
 536      E2
 537 10be 6573C16C 		.ascii	"es\301l{_\271\211M\377\030SLl\374\352\177p\023\227\236"
 537      7B5FB989 
 537      4DFF1853 
 537      4C6CFCEA 
 537      7F701397 
 538 10d3 ACED30A0 		.ascii	"\254\3550\240~\363F\306\022\302X\350\216\021\027\373"
 538      7EF346C6 
 538      12C258E8 
 538      8E1117FB 
 539 10e3 2D0CB461 		.ascii	"-\014\264a\245)\354\177G\243\332\026\270\243\221\210"
 539      A529EC7F 
 539      47A3DA16 
 539      B8A39188 
 540 10f3 0881AD18 		.ascii	"\010\201\255\030\241Y>\264\036\253@\225\025\033-6\015"
 540      A1593EB4 
 540      1EAB4095 
 540      151B2D36 
 540      0D
 541 1104 DD6AE26C 		.ascii	"\335j\342lB\016\251\304\206\334c5\341\370H\325\266\377"
 541      420EA9C4 
 541      86DC6335 
 541      E1F848D5 
 541      B6FF
 542 1116 018DD748 		.ascii	"\001\215\327H\304"
 542      C4
 543              		.text
 544              		.section	.gnu.lto_.symtab.1a3f30d,"",%progbits
 545 0000 75387838 		.ascii	"u8x8_d_uc1701_mini12864\000"
 545      5F645F75 
 545      63313730 
 545      315F6D69 
ARM GAS  C:\Users\gjl\AppData\Local\Temp\cciLWtO0.s 			page 43


 545      6E693132 
 546 0018 00       		.ascii	"\000"
 547 0019 00       		.ascii	"\000"
 548 001a 00       		.ascii	"\000"
 549 001b 00000000 		.ascii	"\000\000\000\000\000\000\000\000"
 549      00000000 
 550 0023 4C010000 		.ascii	"L\001\000\000"
 551 0027 75387838 		.ascii	"u8x8_cad_EndTransfer\000"
 551      5F636164 
 551      5F456E64 
 551      5472616E 
 551      73666572 
 552 003c 00       		.ascii	"\000"
 553 003d 02       		.ascii	"\002"
 554 003e 00       		.ascii	"\000"
 555 003f 00000000 		.ascii	"\000\000\000\000\000\000\000\000"
 555      00000000 
 556 0047 52010000 		.ascii	"R\001\000\000"
 557 004b 75387838 		.ascii	"u8x8_cad_SendData\000"
 557      5F636164 
 557      5F53656E 
 557      64446174 
 557      6100
 558 005d 00       		.ascii	"\000"
 559 005e 02       		.ascii	"\002"
 560 005f 00       		.ascii	"\000"
 561 0060 00000000 		.ascii	"\000\000\000\000\000\000\000\000"
 561      00000000 
 562 0068 5A010000 		.ascii	"Z\001\000\000"
 563 006c 75387838 		.ascii	"u8x8_cad_SendCmd\000"
 563      5F636164 
 563      5F53656E 
 563      64436D64 
 563      00
 564 007d 00       		.ascii	"\000"
 565 007e 02       		.ascii	"\002"
 566 007f 00       		.ascii	"\000"
 567 0080 00000000 		.ascii	"\000\000\000\000\000\000\000\000"
 567      00000000 
 568 0088 60010000 		.ascii	"`\001\000\000"
 569 008c 75387838 		.ascii	"u8x8_cad_StartTransfer\000"
 569      5F636164 
 569      5F537461 
 569      72745472 
 569      616E7366 
 570 00a3 00       		.ascii	"\000"
 571 00a4 02       		.ascii	"\002"
 572 00a5 00       		.ascii	"\000"
 573 00a6 00000000 		.ascii	"\000\000\000\000\000\000\000\000"
 573      00000000 
 574 00ae 63010000 		.ascii	"c\001\000\000"
 575 00b2 75387838 		.ascii	"u8x8_cad_SendArg\000"
 575      5F636164 
 575      5F53656E 
 575      64417267 
 575      00
 576 00c3 00       		.ascii	"\000"
ARM GAS  C:\Users\gjl\AppData\Local\Temp\cciLWtO0.s 			page 44


 577 00c4 02       		.ascii	"\002"
 578 00c5 00       		.ascii	"\000"
 579 00c6 00000000 		.ascii	"\000\000\000\000\000\000\000\000"
 579      00000000 
 580 00ce 66010000 		.ascii	"f\001\000\000"
 581 00d2 75387838 		.ascii	"u8x8_cad_SendSequence\000"
 581      5F636164 
 581      5F53656E 
 581      64536571 
 581      75656E63 
 582 00e8 00       		.ascii	"\000"
 583 00e9 02       		.ascii	"\002"
 584 00ea 00       		.ascii	"\000"
 585 00eb 00000000 		.ascii	"\000\000\000\000\000\000\000\000"
 585      00000000 
 586 00f3 6B010000 		.ascii	"k\001\000\000"
 587 00f7 75387838 		.ascii	"u8x8_d_helper_display_init\000"
 587      5F645F68 
 587      656C7065 
 587      725F6469 
 587      73706C61 
 588 0112 00       		.ascii	"\000"
 589 0113 02       		.ascii	"\002"
 590 0114 00       		.ascii	"\000"
 591 0115 00000000 		.ascii	"\000\000\000\000\000\000\000\000"
 591      00000000 
 592 011d 6F010000 		.ascii	"o\001\000\000"
 593 0121 75387838 		.ascii	"u8x8_d_helper_display_setup_memory\000"
 593      5F645F68 
 593      656C7065 
 593      725F6469 
 593      73706C61 
 594 0144 00       		.ascii	"\000"
 595 0145 02       		.ascii	"\002"
 596 0146 00       		.ascii	"\000"
 597 0147 00000000 		.ascii	"\000\000\000\000\000\000\000\000"
 597      00000000 
 598 014f 74010000 		.ascii	"t\001\000\000"
 599              		.text
 600              		.section	.gnu.lto_.opts,"",%progbits
 601 0000 272D666D 		.ascii	"'-fmath-errno' '-fsigned-zeros' '-ftrapping-math' '"
 601      6174682D 
 601      6572726E 
 601      6F272027 
 601      2D667369 
 602 0033 2D666E6F 		.ascii	"-fno-trapv' '-fno-openmp' '-fno-openacc' '-mcpu=cor"
 602      2D747261 
 602      70762720 
 602      272D666E 
 602      6F2D6F70 
 603 0066 7465782D 		.ascii	"tex-m0' '-mthumb' '-g' '-Os' '-ffunction-sections' "
 603      6D302720 
 603      272D6D74 
 603      68756D62 
 603      2720272D 
 604 0099 272D6666 		.ascii	"'-ffat-lto-objects' '-flto'\000"
 604      61742D6C 
ARM GAS  C:\Users\gjl\AppData\Local\Temp\cciLWtO0.s 			page 45


 604      746F2D6F 
 604      626A6563 
 604      74732720 
 605              		.text
 606              		.cfi_sections	.debug_frame
 607              		.section	.text.u8x8_d_uc1701_mini12864,"ax",%progbits
 608              		.align	1
 609              		.global	u8x8_d_uc1701_mini12864
 610              		.code	16
 611              		.thumb_func
 612              		.type	u8x8_d_uc1701_mini12864, %function
 613              	u8x8_d_uc1701_mini12864:
 614              	.LFB0:
 615              		.file 1 "..\\..\\u8g2\\csrc\\u8x8_d_uc1701_mini12864.c"
   1:..\..\u8g2\csrc/u8x8_d_uc1701_mini12864.c **** /*
   2:..\..\u8g2\csrc/u8x8_d_uc1701_mini12864.c **** 
   3:..\..\u8g2\csrc/u8x8_d_uc1701_mini12864.c ****   u8x8_d_uc1701_mini12864.c (dealextreme, displays from ebay MP3 players)
   4:..\..\u8g2\csrc/u8x8_d_uc1701_mini12864.c ****   
   5:..\..\u8g2\csrc/u8x8_d_uc1701_mini12864.c ****   Universal 8bit Graphics Library (https://github.com/olikraus/u8g2/)
   6:..\..\u8g2\csrc/u8x8_d_uc1701_mini12864.c **** 
   7:..\..\u8g2\csrc/u8x8_d_uc1701_mini12864.c ****   Copyright (c) 2016, olikraus@gmail.com
   8:..\..\u8g2\csrc/u8x8_d_uc1701_mini12864.c ****   All rights reserved.
   9:..\..\u8g2\csrc/u8x8_d_uc1701_mini12864.c **** 
  10:..\..\u8g2\csrc/u8x8_d_uc1701_mini12864.c ****   Redistribution and use in source and binary forms, with or without modification, 
  11:..\..\u8g2\csrc/u8x8_d_uc1701_mini12864.c ****   are permitted provided that the following conditions are met:
  12:..\..\u8g2\csrc/u8x8_d_uc1701_mini12864.c **** 
  13:..\..\u8g2\csrc/u8x8_d_uc1701_mini12864.c ****   * Redistributions of source code must retain the above copyright notice, this list 
  14:..\..\u8g2\csrc/u8x8_d_uc1701_mini12864.c ****     of conditions and the following disclaimer.
  15:..\..\u8g2\csrc/u8x8_d_uc1701_mini12864.c ****     
  16:..\..\u8g2\csrc/u8x8_d_uc1701_mini12864.c ****   * Redistributions in binary form must reproduce the above copyright notice, this 
  17:..\..\u8g2\csrc/u8x8_d_uc1701_mini12864.c ****     list of conditions and the following disclaimer in the documentation and/or other 
  18:..\..\u8g2\csrc/u8x8_d_uc1701_mini12864.c ****     materials provided with the distribution.
  19:..\..\u8g2\csrc/u8x8_d_uc1701_mini12864.c **** 
  20:..\..\u8g2\csrc/u8x8_d_uc1701_mini12864.c ****   THIS SOFTWARE IS PROVIDED BY THE COPYRIGHT HOLDERS AND 
  21:..\..\u8g2\csrc/u8x8_d_uc1701_mini12864.c ****   CONTRIBUTORS "AS IS" AND ANY EXPRESS OR IMPLIED WARRANTIES, 
  22:..\..\u8g2\csrc/u8x8_d_uc1701_mini12864.c ****   INCLUDING, BUT NOT LIMITED TO, THE IMPLIED WARRANTIES OF 
  23:..\..\u8g2\csrc/u8x8_d_uc1701_mini12864.c ****   MERCHANTABILITY AND FITNESS FOR A PARTICULAR PURPOSE ARE 
  24:..\..\u8g2\csrc/u8x8_d_uc1701_mini12864.c ****   DISCLAIMED. IN NO EVENT SHALL THE COPYRIGHT HOLDER OR 
  25:..\..\u8g2\csrc/u8x8_d_uc1701_mini12864.c ****   CONTRIBUTORS BE LIABLE FOR ANY DIRECT, INDIRECT, INCIDENTAL, 
  26:..\..\u8g2\csrc/u8x8_d_uc1701_mini12864.c ****   SPECIAL, EXEMPLARY, OR CONSEQUENTIAL DAMAGES (INCLUDING, BUT 
  27:..\..\u8g2\csrc/u8x8_d_uc1701_mini12864.c ****   NOT LIMITED TO, PROCUREMENT OF SUBSTITUTE GOODS OR SERVICES; 
  28:..\..\u8g2\csrc/u8x8_d_uc1701_mini12864.c ****   LOSS OF USE, DATA, OR PROFITS; OR BUSINESS INTERRUPTION) HOWEVER 
  29:..\..\u8g2\csrc/u8x8_d_uc1701_mini12864.c ****   CAUSED AND ON ANY THEORY OF LIABILITY, WHETHER IN CONTRACT, 
  30:..\..\u8g2\csrc/u8x8_d_uc1701_mini12864.c ****   STRICT LIABILITY, OR TORT (INCLUDING NEGLIGENCE OR OTHERWISE) 
  31:..\..\u8g2\csrc/u8x8_d_uc1701_mini12864.c ****   ARISING IN ANY WAY OUT OF THE USE OF THIS SOFTWARE, EVEN IF 
  32:..\..\u8g2\csrc/u8x8_d_uc1701_mini12864.c ****   ADVISED OF THE POSSIBILITY OF SUCH DAMAGE.  
  33:..\..\u8g2\csrc/u8x8_d_uc1701_mini12864.c **** 
  34:..\..\u8g2\csrc/u8x8_d_uc1701_mini12864.c ****   
  35:..\..\u8g2\csrc/u8x8_d_uc1701_mini12864.c **** */
  36:..\..\u8g2\csrc/u8x8_d_uc1701_mini12864.c **** #include "u8x8.h"
  37:..\..\u8g2\csrc/u8x8_d_uc1701_mini12864.c **** 
  38:..\..\u8g2\csrc/u8x8_d_uc1701_mini12864.c **** 
  39:..\..\u8g2\csrc/u8x8_d_uc1701_mini12864.c **** 
  40:..\..\u8g2\csrc/u8x8_d_uc1701_mini12864.c **** 
  41:..\..\u8g2\csrc/u8x8_d_uc1701_mini12864.c **** static const uint8_t u8x8_d_uc1701_mini12864_init_seq[] = {
  42:..\..\u8g2\csrc/u8x8_d_uc1701_mini12864.c ****     
  43:..\..\u8g2\csrc/u8x8_d_uc1701_mini12864.c ****   U8X8_START_TRANSFER(),             	/* enable chip, delay is part of the transfer start */
ARM GAS  C:\Users\gjl\AppData\Local\Temp\cciLWtO0.s 			page 46


  44:..\..\u8g2\csrc/u8x8_d_uc1701_mini12864.c ****   
  45:..\..\u8g2\csrc/u8x8_d_uc1701_mini12864.c ****   U8X8_C(0x0e2),            			/* soft reset */
  46:..\..\u8g2\csrc/u8x8_d_uc1701_mini12864.c ****   U8X8_C(0x0ae),		                /* display off */
  47:..\..\u8g2\csrc/u8x8_d_uc1701_mini12864.c ****   U8X8_C(0x040),		                /* set display start line to 0 */
  48:..\..\u8g2\csrc/u8x8_d_uc1701_mini12864.c ****   
  49:..\..\u8g2\csrc/u8x8_d_uc1701_mini12864.c ****   U8X8_C(0x0a0),		                /* ADC set to reverse */
  50:..\..\u8g2\csrc/u8x8_d_uc1701_mini12864.c ****   U8X8_C(0x0c8),		                /* common output mode */
  51:..\..\u8g2\csrc/u8x8_d_uc1701_mini12864.c ****   
  52:..\..\u8g2\csrc/u8x8_d_uc1701_mini12864.c ****   U8X8_C(0x0a6),		                /* display normal, bit val 0: LCD pixel off. */
  53:..\..\u8g2\csrc/u8x8_d_uc1701_mini12864.c ****   U8X8_C(0x0a2),		                /* LCD bias 1/9 */
  54:..\..\u8g2\csrc/u8x8_d_uc1701_mini12864.c ****   U8X8_C(0x02f),		                /* all power  control circuits on */
  55:..\..\u8g2\csrc/u8x8_d_uc1701_mini12864.c ****   U8X8_C(0x0f8),		/* set booster ratio to */
  56:..\..\u8g2\csrc/u8x8_d_uc1701_mini12864.c ****   U8X8_C(0x000),		/* 4x */
  57:..\..\u8g2\csrc/u8x8_d_uc1701_mini12864.c ****   U8X8_C(0x023),		/* set V0 voltage resistor ratio to large */
  58:..\..\u8g2\csrc/u8x8_d_uc1701_mini12864.c ****   U8X8_C(0x081),		/* set contrast */
  59:..\..\u8g2\csrc/u8x8_d_uc1701_mini12864.c ****   U8X8_C(0x027),		/* contrast value */
  60:..\..\u8g2\csrc/u8x8_d_uc1701_mini12864.c ****   U8X8_C(0x0ac),		/* indicator */
  61:..\..\u8g2\csrc/u8x8_d_uc1701_mini12864.c ****   //  0x000,		/* disable */
  62:..\..\u8g2\csrc/u8x8_d_uc1701_mini12864.c ****   
  63:..\..\u8g2\csrc/u8x8_d_uc1701_mini12864.c ****   U8X8_C(0x0ae),		                /* display off */
  64:..\..\u8g2\csrc/u8x8_d_uc1701_mini12864.c ****   U8X8_C(0x0a5),		                /* enter powersafe: all pixel on, issue 142 */
  65:..\..\u8g2\csrc/u8x8_d_uc1701_mini12864.c ****   
  66:..\..\u8g2\csrc/u8x8_d_uc1701_mini12864.c ****   U8X8_END_TRANSFER(),             	/* disable chip */
  67:..\..\u8g2\csrc/u8x8_d_uc1701_mini12864.c ****   U8X8_END()             			/* end of sequence */
  68:..\..\u8g2\csrc/u8x8_d_uc1701_mini12864.c **** };
  69:..\..\u8g2\csrc/u8x8_d_uc1701_mini12864.c **** 
  70:..\..\u8g2\csrc/u8x8_d_uc1701_mini12864.c **** static const uint8_t u8x8_d_uc1701_mini12864_powersave0_seq[] = {
  71:..\..\u8g2\csrc/u8x8_d_uc1701_mini12864.c ****   U8X8_START_TRANSFER(),             	/* enable chip, delay is part of the transfer start */
  72:..\..\u8g2\csrc/u8x8_d_uc1701_mini12864.c ****   U8X8_C(0x0a4),		                /* all pixel off, issue 142 */
  73:..\..\u8g2\csrc/u8x8_d_uc1701_mini12864.c ****   U8X8_C(0x0af),		                /* display on */
  74:..\..\u8g2\csrc/u8x8_d_uc1701_mini12864.c ****   U8X8_END_TRANSFER(),             	/* disable chip */
  75:..\..\u8g2\csrc/u8x8_d_uc1701_mini12864.c ****   U8X8_END()             			/* end of sequence */
  76:..\..\u8g2\csrc/u8x8_d_uc1701_mini12864.c **** };
  77:..\..\u8g2\csrc/u8x8_d_uc1701_mini12864.c **** 
  78:..\..\u8g2\csrc/u8x8_d_uc1701_mini12864.c **** static const uint8_t u8x8_d_uc1701_mini12864_powersave1_seq[] = {
  79:..\..\u8g2\csrc/u8x8_d_uc1701_mini12864.c ****   U8X8_START_TRANSFER(),             	/* enable chip, delay is part of the transfer start */
  80:..\..\u8g2\csrc/u8x8_d_uc1701_mini12864.c ****   U8X8_C(0x0ae),		                /* display off */
  81:..\..\u8g2\csrc/u8x8_d_uc1701_mini12864.c ****   U8X8_C(0x0a5),		                /* enter powersafe: all pixel on, issue 142 */
  82:..\..\u8g2\csrc/u8x8_d_uc1701_mini12864.c ****   U8X8_END_TRANSFER(),             	/* disable chip */
  83:..\..\u8g2\csrc/u8x8_d_uc1701_mini12864.c ****   U8X8_END()             			/* end of sequence */
  84:..\..\u8g2\csrc/u8x8_d_uc1701_mini12864.c **** };
  85:..\..\u8g2\csrc/u8x8_d_uc1701_mini12864.c **** 
  86:..\..\u8g2\csrc/u8x8_d_uc1701_mini12864.c **** static const uint8_t u8x8_d_uc1701_mini12864_flip0_seq[] = {
  87:..\..\u8g2\csrc/u8x8_d_uc1701_mini12864.c ****   U8X8_START_TRANSFER(),             	/* enable chip, delay is part of the transfer start */
  88:..\..\u8g2\csrc/u8x8_d_uc1701_mini12864.c ****   U8X8_C(0x0a0),				/* segment remap a0/a1*/
  89:..\..\u8g2\csrc/u8x8_d_uc1701_mini12864.c ****   U8X8_C(0x0c8),				/* c0: scan dir normal, c8: reverse */
  90:..\..\u8g2\csrc/u8x8_d_uc1701_mini12864.c ****   U8X8_END_TRANSFER(),             	/* disable chip */
  91:..\..\u8g2\csrc/u8x8_d_uc1701_mini12864.c ****   U8X8_END()             			/* end of sequence */
  92:..\..\u8g2\csrc/u8x8_d_uc1701_mini12864.c **** };
  93:..\..\u8g2\csrc/u8x8_d_uc1701_mini12864.c **** 
  94:..\..\u8g2\csrc/u8x8_d_uc1701_mini12864.c **** static const uint8_t u8x8_d_uc1701_mini12864_flip1_seq[] = {
  95:..\..\u8g2\csrc/u8x8_d_uc1701_mini12864.c ****   U8X8_START_TRANSFER(),             	/* enable chip, delay is part of the transfer start */
  96:..\..\u8g2\csrc/u8x8_d_uc1701_mini12864.c ****   U8X8_C(0x0a1),				/* segment remap a0/a1*/
  97:..\..\u8g2\csrc/u8x8_d_uc1701_mini12864.c ****   U8X8_C(0x0c0),				/* c0: scan dir normal, c8: reverse */
  98:..\..\u8g2\csrc/u8x8_d_uc1701_mini12864.c ****   U8X8_END_TRANSFER(),             	/* disable chip */
  99:..\..\u8g2\csrc/u8x8_d_uc1701_mini12864.c ****   U8X8_END()             			/* end of sequence */
 100:..\..\u8g2\csrc/u8x8_d_uc1701_mini12864.c **** };
ARM GAS  C:\Users\gjl\AppData\Local\Temp\cciLWtO0.s 			page 47


 101:..\..\u8g2\csrc/u8x8_d_uc1701_mini12864.c **** 
 102:..\..\u8g2\csrc/u8x8_d_uc1701_mini12864.c **** 
 103:..\..\u8g2\csrc/u8x8_d_uc1701_mini12864.c **** static const u8x8_display_info_t u8x8_uc1701_display_info =
 104:..\..\u8g2\csrc/u8x8_d_uc1701_mini12864.c **** {
 105:..\..\u8g2\csrc/u8x8_d_uc1701_mini12864.c ****   /* chip_enable_level = */ 0,
 106:..\..\u8g2\csrc/u8x8_d_uc1701_mini12864.c ****   /* chip_disable_level = */ 1,
 107:..\..\u8g2\csrc/u8x8_d_uc1701_mini12864.c ****   
 108:..\..\u8g2\csrc/u8x8_d_uc1701_mini12864.c ****   /* post_chip_enable_wait_ns = */ 5,
 109:..\..\u8g2\csrc/u8x8_d_uc1701_mini12864.c ****   /* pre_chip_disable_wait_ns = */ 5,
 110:..\..\u8g2\csrc/u8x8_d_uc1701_mini12864.c ****   /* reset_pulse_width_ms = */ 1, 
 111:..\..\u8g2\csrc/u8x8_d_uc1701_mini12864.c ****   /* post_reset_wait_ms = */ 6, 
 112:..\..\u8g2\csrc/u8x8_d_uc1701_mini12864.c ****   /* sda_setup_time_ns = */ 12,		
 113:..\..\u8g2\csrc/u8x8_d_uc1701_mini12864.c ****   /* sck_pulse_width_ns = */ 75,	/* half of cycle time (100ns according to datasheet), AVR: below 7
 114:..\..\u8g2\csrc/u8x8_d_uc1701_mini12864.c ****   /* sck_clock_hz = */ 4000000UL,	/* since Arduino 1.6.0, the SPI bus speed in Hz. Should be  10000
 115:..\..\u8g2\csrc/u8x8_d_uc1701_mini12864.c ****   /* spi_mode = */ 0,		/* active high, rising edge */
 116:..\..\u8g2\csrc/u8x8_d_uc1701_mini12864.c ****   /* i2c_bus_clock_100kHz = */ 4,
 117:..\..\u8g2\csrc/u8x8_d_uc1701_mini12864.c ****   /* data_setup_time_ns = */ 30,
 118:..\..\u8g2\csrc/u8x8_d_uc1701_mini12864.c ****   /* write_pulse_width_ns = */ 40,
 119:..\..\u8g2\csrc/u8x8_d_uc1701_mini12864.c ****   /* tile_width = */ 16,		/* width of 16*8=128 pixel */
 120:..\..\u8g2\csrc/u8x8_d_uc1701_mini12864.c ****   /* tile_hight = */ 8,
 121:..\..\u8g2\csrc/u8x8_d_uc1701_mini12864.c ****   /* default_x_offset = */ 0,
 122:..\..\u8g2\csrc/u8x8_d_uc1701_mini12864.c ****   /* flipmode_x_offset = */ 4,
 123:..\..\u8g2\csrc/u8x8_d_uc1701_mini12864.c ****   /* pixel_width = */ 128,
 124:..\..\u8g2\csrc/u8x8_d_uc1701_mini12864.c ****   /* pixel_height = */ 64
 125:..\..\u8g2\csrc/u8x8_d_uc1701_mini12864.c **** };
 126:..\..\u8g2\csrc/u8x8_d_uc1701_mini12864.c **** 
 127:..\..\u8g2\csrc/u8x8_d_uc1701_mini12864.c **** uint8_t u8x8_d_uc1701_mini12864(u8x8_t *u8x8, uint8_t msg, uint8_t arg_int, void *arg_ptr)
 128:..\..\u8g2\csrc/u8x8_d_uc1701_mini12864.c **** {
 616              		.loc 1 128 0
 617              		.cfi_startproc
 618              		@ args = 0, pretend = 0, frame = 8
 619              		@ frame_needed = 0, uses_anonymous_args = 0
 620              	.LVL0:
 621 0000 F7B5     		push	{r0, r1, r2, r4, r5, r6, r7, lr}
 622              		.cfi_def_cfa_offset 32
 623              		.cfi_offset 0, -32
 624              		.cfi_offset 1, -28
 625              		.cfi_offset 2, -24
 626              		.cfi_offset 4, -20
 627              		.cfi_offset 5, -16
 628              		.cfi_offset 6, -12
 629              		.cfi_offset 7, -8
 630              		.cfi_offset 14, -4
 129:..\..\u8g2\csrc/u8x8_d_uc1701_mini12864.c ****   uint8_t x, c;
 130:..\..\u8g2\csrc/u8x8_d_uc1701_mini12864.c ****   uint8_t *ptr;
 131:..\..\u8g2\csrc/u8x8_d_uc1701_mini12864.c ****   switch(msg)
 631              		.loc 1 131 0
 632 0002 0939     		subs	r1, r1, #9
 633              	.LVL1:
 128:..\..\u8g2\csrc/u8x8_d_uc1701_mini12864.c ****   uint8_t x, c;
 634              		.loc 1 128 0
 635 0004 0400     		movs	r4, r0
 636 0006 1500     		movs	r5, r2
 637 0008 1F00     		movs	r7, r3
 638              		.loc 1 131 0
 639 000a 0800     		movs	r0, r1
 640              	.LVL2:
ARM GAS  C:\Users\gjl\AppData\Local\Temp\cciLWtO0.s 			page 48


 641 000c 0629     		cmp	r1, #6
 642 000e 6CD8     		bhi	.L14
 643 0010 FFF7FEFF 		bl	__gnu_thumb1_case_uqi
 644              	.L4:
 645 0014 04       		.byte	(.L3-.L4)/2
 646 0015 09       		.byte	(.L5-.L4)/2
 647 0016 0F       		.byte	(.L6-.L4)/2
 648 0017 6B       		.byte	(.L14-.L4)/2
 649 0018 19       		.byte	(.L7-.L4)/2
 650 0019 2B       		.byte	(.L8-.L4)/2
 651 001a 3B       		.byte	(.L9-.L4)/2
 652 001b 00       		.p2align 1
 653              	.L3:
 132:..\..\u8g2\csrc/u8x8_d_uc1701_mini12864.c ****   {
 133:..\..\u8g2\csrc/u8x8_d_uc1701_mini12864.c ****     case U8X8_MSG_DISPLAY_SETUP_MEMORY:
 134:..\..\u8g2\csrc/u8x8_d_uc1701_mini12864.c ****       u8x8_d_helper_display_setup_memory(u8x8, &u8x8_uc1701_display_info);
 654              		.loc 1 134 0
 655 001c 3449     		ldr	r1, .L21
 656 001e 2000     		movs	r0, r4
 657 0020 FFF7FEFF 		bl	u8x8_d_helper_display_setup_memory
 658              	.LVL3:
 659 0024 2FE0     		b	.L16
 660              	.LVL4:
 661              	.L5:
 135:..\..\u8g2\csrc/u8x8_d_uc1701_mini12864.c ****       break;
 136:..\..\u8g2\csrc/u8x8_d_uc1701_mini12864.c ****     case U8X8_MSG_DISPLAY_INIT:
 137:..\..\u8g2\csrc/u8x8_d_uc1701_mini12864.c ****       u8x8_d_helper_display_init(u8x8);
 662              		.loc 1 137 0
 663 0026 2000     		movs	r0, r4
 664 0028 FFF7FEFF 		bl	u8x8_d_helper_display_init
 665              	.LVL5:
 138:..\..\u8g2\csrc/u8x8_d_uc1701_mini12864.c ****       u8x8_cad_SendSequence(u8x8, u8x8_d_uc1701_mini12864_init_seq);
 666              		.loc 1 138 0
 667 002c 3049     		ldr	r1, .L21
 668 002e 1831     		adds	r1, r1, #24
 669 0030 05E0     		b	.L19
 670              	.LVL6:
 671              	.L6:
 672 0032 2F49     		ldr	r1, .L21
 139:..\..\u8g2\csrc/u8x8_d_uc1701_mini12864.c ****       break;
 140:..\..\u8g2\csrc/u8x8_d_uc1701_mini12864.c ****     case U8X8_MSG_DISPLAY_SET_POWER_SAVE:
 141:..\..\u8g2\csrc/u8x8_d_uc1701_mini12864.c ****       if ( arg_int == 0 )
 673              		.loc 1 141 0
 674 0034 002A     		cmp	r2, #0
 675 0036 01D1     		bne	.L10
 142:..\..\u8g2\csrc/u8x8_d_uc1701_mini12864.c **** 	u8x8_cad_SendSequence(u8x8, u8x8_d_uc1701_mini12864_powersave0_seq);
 676              		.loc 1 142 0
 677 0038 3B31     		adds	r1, r1, #59
 678 003a 00E0     		b	.L19
 679              	.L10:
 143:..\..\u8g2\csrc/u8x8_d_uc1701_mini12864.c ****       else
 144:..\..\u8g2\csrc/u8x8_d_uc1701_mini12864.c **** 	u8x8_cad_SendSequence(u8x8, u8x8_d_uc1701_mini12864_powersave1_seq);
 680              		.loc 1 144 0
 681 003c 4231     		adds	r1, r1, #66
 682              	.LVL7:
 683              	.L19:
 684 003e 2000     		movs	r0, r4
ARM GAS  C:\Users\gjl\AppData\Local\Temp\cciLWtO0.s 			page 49


 685 0040 FFF7FEFF 		bl	u8x8_cad_SendSequence
 686              	.LVL8:
 687 0044 1FE0     		b	.L16
 688              	.LVL9:
 689              	.L7:
 690 0046 2A49     		ldr	r1, .L21
 145:..\..\u8g2\csrc/u8x8_d_uc1701_mini12864.c ****       break;
 146:..\..\u8g2\csrc/u8x8_d_uc1701_mini12864.c ****     case U8X8_MSG_DISPLAY_SET_FLIP_MODE:
 147:..\..\u8g2\csrc/u8x8_d_uc1701_mini12864.c ****       if ( arg_int == 0 )
 691              		.loc 1 147 0
 692 0048 002A     		cmp	r2, #0
 693 004a 06D1     		bne	.L11
 148:..\..\u8g2\csrc/u8x8_d_uc1701_mini12864.c ****       {
 149:..\..\u8g2\csrc/u8x8_d_uc1701_mini12864.c **** 	u8x8_cad_SendSequence(u8x8, u8x8_d_uc1701_mini12864_flip0_seq);
 694              		.loc 1 149 0
 695 004c 4931     		adds	r1, r1, #73
 696 004e 2000     		movs	r0, r4
 697 0050 FFF7FEFF 		bl	u8x8_cad_SendSequence
 698              	.LVL10:
 150:..\..\u8g2\csrc/u8x8_d_uc1701_mini12864.c **** 	u8x8->x_offset = u8x8->display_info->default_x_offset;
 699              		.loc 1 150 0
 700 0054 2368     		ldr	r3, [r4]
 701 0056 9B7C     		ldrb	r3, [r3, #18]
 702 0058 05E0     		b	.L18
 703              	.LVL11:
 704              	.L11:
 151:..\..\u8g2\csrc/u8x8_d_uc1701_mini12864.c ****       }
 152:..\..\u8g2\csrc/u8x8_d_uc1701_mini12864.c ****       else
 153:..\..\u8g2\csrc/u8x8_d_uc1701_mini12864.c ****       {
 154:..\..\u8g2\csrc/u8x8_d_uc1701_mini12864.c **** 	u8x8_cad_SendSequence(u8x8, u8x8_d_uc1701_mini12864_flip1_seq);
 705              		.loc 1 154 0
 706 005a 5031     		adds	r1, r1, #80
 707 005c 2000     		movs	r0, r4
 708 005e FFF7FEFF 		bl	u8x8_cad_SendSequence
 709              	.LVL12:
 155:..\..\u8g2\csrc/u8x8_d_uc1701_mini12864.c **** 	u8x8->x_offset = u8x8->display_info->flipmode_x_offset;
 710              		.loc 1 155 0
 711 0062 2368     		ldr	r3, [r4]
 712 0064 DB7C     		ldrb	r3, [r3, #19]
 713              	.L18:
 714 0066 A377     		strb	r3, [r4, #30]
 715 0068 0DE0     		b	.L16
 716              	.LVL13:
 717              	.L8:
 156:..\..\u8g2\csrc/u8x8_d_uc1701_mini12864.c ****       }	
 157:..\..\u8g2\csrc/u8x8_d_uc1701_mini12864.c ****       break;
 158:..\..\u8g2\csrc/u8x8_d_uc1701_mini12864.c **** #ifdef U8X8_WITH_SET_CONTRAST
 159:..\..\u8g2\csrc/u8x8_d_uc1701_mini12864.c ****     case U8X8_MSG_DISPLAY_SET_CONTRAST:
 160:..\..\u8g2\csrc/u8x8_d_uc1701_mini12864.c ****       u8x8_cad_StartTransfer(u8x8);
 718              		.loc 1 160 0
 719 006a 2000     		movs	r0, r4
 720 006c FFF7FEFF 		bl	u8x8_cad_StartTransfer
 721              	.LVL14:
 161:..\..\u8g2\csrc/u8x8_d_uc1701_mini12864.c ****       u8x8_cad_SendCmd(u8x8, 0x081 );
 722              		.loc 1 161 0
 723 0070 8121     		movs	r1, #129
 724 0072 2000     		movs	r0, r4
ARM GAS  C:\Users\gjl\AppData\Local\Temp\cciLWtO0.s 			page 50


 725 0074 FFF7FEFF 		bl	u8x8_cad_SendCmd
 726              	.LVL15:
 162:..\..\u8g2\csrc/u8x8_d_uc1701_mini12864.c ****       u8x8_cad_SendArg(u8x8, arg_int >> 2 );	/* uc1701 has range from 0 to 63 */
 727              		.loc 1 162 0
 728 0078 A908     		lsrs	r1, r5, #2
 729 007a 2000     		movs	r0, r4
 730 007c FFF7FEFF 		bl	u8x8_cad_SendArg
 731              	.LVL16:
 732              	.L17:
 163:..\..\u8g2\csrc/u8x8_d_uc1701_mini12864.c ****       u8x8_cad_EndTransfer(u8x8);
 733              		.loc 1 163 0
 734 0080 2000     		movs	r0, r4
 735 0082 FFF7FEFF 		bl	u8x8_cad_EndTransfer
 736              	.LVL17:
 737              	.L16:
 164:..\..\u8g2\csrc/u8x8_d_uc1701_mini12864.c ****       break;
 165:..\..\u8g2\csrc/u8x8_d_uc1701_mini12864.c **** #endif
 166:..\..\u8g2\csrc/u8x8_d_uc1701_mini12864.c ****     case U8X8_MSG_DISPLAY_DRAW_TILE:
 167:..\..\u8g2\csrc/u8x8_d_uc1701_mini12864.c ****       u8x8_cad_StartTransfer(u8x8);
 168:..\..\u8g2\csrc/u8x8_d_uc1701_mini12864.c ****     
 169:..\..\u8g2\csrc/u8x8_d_uc1701_mini12864.c ****       x = ((u8x8_tile_t *)arg_ptr)->x_pos;
 170:..\..\u8g2\csrc/u8x8_d_uc1701_mini12864.c ****       x *= 8;
 171:..\..\u8g2\csrc/u8x8_d_uc1701_mini12864.c ****       x += u8x8->x_offset;
 172:..\..\u8g2\csrc/u8x8_d_uc1701_mini12864.c ****       u8x8_cad_SendCmd(u8x8, 0x010 | (x>>4) );
 173:..\..\u8g2\csrc/u8x8_d_uc1701_mini12864.c ****       u8x8_cad_SendCmd(u8x8, 0x000 | ((x&15)));
 174:..\..\u8g2\csrc/u8x8_d_uc1701_mini12864.c ****       u8x8_cad_SendCmd(u8x8, 0x0b0 | (((u8x8_tile_t *)arg_ptr)->y_pos));
 175:..\..\u8g2\csrc/u8x8_d_uc1701_mini12864.c ****     
 176:..\..\u8g2\csrc/u8x8_d_uc1701_mini12864.c ****       c = ((u8x8_tile_t *)arg_ptr)->cnt;
 177:..\..\u8g2\csrc/u8x8_d_uc1701_mini12864.c ****       c *= 8;
 178:..\..\u8g2\csrc/u8x8_d_uc1701_mini12864.c ****       ptr = ((u8x8_tile_t *)arg_ptr)->tile_ptr;
 179:..\..\u8g2\csrc/u8x8_d_uc1701_mini12864.c ****       /* 
 180:..\..\u8g2\csrc/u8x8_d_uc1701_mini12864.c **** 	The following if condition checks the hardware limits of the uc1701 
 181:..\..\u8g2\csrc/u8x8_d_uc1701_mini12864.c **** 	controller: It is not allowed to write beyond the display limits.
 182:..\..\u8g2\csrc/u8x8_d_uc1701_mini12864.c **** 	This is in fact an issue within flip mode.
 183:..\..\u8g2\csrc/u8x8_d_uc1701_mini12864.c ****     
 184:..\..\u8g2\csrc/u8x8_d_uc1701_mini12864.c **** 	bug: this check should be inside the while loop, see u8x8_d_pcd8544_84x48.c 
 185:..\..\u8g2\csrc/u8x8_d_uc1701_mini12864.c ****       */
 186:..\..\u8g2\csrc/u8x8_d_uc1701_mini12864.c ****       if ( c + x > 132u )
 187:..\..\u8g2\csrc/u8x8_d_uc1701_mini12864.c ****       {
 188:..\..\u8g2\csrc/u8x8_d_uc1701_mini12864.c **** 	c = 132u;
 189:..\..\u8g2\csrc/u8x8_d_uc1701_mini12864.c **** 	c -= x;
 190:..\..\u8g2\csrc/u8x8_d_uc1701_mini12864.c ****       }
 191:..\..\u8g2\csrc/u8x8_d_uc1701_mini12864.c ****       do
 192:..\..\u8g2\csrc/u8x8_d_uc1701_mini12864.c ****       {
 193:..\..\u8g2\csrc/u8x8_d_uc1701_mini12864.c **** 	u8x8_cad_SendData(u8x8, c, ptr);	/* note: SendData can not handle more than 255 bytes */
 194:..\..\u8g2\csrc/u8x8_d_uc1701_mini12864.c **** 	arg_int--;
 195:..\..\u8g2\csrc/u8x8_d_uc1701_mini12864.c ****       } while( arg_int > 0 );
 196:..\..\u8g2\csrc/u8x8_d_uc1701_mini12864.c ****       
 197:..\..\u8g2\csrc/u8x8_d_uc1701_mini12864.c ****       u8x8_cad_EndTransfer(u8x8);
 198:..\..\u8g2\csrc/u8x8_d_uc1701_mini12864.c ****       break;
 199:..\..\u8g2\csrc/u8x8_d_uc1701_mini12864.c ****     default:
 200:..\..\u8g2\csrc/u8x8_d_uc1701_mini12864.c ****       return 0;
 201:..\..\u8g2\csrc/u8x8_d_uc1701_mini12864.c ****   }
 202:..\..\u8g2\csrc/u8x8_d_uc1701_mini12864.c ****   return 1;
 738              		.loc 1 202 0
 739 0086 0120     		movs	r0, #1
 164:..\..\u8g2\csrc/u8x8_d_uc1701_mini12864.c ****       break;
ARM GAS  C:\Users\gjl\AppData\Local\Temp\cciLWtO0.s 			page 51


 740              		.loc 1 164 0
 741 0088 30E0     		b	.L2
 742              	.LVL18:
 743              	.L9:
 167:..\..\u8g2\csrc/u8x8_d_uc1701_mini12864.c ****     
 744              		.loc 1 167 0
 745 008a 2000     		movs	r0, r4
 746 008c FFF7FEFF 		bl	u8x8_cad_StartTransfer
 747              	.LVL19:
 172:..\..\u8g2\csrc/u8x8_d_uc1701_mini12864.c ****       u8x8_cad_SendCmd(u8x8, 0x000 | ((x&15)));
 748              		.loc 1 172 0
 749 0090 1021     		movs	r1, #16
 169:..\..\u8g2\csrc/u8x8_d_uc1701_mini12864.c ****       x *= 8;
 750              		.loc 1 169 0
 751 0092 7E79     		ldrb	r6, [r7, #5]
 752              	.LVL20:
 171:..\..\u8g2\csrc/u8x8_d_uc1701_mini12864.c ****       u8x8_cad_SendCmd(u8x8, 0x010 | (x>>4) );
 753              		.loc 1 171 0
 754 0094 A37F     		ldrb	r3, [r4, #30]
 170:..\..\u8g2\csrc/u8x8_d_uc1701_mini12864.c ****       x += u8x8->x_offset;
 755              		.loc 1 170 0
 756 0096 F600     		lsls	r6, r6, #3
 757              	.LVL21:
 171:..\..\u8g2\csrc/u8x8_d_uc1701_mini12864.c ****       u8x8_cad_SendCmd(u8x8, 0x010 | (x>>4) );
 758              		.loc 1 171 0
 759 0098 F618     		adds	r6, r6, r3
 760              	.LVL22:
 761 009a F6B2     		uxtb	r6, r6
 762              	.LVL23:
 172:..\..\u8g2\csrc/u8x8_d_uc1701_mini12864.c ****       u8x8_cad_SendCmd(u8x8, 0x000 | ((x&15)));
 763              		.loc 1 172 0
 764 009c 3309     		lsrs	r3, r6, #4
 765 009e 1943     		orrs	r1, r3
 766 00a0 2000     		movs	r0, r4
 767 00a2 FFF7FEFF 		bl	u8x8_cad_SendCmd
 768              	.LVL24:
 173:..\..\u8g2\csrc/u8x8_d_uc1701_mini12864.c ****       u8x8_cad_SendCmd(u8x8, 0x0b0 | (((u8x8_tile_t *)arg_ptr)->y_pos));
 769              		.loc 1 173 0
 770 00a6 0F21     		movs	r1, #15
 771 00a8 2000     		movs	r0, r4
 772 00aa 3140     		ands	r1, r6
 773 00ac FFF7FEFF 		bl	u8x8_cad_SendCmd
 774              	.LVL25:
 174:..\..\u8g2\csrc/u8x8_d_uc1701_mini12864.c ****     
 775              		.loc 1 174 0
 776 00b0 B023     		movs	r3, #176
 777 00b2 B979     		ldrb	r1, [r7, #6]
 778 00b4 2000     		movs	r0, r4
 779 00b6 1943     		orrs	r1, r3
 780 00b8 FFF7FEFF 		bl	u8x8_cad_SendCmd
 781              	.LVL26:
 176:..\..\u8g2\csrc/u8x8_d_uc1701_mini12864.c ****       c *= 8;
 782              		.loc 1 176 0
 783 00bc 3B79     		ldrb	r3, [r7, #4]
 784              	.LVL27:
 178:..\..\u8g2\csrc/u8x8_d_uc1701_mini12864.c ****       /* 
 785              		.loc 1 178 0
ARM GAS  C:\Users\gjl\AppData\Local\Temp\cciLWtO0.s 			page 52


 786 00be 3F68     		ldr	r7, [r7]
 787              	.LVL28:
 177:..\..\u8g2\csrc/u8x8_d_uc1701_mini12864.c ****       ptr = ((u8x8_tile_t *)arg_ptr)->tile_ptr;
 788              		.loc 1 177 0
 789 00c0 DB00     		lsls	r3, r3, #3
 790              	.LVL29:
 791 00c2 DBB2     		uxtb	r3, r3
 792 00c4 0193     		str	r3, [sp, #4]
 793              	.LVL30:
 186:..\..\u8g2\csrc/u8x8_d_uc1701_mini12864.c ****       {
 794              		.loc 1 186 0
 795 00c6 9B19     		adds	r3, r3, r6
 796 00c8 842B     		cmp	r3, #132
 797 00ca 04DD     		ble	.L13
 798              	.LVL31:
 189:..\..\u8g2\csrc/u8x8_d_uc1701_mini12864.c ****       }
 799              		.loc 1 189 0
 800 00cc 7C23     		movs	r3, #124
 801 00ce 5B42     		rsbs	r3, r3, #0
 802 00d0 9E1B     		subs	r6, r3, r6
 803              	.LVL32:
 804 00d2 F3B2     		uxtb	r3, r6
 805 00d4 0193     		str	r3, [sp, #4]
 806              	.LVL33:
 807              	.L13:
 194:..\..\u8g2\csrc/u8x8_d_uc1701_mini12864.c ****       } while( arg_int > 0 );
 808              		.loc 1 194 0 discriminator 1
 809 00d6 013D     		subs	r5, r5, #1
 810              	.LVL34:
 193:..\..\u8g2\csrc/u8x8_d_uc1701_mini12864.c **** 	arg_int--;
 811              		.loc 1 193 0 discriminator 1
 812 00d8 3A00     		movs	r2, r7
 813 00da 0199     		ldr	r1, [sp, #4]
 814 00dc 2000     		movs	r0, r4
 194:..\..\u8g2\csrc/u8x8_d_uc1701_mini12864.c ****       } while( arg_int > 0 );
 815              		.loc 1 194 0 discriminator 1
 816 00de EDB2     		uxtb	r5, r5
 193:..\..\u8g2\csrc/u8x8_d_uc1701_mini12864.c **** 	arg_int--;
 817              		.loc 1 193 0 discriminator 1
 818 00e0 FFF7FEFF 		bl	u8x8_cad_SendData
 819              	.LVL35:
 195:..\..\u8g2\csrc/u8x8_d_uc1701_mini12864.c ****       
 820              		.loc 1 195 0 discriminator 1
 821 00e4 002D     		cmp	r5, #0
 822 00e6 F6D1     		bne	.L13
 823 00e8 CAE7     		b	.L17
 824              	.LVL36:
 825              	.L14:
 200:..\..\u8g2\csrc/u8x8_d_uc1701_mini12864.c ****   }
 826              		.loc 1 200 0
 827 00ea 0020     		movs	r0, #0
 828              	.LVL37:
 829              	.L2:
 203:..\..\u8g2\csrc/u8x8_d_uc1701_mini12864.c **** }
 830              		.loc 1 203 0
 831              		@ sp needed
 832              	.LVL38:
ARM GAS  C:\Users\gjl\AppData\Local\Temp\cciLWtO0.s 			page 53


 833 00ec FEBD     		pop	{r1, r2, r3, r4, r5, r6, r7, pc}
 834              	.L22:
 835 00ee C046     		.align	2
 836              	.L21:
 837 00f0 00000000 		.word	.LANCHOR0
 838              		.cfi_endproc
 839              	.LFE0:
 840              		.size	u8x8_d_uc1701_mini12864, .-u8x8_d_uc1701_mini12864
 841              		.section	.rodata
 842              		.align	2
 843              		.set	.LANCHOR0,. + 0
 844              		.type	u8x8_uc1701_display_info, %object
 845              		.size	u8x8_uc1701_display_info, 24
 846              	u8x8_uc1701_display_info:
 847 0000 00       		.byte	0
 848 0001 01       		.byte	1
 849 0002 05       		.byte	5
 850 0003 05       		.byte	5
 851 0004 01       		.byte	1
 852 0005 06       		.byte	6
 853 0006 0C       		.byte	12
 854 0007 4B       		.byte	75
 855 0008 00093D00 		.word	4000000
 856 000c 00       		.byte	0
 857 000d 04       		.byte	4
 858 000e 1E       		.byte	30
 859 000f 28       		.byte	40
 860 0010 10       		.byte	16
 861 0011 08       		.byte	8
 862 0012 00       		.byte	0
 863 0013 04       		.byte	4
 864 0014 8000     		.short	128
 865 0016 4000     		.short	64
 866              		.type	u8x8_d_uc1701_mini12864_init_seq, %object
 867              		.size	u8x8_d_uc1701_mini12864_init_seq, 35
 868              	u8x8_d_uc1701_mini12864_init_seq:
 869 0018 18       		.byte	24
 870 0019 15       		.byte	21
 871 001a E2       		.byte	-30
 872 001b 15       		.byte	21
 873 001c AE       		.byte	-82
 874 001d 15       		.byte	21
 875 001e 40       		.byte	64
 876 001f 15       		.byte	21
 877 0020 A0       		.byte	-96
 878 0021 15       		.byte	21
 879 0022 C8       		.byte	-56
 880 0023 15       		.byte	21
 881 0024 A6       		.byte	-90
 882 0025 15       		.byte	21
 883 0026 A2       		.byte	-94
 884 0027 15       		.byte	21
 885 0028 2F       		.byte	47
 886 0029 15       		.byte	21
 887 002a F8       		.byte	-8
 888 002b 15       		.byte	21
 889 002c 00       		.byte	0
ARM GAS  C:\Users\gjl\AppData\Local\Temp\cciLWtO0.s 			page 54


 890 002d 15       		.byte	21
 891 002e 23       		.byte	35
 892 002f 15       		.byte	21
 893 0030 81       		.byte	-127
 894 0031 15       		.byte	21
 895 0032 27       		.byte	39
 896 0033 15       		.byte	21
 897 0034 AC       		.byte	-84
 898 0035 15       		.byte	21
 899 0036 AE       		.byte	-82
 900 0037 15       		.byte	21
 901 0038 A5       		.byte	-91
 902 0039 19       		.byte	25
 903 003a FF       		.byte	-1
 904              		.type	u8x8_d_uc1701_mini12864_powersave0_seq, %object
 905              		.size	u8x8_d_uc1701_mini12864_powersave0_seq, 7
 906              	u8x8_d_uc1701_mini12864_powersave0_seq:
 907 003b 18       		.byte	24
 908 003c 15       		.byte	21
 909 003d A4       		.byte	-92
 910 003e 15       		.byte	21
 911 003f AF       		.byte	-81
 912 0040 19       		.byte	25
 913 0041 FF       		.byte	-1
 914              		.type	u8x8_d_uc1701_mini12864_powersave1_seq, %object
 915              		.size	u8x8_d_uc1701_mini12864_powersave1_seq, 7
 916              	u8x8_d_uc1701_mini12864_powersave1_seq:
 917 0042 18       		.byte	24
 918 0043 15       		.byte	21
 919 0044 AE       		.byte	-82
 920 0045 15       		.byte	21
 921 0046 A5       		.byte	-91
 922 0047 19       		.byte	25
 923 0048 FF       		.byte	-1
 924              		.type	u8x8_d_uc1701_mini12864_flip0_seq, %object
 925              		.size	u8x8_d_uc1701_mini12864_flip0_seq, 7
 926              	u8x8_d_uc1701_mini12864_flip0_seq:
 927 0049 18       		.byte	24
 928 004a 15       		.byte	21
 929 004b A0       		.byte	-96
 930 004c 15       		.byte	21
 931 004d C8       		.byte	-56
 932 004e 19       		.byte	25
 933 004f FF       		.byte	-1
 934              		.type	u8x8_d_uc1701_mini12864_flip1_seq, %object
 935              		.size	u8x8_d_uc1701_mini12864_flip1_seq, 7
 936              	u8x8_d_uc1701_mini12864_flip1_seq:
 937 0050 18       		.byte	24
 938 0051 15       		.byte	21
 939 0052 A1       		.byte	-95
 940 0053 15       		.byte	21
 941 0054 C0       		.byte	-64
 942 0055 19       		.byte	25
 943 0056 FF       		.byte	-1
 944              		.text
 945              	.Letext0:
 946              		.file 2 "c:\\program files (x86)\\cypress\\psoc creator\\4.1\\psoc creator\\import\\gnu\\arm\\5.4.
ARM GAS  C:\Users\gjl\AppData\Local\Temp\cciLWtO0.s 			page 55


 947              		.file 3 "c:\\program files (x86)\\cypress\\psoc creator\\4.1\\psoc creator\\import\\gnu\\arm\\5.4.
 948              		.file 4 "..\\..\\u8g2\\csrc\\u8x8.h"