ARM GAS  C:\Users\gjl\AppData\Local\Temp\ccWPnPAS.s 			page 1


   1              		.syntax unified
   2              		.cpu cortex-m0
   3              		.fpu softvfp
   4              		.eabi_attribute 20, 1
   5              		.eabi_attribute 21, 1
   6              		.eabi_attribute 23, 3
   7              		.eabi_attribute 24, 1
   8              		.eabi_attribute 25, 1
   9              		.eabi_attribute 26, 1
  10              		.eabi_attribute 30, 4
  11              		.eabi_attribute 34, 0
  12              		.eabi_attribute 18, 4
  13              		.thumb
  14              		.syntax unified
  15              		.file	"u8x8_d_uc1701_dogs102.c"
  16              		.text
  17              	.Ltext0:
  18              		.section	.gnu.lto_.profile.1a3e4be,"",%progbits
  19 0000 789C6361 		.ascii	"x\234ca`d`e`\000\222o\030c\000\003\240\001U"
  19      60646065 
  19      6000926F 
  19      18630003 
  19      A00155
  20              		.text
  21              		.section	.gnu.lto_.icf.1a3e4be,"",%progbits
  22 0000 789C6361 		.ascii	"x\234ca`d\000\001m\006\004`g\270qo\301\021\016\306S"
  22      60640001 
  22      6D060460 
  22      67B8716F 
  22      C1110EC6 
  23 0015 EB66AC61 		.ascii	"\353f\254afz=\375\352#.\346?\347\236=fc\231\365tm:\353"
  23      667A3DFD 
  23      EA232EE6 
  23      3FE79E3D 
  23      666399F5 
  24 002d F965F376 		.ascii	"\371e\363v\363\262\355|2\361\004\023\003\000\340\005"
  24      F3B2ED7C 
  24      32F10413 
  24      0300E005 
  25 003d 1570     		.ascii	"\025p"
  26              		.text
  27              		.section	.gnu.lto_.jmpfuncs.1a3e4be,"",%progbits
  28 0000 789C858E 		.ascii	"x\234\205\216;\016\3020\020D=\273KJ\302\001r1n\002U"
  28      3B0EC230 
  28      10443DBB 
  28      4B4AC201 
  28      72316E02 
  29 0015 8C500ADF 		.ascii	"\214P\012\337\200\033\360\347\012\320\244\347\030\364"
  29      801BF0E7 
  29      0AD0A4E7 
  29      18F4
  30 0023 2045428A 		.ascii	" EB\212`\027\013\323Dx\232\261g\337\330+\016\3164\213"
  30      60170BD3 
  30      44789AB1 
  30      67DFD82B 
  30      0ECE348B 
  31 0037 F6119C40 		.ascii	"\366\021\234@U\326*\242\271EE\264(I\227\241\2235\020"
ARM GAS  C:\Users\gjl\AppData\Local\Temp\ccWPnPAS.s 			page 2


  31      55D62AA2 
  31      B94545B4 
  31      284997A1 
  31      933510
  32 004a ED97D3B4 		.ascii	"\355\227\323\264'\264\257\356R>\250a\007\302\032\025"
  32      27B4AFEE 
  32      523EA861 
  32      07C21A15 
  33 005a A531747A 		.ascii	"\2451tz\353\256\241\260)\260\0006\250\322S\022\315\240"
  33      EBAEA1B0 
  33      29B00036 
  33      A8D25312 
  33      CDA0
  34 006c E5F37C1F 		.ascii	"\345\363|\037\327\275_y?i\230\002[y\213\372?d\371.\007"
  34      D7BD5F79 
  34      3F699802 
  34      5B798BFA 
  34      3F64F92E 
  35 0081 E936D8E7 		.ascii	"\3516\330\347 \375\017\207/\344\206 \016,\232\037\015"
  35      20FD0F87 
  35      2FE48620 
  35      0E2C9A1F 
  35      0D
  36 0092 CAED2F81 		.ascii	"\312\355/\201G\232\237\224\205\226\336\027\303V("
  36      479A9F94 
  36      8596DE17 
  36      C35628
  37              		.text
  38              		.section	.gnu.lto_.inline.1a3e4be,"",%progbits
  39 0000 789C6DD0 		.ascii	"x\234m\320\261J\003A\020\006\340\371\347\366\2225\311"
  39      B14A0341 
  39      1006E0F9 
  39      E7F69235 
  39      C9
  40 0011 997B8040 		.ascii	"\231{\200@\316G\260\265\220{\202{\015A_b\013\323\312"
  40      CE47B0B5 
  40      907B827B 
  40      0D415F62 
  40      0BD3CA
  41 0024 D9588884 		.ascii	"\331X\210\204X\250\321\234Xj\004!\225]RZ\372\004\012"
  41      58A8D19C 
  41      586A0421 
  41      955D525A 
  41      FA040A
  42 0037 062C1411 		.ascii	"\006,\024\021\234\335=7\026n\261\363\357\267;0\254\""
  42      9CDD3D37 
  42      166EB1F3 
  42      EFB73B30 
  42      AC22
  43 0049 905DB7BE 		.ascii	"\220]\267\276\270%\361\231\266\320\202\336\375f\034"
  43      B825F199 
  43      B6D082DE 
  43      FD661C
  44 0058 CD0FEF1B 		.ascii	"\315\017\357\033\357<\210\2005\\\240G\236\347\247\325"
  44      EF3C8880 
  44      355CA047 
  44      9EE7A7D5 
ARM GAS  C:\Users\gjl\AppData\Local\Temp\ccWPnPAS.s 			page 3


  45 0068 A2E616C6 		.ascii	"\242\346\026\306\201\277>\026\017M\317m\\\006~\233\236"
  45      81BF3E16 
  45      0F4DCF6D 
  45      5C067E9B 
  45      9E
  46 0079 8DD97382 		.ascii	"\215\331s\202\253\300\257O\223*\362\274\216I\340\352"
  46      ABC0AF4F 
  46      932AF2BC 
  46      8E49E0EA 
  47 0089 7C39EB7A 		.ascii	"|9\353z\356\242\022f\3077/\323\317\304r\014\302\265"
  47      EEA21266 
  47      C7372FD3 
  47      CFC4720C 
  47      C2B5
  48 009b E33D57A1 		.ascii	"\343=W\241ed\266[G\306o\214\372L\275\331\266\321\024"
  48      6564B65B 
  48      47C66F8C 
  48      FA4CBDD9 
  48      B6D114
  49 00ae 3FC6064C 		.ascii	"?\306\006L\033\303\035\003\342\0236iN\352N\2314#>\200"
  49      1BC31D03 
  49      E2133669 
  49      4EEA4E99 
  49      34233E80 
  50 00c2 51199312 		.ascii	"Q\031\223\022U\376\310\365\2213\377(\265\237\301m\222"
  50      55FEC8F5 
  50      9133FF28 
  50      B59FC16D 
  50      92
  51 00d3 5E94854A 		.ascii	"^\224\205J !:\336,\213\375f\324\261\312eQ\026\377\307"
  51      20213ADE 
  51      2C8BFD66 
  51      D4B1CA65 
  51      5116FFC7 
  52 00e7 D02621B7 		.ascii	"\320&!\267U\356\362\360\312%\372s\345F\020\262\221W"
  52      55EEF2F0 
  52      CA25FA73 
  52      E54610B2 
  52      9157
  53 00f9 51A52B0D 		.ascii	"Q\245+\015Q\3776\353\272Y9\240\037\366\023]\026"
  53      51FF36EB 
  53      BA5939A0 
  53      1FF6135D 
  53      16
  54              		.text
  55              		.section	.gnu.lto_.pureconst.1a3e4be,"",%progbits
  56 0000 789C6361 		.ascii	"x\234ca`d`f`\000\222R\000\000r\000$"
  56      60646066 
  56      60009252 
  56      00007200 
  56      24
  57              		.text
  58              		.section	.gnu.lto_u8x8_d_uc1701_ea_dogs102.1a3e4be,"",%progbits
  59 0000 789C9D57 		.ascii	"x\234\235WkPU\327\025\336\353\354\373~C\324\032K\015"
  59      6B5055D7 
  59      15DEEBEC 
  59      FB7E43D4 
ARM GAS  C:\Users\gjl\AppData\Local\Temp\ccWPnPAS.s 			page 4


  59      1A4B0D
  60 0013 1A5F8CF2 		.ascii	"\032_\214\362\214\214\371\221\037\355L\177d\332\177"
  60      8C8CF991 
  60      1FED4C7F 
  60      64DA7F
  61 0022 FD6DC7E9 		.ascii	"\375m\307\351h\307>\246\217\321d\306?\035\016\\.\002"
  61      68C73EA6 
  61      8FD164C6 
  61      3F1D0E5C 
  61      2E02
  62 0034 E283541E 		.ascii	"\342\203T\036A\324\330\204b\343\013Q\022 \332\334\230"
  62      41D4D884 
  62      62E30B51 
  62      1220DADC 
  62      98
  63 0045 0413048C 		.ascii	"\004\023\004\214J\203H\254J\304P\213\321\213R\210Qn"
  63      4A8348AC 
  63      4AC4508B 
  63      D18B5288 
  63      516E
  64 0057 D75AFB9C 		.ascii	"\327Z\373\234\013W\356\225\264w`\235\275\367\331\337"
  64      0B57EE95 
  64      B477609D 
  64      BDF7D9DF 
  65 0067 DADFFAF6 		.ascii	"\332\337\372\366:k\237c\021 \3507\036\020\342\247x\235"
  65      3A6B9F63 
  65      1120E837 
  65      1E10E2A7 
  65      789D
  66 0079 C47F7846 		.ascii	"\304\177xF\200\266\253G\210B\207fO\251r\013\335!\331"
  66      80B6AB47 
  66      88428766 
  66      4FA9720B 
  66      DD21D9
  67 008c 5AD85AD9 		.ascii	"Z\330Z\331:\330\272\331z\324\034HQ \213\331\260j\266"
  67      3AD8BAD9 
  67      7AD41C48 
  67      51208BD9 
  67      B06AB6
  68 009f D2E54277 		.ascii	"\322\345Bw\331\311zl\346\260\335l84'\337w\361}\2479"
  68      D9C97A6C 
  68      E6B0DD6C 
  68      383427DF 
  68      77F17DA7 
  69 00b4 EC321B6E 		.ascii	"\3542\033n\263\341\321\274<\321\307\023\275\340S\303"
  69      B3E1D1BC 
  69      3CD1C713 
  69      BDE053C3 
  70 00c4 3EF05303 		.ascii	">\360S\003\374Zj\305Y\201\367\003\305v\274\237\252\206"
  70      FC5A6AC5 
  70      5981F703 
  70      C576BC9F 
  70      AA86
  71 00d6 7F1430E1 		.ascii	"\177\0240\341)\000\324\320\035 \0124i\261\332\354\016"
  71      2900D4D0 
  71      1D200A34 
  71      69B1DAEC 
ARM GAS  C:\Users\gjl\AppData\Local\Temp\ccWPnPAS.s 			page 5


  71      0E
  72 00e7 A7CBEDF1 		.ascii	"\247\313\355\361\372\374\251\201\024(\320\374\002\302"
  72      FAFCA981 
  72      1428D0FC 
  72      02C2
  73 00f5 16882A25 		.ascii	"\026\210*%\306\264\307\032\234\033\377\244\302\225\321"
  73      C6B4C71A 
  73      9C1BFFA4 
  73      C295D1
  74 0104 A8EB45FA 		.ascii	"\250\353E\372\365\241\350\313\221\242\320\374\220\024"
  74      F5A1E8CB 
  74      91A2D0FC 
  74      9014
  75 0112 22AA0978 		.ascii	"\"\252\011x!\015r\322H\245F\310\300\231\027\212\233"
  75      210D72D2 
  75      48A546C8 
  75      C099178A 
  75      9B
  76 0123 EAE5032D 		.ascii	"\352\345\003-$\001,\330\215t\327}\351\243\256\006\351"
  76      24012CD8 
  76      8D74D77D 
  76      E9A3AE06 
  76      E9
  77 0134 D87DA3F7 		.ascii	"\330}\243\367\315/lr%\010lWw\366~\355]\336@>\365\226"
  77      CD2F6C72 
  77      25086C57 
  77      77F67EED 
  77      5DDE403E 
  78 014a 5FEACE90 		.ascii	"_\352\316\220\224\3606H\362\3717H\203\203\220&pH\300"
  78      94F03648 
  78      F2F93748 
  78      83839026 
  78      7048C0
  79 015d 21588EB3 		.ascii	"!X\216\263\273\232\332\372,2\207\221\343\247>|l\"#?"
  79      BB9ADAFA 
  79      2C328791 
  79      E3A73E7C 
  79      6C22233F 
  80 0171 D7255281 		.ascii	"\327%R\201\303\012\251\330\02078\302\270\332\013\327"
  80      C30AA9D8 
  80      103738C2 
  80      B8DA0BD7 
  81 0181 B7BBE46A 		.ascii	"\267\273\344j\306\325\017\335\355\267\032\270=\035n"
  81      C6D50FDD 
  81      EDB71AB8 
  81      3D1D6E
  82 0190 3D878047 		.ascii	"=\207\200Gg\000\2171\260\377\253\356K.\371\022\003\337"
  82      67008F31 
  82      B0FFABEE 
  82      4B2EF912 
  82      03DF
  83 01a2 6EB9D66C 		.ascii	"n\271\326l7\200\375\035\036}\027\204\244\005\232\236"
  83      3780FD1D 
  83      1E7D1784 
  83      A4059A9E 
  84 01b2 246B1170 		.ascii	"$k\021p\034\226\023`Go\371\240\224?fp\203\336T\356\\"
  84      1C961360 
ARM GAS  C:\Users\gjl\AppData\Local\Temp\ccWPnPAS.s 			page 6


  84      476FF9A0 
  84      943F6670 
  84      83DE54EE 
  85 01c7 FA2681C3 		.ascii	"\372&\201\303U\345\276\327\365pqzHZ\2419\036N?\234\335"
  85      55E5BED7 
  85      F570717A 
  85      485AA139 
  85      1E4E3F9C 
  86 01dc D3D8B0DB 		.ascii	"\323\330\260\333%_f\344\376\352\366\313&\362\317\345"
  86      255F66E4 
  86      FEEAF6CB 
  86      26F2CFE5 
  87 01ec FE1A3D5C 		.ascii	"\376\032=\\\230N\224ON\247l\340\352\332\267\026\271"
  87      984E944F 
  87      4EA76CE0 
  87      EADAB716 
  87      B9
  88 01fd E44F1817 		.ascii	"\344O\030\027l\355{\317\257p\372\273k\365\340\017\011"
  88      6CED7BCF 
  88      AF70FABB 
  88      6BF5E00F 
  88      09
  89 020e F44E02D0 		.ascii	"\364N\002\320\340\361\311*\257\255X\307_:\274\013K\241"
  89      E0F1C92A 
  89      AFAD58C7 
  89      5F3ABC0B 
  89      4BA1
  90 0220 05FF4FC0 		.ascii	"\005\377O\300R\332X\024\242\025l\230\003r\372\235c?"
  90      52DA5814 
  90      A2156C98 
  90      0372FA9D 
  90      633F
  91 0232 0BEBD168 		.ascii	"\013\353\321hP\017W\272>h\366\255\001V\013\335\342m"
  91      500F57BA 
  91      3E68F6AD 
  91      01560BDD 
  91      E26D
  92 0244 49EA5979 		.ascii	"I\352Yy\300\016\244\276\023h\357\274@#)x\323\226\212"
  92      C00EA4BE 
  92      1368EFBC 
  92      40232978 
  92      D3968A
  93 0257 C63E975A 		.ascii	"\306>\227Z\363\250\265\200\314B \315\236\023\264H:\333"
  93      F3A8B580 
  93      CC4220CD 
  93      9E13B448 
  93      3ADB
  94 0269 4534BC98 		.ascii	"E4\274\230\233\317Ss\011\231edV\220\311 \263\222W\\"
  94      9BCF5373 
  94      09996564 
  94      5690C920 
  94      B392575C 
  95 027d C5365310 		.ascii	"\3056S\020\261,\034vd\223\311!\223\213\306\231\307\367"
  95      B12C1C76 
  95      6493C921 
  95      938BC699 
  95      C7F7
ARM GAS  C:\Users\gjl\AppData\Local\Temp\ccWPnPAS.s 			page 7


  96 028f 57B3CD67 		.ascii	"W\263\315gbB\334\303\310\352rED\323\360\"\207\240V\237"
  96      6242DCC3 
  96      C8EA7245 
  96      44D3F022 
  96      87A0569F 
  97 02a3 F8CBB314 		.ascii	"\370\313\263\024iP\332))\373\337\032\266V\302\316B\024"
  97      6950DA29 
  97      29FBDF1A 
  97      B656C2CE 
  97      4214
  98 02b5 25BCA707 		.ascii	"%\274\247\007\023\327\205\017\212$\275\240\015*\201"
  98      13D7850F 
  98      8A24BDA0 
  98      0D2A81
  99 02c4 A67457B6 		.ascii	"\246tW\266\333(\245\0058\261{fd\340&\230\210:\027\002"
  99      DB28A505 
  99      38B17B66 
  99      64E02698 
  99      883A1702 
 100 02d8 A01DB753 		.ascii	"\240\035\267S\227\364\370\300{\012\323}\340p\217\201"
 100      97F4F8C0 
 100      7B0AD37D 
 100      E0708F81 
 101 02e8 7161B7A8 		.ascii	"qa\267\250\254\257\301ab\232\030s\2121,\373i\205\371"
 101      ACAFC161 
 101      629A1873 
 101      8A312CFB 
 101      6985F9
 102 02fb 76A2E7B4 		.ascii	"v\242\347\264]a\334\224\364U\267\336\260\231\230V\306"
 102      5D61DC94 
 102      F455B7DE 
 102      B0999856 
 102      C6
 103 030c FC9D3144 		.ascii	"\374\2351D\016\336W\230{m\015\0075\205\361bw\350\235"
 103      0EDE5798 
 103      7B6D0D07 
 103      3585F162 
 103      77E89D
 104 031f D74BA589 		.ascii	"\327K\245\211\351eL\2301\026\302|\2400w>?tX*\214\017"
 104      E9654C98 
 104      3116C27C 
 104      A030773E 
 104      3F74582A 
 105 0335 BB633D57 		.ascii	"\273c=W\016zL\314$c\3160\306J\230\017\025\346\360_#"
 105      0E7A4CCC 
 105      2463CE30 
 105      C64A980F 
 105      15E6F05F 
 106 034a 61BFC2F8 		.ascii	"a\277\302\370\261\273\357d\343n\257\211\251w\023\346"
 106      B1BBEF64 
 106      E36EAF89 
 106      A97713E6 
 107 035a 23C6D808 		.ascii	"#\306\330\010\3631b\360\032\321\244(\266\313\233P\030"
 107      F33162F0 
 107      1AD1A428 
 107      B6CB9B50 
 107      18
ARM GAS  C:\Users\gjl\AppData\Local\Temp\ccWPnPAS.s 			page 8


 108 036b 20BD49A0 		.ascii	" \275I\240a\010\205\367vJ\352R:\266\265\215\014\330"
 108      610885F7 
 108      764AEA52 
 108      3AB6B58D 
 108      0CD8
 109 037d 0B1EEBA5 		.ascii	"\013\036\353\245\272\036\010IwTC\030t@\201\010JR\272"
 109      BA1E0849 
 109      77544318 
 109      74408108 
 109      4A52BA
 110 0390 3A74E63C 		.ascii	":t\346<\013bSY\376\360\375\373>\234]\313\263me\322\316"
 110      0B625359 
 110      FEF0FDFB 
 110      3E9C5DCB 
 110      B36D65D2 
 111 03a5 39FD69DD 		.ascii	"9\375i\335\241\337\356\207\275\205\273x\330\003\237"
 111      A1DFEE87 
 111      BD85BB78 
 111      D8039F
 112 03b4 40019CA5 		.ascii	"@\001\234\245\347\013\357Eo7\037u\"d>\371\370\024\366"
 112      E70BEF45 
 112      6F371F75 
 112      22643EF9 
 112      F814F6
 113 03c7 03AF0C9D 		.ascii	"\003\257\014\235P\020\222^\246h\211\247\250!\305\342"
 113      5010925E 
 113      A66889A7 
 113      A821C5E2 
 114 03d7 70B32B31 		.ascii	"p\263+1C_\024\263H\3009\3050$\375\034\320\311$\263\003"
 114      435F14B3 
 114      48C039C5 
 114      3024FD1C 
 114      D0C924B3 
 115 03ec 518DAA4B 		.ascii	"Q\215\252K\327\314xR\022\304\223R&\035\011\342I\205"
 115      D7CC7852 
 115      12C49352 
 115      261D09E2 
 115      4985
 116 03fe 1E8CA7FB 		.ascii	"\036\214\247\373\211x\020\242\327\0009:\037\013\352"
 116      897810A2 
 116      D700393A 
 116      1F0BEA
 117 040d 330AEA19 		.ascii	"3\012\352\031\016\312\032\037\224\0247\240\370Jp|\367"
 117      0ECA1A1F 
 117      941437A0 
 117      F84A707C 
 117      F7
 118 041e 0295F794 		.ascii	"\002\225\367\224)\307F\332\276\361\022\027;>\322\027"
 118      29C746DA 
 118      BEF11217 
 118      3B3ED217 
 119 042e 8C7214D1 		.ascii	"\214r\024\321l\342\214\224\024\324\351rxjT\027gF5'A"
 119      6CE28C94 
 119      14D4E972 
 119      786A5417 
 119      67463527 
 120 0443 5473CAA4 		.ascii	"Ts\312\2443ATs\241\027\243\272\224 \252?\221\237\177"
ARM GAS  C:\Users\gjl\AppData\Local\Temp\ccWPnPAS.s 			page 9


 120      33415473 
 120      A117A3BA 
 120      9420AA3F 
 120      919F7F
 121 0456 C482FA7C 		.ascii	"\304\202\372|*(\273I\355\302,\324\372b\324fpq%\344r"
 121      2A28BB49 
 121      EDC22CD4 
 121      FA62D466 
 121      707125E4 
 122 046b F9695CFA 		.ascii	"\371i\\\372c\\\256Lqq\304\013lQ\002\037\2532\005\236"
 122      635CAE4C 
 122      7171C40B 
 122      6C51021F 
 122      AB32059E 
 123 047f A6A8D3A4 		.ascii	"\246\250\323\244=0\013\355\201\344\264\335\011i\177"
 123      3D300BED 
 123      81E4B4DD 
 123      09697F
 124 048e F134DA57 		.ascii	"\3614\332Wc\264\377\251h\337\202\242\366\343}\243V\305"
 124      63B4FFA9 
 124      68DF82A2 
 124      F6E37DA3 
 124      56C5
 125 04a0 70EEF48D 		.ascii	"p\356\364\215\223\352\220=\333Y\352A\377\230V\363\220"
 125      93EA903D 
 125      DB59EA41 
 125      FF9856F3 
 125      90
 126 04b1 075C335C 		.ascii	"\007\\3\\7\334,:j\317\316\244'\350::\235\324\2706\336"
 126      37DC2C3A 
 126      6ACFCEA4 
 126      27E83A3A 
 126      9DD4B836 
 127 04c6 806C7679 		.ascii	"\200lvyc\231r8/\336\203\007\227\210=\205\373j[\357\373"
 127      63997238 
 127      2FDE8307 
 127      97883D85 
 127      FB6A5BEF 
 128 04db B28F10EB 		.ascii	"\262\217\020\353\357\301 \373\340Z\371\245\362Q}c\016"
 128      EFC120FB 
 128      E05AF9A5 
 128      F2517D63 
 128      0E
 129 04ec F998E6A0 		.ascii	"\371\230\346\240\220\016(o2\036\002n\262\017\256\235"
 129      900E286F 
 129      321E026E 
 129      B20FAE9D 
 130 04fc 43908D8B 		.ascii	"C\220\215\213\263\322.S\351\261Y\224\276\225\\iOB\245"
 130      B3D22E53 
 130      E9B15994 
 130      BE955C69 
 130      4F42A5
 131 050f BF7A9AD2 		.ascii	"\277z\232\322\3031\245\3775\245t\344\252\251t\312w\223"
 131      C331A5FF 
 131      35A574E4 
 131      AAA974CA 
 131      7793
ARM GAS  C:\Users\gjl\AppData\Local\Temp\ccWPnPAS.s 			page 10


 132 0521 F6F694B4 		.ascii	"\366\366\224\264\377~B\332\324\031\322\246$\226v\204"
 132      FF7E42DA 
 132      D419D2A6 
 132      24967684 
 133 0531 7DF0F170 		.ascii	"}\360\361p\347\377\225\366\353)i\357\222\264\251,\255"
 133      E7FF95F6 
 133      EB2969EF 
 133      92B4A92C 
 133      AD
 134 0542 3B3EDFAD 		.ascii	";>\337\255\\%+\317%)\344\363\243XV\005\3343\313\344"
 134      5C252BCF 
 134      2529E4F3 
 134      A3585605 
 134      DC33CBE4 
 135 0556 B35C265F 		.ascii	"\263\\&_s'\236\275 \212\365J@$\266)\303\343\237\225"
 135      73279EBD 
 135      208AF54A 
 135      4024B629 
 135      C3E39F95 
 136 056a 19676721 		.ascii	"\031gg!\300(\244\205\344\3671\230\340h\311\305UJ\221"
 136      C028A485 
 136      E4F73198 
 136      E068C9C5 
 136      554A91
 137 057d 05AA867D 		.ascii	"\005\252\206}\034\035W\207\222\0034\270\217\261\014"
 137      1C1D5787 
 137      920334B8 
 137      8FB10C
 138 058c 8335E91A 		.ascii	"\2035\351\032x2\301\003\265\006: \227\024Cu\022R\030"
 138      7832C103 
 138      B5063A20 
 138      97144375 
 138      125218
 139 059f 029E2E30 		.ascii	"\002\236.06\025\002\311\340\211\227\301\306.\366%wA"
 139      361502C9 
 139      E08997C1 
 139      C62EF625 
 139      7741
 140 05b1 2AFC67CA 		.ascii	"*\374g\312\005'\306\310kR\005\361\334\364G0-\356\021"
 140      0527C6C8 
 140      6B5205F1 
 140      DCF44730 
 140      2DEE11
 141 05c4 E44DAA01 		.ascii	"\344M\252\001|\245\371AP.\204\361\231\3334\301\333\304"
 141      7CA5F941 
 141      502E84F1 
 141      99DB34C1 
 141      DBC4
 142 05d6 A7FA37B8 		.ascii	"\247\3727\270\325\203P\244\277\300\257o\370\022\205"
 142      D58350A4 
 142      BFC0AF6F 
 142      F81285
 143 05e5 AE49AEBA 		.ascii	"\256I\256\272\222\213\231j\245t\265X\371\303\276\035"
 143      928B996A 
 143      A574B558 
 143      F9C3BE1D 
 144 05f5 0EA5AB03 		.ascii	"\016\245\253\003\036\242\317A\224-\206IW\364\356\024"
ARM GAS  C:\Users\gjl\AppData\Local\Temp\ccWPnPAS.s 			page 11


 144      1EA2CF41 
 144      942D8649 
 144      57F4EE14 
 145 0605 1979BBE8 		.ascii	"\031y\273\350\273\344\255\200o\247\362\345\021\347\\"
 145      BBE4AD80 
 145      6FA7F2E5 
 145      11E75C
 146 0614 B0BAA40B 		.ascii	"\260\272\244\013\224\213\305\274\364\242\370u\026\253"
 146      948BC5BC 
 146      F4A2F875 
 146      16AB
 147 0622 ADBC75C4 		.ascii	"\255\274u\304\247&=\217C\323?#\034`\201\307\270\016"
 147      A7263D8F 
 147      43D33F23 
 147      1C6081C7 
 147      B80E
 148 0634 CE9AB0A9 		.ascii	"\316\232\260\251)Kp\026N\271x\257k\257[\035Y\001\230"
 148      294B7016 
 148      4EB978AF 
 148      6BAF5B1D 
 148      590198
 149 0647 9C65BB29 		.ascii	"\234e\273)\245\242\346v/12\350Q\311mC\222e\270*\277"
 149      A5A2E676 
 149      2F3132E8 
 149      51C96D43 
 149      9265B82A 
 150 065c B2CCE643 		.ascii	"\262\314\346C\327\014\037\313\224\017,\242wG\375\312"
 150      D70C1FCB 
 150      940F2CA2 
 150      7747FDCA 
 151 066c C98A7889 		.ascii	"\311\212x\211\222\355U\241F\022\361\333T\221\306\022"
 151      92ED55A1 
 151      4612F1DB 
 151      5491C612 
 152 067c 4D94BCA4 		.ascii	"M\224\274\244<d('\275\007j\256\033\2215\001\004\265"
 152      3C642827 
 152      BD076AAE 
 152      1B913501 
 152      04B5
 153 068e D969159B 		.ascii	"\331i\025\233\2642b\264\036\230\211\265\362\177\312"
 153      B43262B4 
 153      1E9889B5 
 153      F27FCA
 154 069d A410B3E3 		.ascii	"\244\020\263\343\367\266\022mz&\265\320n\255T\231\324"
 154      F7B6126D 
 154      7A26B5D0 
 154      6EAD5499 
 154      D4
 155 06ae 99A55CAF 		.ascii	"\231\245\\\257\302\221\270\324\341I\253\024\201\261"
 155      C291B8D4 
 155      E149AB14 
 155      81B1
 156 06bc 668340E6 		.ascii	"f\203@\346\223\004\366$'`\205\255L\300N\004J\015\002"
 156      9304F624 
 156      276085AD 
 156      4CC04E04 
 156      4A0D02
ARM GAS  C:\Users\gjl\AppData\Local\Temp\ccWPnPAS.s 			page 12


 157 06cf 6BD8F709 		.ascii	"k\330\367\011\362\235I\276G\267v\0343\024\3132\226\033"
 157      F29D49BE 
 157      47B7761C 
 157      3314CB32 
 157      961B
 158 06e1 B5AB7EB6 		.ascii	"\265\253~\266\221Q\325F\256\344\360\224l\205\352\325"
 158      9151D546 
 158      AEE4F094 
 158      6C85EAD5 
 159 06f1 D4602E8E 		.ascii	"\324`.\216\323\021}9\370\033c\000)l\177\353\304N+\211"
 159      D3117D39 
 159      F81B6300 
 159      296C7FEB 
 159      C44E2B89 
 160 0705 EE846280 		.ascii	"\356\204b\2002\315<\260\275t\214 \213\360\330\266X\214"
 160      32CD3CB0 
 160      BD748C20 
 160      8BF0D8B6 
 160      588C
 161 0717 38FDC0A3 		.ascii	"8\375\300\243#\355^\365\364\340\364r\2153\264\266\344"
 161      23ED5EF5 
 161      F4E0F472 
 161      8D33B4B6 
 161      E4
 162 0728 4AB6F298 		.ascii	"J\266\362\230GC\304%N\231<\366\350\243\262!F\301\212"
 162      4743C425 
 162      4E993CF6 
 162      E8A3B221 
 162      46C18A
 163 073b 65CB0368 		.ascii	"e\313\003h\274X\325Vc \236\372\253\033p\222\367\324"
 163      BC58D556 
 163      63209EFA 
 163      AB1B7092 
 163      F7D4
 164 074d B5004EF3 		.ascii	"\265\000N\363\013\374H\307\363\261( \024Z\023\252\203"
 164      0BFC48C7 
 164      F3B12820 
 164      145A13AA 
 164      83
 165 075e DF31417E 		.ascii	"\3371A~y.\011G\267%9\332\026F\361\245D\30063/4\224."
 165      792E0947 
 165      B72539DA 
 165      1646F1A5 
 165      44C03633 
 166 0776 A40A4175 		.ascii	"\244\012AuIGk\236b\231\217~\020z)\370\321y\343\013 "
 166      49476B9E 
 166      62998F7E 
 166      107A29F8 
 166      D179E30B 
 167 078b 0A50A14D 		.ascii	"\012P\241M\355'/\225OZ\015\004\033\353\015\215\363\315"
 167      ED272F95 
 167      4F5A0D04 
 167      1BEB0D8D 
 167      F3CD
 168 079d D799514C 		.ascii	"\327\231QLNi\365\241\311O\255\210l\030\005\\e5u\265"
 168      4E69F5A1 
 168      C94FAD88 
ARM GAS  C:\Users\gjl\AppData\Local\Temp\ccWPnPAS.s 			page 13


 168      6C18055C 
 168      653575B5 
 169 07b1 54C00FAD 		.ascii	"T\300\017\255TQq\026\013\271\026\240x\2514\326\364$"
 169      54517116 
 169      0BB916A0 
 169      78A934D6 
 169      F424
 170 07c3 3F21A8BC 		.ascii	"?!\250\274n\327\342\312k\212\250\317\345"
 170      6ED7E2CA 
 170      6B8AA8CF 
 170      E5
 171 07d0 F2CA1F60 		.ascii	"\362\312\037`\267)\366 \177\355\214\202\234^,\005\276"
 171      B729F620 
 171      7FED8C82 
 171      9C5E2C05 
 171      BE
 172 07e1 B2EED0D2 		.ascii	"\262\356\320\322\264\221\310\026\034n\331\332u\334\245"
 172      B491C816 
 172      1C6ED9DA 
 172      75DCA5
 173 07f0 8601766A 		.ascii	"\206\001vji\226\212\373\277\242+\366\321:\331\332\330"
 173      69968AFB 
 173      BFA22BF6 
 173      D13AD9DA 
 173      D8
 174 0801 06D8BAD9 		.ascii	"\006\330\272\331\272\330\332\351\373\020pY,`+\262\262"
 174      BAD8DAE9 
 174      FB107059 
 174      2C602BB2 
 174      B2
 175 0812 D6E2DFAB 		.ascii	"\326\342\337\253/n\314[\273~\363\246\365\330\332\362"
 175      2F6ECC5B 
 175      BB7EF3A6 
 175      F5D8DAF2 
 176 0822 E2BA0DEB 		.ascii	"\342\272\015\353^]\237\273&'w\335\206?l\334\234\233"
 176      5E5D9FBB 
 176      262777DD 
 176      863F6CDC 
 176      9C9B
 177 0834 9397B55E 		.ascii	"\223\227\265^X\350\206\374\335\346\215\366_l\332\270"
 177      58E886FC 
 177      DDE68DF6 
 177      5F6CDAB8 
 178 0844 EED7BF7F 		.ascii	"\356\327\277\177\205\257\177|e\223\304\177X\017[\376"
 178      85AF7F7C 
 178      6593C47F 
 178      580F5BFE 
 179 0854 0B9A9898 		.ascii	"\013\232\230\230`"
 179      60
 180              		.text
 181              		.section	.gnu.lto_u8x8_uc1701_display_info.1a3e4be,"",%progbits
 182 0000 789C2DCC 		.ascii	"x\234-\314=O\302P\024\306\361\373\334\333b\301\026\324"
 182      3D4FC250 
 182      14C6F1FB 
 182      DCDB62C1 
 182      16D4
 183 0012 9938FB11 		.ascii	"\2318\373\021\370b\356M\024c\\L\324\01151\301\304\227"
ARM GAS  C:\Users\gjl\AppData\Local\Temp\ccWPnPAS.s 			page 14


 183      F862EE4D 
 183      14635C4C 
 183      D4093531 
 183      C1C497
 184 0025 8A940A12 		.ascii	"\212\224\012\022\252\203F\023\337&G\0066c\324 \013M"
 184      AA834613 
 184      DF264706 
 184      3663D420 
 184      0B4D
 185 0037 8C0189E7 		.ascii	"\214\001\211\347\364\320\345\337\337\275\347\\KA\361"
 185      F4D0E5DF 
 185      DFBDE75C 
 185      4B41F1
 186 0046 B74C913F 		.ascii	"\267L\221?\245\3764\332\203\240\355%\272l\024nR76\007"
 186      A5FE34DA 
 186      83A0ED25 
 186      BA6C146E 
 186      52373607 
 187 005a 96F89D1D 		.ascii	"\226\370\235\035\257\004az\017,\022\353\375\316\357"
 187      AF04617A 
 187      0F2C12EB 
 187      FDCEEF
 188 0069 947C5BB9 		.ascii	"\224|[\271J\236m\241C\254~u\356\246\364\210\273\303"
 188      4A9E6DA1 
 188      43AC7E75 
 188      EEA6F488 
 188      BBC3
 189 007b DE6756B8 		.ascii	"\336gV\270D|]\015\367\214\320\"\366\242h?\035\326\360"
 189      447C5D0D 
 189      F78CD022 
 189      F6A2683F 
 189      1DD6F0
 190 008e B712D0C9 		.ascii	"\267\022\320\311\355\317u\277 \003/\374\372\350c\247"
 190      EDCF75BF 
 190      20032FFC 
 190      FAE863A7 
 191 009e 0BB14B7C 		.ascii	"\013\261K|\033\325\342\2740Cl\336?\2549B^~:\214\307"
 191      1BD5E2BC 
 191      30436CDE 
 191      3FAC3942 
 191      5E7E3A8C 
 192 00b3 AED0266E 		.ascii	"\256\320&n<~o\243t\351\257\037\370\241]6f\242\025NQ"
 192      3C7E6FA3 
 192      74E9AF1F 
 192      F8A15D36 
 192      66A2154E 
 193 00c8 9C68E082 		.ascii	"\234h\340\202C\373\034#\261\344\320F\304\311\240\301"
 193      43FB1C23 
 193      B1E4D046 
 193      C4C9A0C1 
 194 00d8 9941C871 		.ascii	"\231A\310qP\347de=\207s\316,N8.j\034\017g\234<\002N"
 194      50E76465 
 194      3D8773CE 
 194      2C4E382E 
 194      6A1C0F67 
 195 00f0 4126E764 		.ascii	"A&\347dd\036\307\234\005\034\241\250\320BI\375\003\231"
 195      641EC79C 
ARM GAS  C:\Users\gjl\AppData\Local\Temp\ccWPnPAS.s 			page 15


 195      051CA1A8 
 195      D04249FD 
 195      0399
 196 0102 427F5F   		.ascii	"B\177_"
 197              		.text
 198              		.section	.gnu.lto_u8x8_d_uc1701_dogs102_init_seq.1a3e4be,"",%progbits
 199 0000 789C4D92 		.ascii	"x\234M\222\375ORQ\030\307\357\341\305$\001{\177\275"
 199      FD4F5251 
 199      18C7EFE1 
 199      C524017B 
 199      7FBD
 200 0012 BDFCD68F 		.ascii	"\275\374\326\217-\373\305\177\241\377\243?D\0264sks"
 200      2DFBC57F 
 200      A1FFA33F 
 200      44163473 
 200      6B73
 201 0024 CB8DADE5 		.ascii	"\313\215\255\345R\223\200\2107+.\367\212\206()\012\005"
 201      52938088 
 201      372B2EF7 
 201      8A862829 
 201      0A05
 202 0036 F816B335 		.ascii	"\370\026\2635K\034\254Mf\210\271\024\264\357\271\347"
 202      4B1CAC4D 
 202      6688B914 
 202      B4EFB9E7 
 203 0046 5983EDB3 		.ascii	"Y\203\355\263\313g\337\347<\367<\347\\\223\304$\376"
 203      CB67DFE7 
 203      3CF73CE7 
 203      5C93C424 
 203      FE
 204 0057 339B24FA 		.ascii	"3\233$\372'I-\003\013\273\312\376\316\206\301e\224\330"
 204      27492D03 
 204      0BBBCAFE 
 204      CE86C165 
 204      94D8
 205 0069 0983FFCE 		.ascii	"\011\203\377\316=\337\262sg\3546\264\341\316\226\272"
 205      3DDFB273 
 205      67EC36B4 
 205      E1CE96BA 
 206 0079 457C15FA 		.ascii	"E|\025\372l<\244\332Dz\013\372gI\033\261\212\324\303"
 206      6C3CA4DA 
 206      447A0BFA 
 206      67491BB1 
 206      8AD4C3
 207 008c 176B8F02 		.ascii	"\027k\217\002\021\212oB\267\274\307\356\016\021_\204"
 207      118A6F42 
 207      B7BCC7EE 
 207      0E115F84 
 208 009c 8E557319 		.ascii	"\216Us\031\263Ho@\027\243k3\364\346\020_\034\237\332"
 208      B3486F40 
 208      17A36B33 
 208      F4E6105F 
 208      1C9FDA
 209 00af E911A90C 		.ascii	"\351\021\251\014\363\245S\012\023z\035\2727\347\333"
 209      F3A5530A 
 209      137A1DBA 
 209      37E7DB
ARM GAS  C:\Users\gjl\AppData\Local\Temp\ccWPnPAS.s 			page 16


 210 00be A37D0CF2 		.ascii	"\243}\014\362\342Jet\310*\342k\355\333d\3726\253u-N"
 210      E24A6574 
 210      C82AE26B 
 210      EDDB64FA 
 210      36AB752D 
 211 00d3 AD0F7975 		.ascii	"\255\017yu\315\271\275\331%\342+\274\231\333\365\244"
 211      CDB9BDD9 
 211      25E22BBC 
 211      99DBF5A4 
 212 00e3 53E86568 		.ascii	"S\350eh\353\233\343\330 \252\355\320\375\277\0035\213"
 212      EB9BE3D8 
 212      20AAEDD0 
 212      FDBF0335 
 212      8B
 213 00f4 482FB5AB 		.ascii	"H/\265\253\244\353\377\231\230>\323\244?\\\241\021\035"
 213      A4EBFF99 
 213      983ED3A4 
 213      3F5CA111 
 213      1D
 214 0105 FAF13587 		.ascii	"\372\3615\207\025Z|\201\357K}|H\247y\036\352QJ\017D"
 214      155A7C81 
 214      EF4B7D7C 
 214      48A7791E 
 214      EA514A0F 
 215 011a F11D5874 		.ascii	"\361\035Xt\263\2310\211\360\034\264\177\376\373*M|\026"
 215      B3993089 
 215      F01CB47F 
 215      FEFB2A4D 
 215      7C16
 216 012c BAB0F174 		.ascii	"\272\260\361t\232:\337\205\026w\263\3034\302\031h\250"
 216      9A3ADF85 
 216      1677B3C3 
 216      34C21968 
 216      A8
 217 013d DE08D136 		.ascii	"\336\010\3216\272\241\023\205}\207Q\024\217\261\366"
 217      BAA11385 
 217      7D875114 
 217      8FB1F6
 218 014c 91983ED2 		.ascii	"\221\230>\322\253_\352,\235\274\015\352}\271\274B\327"
 218      AB5FEA2C 
 218      9DBC0DEA 
 218      7DB9BC42 
 218      D7
 219 015d F69A571F 		.ascii	"\366\232W\037U\207J\364f+t\275\344TI\273\240\221\204"
 219      55874AF4 
 219      662B74BD 
 219      E45449BB 
 219      A09184
 220 0170 73C72EAA 		.ascii	"s\307.\252\223z\357\335|\213\216\37644\020\363hTm\201"
 220      937AEFDD 
 220      7C8B8EFE 
 220      343410F3 
 220      68546D81 
 221 0184 E6378A61 		.ascii	"\3467\212a\272\250Q^\335\030p\035\030E|\012\252\324"
 221      BAA8515E 
 221      DD18701D 
 221      18457C0A 
ARM GAS  C:\Users\gjl\AppData\Local\Temp\ccWPnPAS.s 			page 17


 221      AAD4
 222 0196 028A8D9A 		.ascii	"\002\212\215\232\361\317\257|\024\324\350\200:\240\231"
 222      F1CFAF7C 
 222      14D4E880 
 222      3AA099
 223 01a5 71AD49BD 		.ascii	"q\255I\275\315\320\2023\362\202\026\233\240\251z\304"
 223      CDD08233 
 223      F282169B 
 223      A0A97AC4 
 224 01b5 4BA991A7 		.ascii	"K\251\221\247\301\037\017E\253\237\374M\351\223\203"
 224      C11F0F45 
 224      AB9FFC4D 
 224      E99383
 225 01c4 247D0386 		.ascii	"$}\003\206\366;\227\364;\337V\313Q{o\254\257\177\244"
 225      F63B97F4 
 225      3BDF56CB 
 225      517B6FAC 
 225      AF7FA4
 226 01d7 6FD0E232 		.ascii	"o\320\3422\032\330=\231\2553\231\365\310,\210\307\032"
 226      1AD83D99 
 226      AD3399F5 
 226      C82C88C7 
 226      1A
 227 01e8 58052B4C 		.ascii	"X\005+L\3702\010\203\"y\001\344\301\027\362\3732\373"
 227      F8320883 
 227      227901E4 
 227      C117F2FB 
 227      32FB
 228 01fa 8C478E34 		.ascii	"\214G\2164\013\226\300\"y\006,\200y\362O \015\346\310"
 228      0B96C022 
 228      79062C80 
 228      79F24F20 
 228      0DE6C8
 229 020d 67410ACC 		.ascii	"gA\012\314\220'\301G0M>\005\022`\022h@\005q\240P\036"
 229      9027C147 
 229      304D3E05 
 229      12601268 
 229      400571A0 
 230 0223 031FC07B 		.ascii	"\003\037\300{\362w`\002D\311#\264\375\020\371[\020\000"
 230      F2776002 
 230      44C923B4 
 230      FD10F95B 
 230      1000
 231 0235 6F801FF8 		.ascii	"o\200\037\370\200\227\311\022\373\312z\245\177\3431"
 231      8097C912 
 231      FBCA7AA5 
 231      7FE331
 232 0244 5DBD     		.ascii	"]\275"
 233              		.text
 234              		.section	.gnu.lto_u8x8_d_uc1701_dogs102_powersave0_seq.1a3e4be,"",%progbits
 235 0000 789C2D8B 		.ascii	"x\234-\213\275\016\301P\030\206\317\327\037\021D'\011"
 235      BD0EC150 
 235      1886CFD7 
 235      1F114427 
 235      09
 236 0011 496F82A9 		.ascii	"Io\202\251\227\345\022:\264\211\304f \021\203\201TQ"
 236      97E5123A 
ARM GAS  C:\Users\gjl\AppData\Local\Temp\ccWPnPAS.s 			page 18


 236      B489C466 
 236      20118381 
 236      5451
 237 0023 AD0E864E 		.ascii	"\255\016\206N\"1\010\213Qb\220`5P1\370}\233\317I\236"
 237      2231088B 
 237      51629060 
 237      355031F8 
 237      7D9BCF49 
 238 0038 9CEFC993 		.ascii	"\234\357\311\223W\021$\222w\007|\011\361\226\310\267"
 238      57112492 
 238      77077C09 
 238      F196C8B7 
 239 0048 4F6E3A96 		.ascii	"On:\226lY\320\227\340\247\247\027\345\023'JA\343\326"
 239      6C59D097 
 239      E0A7A717 
 239      E513274A 
 239      41E3D6
 240 005b 66A7712E 		.ascii	"f\247q.AW\275\350\225\343\252B\033\317u3\303\325O\306"
 240      4157BDE8 
 240      95E3AA42 
 240      1BCF7533 
 240      C3D54FC6 
 241 006f 5B2BE8C8 		.ascii	"[+\350\310\234\025\350\321\371\264R\234\013\320\305"
 241      9C15E8D1 
 241      F9B4529C 
 241      0BD0C5
 242 007e 3570FE63 		.ascii	"5p\376c\031Z\017o}\225k/\031/\277\217\271\306Y\202^"
 242      195A0F6F 
 242      7D956B2F 
 242      192FBF8F 
 242      B9C65982 
 243 0093 ACF321CB 		.ascii	"\254\363!\313\271\010m/\366\253\27413k]\263j\313\022"
 243      B9086D2F 
 243      F6ABBC31 
 243      336B5DB3 
 243      6ACB12
 244 00a6 95759A92 		.ascii	"\225u\232\222N\025\235<|\001\360\301\204\330\307`\004"
 244      4E159D3C 
 244      7C01F0C1 
 244      84D8C760 
 244      04
 245 00b7 86C00503 		.ascii	"\206\300\005\003\340\220.($C\374\000\312BTO"
 245      E0902E28 
 245      2443FC00 
 245      CA42544F 
 246              		.text
 247              		.section	.gnu.lto_u8x8_d_uc1701_dogs102_powersave1_seq.1a3e4be,"",%progbits
 248 0000 789C2D8D 		.ascii	"x\234-\215\271\012\302@\024E\347%Q\004\203\251\004\205"
 248      B90AC240 
 248      1445E725 
 248      510483A9 
 248      0485
 249 0012 FC8456F9 		.ascii	"\374\204V\371,?!E\002\342\017\330XX\250q\313fa\221J"
 249      2C3F2145 
 249      02E20FD8 
 249      5858A871 
 249      CB666191 
ARM GAS  C:\Users\gjl\AppData\Local\Temp\ccWPnPAS.s 			page 19


 250 0027 050B97C6 		.ascii	"\005\013\227\306F\260\023\324\326B\\\012\327;<\007\016"
 250      46B013D4 
 250      D6425C0A 
 250      D73B3C07 
 250      0E
 251 0038 3387C365 		.ascii	"3\207\303e4AB\236\033\340\227\020o\205B\367\330\313"
 251      3441429E 
 251      1BE09710 
 251      6F8542F7 
 251      D8CB
 252 004a 5C155715 		.ascii	"\\\025W\025\364%\370\361\351'9\351Di\350\265\276\336"
 252      F425F8F1 
 252      E92739E9 
 252      4469E8B5 
 252      BEDE
 253 005c 199C8BD0 		.ascii	"\031\234\213\320E+y\351\\S\320\373*i\352\\\333r\274"
 253      452B79E9 
 253      5C53D0FB 
 253      2A69EA5C 
 253      DB72BC
 254 006f 71A286CA 		.ascii	"q\242\206\312Y\203\036\274O=\3159\017\235]\"\357?V\241"
 254      59831EBC 
 254      4F3DCD39 
 254      0F9D5D22 
 254      EF3F56A1 
 255 0083 CB783BFD 		.ascii	"\313x;\375\377\034\310\361\374\373\230\030\234\025\350"
 255      FF1CC8F1 
 255      FCFB9818 
 255      9C15E8
 256 0092 D939EDB3 		.ascii	"\3319\355\263\234\013\320N\315=\2235\266\253M\273\342"
 256      9C0BD04E 
 256      CD3D9335 
 256      B6AB4DBB 
 256      E2
 257 00a3 AA0A954C 		.ascii	"\252\012\225L\212\311\244\262I>\256\010\204  \366!\030"
 257      8AC9A4B2 
 257      493EAE08 
 257      842020F6 
 257      2118
 258 00b5 803EE881 		.ascii	"\200>\350\201.\360\310\0244\"K\374\000\350\343TS"
 258      2EF0C814 
 258      34224BFC 
 258      00E8E354 
 258      53
 259              		.text
 260              		.section	.gnu.lto_u8x8_d_uc1701_dogs102_flip0_seq.1a3e4be,"",%progbits
 261 0000 789C2D8C 		.ascii	"x\234-\214=\013\202P\030F\357\253%A\242SP\340\237\250"
 261      3D0B8250 
 261      1846EFAB 
 261      2541A253 
 261      50E09FA8 
 262 0014 C99FD54F 		.ascii	"\311\237\325OpPhjmi(\010\354[kh\220\006\011\032\202"
 262      7050686A 
 262      6D692808 
 262      EC5B6B68 
 262      9006091A 
 263 0029 866AA968 		.ascii	"\206j\251h\011\262\261\2060\032\372|\344\355\302\341"
ARM GAS  C:\Users\gjl\AppData\Local\Temp\ccWPnPAS.s 			page 20


 263      09B2B186 
 263      301AFA7C 
 263      E4EDC2E1 
 264 0039 DEC3E1B9 		.ascii	"\336\303\341\271)A\"9w\300/!\336\022yN\324\311\304\222"
 264      29412239 
 264      77C02F21 
 264      DE12794E 
 264      D4C9C492 
 265 004d 230BFA12 		.ascii	"#\013\372\022<z\016\002-q\"\005\032\327\226{\235s\001"
 265      3C7A0E02 
 265      2D712205 
 265      1AD7967B 
 265      9D7301
 266 0060 BA68052F 		.ascii	"\272h\005/\225k\032\352O\355\213\3065L\306k\333\257"
 266      956B1AEA 
 266      4FED8BC6 
 266      354CC66B 
 266      DBAF
 267 0072 CB9C53D0 		.ascii	"\313\234S\320\223\373\251)\234s\320\331\315w\377c\031"
 267      93FBA929 
 267      9C73D0D9 
 267      CD77FF63 
 267      19
 268 0083 BA3A6CBC 		.ascii	"\272:l\274\377\327\315d<\377>B\235\263\004\275\332\347"
 268      FFD7CD64 
 268      3CFF3E42 
 268      9DB304BD 
 268      DAE7
 269 0095 6396731E 		.ascii	"c\226s\036Z\235\355\266\2529\261*\015\253\354\310\022"
 269      5A9DEDB6 
 269      AA39B12A 
 269      0DABECC8 
 269      12
 270 00a6 150D1A91 		.ascii	"\025\015\032\221A%\203\006\270|\340\201!\261\367A\017"
 270      41258306 
 270      B87CE081 
 270      21B1F741 
 270      0F
 271 00b7 744107B4 		.ascii	"tA\007\264\201K\206\2401\231\342\007\3673T\255"
 271      814B86A0 
 271      3199E207 
 271      F73354AD 
 272              		.text
 273              		.section	.gnu.lto_u8x8_d_uc1701_dogs102_flip1_seq.1a3e4be,"",%progbits
 274 0000 789C2D8B 		.ascii	"x\234-\213=\013AQ\030\307\317s\216\267\"&E\235/\301"
 274      3D0B4151 
 274      18C7CF73 
 274      8EB72226 
 274      459D2FC1 
 275 0014 E463F908 		.ascii	"\344c\371\010\206{\313hc0\030\324\365\356\222\014&)"
 275      867BCB68 
 275      633018D4 
 275      F5EE920C 
 275      2629
 276 0026 A22C6C26 		.ascii	"\242,l&\312e4\350\312\340\345\372\237\036\247~\235\347"
 276      CA6534E8 
 276      CAE0E5FA 
ARM GAS  C:\Users\gjl\AppData\Local\Temp\ccWPnPAS.s 			page 21


 276      9F1EA77E 
 276      9DE7
 277 0038 D7AF7F48 		.ascii	"\327\257\177H\2200\357\001\370\022\342#ih{\355\230/"
 277      9030EF01 
 277      F812E223 
 277      69687BED 
 277      982F
 278 004a 6D252820 		.ascii	"m%( \270\367\352\317\222\306\211\"P\277\272=\2448g\241"
 278      B8F7EACF 
 278      92C68922 
 278      50BFBA3D 
 278      A43867A1 
 279 005e 9BE6EC9D 		.ascii	"\233\346\354\235\340\032\206\326\254\375Ur]\233\361"
 279      E01A86D6 
 279      ACFD5572 
 279      5D9BF1
 280 006d CE72EB8A 		.ascii	"\316r\353\212s\010zv\276\325\010\3474tqw\235\377XA?"
 280      73087A76 
 280      BED508E7 
 280      34747177 
 280      9DFF5841 
 281 0082 C74A25CA 		.ascii	"\307J%\312\265a\306\313\3409Oq\226\320\233u9\3059g\240"
 281      B561C6CB 
 281      E0394F71 
 281      96D09B75 
 281      39C53967 
 282 0097 ABC9B41C 		.ascii	"\253\311\264\034+LK\345F\251h+I9M#\322\224\327\324\307"
 282      2B4C4BE5 
 282      46A9682B 
 282      49394D23 
 282      D294D7D4 
 283 00ac E7822118 		.ascii	"\347\202!\030\020{\017tA\007\264A\0138\244\005\215\251"
 283      107B0F74 
 283      4107B441 
 283      0B38A405 
 283      8DA9
 284 00be 207EBEEB 		.ascii	" ~\276\353T\034"
 284      541C
 285              		.text
 286              		.section	.gnu.lto_.symbol_nodes.1a3e4be,"",%progbits
 287 0000 789C55CC 		.ascii	"x\234U\314\273\015\3020\024\205\341\343W\234w\201\030"
 287      BB0DC230 
 287      1485E1E3 
 287      579C7781 
 287      18
 288 0011 004A4661 		.ascii	"\000JFa\252\353\302\035R@Bb\002OAm\021\211\002Zj\310"
 288      AAEBC21D 
 288      52404262 
 288      024F416D 
 288      1189025A 
 289 0027 0094D091 		.ascii	"\000\224\320\221\330)p\365\351\327}H0l\031\000\236\021"
 289      D82970F5 
 289      E9D77D48 
 289      306C1900 
 289      9E11
 290 0039 70B80123 		.ascii	"p\270\001#g\263\006\224Rf\001\010\005\031e\"\312yT\260"
 290      67B30694 
ARM GAS  C:\Users\gjl\AppData\Local\Temp\ccWPnPAS.s 			page 22


 290      52660108 
 290      05196522 
 290      CA7954B0 
 291 004d A8449035 		.ascii	"\250D\2205\304\302\003\300\230\025\300Z\342IW$\222."
 291      C4C203C0 
 291      9815C05A 
 291      E2495724 
 291      922E
 292 005f 49265D93 		.ascii	"I&]\223J\272\240,\351\234t\322\232\362\377\026h1|\226"
 292      4ABAA02C 
 292      E99C74D2 
 292      9AF2FF16 
 292      68317C96 
 293 0073 020DDC77 		.ascii	"\002\015\334w\244\206\217\270K\317B\316\272~\366:Y\302"
 293      A4868FB8 
 293      4BCF42CE 
 293      BA7EF63A 
 293      59C2
 294 0085 EFEE5CA0 		.ascii	"\357\356\\\240\300\020\254\340\272I\015\037,a\367q\356"
 294      C010ACE0 
 294      BA490D1F 
 294      2C61F771 
 294      EE
 295 0096 8F517B9A 		.ascii	"\217Q{\232\367\2039\354\363\321\351\351\300\276\336"
 295      F78339EC 
 295      F3D1E9E9 
 295      C0BEDE
 296 00a5 1BFC0001 		.ascii	"\033\374\000\001wE\216"
 296      77458E
 297              		.text
 298              		.section	.gnu.lto_.refs.1a3e4be,"",%progbits
 299 0000 789C6361 		.ascii	"x\234ca`d\020e```c`bdfbbcb\346db\341bb\345eb\023d\000"
 299      60641065 
 299      60606063 
 299      60626466 
 299      62626362 
 300 0020 00060600 		.ascii	"\000\006\006\000|"
 300      7C
 301              		.text
 302              		.section	.gnu.lto_.decls.1a3e4be,"",%progbits
 303 0000 789CBD59 		.ascii	"x\234\275Y\013PTW\232\356sO74M\003\021H\306\232\242"
 303      0B505457 
 303      9AEE734F 
 303      37344D03 
 303      1148C69A 
 304 0015 123721CA 		.ascii	"\0227!\312V\315\030H\262\263\326\326LU\246fvfk\267j"
 304      56CD1848 
 304      B2B3D6D6 
 304      4C55A666 
 304      76666BB7 
 305 002a 375B93A4 		.ascii	"7[\223\244v\253\250\355m\232V;\003\015\241\033\225\231"
 305      76ABA8ED 
 305      6D9A563B 
 305      030DA11B 
 305      9599
 306 003c 9ADACB43 		.ascii	"\232\332\313CT\020\344\255 FE\243 \250\210\012\202 "
 306      5410E4AD 
ARM GAS  C:\Users\gjl\AppData\Local\Temp\ccWPnPAS.s 			page 23


 306      204645A3 
 306      20A8880A 
 306      8220
 307 004e ADE00341 		.ascii	"\255\340\003AA\361\315C\342\0030\210\002\242\310K\346"
 307      41F1CD43 
 307      E2033088 
 307      02A2C84B 
 307      E6
 308 005f 3FE7DCDB 		.ascii	"?\347\334\333\367^\274d6U;\333\345\307\271\3779\337"
 308      F75EBC64 
 308      36553BDB 
 308      E5C7B9FF 
 308      39DF
 309 0071 F95FE779 		.ascii	"\371_\347y\257Z\015\322\220_\360;\032\315\250N\243\031"
 309      AF5A0DD2 
 309      905FF03B 
 309      1ACDA84E 
 309      A319
 310 0083 E4349A39 		.ascii	"\3444\2329\370\351\241\356\013\200\007\340S\300a@-\300"
 310      F8E9A1EE 
 310      0B8007E0 
 310      53C06140 
 310      2DC0
 311 0095 05F0842E 		.ascii	"\005\360\204.A\032\366\363\002\374\013\310\377\016\370"
 311      411AF6F3 
 311      02FC0BC8 
 311      FF0EF8
 312 00a4 4F800910 		.ascii	"O\200\011\020\001\260\002\276\004\330\001\016\304\364"
 312      01B002BE 
 312      04D8010E 
 312      C4F4
 313 00b2 C443B916 		.ascii	"\304C\271\026\220\000\370#\340O\200\377A\032\305\217"
 313      9000F823 
 313      E04F80FF 
 313      411AC58F 
 314 00c2 E85A22D8 		.ascii	"\350Z\"\330\363\007\004\002~\016u\237C\371\031\222l"
 314      F3070402 
 314      7E0E759F 
 314      43F91992 
 314      6C
 315 00d3 139FFE4D 		.ascii	"\023\237\376M\360\221'\372\001q\200D@4 \0111_\033\001"
 315      F09127FA 
 315      01718044 
 315      40342009 
 315      315F1B01 
 316 00e7 36C47C3F 		.ascii	"6\304|?\001\370\005<\327@\231\014\345\247\200\024\300"
 316      01F8053C 
 316      D740990C 
 316      E5A78014 
 316      C0
 317 00f8 7F01F200 		.ascii	"\177\001\362\000\271\200|\300\177\000H\374\277\205r"
 317      B9807CC0 
 317      7F0048FC 
 317      BF8572
 318 0107 12CA8FA1 		.ascii	"\022\312\217\241\034\207r3\224\231\200\014\300\026$"
 318      1C877233 
 318      9499800C 
ARM GAS  C:\Users\gjl\AppData\Local\Temp\ccWPnPAS.s 			page 24


 318      C01624
 319 0116 C5EE10E2 		.ascii	"\305\356\020\342\374R\210\335$\304/\346\304\007x\005"
 319      FC5288DD 
 319      24C42FE6 
 319      C4077805 
 320 0126 506E056C 		.ascii	"Pn\005l\003\024\002\212\000\333\001\305B\016\376$\344"
 320      0314028A 
 320      00DB01C5 
 320      420EFE24 
 320      E4
 321 0137 2441C851 		.ascii	"$A\310Q\374\274\274\020\216\026\312\245\032\026\377"
 321      FCBCBC10 
 321      8E16CAA5 
 321      1A16FF
 322 0146 320D8B39 		.ascii	"2\015\2139\000\312\347\2001\300\010\340\005`\202t\200"
 322      00CAE780 
 322      31C008E0 
 322      05608274 
 322      80
 323 0157 B627508C 		.ascii	"\266'P\214\002\246\000\263\200i\300K\300+\000\007\355"
 323      02A600B3 
 323      8069C04B 
 323      C02B0007 
 323      ED
 324 0168 4F352C3E 		.ascii	"O5,>\022\333\014\3512\317\246\370#\276a\301n\240\220"
 324      12DB0CE9 
 324      32CFA6F8 
 324      23BE61C1 
 324      6EA090
 325 017b D3857E7F 		.ascii	"\323\205~\177\234\307=\361=\334\204\037\300]\373\003"
 325      9CC73DF1 
 325      3DDC841F 
 325      C05DFB03 
 326 018b B8F13F80 		.ascii	"\270\361?\200;\313\241\303\353\037\224\351\3079\024"
 326      3BCBA1C3 
 326      EB1F94E9 
 326      C73914
 327 019a 64407388 		.ascii	"d@s\210\310\217k'}\230L\232\357N\226\376fy\005\017\277"
 327      C88F6B27 
 327      7D984C9A 
 327      EF4E96FE 
 327      6679050F 
 328 01af 2C9EE738 		.ascii	",\236\3478\251\3371\327\263\203Z\354MH\334\225\243\267"
 328      A9DF31D7 
 328      B3835AEC 
 328      4D48DC95 
 328      A3B7
 329 01c1 CF7AA110 		.ascii	"\317z\241\020\303>\302\353\353\032\377e2\317#T\201\014"
 329      C33EC2EB 
 329      EB1AFF65 
 329      32CF2354 
 329      810C
 330 01d3 E800C2A8 		.ascii	"\350\000\302\250\014-\207.\240\020\376n\344\371$~\244"
 330      0C2D872E 
 330      A010FE6E 
 330      E4F9247E 
 330      A4
ARM GAS  C:\Users\gjl\AppData\Local\Temp\ccWPnPAS.s 			page 25


 331 01e4 84F758AC 		.ascii	"\204\367X\254A\037\005\241\320 \015*G!\304\030a\241"
 331      411F05A1 
 331      D0200D2A 
 331      4721C418 
 331      61A1
 332 01f6 521484F6 		.ascii	"R\024\204\366\243 \242\277lgi\263\017\336\206\250\201"
 332      A320A2BF 
 332      6C6769B3 
 332      0FDE86A8 
 332      81
 333 0207 E1BCA18D 		.ascii	"\341\274\241\215\330m ;=\250\234\347\337@\207\301\300"
 333      D86D203B 
 333      3DA89CE7 
 333      DF4087C1 
 333      C0
 334 0218 41C900D8 		.ascii	"A\311\000\330S\267pH\305\002\351\014V\256\244T\026c"
 334      53B77048 
 334      C502E90C 
 334      56AEA454 
 334      1663
 335 022a 88D6DF80 		.ascii	"\210\326\337\200\264 \216^*\272\357\013b\240\001-\001"
 335      B4208E5E 
 335      2ABAEF0B 
 335      62A0012D 
 335      01
 336 023b F1C1F4C1 		.ascii	"\361\301\364\301:_\326\352\001\342\323\373\023\367\364"
 336      3A5FD6EA 
 336      01E2D3FB 
 336      13F7F4
 337 024a 868D3419 		.ascii	"\206\2154\031\311\274\377\005_\322p\004\024V\202B\015"
 337      C9BCFF05 
 337      5FD27004 
 337      14568242 
 337      0D
 338 025b 3A4AECA3 		.ascii	":J\354\243\017\202P\025\213`<m\375\204\240\333\023\304"
 338      0F825015 
 338      8B603C6D 
 338      FD84A0DB 
 338      13C4
 339 026d D2FEE24C 		.ascii	"\322\376\342L#\323\275\002D\327S~\302\317?K\310\354"
 339      23D3BD02 
 339      44D7537E 
 339      C2CF3F4B 
 339      C8EC
 340 027f 27884673 		.ascii	"'\210Fs\034\224\035\243\312\252\221\277\250\222\350"
 340      1C941DA3 
 340      CAAA91BF 
 340      A892E8
 341 028e DA71FD5E 		.ascii	"\332q\375^\226\227A\210-\353/\304\006\374\203%\311\027"
 341      96974188 
 341      2DEB2FC4 
 341      06FC8325 
 341      C917
 342 02a0 39B9F69A 		.ascii	"9\271\366\232\357\323^W|\276[gL#\332\205\300N \177Y"
 342      EFD35E57 
 342      7CBE5B67 
 342      4C23DA85 
ARM GAS  C:\Users\gjl\AppData\Local\Temp\ccWPnPAS.s 			page 26


 342      C04E207F 
 343 02b5 64B5C848 		.ascii	"d\265\310HF\235\224\262$\371\263$\345\347\364\224\241"
 343      469D94B2 
 343      24F9B324 
 343      E5E7F494 
 343      A1
 344 02c6 85B37252 		.ascii	"\205\263rR\314J\035\363lc\327\343q#\353\3757 6\365\277"
 344      CC4A1DF3 
 344      6C63D7E3 
 344      7123EBFD 
 344      372036F5 
 345 02db 1CD2B3AC 		.ascii	"\034\322\263\254l\344@\276x\243`\362\265\2644\200\266"
 345      6CE440BE 
 345      78A360F2 
 345      B5B43480 
 345      B6
 346 02ec 7AAAED14 		.ascii	"z\252\355\024u\374\244\350\370\205\211\243[=\347\207"
 346      75FCA4E8 
 346      F88589A3 
 346      5B3DE787 
 347 02fc B920FB56 		.ascii	"\271 \373V\305\351>oE\230\215\2120]B\230.\032\346\311"
 347      C5E93E6F 
 347      45988D8A 
 347      305D4298 
 347      2E1AE6C9 
 348 0310 9AFA733A 		.ascii	"\232\372s:\346Y(\210WG\332vx3\277\337\000\361\354\334"
 348      E6592888 
 348      5747DA76 
 348      7833BFDF 
 348      00F1ECDC 
 349 0324 84CB8F89 		.ascii	"\204\313\217\211\234\2545\220\265n\356\254\376\010o"
 349      9CAC3590 
 349      B56EEEAC 
 349      FE086F
 350 0333 E5E80AFA 		.ascii	"\345\350\012\372fjz\204L\203\245\260\300\346\260l\205"
 350      666A7A84 
 350      4C83A5B0 
 350      C0E6B06C 
 350      85
 351 0344 2D652BAC 		.ascii	"-e+\254\261\265e\237\021\357\241dn\257+i=B\206\020:"
 351      B1B5659F 
 351      11EFA164 
 351      6EAF2B69 
 351      3D428610 
 352 0359 D27C326F 		.ascii	"\322|2o(\365\325\240f\360\260\211\314\331\2130\330K"
 352      28F5D5A0 
 352      66F0B089 
 352      CCD98B30 
 352      D84B
 353 036b 85C13E0F 		.ascii	"\205\301>\017\225\347\240RXs\217\377\231\256\271\026"
 353      95E7A052 
 353      58738FFF 
 353      99AEB916 
 354 037b 88FF82B4 		.ascii	"\210\377\202\264$\226\012\221\237\312\356\3527\340C"
 354      24960A91 
 354      9FCAEEEA 
 354      37E043
ARM GAS  C:\Users\gjl\AppData\Local\Temp\ccWPnPAS.s 			page 27


 355 038a CC46D948 		.ascii	"\314F\331H[\205\337\2026.-h#;}i\005Yvm`\243U\262\321"
 355      5B85DF82 
 355      362E2D68 
 355      233B7D69 
 355      0559766D 
 356 03a3 22A6F749 		.ascii	"\"\246\367I\312\303>!\007\213A\254\270~k\026\341\032"
 356      CAC33E21 
 356      078B41AC 
 356      B87E6B16 
 356      E11A
 357 03b5 96844BAF 		.ascii	"\226\204K\257FNa\334\302\204\203}\251\235:|\207\011"
 357      464E61DC 
 357      C284837D 
 357      A99D3A7C 
 357      8709
 358 03c7 FB66761F 		.ascii	"\373fv\0373\342~&\024\235\034\277\250cY\325\203xn\242"
 358      33E27E26 
 358      149D1CBF 
 358      A86359D5 
 358      83786EA2 
 359 03db 618F0E8F 		.ascii	"a\217\016\217\262\266\264\364\003\273}q*\246\302\366"
 359      B2B6B4F4 
 359      03BB7D71 
 359      2AA6C2F6 
 360 03eb 673D8FBC 		.ascii	"g=\217\274\230\255\020\020\327o.\257\307\270\220\265"
 360      98AD1010 
 360      D76F2EAF 
 360      C7B890B5 
 361 03fb 75DCAD7A 		.ascii	"u\334\255z\356\201\0171\341no\366\227\270\206=\367\\"
 361      EE810F31 
 361      E16E6FF6 
 361      97B8863D 
 361      F75C
 362 040d 282B2723 		.ascii	"(+'#\261\214\214\304\334\234\237l,\226\261\261\270\272"
 362      B18C8CC4 
 362      DC9C9F6C 
 362      2C96B1B1 
 362      B8BA
 363 041f 656CAF27 		.ascii	"el\257'n\246t\356\\\306\321*oiW\333k\254%\321\367B\364"
 363      6EA674EE 
 363      5CC6D12A 
 363      6F6957DB 
 363      6BAC25D1 
 364 0436 DD52F4CB 		.ascii	"\335R\364\313\334{\016\233R\032\367|B=\220\311eB&\273"
 364      DC7B0E9B 
 364      521AF77C 
 364      423D90C9 
 364      654226BB 
 365 044a A0F28EB0 		.ascii	"\240\362\216\260\261\355\315.\361\300\355\314F\341\261"
 365      B1EDCD2E 
 365      F1C0EDCC 
 365      46E1B1
 366 0459 031306D9 		.ascii	"\003\023\006\331\306\3661\315\360\267`\343\256d\243"
 366      C6F631CD 
 366      F0B760E3 
 366      AE64A3
 367 0468 172D6CA4 		.ascii	"\027-l\244O\335\310\320\265\253\331:|\213\305=[\265"
ARM GAS  C:\Users\gjl\AppData\Local\Temp\ccWPnPAS.s 			page 28


 367      4FDDC8D0 
 367      B5ABD93A 
 367      7C8BC53D 
 367      5BB5
 368 047a E1A4160F 		.ascii	"\341\244\026\0171a\340\302\344\2707\236e\302\324\231"
 368      3161E0C2 
 368      E4B8379E 
 368      65C2D499 
 369 048a A45A84B3 		.ascii	"\244Z\204\263\264T\250>3\331\246\303\3370\341IR\371"
 369      B454A83E 
 369      33D9A6C3 
 369      DF30E149 
 369      52F9
 370 049c 5E844F31 		.ascii	"^\204O1\241#\177\270\200\3037\23103\235\233\250\303"
 370      A1237FB8 
 370      80C33799 
 370      30339D9B 
 370      A8C3
 371 04ae DF31A1B1 		.ascii	"\3371\241\261{\260\302\033\317\010}\204\011\340\317"
 371      7BB0C21B 
 371      CF087D84 
 371      09E0CF
 372 04bd 2640657D 		.ascii	"&@e}\312\260\260\231\272\310\311R\2321\322d\300\371"
 372      CAB0B099 
 372      BAC8C952 
 372      9A31D264 
 372      C0F9
 373 04cf 3AC27D33 		.ascii	":\302}3\261\361\322yO\024L~\001\301\322/\004PB\002\355"
 373      B1F1D279 
 373      4F144C7E 
 373      01C1D22F 
 373      04504202 
 374 04e4 CB1FFAA4 		.ascii	"\313\037\372\244\276\272\233\347S\215t\013\270\017\351"
 374      BEBA9BE7 
 374      538D740B 
 374      B80FE9
 375 04f3 788602C4 		.ascii	"x\206\002\304m\357\003\262^O\223U\253\241tW\326Uo\276"
 375      6DEF03B2 
 375      5E4F9355 
 375      ABA17457 
 375      D6556FBE 
 376 0507 F2BF29F5 		.ascii	"\362\277)\365\212\222z\206\256\355\217$j\367e7u@Ek\263"
 376      8A927A86 
 376      AEED8F24 
 376      6AF76537 
 376      7540456B 
 377 051c 4CEBB676 		.ascii	"L\353\266v7\365\236\012\365\270\214zK\322:\250B\245"
 377      37F59E0A 
 377      F5B88C7A 
 377      4BD23AA8 
 377      42A5
 378 052e F6B3858D 		.ascii	"\366\263\205\215\212GN\015z\014\2435D\206\360;\201\016"
 378      8A474E0D 
 378      7A0CA335 
 378      4486F03B 
 378      810E
 379 0540 63084770 		.ascii	"c\010Gp\010z\216\202\321\030`\004\360\0020\001\340\271"
ARM GAS  C:\Users\gjl\AppData\Local\Temp\ccWPnPAS.s 			page 29


 379      087A8E82 
 379      D1186004 
 379      F0023001 
 379      E0B9
 380 0552 60F404CA 		.ascii	"`\364\004\312Q\300\024`\0260\015x\011x\005H\202\366"
 380      51C01460 
 380      16300D78 
 380      09780548 
 380      82F6
 381 0564 A7504E02 		.ascii	"\247PN\002\306\0013\200D.\230\036\326\314\277\002)A"
 381      C6013380 
 381      442E981E 
 381      D6CCBF02 
 381      2941
 382 0576 ED6A09BA 		.ascii	"\355j\011\272,\213\345\206\024\313#\225X\302$f\257\304"
 382      2C8BE586 
 382      14CB2395 
 382      58C22466 
 382      AFC4
 383 0588 EC5761CA 		.ascii	"\354Wa\312\225\216H\324\207*\324#2\352\270\224\366\353"
 383      958E48D4 
 383      872AD423 
 383      32EAB894 
 383      F6EB
 384 059a 4A6A279A 		.ascii	"Jj'\232?\360yR\\\035jq\311\207s\347\026\337B\336\225"
 384      3FF07952 
 384      5C1D6A71 
 384      C98773E7 
 384      16DF42DE 
 385 05af 82E902BB 		.ascii	"\202\351\002\273-\260\335K\211\351\226\005w\273\335"
 385      2DB0DD4B 
 385      89E99605 
 385      77BBDD
 386 05be 672BEF4A 		.ascii	"g+\357J\304T\371M5Gn\310\224\327\344\370n\343]I\230"
 386      C454F94D 
 386      35476EC8 
 386      94D7E4F8 
 386      6EE35D49 
 387 05d3 EE8F6705 		.ascii	"\356\217g\005\266{[e\316\310\203\354\224k\277\245\246"
 387      B67B5B65 
 387      CEC883EC 
 387      946BBFA5 
 387      A6
 388 05e4 5DCE7E29 		.ascii	"]\316~)\245\344\232\032\227ME\272\215\270\0323\215<"
 388      A5E49A1A 
 388      974D45BA 
 388      8DB81A33 
 388      8D3C
 389 05f6 AF271C8D 		.ascii	"\257'\034\215\260\205H\323\340\331e\231\325\007*\343"
 389      B08548D3 
 389      E0D96599 
 389      D5072AE3 
 390 0606 200FA956 		.ascii	" \017\251V\036\322\260zH\362\261\230\223\207tUm4hva"
 390      1ED2B07A 
 390      48F2B198 
 390      93877455 
 390      6D346876 
ARM GAS  C:\Users\gjl\AppData\Local\Temp\ccWPnPAS.s 			page 30


 391 061b 2FB8BD65 		.ascii	"/\270\275e{\241\037\256\243{\001w\351AQ\243/\012\010"
 391      7BA11FAE 
 391      A37B0177 
 391      E94151A3 
 391      2F0A08
 392 062e 515F1EEB 		.ascii	"Q_\036\353\271\220\277\352\362`9\353i\375\011\311Y\012"
 392      B990BFEA 
 392      F26039EB 
 392      69FD09C9 
 392      590A
 393 0640 17809239 		.ascii	"\027\200\2229\367\316KRH\375\335]\272?\003\005\010\016"
 393      F7CE4B52 
 393      48FDDD5D 
 393      BA3F0305 
 393      080E
 394 0652 BA167450 		.ascii	"\272\026tP\363\177\356\035\330NM{\226\210\024\327\226"
 394      F37FEE1D 
 394      D84E4D7B 
 394      968814D7 
 394      96
 395 0663 542E4076 		.ascii	"T.@vm\331\300\261k\013\224d\257N9W\243\357\202\331\015"
 395      6DD9C0B1 
 395      6B0B9464 
 395      AF4E3957 
 395      A3EF82D9 
 396 0678 A7A6F046 		.ascii	"\247\246\360F\303\336l\020\024\004\032\006*\302\003"
 396      C3DE6C10 
 396      14041A06 
 396      2AC203
 397 0687 47FF6ADC 		.ascii	"G\377j\334U\356BC\376j\030\237\326I\312\350?\261\234"
 397      55EE4243 
 397      FE6A189F 
 397      D649CAE8 
 397      3FB19C
 398 069a 137F5489 		.ascii	"\023\177T\211\244\035\011\235\220\333\003\326\213\265"
 398      A41D099D 
 398      90DB03D6 
 398      8BB5
 399 06a8 73A25656 		.ascii	"s\242VVpR\007\231>\346\256\314'\244\214\011\211)\332"
 399      70520799 
 399      3EE6AECC 
 399      27A48C09 
 399      8929DA
 400 06bb 7A28BD0E 		.ascii	"z(\275\016\341\313t:\241C\025\323\225\006-\274\252\240"
 400      E1CB743A 
 400      A14315D3 
 400      95062DBC 
 400      AAA0
 401 06cd CF8D2842 		.ascii	"\317\215(BK\252\272R\367\267z\323*23\3238Zy\375V\357"
 401      4BAABA52 
 401      F7B77AD3 
 401      2A3233D3 
 401      385A79FD 
 402 06e3 752F7765 		.ascii	"u/we:\253\024/\026\376\354b\301\017\246\354\344\360"
 402      3AAB142F 
 402      16FEEC62 
 402      C10FA6EC 
ARM GAS  C:\Users\gjl\AppData\Local\Temp\ccWPnPAS.s 			page 31


 402      E4F0
 403 06f5 0053DC38 		.ascii	"\000S\3348\230\335\250\307/\230\320\261\177\370\246"
 403      98DDA8C7 
 403      2F98D0B1 
 403      7FF8A6
 404 0704 2FCEF4A0 		.ascii	"/\316\364\240\302\340\256\306*=.cB\276+g\306\200\217"
 404      C2E0AEC6 
 404      2A3D2E63 
 404      42BE2B67 
 404      C6808F
 405 0717 33A1A5F6 		.ascii	"3\241\245\366^(v\261\347\027\255\327z0ng\302\2263\015"
 405      5E2876B1 
 405      E717ADD7 
 405      7A306E67 
 405      C296330D 
 406 072b 4D7ADCC5 		.ascii	"Mz\334\305\204s\335w\256k\361\000\023\022\033\232\216"
 406      8473DD77 
 406      AE6BF100 
 406      13121B9A 
 406      8E
 407 073c FAE01926 		.ascii	"\372\340\031&\314\036=\332\204\360zO*\364\247\225\215"
 407      CC1E3DDA 
 407      84F07A4F 
 407      2AF4A795 
 407      8D
 408 074d 1A712613 		.ascii	"\032q&\023\036u\327\314\030\025\323\202\\~\245iQ\304"
 408      1E75D7CC 
 408      1815D382 
 408      5C7EA569 
 408      51C4
 409 075f A60530EF 		.ascii	"\246\0050\357\035\231x\254\307\271\254\333\206\271\236"
 409      1D9978AC 
 409      C7B9ACDB 
 409      86B99E
 410 076e 663DFE86 		.ascii	"f=\376\206\011)\3733\266\373\340#L\310,\034;\351\211"
 410      0929FB33 
 410      B6FBE023 
 410      4CC82C1C 
 410      3BE989
 411 0781 6B99D0E9 		.ascii	"k\231\320\351\332\265\335\013\273\230p\377\330\304^"
 411      DAB5DD0B 
 411      BB9870FF 
 411      D8C45E
 412 0790 1FDCCA84 		.ascii	"\037\334\312\204o\2376\024z\272\323\306\362{\374\352"
 412      6F9F3614 
 412      7ABAD3C6 
 412      F27BFCEA 
 413 07a0 CEBB9EB8 		.ascii	"\316\273\236\270\223\021\246\332\247a0\372\2300qp\240"
 413      9311A6DA 
 413      A76130FA 
 413      98307170 
 413      A0
 414 07b1 5B878705 		.ascii	"[\207\207\005s;\262\3329\226\334\237\200X\260\251\270"
 414      733BB2DA 
 414      3996DC9F 
 414      8058B0A9 
 414      B8
ARM GAS  C:\Users\gjl\AppData\Local\Temp\ccWPnPAS.s 			page 32


 415 07c2 4FCB2E08 		.ascii	"O\313.\010}\344\022=\370p\3739\003\236"
 415      7DE4123D 
 415      F870FB39 
 415      039E
 416 07d0 64DCC6CE 		.ascii	"d\334\306\316\303m~8CO\204w\273\037W\325\372 \305M!"
 416      C36D7E38 
 416      434F8477 
 416      BB1F57D5 
 416      FA20C54D 
 417 07e5 38D8685C 		.ascii	"8\330h\\\2545\006\210O!\301!!!l\033\332zC\266\015\301"
 417      AC350688 
 417      4F21C121 
 417      21216C1B 
 417      DA7A43B6 
 418 07fb C5051DE0 		.ascii	"\305\005\035\340\334\333\320\220l\267T\3547\373\270"
 418      DCDBD090 
 418      6CB754EC 
 418      37FBB8
 419 080a 20F40D07 		.ascii	" \364\015\007\214\275B\007\262\337\\\200\245}\036V\347"
 419      8CBD4207 
 419      B2DF5C80 
 419      A57D1E56 
 419      E7
 420 081b 69800BD0 		.ascii	"i\200\013\320\0108\005\250\001T\003\216\003\216\001"
 420      083805A8 
 420      0154038E 
 420      038E01
 421 082a CA004701 		.ascii	"\312\000G\001U\200#\200J\300a\300!\300A@\005\240\\q"
 421      55802380 
 421      4AC061C0 
 421      21C04140 
 421      05A05C71 
 422 083e 1CD7DF70 		.ascii	"\034\327\337p\357\347\373\225\036fp\363\216\241:\211"
 422      EFE7FB95 
 422      1E6670F3 
 422      8EA13A89 
 423 084e 9AA9A4D6 		.ascii	"\232\251\244\326\311\202a\334\023\022w\213\032W\276"
 423      C98261DC 
 423      1312778B 
 423      1A57BE
 424 085d 5B574BDC 		.ascii	"[WK\334,5\256\374$8&q\263\325\270\362\243\252J\342\346"
 424      2C35AEFC 
 424      24382671 
 424      B3D5B8F2 
 424      A3AA4AE2 
 425 0872 A871E597 		.ascii	"\250q\345\227\202J\211\233\253\306\225\237\336_K\334"
 425      824A899B 
 425      ABC6959F 
 425      DE5F4BDC 
 426 0882 3C35AEEC 		.ascii	"<5\256\354\212\267M\242\346\253Qe\331\315\223\250[\325"
 426      8AB74DA2 
 426      E6AB5165 
 426      D9CD93A8 
 426      5BD5
 427 0894 A68A3C63 		.ascii	"\246\212<c\271\005\262\363p\233\300v\237\207C\257e\""
 427      B905B2F3 
 427      709BC076 
ARM GAS  C:\Users\gjl\AppData\Local\Temp\ccWPnPAS.s 			page 33


 427      9F8743AF 
 427      6522
 428 08a6 BBE04D76 		.ascii	"\273\340Mv\337\200\265\210\012\005\276\373\27614\337"
 428      DF80B588 
 428      0A05BEFB 
 428      BE3134DF 
 429 08b6 95B94E3F 		.ascii	"\225\271N?F?\001\364\355\363\351\362\033\204|\325\327"
 429      463F01F4 
 429      EDF3E9F2 
 429      1B847CD5 
 429      D7
 430 08c7 718B25D2 		.ascii	"q\213%\322E\230\260\265\320\233\235_\013\32142N\001"
 430      4598B0B5 
 430      D09B9D5F 
 430      0BD13432 
 430      4E01
 431 08d9 5904F016 		.ascii	"Y\004\360\026\270\204\2439\020\243\321\220\016\344\345"
 431      B884A339 
 431      10A3D190 
 431      0EE4E5
 432 08e8 9923DFDD 		.ascii	"\231#\337\335\310j\257\207.\233A\222+mP\034D\365l\307"
 432      C86AAF87 
 432      2E9B4192 
 432      2B6D501C 
 432      44F56CC7 
 433 08fc 515F562D 		.ascii	"Q_V-\340\331_\177Y\315t\032\371,3M\340\016\365\004\312"
 433      E0D95F7F 
 433      59CD741A 
 433      F92C334D 
 433      E00EF504 
 434 0911 F23D2591 		.ascii	"\362=%\221\277\236OV\271\201I\354\235\352l\231\352\211"
 434      BF9E4F56 
 434      B98149EC 
 434      9DEA6C99 
 434      EA89
 435 0923 DC403694 		.ascii	"\334@6\224g\200\276k>\375\003\365\221l\226\217\3449"
 435      6780BE6B 
 435      3EFD03F5 
 435      916C968F 
 435      E439
 436 0935 C85193EA 		.ascii	"\310Q\223\352H6+F\262Im$\333\024#\331LG\362\254b$w\203"
 436      48362B46 
 436      B2496D24 
 436      DB1423D9 
 436      4C47F2AC 
 437 094d C46E3ECF 		.ascii	"\304n>\317\323\337\"7\037\342h\211t\363i\242c\311\202"
 437      D3DF2237 
 437      1FE26889 
 437      74F369A2 
 437      63C982
 438 0960 799EFB0E 		.ascii	"y\236\373\016\013\006n\030h\217j0a\322\355s4\227\336"
 438      0B066E18 
 438      688F6A30 
 438      61D2ED73 
 438      3497DE
 439 0973 3E8123BF 		.ascii	">\201#\277}\262\266\256\364\267I\033\2316\245\222-B"
 439      7DB2B6AE 
ARM GAS  C:\Users\gjl\AppData\Local\Temp\ccWPnPAS.s 			page 34


 439      F4B7491B 
 439      9936A592 
 439      2D42
 440 0985 1519CF5A 		.ascii	"\025\031\317Z\337$\014\222\345b\211QK\275\201Sa\262"
 440      DF240C92 
 440      E5628951 
 440      4BBD8153 
 440      61B2
 441 0997 B8B74AFF 		.ascii	"\270\267J\377\356.~W%\337w\273$ag\325\003\2367h\351"
 441      EE2E7E57 
 441      25DF77BB 
 441      246167D5 
 441      039E3768 
 442 09ac E4DE24D1 		.ascii	"\344\336$\321\341\221\024\033\271.\270/\264r\357\222"
 442      E191141B 
 442      B92EB82F 
 442      B472EF92 
 443 09bc AF3905F7 		.ascii	"\2579\005\367\275q\003=MP\362\276\276\016\035\276\312"
 443      BD71033D 
 443      4D50F2BE 
 443      BE0E1DBE 
 443      CA
 444 09cd 84824657 		.ascii	"\204\202FW\261\037\034g\350\022\355D\216\313\346\244"
 444      B11F1C67 
 444      E812ED44 
 444      8ECBE6A4 
 445 09dd 31762F20 		.ascii	"1v/ \211b\007\\{c[\261v\361\202k\245\203f\270\235f\030"
 445      8962075C 
 445      7B635BB1 
 445      76F1826B 
 445      A58366B8 
 446 09f4 D85FE7B6 		.ascii	"\330_\347\266\344k\301\313>x\247\317\033Z\227\276'\325"
 446      E46BC1CB 
 446      3E78A7CF 
 446      1B5A97BE 
 446      27D5
 447 0a06 D501EFF5 		.ascii	"\325\001\357\365\224\207\332D?\321eNK$v\237\271B\335"
 447      9487DA44 
 447      3FD1654E 
 447      4B24769F 
 447      B942DD
 448 0a19 CCDDFDAC 		.ascii	"\314\335\375\254\227\303]\013\271\2267x\336Kq\344\037"
 448      97C35D0B 
 448      B9963778 
 448      DE4B71E4 
 448      1F
 449 0a2a 561CF9D7 		.ascii	"V\034\371\327\334G\376\326\372M\267<h\014\327\3341<"
 449      DC47FED6 
 449      FA4DB73C 
 449      680CD7DC 
 449      313C
 450 0a3c E86E1997 		.ascii	"\350n\031\227\016\356\353\354\276\323\266a\256\203s"
 450      0EEEEBEC 
 450      BED3B661 
 450      AE8373
 451 0a4b 077B8355 		.ascii	"\007{\203U\366\3676\325z,\034\355-\032\355M1\332\271"
 451      F6F736D5 
ARM GAS  C:\Users\gjl\AppData\Local\Temp\ccWPnPAS.s 			page 35


 451      7A2C1CED 
 451      2D1AED4D 
 451      31DAB9
 452 0a5e D497DF1A 		.ascii	"\324\227\337\032Y\264\256\251\210B\376L\022\377\011"
 452      59B4AEA9 
 452      8842FE4C 
 452      12FF09
 453 0a6d E1A0ABEE 		.ascii	"\341\240\253\356H;!\322\253b\244\267i\2449\331\3039"
 453      483B21D2 
 453      AB62A4B7 
 453      69A439D9 
 453      C339
 454 0a7f 5E7878A1 		.ascii	"^xx\241H\325n\031W\272\333g<\334\276v3_s\267\265\267"
 454      48D56E19 
 454      57BADB67 
 454      3CDCBE76 
 454      335F73B7 
 455 0a95 7CCFC8F4 		.ascii	"|\317\310\364R_{D_\223\306\316\317b\301\327\027\242"
 455      525F7B44 
 455      5F93C6CE 
 455      CF62C1D7 
 455      17A2
 456 0aa7 AFC04177 		.ascii	"\257\300Aw\334\276v\201\257wD_\357R_3\023O\234\325\342"
 456      DCBE7681 
 456      AF77445F 
 456      EF525F33 
 456      134F9CD5 
 457 0abc 570BF9BA 		.ascii	"W\013\371\272>\363\324\234\227\240tFTJ\206\272\317\255"
 457      3EF3D49C 
 457      97A07446 
 457      544A86BA 
 457      CFAD
 458 0ace F45B50DA 		.ascii	"\364[P\332'*\275G\225\036\271X?\340\205\363\275\026"
 458      272ABD47 
 458      951EB958 
 458      3FE085F3 
 458      BD16
 459 0ae0 507A3E63 		.ascii	"Pz>c\367cQ\351K\271\247\367\335J\037\200\322\373\242"
 459      F76351E9 
 459      4BB9A7F7 
 459      DD4A1F80 
 459      D2FBA2
 460 0af3 D2875469 		.ascii	"\322\207Tii\212k\314\013\357cJ{\307\247\247Y\276\212"
 460      698A6BCC 
 460      0BEF634A 
 460      7BC7A7A7 
 460      59BE8A
 461 0b06 DC93A0BB 		.ascii	"\334\223\240\273\267\301\354N\341\000KaQ\311\276\003"
 461      B7C1EC4E 
 461      E1004B61 
 461      51C9BE03 
 462 0b16 489EC22F 		.ascii	"H\236\302/\336\222e\360\021\315\340\240\230\301\314"
 462      DE9265F0 
 462      11CDE0A0 
 462      98C1CC
 463 0b25 1BDD77BC 		.ascii	"\033\335w\274\005\277\236\337\017\005\3078BA\375\322"
 463      05BF9EDF 
ARM GAS  C:\Users\gjl\AppData\Local\Temp\ccWPnPAS.s 			page 36


 463      0F05C738 
 463      4241FDD2 
 464 0b35 F2EB177D 		.ascii	"\362\353\027}\372\216\372T\236z0M\207\353\231Oj\213"
 464      FA8EFA54 
 464      9E7A304D 
 464      87EB994F 
 464      6A8B
 465 0b47 ABB7EA49 		.ascii	"\253\267\352I\217\337\202\366\207\251\375\307\242\375"
 465      8FDF82F6 
 465      87A9FDC7 
 465      A2FD
 466 0b55 CEF6B6B7 		.ascii	"\316\366\266\267\005\363\3657\215\256OI;\032\222\214"
 466      05F3F537 
 466      8DAE4F49 
 466      3B1A928C 
 467 0b65 0F89C69F 		.ascii	"\017\211\306\237P\343\275%w\267x\340\233\314xJu\346"
 467      50E3BD25 
 467      77B778E0 
 467      9BCC784A 
 467      75E6
 468 0b77 1536D937 		.ascii	"\0256\3317\270\215?L\357\032\327\273\035\032a\031\031"
 468      B88D3F4C 
 468      EF1AD7BB 
 468      1D1A6119 
 468      19
 469 0b88 AC7F7EC2 		.ascii	"\254\177~\302{A\217\306\250G\243\242G\36537\257\013"
 469      7B418FC6 
 469      A847A3A2 
 469      47F53337 
 469      AF0B
 470 0b9a ABDD5547 		.ascii	"\253\335UG]\002\002z*\271\364Tt\351\031u)\277\354\001"
 470      5D02027A 
 470      2AB9F454 
 470      74E91975 
 470      29BFEC01 
 471 0bae EC4553CC 		.ascii	"\354ES\314\245\321\201\236&\343\373{\370\216]dC\373"
 471      A5D1819E 
 471      26E3FB7B 
 471      F88E5D64 
 471      43FB
 472 0bc0 6A7B770A 		.ascii	"j{w\012\317{\320\317\357\343L\201\354\253=\251\371\014"
 472      CF7BD0CF 
 472      EFE34C81 
 472      ECAB3DA9 
 472      F90C
 473 0bd2 E6C873EE 		.ascii	"\346\310s\356}\350\231\321\320\362B\207\213\330\207"
 473      7DE899D1 
 473      D0F24287 
 473      8BD887
 474 0be1 CB8C47C3 		.ascii	"\313\214G\303)\210\251qu\377\206\017\245\032^\274\246"
 474      2988A971 
 474      75FF860F 
 474      A51A5EBC 
 474      A6
 475 0bf2 E185A061 		.ascii	"\341\205\240a\202jx\370\354\273\223\036\270\216i\270"
 475      826A78F8 
 475      ECBB931E 
ARM GAS  C:\Users\gjl\AppData\Local\Temp\ccWPnPAS.s 			page 37


 475      B88E69B8 
 476 0c02 32303BEA 		.ascii	"20;\352#h\250\0275\274|M\303KA\303$\325\320^\272c\334"
 476      2368A817 
 476      35BC7C4D 
 476      C34B41C3 
 476      24D5D05E 
 477 0c19 13DF651A 		.ascii	"\023\337e\032v\344$\037\327\012\032\212E\015S\257i\230"
 477      76E4241F 
 477      D70A1A8A 
 477      450D53AF 
 477      6998
 478 0c2b 12344C53 		.ascii	"\0224LS\015\256\257\033\367\352p\012\375\177$\224t&"
 478      0DAEAF1B 
 478      F7EA700A 
 478      FD7F2494 
 478      7426
 479 0c3d 35D34BD0 		.ascii	"5\323K\320P\245\3431\375>?#h\220>\353\317\010\032f\251"
 479      50A5E331 
 479      FD3E3F23 
 479      68903EEB 
 479      CF081A66 
 480 0c52 86F48994 		.ascii	"\206\364\211\224f\037\274\207i(o8^*\244\323\265s\303"
 480      661FBC87 
 480      69286F38 
 480      5E2AA4D3 
 480      B573C3
 481 0c65 FB89BC4B 		.ascii	"\373\211\274KK\337\226_\011J\304\227v\015\255!J\346"
 481      4BDF965F 
 481      094AC497 
 481      760DAD21 
 481      4AE6
 482 0c77 A892BCC1 		.ascii	"\250\222\274\301\007{\264\212\235uLq\312\362\230\275"
 482      077BB48A 
 482      9D754C71 
 482      CAF298BD 
 483 0c87 63434912 		.ascii	"cCI\022\267#\363\250r\037\036V\260\023\005v\"eOV\267"
 483      B723F3A8 
 483      721F1E56 
 483      B0130576 
 483      22654F56 
 484 0c9c 9EF653B0 		.ascii	"\236\366S\260\037)\330I\002;\211\262\207F\233\206\225"
 484      1F29D849 
 484      023B89B2 
 484      87469B86 
 484      95
 485 0cad FF17D3A1 		.ascii	"\377\027\323\241`'\013\354d\312\256\357\3340\344\243"
 485      60270BEC 
 485      64CAAEEF 
 485      DC30E4A3 
 486 0cbd 60F72AD8 		.ascii	"`\367*\330)\002;\205\262\327\247\315\015\370\341z\226"
 486      29023B85 
 486      B2D7A7CD 
 486      0DF8E17A 
 486      96
 487 0cce AA9AA257 		.ascii	"\252\232\242W.->\303\204\324\202\271{\006|\216\011\343"
 487      2E2D3EC3 
 487      84D482B9 
ARM GAS  C:\Users\gjl\AppData\Local\Temp\ccWPnPAS.s 			page 38


 487      7B067C8E 
 487      09E3
 488 0ce0 4F6E977A 		.ascii	"On\227z\340v\201\366\244\274\306G\370\212K\344\234\212"
 488      E07681F6 
 488      A4BCC647 
 488      F88A4BE4 
 488      9C8A
 489 0cf2 B46478BB 		.ascii	"\264dx\273\243\215\036\233\357\364^\367E\364\035L\370"
 489      A38D1E9B 
 489      EFF45EF7 
 489      45F41D4C 
 489      F8
 490 0d03 7AE362D7 		.ascii	"z\343b\327\276M8\210^\212\320F\214Q:f\327\276,\034\202"
 490      BE4D3888 
 490      5E8AD046 
 490      8C513A66 
 490      D7BE2C1C 
 491 0d18 B6E06094 		.ascii	"\266\340`\224\001\330\014\310\304\262\253[_\376\320"
 491      01D80CC8 
 491      C4B2AB5B 
 491      5FFED0
 492 0d27 A7B5B20F 		.ascii	"\247\265\262\017\276\353\205\216\013}\233\252\222>'"
 492      BEEB858E 
 492      0B7D9BAA 
 492      923E27
 493 0d36 A6AA50E5 		.ascii	"\246\252P\3457\267j\211\232\246B\225\337\360\217d\012"
 493      37B76A89 
 493      9AA64295 
 493      DFF08F64 
 493      0A
 494 0d47 5F08C9B1 		.ascii	"_\010\311\261\271A /x\325\331\301>\264\001G~\325!\337"
 494      B941202F 
 494      78D5D9C1 
 494      3EB40147 
 494      7ED521DF 
 495 0d5b F8D3C666 		.ascii	"\370\323\306f|q?\373\337\321\231\222M\325z\024\022\300"
 495      7C713FFB 
 495      DFD19992 
 495      4DD57A14 
 495      12C0
 496 0d6d FADC6D0D 		.ascii	"\372\334m\015&}rAo6vo\021D\305\274\233\263;\2059\220"
 496      267D7241 
 496      6F36766F 
 496      1144C5BC 
 496      9BB33B85 
 497 0d83 B6BF9442 		.ascii	"\266\277\224Br\204\224?\317\367UL\205\\,\277\235\347"
 497      7284943F 
 497      CFF7554C 
 497      855C2CBF 
 497      9DE7
 498 0d95 0953218F 		.ascii	"\011S!\217N\205\375g\306o(\277\036\334RL\234|\201\235"
 498      4E85FD67 
 498      C66F28BF 
 498      1EDC524C 
 498      9C7C819D 
 499 0da9 4FD91597 		.ascii	"O\331\025\227Jr\374\336\333\315\334K\203U\363\305[\364"
 499      4A72FCDE 
ARM GAS  C:\Users\gjl\AppData\Local\Temp\ccWPnPAS.s 			page 39


 499      DBCDDC4B 
 499      8355F3C5 
 499      5BF4
 500 0dbb 62C5B6B5 		.ascii	"b\305\266\265\002\374\0369\261\373\307\322}\031\007"
 500      02FC1E39 
 500      B1FBC7D2 
 500      7D1907
 501 0dca 76325B69 		.ascii	"v2[i\032\020\225\274\255\224\327z\3734f4W\245a>e\033"
 501      1A1095BC 
 501      AD94D77A 
 501      FB346634 
 501      57A5613E 
 502 0de0 A5A49EBD 		.ascii	"\245\244\236\275rJ'pN\274\306)\244\234\376\336\235W"
 502      724A2770 
 502      4EBCC629 
 502      A49CFEDE 
 502      9D57
 503 0df2 04975CD7 		.ascii	"\004\227\\\327^\343\024Q\316\305S\007\206\275\004\316"
 503      5EE31451 
 503      CEC55307 
 503      86BD04CE 
 504 0e02 ABD738DB 		.ascii	"\253\3278\333)\247\264,\251\322(p\212\275\347s\212\361"
 504      29A7B42C 
 504      A9D22870 
 504      8ABDE773 
 504      8AF1
 505 0e14 7B1AFD6F 		.ascii	"{\032\375o\377\365\363%\277\012\013\323x\231L\3616\273"
 505      FFF5F325 
 505      BF0A0BD3 
 505      78994CF1 
 505      36BB
 506 0e26 7385C999 		.ascii	"s\205\311\231\210,\377\020\036\033\027\263*\316\034"
 506      882CFF10 
 506      1E1B17B3 
 506      2ACE1C
 507 0e35 BD64A52D 		.ascii	"\275d\245-\312\352X\022\262n\305\317\3766\334\222\020"
 507      CAEA5812 
 507      B26EC5CF 
 507      FE36DC92 
 507      10
 508 0e46 1B677538 		.ascii	"\033gu8\302c\0351\226%\2268\253\331\031\023\027\376"
 508      C2631D31 
 508      96259638 
 508      ABD91913 
 508      17FE
 509 0e58 F1F23065 		.ascii	"\361\3620e\205-:6&\316\031\276\312\036\037n\216\213"
 509      852D3A36 
 509      26CE19BE 
 509      CA1E1F6E 
 509      8E8B
 510 0e6a 0EFFBBE5 		.ascii	"\016\377\273\345\204\001O?\265\307\330\255?\265\232"
 510      84014F3F 
 510      B5C7D8AD 
 510      3FB59A
 511 0e79 236CE136 		.ascii	"#l\3416\273%*>\322\032\036m\266\254\266\331\255\341"
 511      BB252A3E 
 511      D21A1E6D 
ARM GAS  C:\Users\gjl\AppData\Local\Temp\ccWPnPAS.s 			page 40


 511      B6ACB6D9 
 511      ADE1
 512 0e8b A648EB4A 		.ascii	"\246H\353Js|\224\323\344L\210\265:\226\257\326x\012"
 512      737C94D3 
 512      E44C88B5 
 512      3A96AFD6 
 512      780A
 513 0e9d AEACF9FF 		.ascii	"\256\254\371\377\362\304\221\340\01079\234\221`\026"
 513      F2C491E0 
 513      0837399C 
 513      916016
 514 0eac CC7BC7DA 		.ascii	"\314{\307\332\326Y\243Lkm\221\316\325\006\226\227\260"
 514      D659A34C 
 514      6B6D91CE 
 514      D5069697 
 514      B0
 515 0ebd 9F999C7A 		.ascii	"\237\231\234z\361a\321\312([ltL\244\325\264\316\024"
 515      F161D1CA 
 515      285B6C74 
 515      4CA4D5B4 
 515      CE14
 516 0ecf B372A5C3 		.ascii	"\263r\245\303\352|C\214@\254\360v\202\273\246\325V\333"
 516      EA7C438C 
 516      40ACF076 
 516      82BBA6D5 
 516      56DB
 517 0ee1 AAD54E03 		.ascii	"\252\325N\003}\246\332\002\327\306\331\234VSl|\224C"
 517      7DA6DA02 
 517      D7C6D99C 
 517      56536C7C 
 517      9443
 518 0ef3 A831D91D 		.ascii	"\2501\331\035\376\221f\247\331\004\235\342cMN[\264\025"
 518      FE9166A7 
 518      D9049DE2 
 518      634D4E5B 
 518      B415
 519 0f05 AA026D1F 		.ascii	"\252\002m\037ZL\021\361\016\223%*\306\362{SXh\350\357"
 519      5A4C11F1 
 519      0E93252A 
 519      C6F27B53 
 519      5868E8EF 
 520 0f19 FFE90F7A 		.ascii	"\377\351\017zG\254\315D\314\032\035P\307ZV\377Ap\360"
 520      47ACCD44 
 520      CC1A1D50 
 520      C75A56FF 
 520      4170F0
 521 0f2c A30F0507 		.ascii	"\243\017\005\007\311\203?!(\215,rD\316\263\341\037\033"
 521      C9833F21 
 521      288D2C72 
 521      44CEB3E1 
 521      1F1B
 522 0f3e E3709A20 		.ascii	"\343p\232 \217V\247i\255\331\3464E;\002\231$\357\031"
 522      8F56A769 
 522      ADD9E634 
 522      453B0299 
 522      24EF19
 523 0f51 ED580CB9 		.ascii	"\355X\014\2716\301@\305\232\"m\016s\004\011\205\260"
ARM GAS  C:\Users\gjl\AppData\Local\Temp\ccWPnPAS.s 			page 41


 523      36C140C5 
 523      9A226D0E 
 523      73040985 
 523      B0
 524 0f62 EDD04014 		.ascii	"\355\320@\024\320\026\253]\336\340\257`GY\327X\243\026"
 524      D016AB5D 
 524      DEE0AF60 
 524      4759D758 
 524      A316
 525 0f74 C969B466 		.ascii	"\311i\264fq\374\212u+\010)6\312\234`\262\331W\306\300"
 525      71FC8A75 
 525      2B082936 
 525      CA9C60B2 
 525      D957C6C0 
 526 0f88 00C4C55B 		.ascii	"\000\304\305[\234F\226}\226\273\037-_\036\016\377\342"
 526      9C46967D 
 526      96BB1F2D 
 526      5F1E0EFF 
 526      E2
 527 0f99 57ACFA30 		.ascii	"W\254\3720\334\342\210"
 527      DCE288
 528 0fa0 B384935E 		.ascii	"\263\204\223^0D\001\257\367v\012\032M\361\226\260\277"
 528      304401AF 
 528      F7760A1A 
 528      4DF196B0 
 528      BF
 529 0fb1 0F0D3359 		.ascii	"\017\0153Y\315\246\310\230U\216\260\320\017}#\255\021"
 529      CDA6C898 
 529      558EB0D0 
 529      0F7D23AD 
 529      11
 530 0fc2 31F1768B 		.ascii	"1\361v\213\025,\230\235\326\037\271\305(3\004\020k\263"
 530      152C989D 
 530      D61FB9C5 
 530      28330410 
 530      6BB3
 531 0fd4 B3FA1FBB 		.ascii	"\263\372\037\273\353\305\321t7y\257\212\265\305\220"
 531      EBC5D174 
 531      3779AF8A 
 531      B5C590
 532 0fe3 5C41AD21 		.ascii	"\\A\255!\336\271r\005\253\006\305kl\3007GF\222\371\350"
 532      DEB97205 
 532      AB06C56B 
 532      6CC03747 
 532      4692F9E8 
 533 0ff7 4D460D1A 		.ascii	"MF\015\032\342\234\326H\372"
 533      E29CD648 
 533      FA
 534 1000 2CD407DA 		.ascii	",\324\007\332\034\246\2251v'\370\271\306\032\007\251"
 534      1CA69531 
 534      7627F8B9 
 534      C61A07A9 
 535 1010 2583A817 		.ascii	"%\203\250\027\247\212\336j\267\304\300\314[\245%\234"
 535      A78ADE6A 
 535      B7C4C0CC 
 535      5BA5259C 
 536 1020 45D492D9 		.ascii	"E\324\222\331\036\011N\220\320,\021\3364\254h\307*x"
ARM GAS  C:\Users\gjl\AppData\Local\Temp\ccWPnPAS.s 			page 42


 536      1E094E90 
 536      D02C11DE 
 536      34AC68C7 
 536      2A78
 537 1032 F68C4880 		.ascii	"\366\214H\200\351c\211\360\260\230#\2410\210\011\200"
 537      E96389F0 
 537      B09823A1 
 537      30880980 
 538 1042 16BB751D 		.ascii	"\026\273u\035\014F\204\221\262-\253\315qD\220'\210\351"
 538      0C468491 
 538      B22DABCD 
 538      71449027 
 538      88E9
 539 1054 61390E70 		.ascii	"a9\016p\207\312b\"\352=h\2733D-\343RV\205\224.\267h"
 539      87CA6222 
 539      EA3D68BB 
 539      33442DE3 
 539      52568594 
 540 106b 02992570 		.ascii	"\002\231%p\344\037\355\221\237\305\231\355\216\225\326"
 540      E41FED91 
 540      9FC599ED 
 540      8E95D6
 541 107a 38BD3DC6 		.ascii	"8\275=\306f\217\202E\275\310\335\372;\253=\362\3270"
 541      668F8245 
 541      BDC8DDFA 
 541      3BAB3DF2 
 541      D730
 542 108c C3DF50D4 		.ascii	"\303\337P\324\374*:\362-\251\202\344LT\241\344\3752"
 542      FC2A3AF2 
 542      2DA982E4 
 542      4C54A1E4 
 542      FD32
 543 109e 6ED59B8A 		.ascii	"n\325\233\212\212\337Y\277\212\207\214Y\177,\370\265"
 543      8ADF59BF 
 543      8A878C59 
 543      7F2CF8B5 
 544 10ae DA1A156B 		.ascii	"\332\032\025k\215\223M\005\233\363]\365&6\373\243\255"
 544      8D934D05 
 544      9BF35DF5 
 544      2636FBA3 
 544      AD
 545 10bf D1317109 		.ascii	"\3211q\011\357\250Fe\"\013;\014\210_}O{(i\017Vo\217"
 545      EFA84665 
 545      220B3B0C 
 545      885F7D4F 
 545      7B28690F 
 546 10d6 8D590B03 		.ascii	"\215Y\013\003l^c\015\373\337\220\250\246\267\325I$\016"
 546      6C5E630D 
 546      FBDF90A8 
 546      A6B7D549 
 546      240E
 547 10e8 D2CC26B5 		.ascii	"\322\314&\265\330(\033N\335:P\344\300\026\273SO\367"
 547      D8281B4E 
 547      DD3A50E4 
 547      C016BB53 
 547      4FF7
 548 10fa 9758A790 		.ascii	"\227X\247\2209*\261a\326%\020\216\267T\355\3743\357"
ARM GAS  C:\Users\gjl\AppData\Local\Temp\ccWPnPAS.s 			page 43


 548      392AB161 
 548      D625108E 
 548      B754EDFC 
 548      33EF
 549 110c F64214   		.ascii	"\366B\024"
 550              		.text
 551              		.section	.gnu.lto_.symtab.1a3e4be,"",%progbits
 552 0000 75387838 		.ascii	"u8x8_d_uc1701_ea_dogs102\000"
 552      5F645F75 
 552      63313730 
 552      315F6561 
 552      5F646F67 
 553 0019 00       		.ascii	"\000"
 554 001a 00       		.ascii	"\000"
 555 001b 00       		.ascii	"\000"
 556 001c 00000000 		.ascii	"\000\000\000\000\000\000\000\000"
 556      00000000 
 557 0024 4B010000 		.ascii	"K\001\000\000"
 558 0028 75387838 		.ascii	"u8x8_cad_EndTransfer\000"
 558      5F636164 
 558      5F456E64 
 558      5472616E 
 558      73666572 
 559 003d 00       		.ascii	"\000"
 560 003e 02       		.ascii	"\002"
 561 003f 00       		.ascii	"\000"
 562 0040 00000000 		.ascii	"\000\000\000\000\000\000\000\000"
 562      00000000 
 563 0048 51010000 		.ascii	"Q\001\000\000"
 564 004c 75387838 		.ascii	"u8x8_cad_SendData\000"
 564      5F636164 
 564      5F53656E 
 564      64446174 
 564      6100
 565 005e 00       		.ascii	"\000"
 566 005f 02       		.ascii	"\002"
 567 0060 00       		.ascii	"\000"
 568 0061 00000000 		.ascii	"\000\000\000\000\000\000\000\000"
 568      00000000 
 569 0069 59010000 		.ascii	"Y\001\000\000"
 570 006d 75387838 		.ascii	"u8x8_cad_SendCmd\000"
 570      5F636164 
 570      5F53656E 
 570      64436D64 
 570      00
 571 007e 00       		.ascii	"\000"
 572 007f 02       		.ascii	"\002"
 573 0080 00       		.ascii	"\000"
 574 0081 00000000 		.ascii	"\000\000\000\000\000\000\000\000"
 574      00000000 
 575 0089 5F010000 		.ascii	"_\001\000\000"
 576 008d 75387838 		.ascii	"u8x8_cad_StartTransfer\000"
 576      5F636164 
 576      5F537461 
 576      72745472 
 576      616E7366 
 577 00a4 00       		.ascii	"\000"
ARM GAS  C:\Users\gjl\AppData\Local\Temp\ccWPnPAS.s 			page 44


 578 00a5 02       		.ascii	"\002"
 579 00a6 00       		.ascii	"\000"
 580 00a7 00000000 		.ascii	"\000\000\000\000\000\000\000\000"
 580      00000000 
 581 00af 62010000 		.ascii	"b\001\000\000"
 582 00b3 75387838 		.ascii	"u8x8_cad_SendArg\000"
 582      5F636164 
 582      5F53656E 
 582      64417267 
 582      00
 583 00c4 00       		.ascii	"\000"
 584 00c5 02       		.ascii	"\002"
 585 00c6 00       		.ascii	"\000"
 586 00c7 00000000 		.ascii	"\000\000\000\000\000\000\000\000"
 586      00000000 
 587 00cf 65010000 		.ascii	"e\001\000\000"
 588 00d3 75387838 		.ascii	"u8x8_cad_SendSequence\000"
 588      5F636164 
 588      5F53656E 
 588      64536571 
 588      75656E63 
 589 00e9 00       		.ascii	"\000"
 590 00ea 02       		.ascii	"\002"
 591 00eb 00       		.ascii	"\000"
 592 00ec 00000000 		.ascii	"\000\000\000\000\000\000\000\000"
 592      00000000 
 593 00f4 6A010000 		.ascii	"j\001\000\000"
 594 00f8 75387838 		.ascii	"u8x8_d_helper_display_init\000"
 594      5F645F68 
 594      656C7065 
 594      725F6469 
 594      73706C61 
 595 0113 00       		.ascii	"\000"
 596 0114 02       		.ascii	"\002"
 597 0115 00       		.ascii	"\000"
 598 0116 00000000 		.ascii	"\000\000\000\000\000\000\000\000"
 598      00000000 
 599 011e 6E010000 		.ascii	"n\001\000\000"
 600 0122 75387838 		.ascii	"u8x8_d_helper_display_setup_memory\000"
 600      5F645F68 
 600      656C7065 
 600      725F6469 
 600      73706C61 
 601 0145 00       		.ascii	"\000"
 602 0146 02       		.ascii	"\002"
 603 0147 00       		.ascii	"\000"
 604 0148 00000000 		.ascii	"\000\000\000\000\000\000\000\000"
 604      00000000 
 605 0150 73010000 		.ascii	"s\001\000\000"
 606              		.text
 607              		.section	.gnu.lto_.opts,"",%progbits
 608 0000 272D666D 		.ascii	"'-fmath-errno' '-fsigned-zeros' '-ftrapping-math' '"
 608      6174682D 
 608      6572726E 
 608      6F272027 
 608      2D667369 
 609 0033 2D666E6F 		.ascii	"-fno-trapv' '-fno-openmp' '-fno-openacc' '-mcpu=cor"
ARM GAS  C:\Users\gjl\AppData\Local\Temp\ccWPnPAS.s 			page 45


 609      2D747261 
 609      70762720 
 609      272D666E 
 609      6F2D6F70 
 610 0066 7465782D 		.ascii	"tex-m0' '-mthumb' '-g' '-Os' '-ffunction-sections' "
 610      6D302720 
 610      272D6D74 
 610      68756D62 
 610      2720272D 
 611 0099 272D6666 		.ascii	"'-ffat-lto-objects' '-flto'\000"
 611      61742D6C 
 611      746F2D6F 
 611      626A6563 
 611      74732720 
 612              		.text
 613              		.cfi_sections	.debug_frame
 614              		.section	.text.u8x8_d_uc1701_ea_dogs102,"ax",%progbits
 615              		.align	1
 616              		.global	u8x8_d_uc1701_ea_dogs102
 617              		.code	16
 618              		.thumb_func
 619              		.type	u8x8_d_uc1701_ea_dogs102, %function
 620              	u8x8_d_uc1701_ea_dogs102:
 621              	.LFB0:
 622              		.file 1 "..\\..\\u8g2\\csrc\\u8x8_d_uc1701_dogs102.c"
   1:..\..\u8g2\csrc/u8x8_d_uc1701_dogs102.c **** /*
   2:..\..\u8g2\csrc/u8x8_d_uc1701_dogs102.c **** 
   3:..\..\u8g2\csrc/u8x8_d_uc1701_dogs102.c ****   u8x8_d_uc1701_dogs102.c
   4:..\..\u8g2\csrc/u8x8_d_uc1701_dogs102.c ****   
   5:..\..\u8g2\csrc/u8x8_d_uc1701_dogs102.c ****   Universal 8bit Graphics Library (https://github.com/olikraus/u8g2/)
   6:..\..\u8g2\csrc/u8x8_d_uc1701_dogs102.c **** 
   7:..\..\u8g2\csrc/u8x8_d_uc1701_dogs102.c ****   Copyright (c) 2016, olikraus@gmail.com
   8:..\..\u8g2\csrc/u8x8_d_uc1701_dogs102.c ****   All rights reserved.
   9:..\..\u8g2\csrc/u8x8_d_uc1701_dogs102.c **** 
  10:..\..\u8g2\csrc/u8x8_d_uc1701_dogs102.c ****   Redistribution and use in source and binary forms, with or without modification, 
  11:..\..\u8g2\csrc/u8x8_d_uc1701_dogs102.c ****   are permitted provided that the following conditions are met:
  12:..\..\u8g2\csrc/u8x8_d_uc1701_dogs102.c **** 
  13:..\..\u8g2\csrc/u8x8_d_uc1701_dogs102.c ****   * Redistributions of source code must retain the above copyright notice, this list 
  14:..\..\u8g2\csrc/u8x8_d_uc1701_dogs102.c ****     of conditions and the following disclaimer.
  15:..\..\u8g2\csrc/u8x8_d_uc1701_dogs102.c ****     
  16:..\..\u8g2\csrc/u8x8_d_uc1701_dogs102.c ****   * Redistributions in binary form must reproduce the above copyright notice, this 
  17:..\..\u8g2\csrc/u8x8_d_uc1701_dogs102.c ****     list of conditions and the following disclaimer in the documentation and/or other 
  18:..\..\u8g2\csrc/u8x8_d_uc1701_dogs102.c ****     materials provided with the distribution.
  19:..\..\u8g2\csrc/u8x8_d_uc1701_dogs102.c **** 
  20:..\..\u8g2\csrc/u8x8_d_uc1701_dogs102.c ****   THIS SOFTWARE IS PROVIDED BY THE COPYRIGHT HOLDERS AND 
  21:..\..\u8g2\csrc/u8x8_d_uc1701_dogs102.c ****   CONTRIBUTORS "AS IS" AND ANY EXPRESS OR IMPLIED WARRANTIES, 
  22:..\..\u8g2\csrc/u8x8_d_uc1701_dogs102.c ****   INCLUDING, BUT NOT LIMITED TO, THE IMPLIED WARRANTIES OF 
  23:..\..\u8g2\csrc/u8x8_d_uc1701_dogs102.c ****   MERCHANTABILITY AND FITNESS FOR A PARTICULAR PURPOSE ARE 
  24:..\..\u8g2\csrc/u8x8_d_uc1701_dogs102.c ****   DISCLAIMED. IN NO EVENT SHALL THE COPYRIGHT HOLDER OR 
  25:..\..\u8g2\csrc/u8x8_d_uc1701_dogs102.c ****   CONTRIBUTORS BE LIABLE FOR ANY DIRECT, INDIRECT, INCIDENTAL, 
  26:..\..\u8g2\csrc/u8x8_d_uc1701_dogs102.c ****   SPECIAL, EXEMPLARY, OR CONSEQUENTIAL DAMAGES (INCLUDING, BUT 
  27:..\..\u8g2\csrc/u8x8_d_uc1701_dogs102.c ****   NOT LIMITED TO, PROCUREMENT OF SUBSTITUTE GOODS OR SERVICES; 
  28:..\..\u8g2\csrc/u8x8_d_uc1701_dogs102.c ****   LOSS OF USE, DATA, OR PROFITS; OR BUSINESS INTERRUPTION) HOWEVER 
  29:..\..\u8g2\csrc/u8x8_d_uc1701_dogs102.c ****   CAUSED AND ON ANY THEORY OF LIABILITY, WHETHER IN CONTRACT, 
  30:..\..\u8g2\csrc/u8x8_d_uc1701_dogs102.c ****   STRICT LIABILITY, OR TORT (INCLUDING NEGLIGENCE OR OTHERWISE) 
  31:..\..\u8g2\csrc/u8x8_d_uc1701_dogs102.c ****   ARISING IN ANY WAY OUT OF THE USE OF THIS SOFTWARE, EVEN IF 
  32:..\..\u8g2\csrc/u8x8_d_uc1701_dogs102.c ****   ADVISED OF THE POSSIBILITY OF SUCH DAMAGE.  
ARM GAS  C:\Users\gjl\AppData\Local\Temp\ccWPnPAS.s 			page 46


  33:..\..\u8g2\csrc/u8x8_d_uc1701_dogs102.c **** 
  34:..\..\u8g2\csrc/u8x8_d_uc1701_dogs102.c ****   
  35:..\..\u8g2\csrc/u8x8_d_uc1701_dogs102.c **** */
  36:..\..\u8g2\csrc/u8x8_d_uc1701_dogs102.c **** #include "u8x8.h"
  37:..\..\u8g2\csrc/u8x8_d_uc1701_dogs102.c **** 
  38:..\..\u8g2\csrc/u8x8_d_uc1701_dogs102.c **** 
  39:..\..\u8g2\csrc/u8x8_d_uc1701_dogs102.c **** 
  40:..\..\u8g2\csrc/u8x8_d_uc1701_dogs102.c **** 
  41:..\..\u8g2\csrc/u8x8_d_uc1701_dogs102.c **** static const uint8_t u8x8_d_uc1701_dogs102_init_seq[] = {
  42:..\..\u8g2\csrc/u8x8_d_uc1701_dogs102.c ****     
  43:..\..\u8g2\csrc/u8x8_d_uc1701_dogs102.c ****   U8X8_START_TRANSFER(),             	/* enable chip, delay is part of the transfer start */
  44:..\..\u8g2\csrc/u8x8_d_uc1701_dogs102.c ****   
  45:..\..\u8g2\csrc/u8x8_d_uc1701_dogs102.c ****   U8X8_C(0x0e2),            			/* soft reset */
  46:..\..\u8g2\csrc/u8x8_d_uc1701_dogs102.c ****   U8X8_C(0x0ae),		                /* display off */
  47:..\..\u8g2\csrc/u8x8_d_uc1701_dogs102.c ****   U8X8_C(0x040),		                /* set display start line to 0 */
  48:..\..\u8g2\csrc/u8x8_d_uc1701_dogs102.c ****   
  49:..\..\u8g2\csrc/u8x8_d_uc1701_dogs102.c ****   U8X8_C(0x0a1),		                /* ADC set to reverse */
  50:..\..\u8g2\csrc/u8x8_d_uc1701_dogs102.c ****   U8X8_C(0x0c0),		                /* common output mode */
  51:..\..\u8g2\csrc/u8x8_d_uc1701_dogs102.c ****   // Flipmode
  52:..\..\u8g2\csrc/u8x8_d_uc1701_dogs102.c ****   //U8X8_C(0x0a0),		                /* ADC set to reverse */
  53:..\..\u8g2\csrc/u8x8_d_uc1701_dogs102.c ****   //U8X8_C(0x0c8),		                /* common output mode */
  54:..\..\u8g2\csrc/u8x8_d_uc1701_dogs102.c ****   
  55:..\..\u8g2\csrc/u8x8_d_uc1701_dogs102.c ****   U8X8_C(0x0a6),		                /* display normal, bit val 0: LCD pixel off. */
  56:..\..\u8g2\csrc/u8x8_d_uc1701_dogs102.c ****   U8X8_C(0x0a2),		                /* LCD bias 1/9 */
  57:..\..\u8g2\csrc/u8x8_d_uc1701_dogs102.c ****   U8X8_C(0x02f),		                /* all power  control circuits on */
  58:..\..\u8g2\csrc/u8x8_d_uc1701_dogs102.c ****   U8X8_C(0x027),		                /* regulator, booster and follower */
  59:..\..\u8g2\csrc/u8x8_d_uc1701_dogs102.c ****   U8X8_CA(0x081, 0x00e),		/* set contrast, contrast value, EA default: 0x010, previous value for S1
  60:..\..\u8g2\csrc/u8x8_d_uc1701_dogs102.c ****   U8X8_C(0x0fa),		                /* Set Temp compensation */ 
  61:..\..\u8g2\csrc/u8x8_d_uc1701_dogs102.c ****   U8X8_C(0x090),		                /* 0.11 deg/c WP Off WC Off*/
  62:..\..\u8g2\csrc/u8x8_d_uc1701_dogs102.c ****   
  63:..\..\u8g2\csrc/u8x8_d_uc1701_dogs102.c ****   U8X8_C(0x0ae),		                /* display off */
  64:..\..\u8g2\csrc/u8x8_d_uc1701_dogs102.c ****   U8X8_C(0x0a5),		                /* enter powersafe: all pixel on, issue 142 */
  65:..\..\u8g2\csrc/u8x8_d_uc1701_dogs102.c ****   
  66:..\..\u8g2\csrc/u8x8_d_uc1701_dogs102.c ****   U8X8_END_TRANSFER(),             	/* disable chip */
  67:..\..\u8g2\csrc/u8x8_d_uc1701_dogs102.c ****   U8X8_END()             			/* end of sequence */
  68:..\..\u8g2\csrc/u8x8_d_uc1701_dogs102.c **** };
  69:..\..\u8g2\csrc/u8x8_d_uc1701_dogs102.c **** 
  70:..\..\u8g2\csrc/u8x8_d_uc1701_dogs102.c **** static const uint8_t u8x8_d_uc1701_dogs102_powersave0_seq[] = {
  71:..\..\u8g2\csrc/u8x8_d_uc1701_dogs102.c ****   U8X8_START_TRANSFER(),             	/* enable chip, delay is part of the transfer start */
  72:..\..\u8g2\csrc/u8x8_d_uc1701_dogs102.c ****   U8X8_C(0x0a4),		                /* all pixel off, issue 142 */
  73:..\..\u8g2\csrc/u8x8_d_uc1701_dogs102.c ****   U8X8_C(0x0af),		                /* display on */
  74:..\..\u8g2\csrc/u8x8_d_uc1701_dogs102.c ****   U8X8_END_TRANSFER(),             	/* disable chip */
  75:..\..\u8g2\csrc/u8x8_d_uc1701_dogs102.c ****   U8X8_END()             			/* end of sequence */
  76:..\..\u8g2\csrc/u8x8_d_uc1701_dogs102.c **** };
  77:..\..\u8g2\csrc/u8x8_d_uc1701_dogs102.c **** 
  78:..\..\u8g2\csrc/u8x8_d_uc1701_dogs102.c **** static const uint8_t u8x8_d_uc1701_dogs102_powersave1_seq[] = {
  79:..\..\u8g2\csrc/u8x8_d_uc1701_dogs102.c ****   U8X8_START_TRANSFER(),             	/* enable chip, delay is part of the transfer start */
  80:..\..\u8g2\csrc/u8x8_d_uc1701_dogs102.c ****   U8X8_C(0x0ae),		                /* display off */
  81:..\..\u8g2\csrc/u8x8_d_uc1701_dogs102.c ****   U8X8_C(0x0a5),		                /* enter powersafe: all pixel on, issue 142 */
  82:..\..\u8g2\csrc/u8x8_d_uc1701_dogs102.c ****   U8X8_END_TRANSFER(),             	/* disable chip */
  83:..\..\u8g2\csrc/u8x8_d_uc1701_dogs102.c ****   U8X8_END()             			/* end of sequence */
  84:..\..\u8g2\csrc/u8x8_d_uc1701_dogs102.c **** };
  85:..\..\u8g2\csrc/u8x8_d_uc1701_dogs102.c **** 
  86:..\..\u8g2\csrc/u8x8_d_uc1701_dogs102.c **** static const uint8_t u8x8_d_uc1701_dogs102_flip0_seq[] = {
  87:..\..\u8g2\csrc/u8x8_d_uc1701_dogs102.c ****   U8X8_START_TRANSFER(),             	/* enable chip, delay is part of the transfer start */
  88:..\..\u8g2\csrc/u8x8_d_uc1701_dogs102.c ****   U8X8_C(0x0a1),				/* segment remap a0/a1*/
  89:..\..\u8g2\csrc/u8x8_d_uc1701_dogs102.c ****   U8X8_C(0x0c0),				/* c0: scan dir normal, c8: reverse */
ARM GAS  C:\Users\gjl\AppData\Local\Temp\ccWPnPAS.s 			page 47


  90:..\..\u8g2\csrc/u8x8_d_uc1701_dogs102.c ****   U8X8_END_TRANSFER(),             	/* disable chip */
  91:..\..\u8g2\csrc/u8x8_d_uc1701_dogs102.c ****   U8X8_END()             			/* end of sequence */
  92:..\..\u8g2\csrc/u8x8_d_uc1701_dogs102.c **** };
  93:..\..\u8g2\csrc/u8x8_d_uc1701_dogs102.c **** 
  94:..\..\u8g2\csrc/u8x8_d_uc1701_dogs102.c **** static const uint8_t u8x8_d_uc1701_dogs102_flip1_seq[] = {
  95:..\..\u8g2\csrc/u8x8_d_uc1701_dogs102.c ****   U8X8_START_TRANSFER(),             	/* enable chip, delay is part of the transfer start */
  96:..\..\u8g2\csrc/u8x8_d_uc1701_dogs102.c ****   U8X8_C(0x0a0),				/* segment remap a0/a1*/
  97:..\..\u8g2\csrc/u8x8_d_uc1701_dogs102.c ****   U8X8_C(0x0c8),				/* c0: scan dir normal, c8: reverse */
  98:..\..\u8g2\csrc/u8x8_d_uc1701_dogs102.c ****   U8X8_END_TRANSFER(),             	/* disable chip */
  99:..\..\u8g2\csrc/u8x8_d_uc1701_dogs102.c ****   U8X8_END()             			/* end of sequence */
 100:..\..\u8g2\csrc/u8x8_d_uc1701_dogs102.c **** };
 101:..\..\u8g2\csrc/u8x8_d_uc1701_dogs102.c **** 
 102:..\..\u8g2\csrc/u8x8_d_uc1701_dogs102.c **** 
 103:..\..\u8g2\csrc/u8x8_d_uc1701_dogs102.c **** static const u8x8_display_info_t u8x8_uc1701_display_info =
 104:..\..\u8g2\csrc/u8x8_d_uc1701_dogs102.c **** {
 105:..\..\u8g2\csrc/u8x8_d_uc1701_dogs102.c ****   /* chip_enable_level = */ 0,
 106:..\..\u8g2\csrc/u8x8_d_uc1701_dogs102.c ****   /* chip_disable_level = */ 1,
 107:..\..\u8g2\csrc/u8x8_d_uc1701_dogs102.c ****   
 108:..\..\u8g2\csrc/u8x8_d_uc1701_dogs102.c ****   /* post_chip_enable_wait_ns = */ 5,
 109:..\..\u8g2\csrc/u8x8_d_uc1701_dogs102.c ****   /* pre_chip_disable_wait_ns = */ 5,
 110:..\..\u8g2\csrc/u8x8_d_uc1701_dogs102.c ****   /* reset_pulse_width_ms = */ 1, 
 111:..\..\u8g2\csrc/u8x8_d_uc1701_dogs102.c ****   /* post_reset_wait_ms = */ 6, 
 112:..\..\u8g2\csrc/u8x8_d_uc1701_dogs102.c ****   /* sda_setup_time_ns = */ 12,		
 113:..\..\u8g2\csrc/u8x8_d_uc1701_dogs102.c ****   /* sck_pulse_width_ns = */ 75,	/* half of cycle time (100ns according to datasheet), AVR: below 7
 114:..\..\u8g2\csrc/u8x8_d_uc1701_dogs102.c ****   /* sck_clock_hz = */ 4000000UL,	/* since Arduino 1.6.0, the SPI bus speed in Hz. Should be  10000
 115:..\..\u8g2\csrc/u8x8_d_uc1701_dogs102.c ****   /* spi_mode = */ 0,		/* active high, rising edge */
 116:..\..\u8g2\csrc/u8x8_d_uc1701_dogs102.c ****   /* i2c_bus_clock_100kHz = */ 4,
 117:..\..\u8g2\csrc/u8x8_d_uc1701_dogs102.c ****   /* data_setup_time_ns = */ 30,
 118:..\..\u8g2\csrc/u8x8_d_uc1701_dogs102.c ****   /* write_pulse_width_ns = */ 40,
 119:..\..\u8g2\csrc/u8x8_d_uc1701_dogs102.c ****   /* tile_width = */ 13,		/* width of 13*8=104 pixel */
 120:..\..\u8g2\csrc/u8x8_d_uc1701_dogs102.c ****   /* tile_hight = */ 8,
 121:..\..\u8g2\csrc/u8x8_d_uc1701_dogs102.c ****   /* default_x_offset = */ 0,
 122:..\..\u8g2\csrc/u8x8_d_uc1701_dogs102.c ****   /* flipmode_x_offset = */ 30,
 123:..\..\u8g2\csrc/u8x8_d_uc1701_dogs102.c ****   /* pixel_width = */ 102,
 124:..\..\u8g2\csrc/u8x8_d_uc1701_dogs102.c ****   /* pixel_height = */ 64
 125:..\..\u8g2\csrc/u8x8_d_uc1701_dogs102.c **** };
 126:..\..\u8g2\csrc/u8x8_d_uc1701_dogs102.c **** 
 127:..\..\u8g2\csrc/u8x8_d_uc1701_dogs102.c **** uint8_t u8x8_d_uc1701_ea_dogs102(u8x8_t *u8x8, uint8_t msg, uint8_t arg_int, void *arg_ptr)
 128:..\..\u8g2\csrc/u8x8_d_uc1701_dogs102.c **** {
 623              		.loc 1 128 0
 624              		.cfi_startproc
 625              		@ args = 0, pretend = 0, frame = 8
 626              		@ frame_needed = 0, uses_anonymous_args = 0
 627              	.LVL0:
 628 0000 F7B5     		push	{r0, r1, r2, r4, r5, r6, r7, lr}
 629              		.cfi_def_cfa_offset 32
 630              		.cfi_offset 0, -32
 631              		.cfi_offset 1, -28
 632              		.cfi_offset 2, -24
 633              		.cfi_offset 4, -20
 634              		.cfi_offset 5, -16
 635              		.cfi_offset 6, -12
 636              		.cfi_offset 7, -8
 637              		.cfi_offset 14, -4
 129:..\..\u8g2\csrc/u8x8_d_uc1701_dogs102.c ****   uint8_t x, c;
 130:..\..\u8g2\csrc/u8x8_d_uc1701_dogs102.c ****   uint8_t *ptr;
 131:..\..\u8g2\csrc/u8x8_d_uc1701_dogs102.c ****   switch(msg)
ARM GAS  C:\Users\gjl\AppData\Local\Temp\ccWPnPAS.s 			page 48


 638              		.loc 1 131 0
 639 0002 0939     		subs	r1, r1, #9
 640              	.LVL1:
 128:..\..\u8g2\csrc/u8x8_d_uc1701_dogs102.c ****   uint8_t x, c;
 641              		.loc 1 128 0
 642 0004 0400     		movs	r4, r0
 643 0006 1500     		movs	r5, r2
 644 0008 1F00     		movs	r7, r3
 645              		.loc 1 131 0
 646 000a 0800     		movs	r0, r1
 647              	.LVL2:
 648 000c 0629     		cmp	r1, #6
 649 000e 6CD8     		bhi	.L14
 650 0010 FFF7FEFF 		bl	__gnu_thumb1_case_uqi
 651              	.L4:
 652 0014 04       		.byte	(.L3-.L4)/2
 653 0015 09       		.byte	(.L5-.L4)/2
 654 0016 0F       		.byte	(.L6-.L4)/2
 655 0017 6B       		.byte	(.L14-.L4)/2
 656 0018 19       		.byte	(.L7-.L4)/2
 657 0019 2B       		.byte	(.L8-.L4)/2
 658 001a 3B       		.byte	(.L9-.L4)/2
 659 001b 00       		.p2align 1
 660              	.L3:
 132:..\..\u8g2\csrc/u8x8_d_uc1701_dogs102.c ****   {
 133:..\..\u8g2\csrc/u8x8_d_uc1701_dogs102.c ****     case U8X8_MSG_DISPLAY_SETUP_MEMORY:
 134:..\..\u8g2\csrc/u8x8_d_uc1701_dogs102.c ****       u8x8_d_helper_display_setup_memory(u8x8, &u8x8_uc1701_display_info);
 661              		.loc 1 134 0
 662 001c 3449     		ldr	r1, .L21
 663 001e 2000     		movs	r0, r4
 664 0020 FFF7FEFF 		bl	u8x8_d_helper_display_setup_memory
 665              	.LVL3:
 666 0024 2FE0     		b	.L16
 667              	.LVL4:
 668              	.L5:
 135:..\..\u8g2\csrc/u8x8_d_uc1701_dogs102.c ****       break;
 136:..\..\u8g2\csrc/u8x8_d_uc1701_dogs102.c ****     case U8X8_MSG_DISPLAY_INIT:
 137:..\..\u8g2\csrc/u8x8_d_uc1701_dogs102.c ****       u8x8_d_helper_display_init(u8x8);
 669              		.loc 1 137 0
 670 0026 2000     		movs	r0, r4
 671 0028 FFF7FEFF 		bl	u8x8_d_helper_display_init
 672              	.LVL5:
 138:..\..\u8g2\csrc/u8x8_d_uc1701_dogs102.c ****       u8x8_cad_SendSequence(u8x8, u8x8_d_uc1701_dogs102_init_seq);
 673              		.loc 1 138 0
 674 002c 3049     		ldr	r1, .L21
 675 002e 1831     		adds	r1, r1, #24
 676 0030 05E0     		b	.L19
 677              	.LVL6:
 678              	.L6:
 679 0032 2F49     		ldr	r1, .L21
 139:..\..\u8g2\csrc/u8x8_d_uc1701_dogs102.c ****       break;
 140:..\..\u8g2\csrc/u8x8_d_uc1701_dogs102.c ****     case U8X8_MSG_DISPLAY_SET_POWER_SAVE:
 141:..\..\u8g2\csrc/u8x8_d_uc1701_dogs102.c ****       if ( arg_int == 0 )
 680              		.loc 1 141 0
 681 0034 002A     		cmp	r2, #0
 682 0036 01D1     		bne	.L10
 142:..\..\u8g2\csrc/u8x8_d_uc1701_dogs102.c **** 	u8x8_cad_SendSequence(u8x8, u8x8_d_uc1701_dogs102_powersave0_seq);
ARM GAS  C:\Users\gjl\AppData\Local\Temp\ccWPnPAS.s 			page 49


 683              		.loc 1 142 0
 684 0038 3931     		adds	r1, r1, #57
 685 003a 00E0     		b	.L19
 686              	.L10:
 143:..\..\u8g2\csrc/u8x8_d_uc1701_dogs102.c ****       else
 144:..\..\u8g2\csrc/u8x8_d_uc1701_dogs102.c **** 	u8x8_cad_SendSequence(u8x8, u8x8_d_uc1701_dogs102_powersave1_seq);
 687              		.loc 1 144 0
 688 003c 4031     		adds	r1, r1, #64
 689              	.LVL7:
 690              	.L19:
 691 003e 2000     		movs	r0, r4
 692 0040 FFF7FEFF 		bl	u8x8_cad_SendSequence
 693              	.LVL8:
 694 0044 1FE0     		b	.L16
 695              	.LVL9:
 696              	.L7:
 697 0046 2A49     		ldr	r1, .L21
 145:..\..\u8g2\csrc/u8x8_d_uc1701_dogs102.c ****       break;
 146:..\..\u8g2\csrc/u8x8_d_uc1701_dogs102.c ****     case U8X8_MSG_DISPLAY_SET_FLIP_MODE:
 147:..\..\u8g2\csrc/u8x8_d_uc1701_dogs102.c ****       if ( arg_int == 0 )
 698              		.loc 1 147 0
 699 0048 002A     		cmp	r2, #0
 700 004a 06D1     		bne	.L11
 148:..\..\u8g2\csrc/u8x8_d_uc1701_dogs102.c ****       {
 149:..\..\u8g2\csrc/u8x8_d_uc1701_dogs102.c **** 	u8x8_cad_SendSequence(u8x8, u8x8_d_uc1701_dogs102_flip0_seq);
 701              		.loc 1 149 0
 702 004c 4731     		adds	r1, r1, #71
 703 004e 2000     		movs	r0, r4
 704 0050 FFF7FEFF 		bl	u8x8_cad_SendSequence
 705              	.LVL10:
 150:..\..\u8g2\csrc/u8x8_d_uc1701_dogs102.c **** 	u8x8->x_offset = u8x8->display_info->default_x_offset;
 706              		.loc 1 150 0
 707 0054 2368     		ldr	r3, [r4]
 708 0056 9B7C     		ldrb	r3, [r3, #18]
 709 0058 05E0     		b	.L18
 710              	.LVL11:
 711              	.L11:
 151:..\..\u8g2\csrc/u8x8_d_uc1701_dogs102.c ****       }
 152:..\..\u8g2\csrc/u8x8_d_uc1701_dogs102.c ****       else
 153:..\..\u8g2\csrc/u8x8_d_uc1701_dogs102.c ****       {
 154:..\..\u8g2\csrc/u8x8_d_uc1701_dogs102.c **** 	u8x8_cad_SendSequence(u8x8, u8x8_d_uc1701_dogs102_flip1_seq);
 712              		.loc 1 154 0
 713 005a 4E31     		adds	r1, r1, #78
 714 005c 2000     		movs	r0, r4
 715 005e FFF7FEFF 		bl	u8x8_cad_SendSequence
 716              	.LVL12:
 155:..\..\u8g2\csrc/u8x8_d_uc1701_dogs102.c **** 	u8x8->x_offset = u8x8->display_info->flipmode_x_offset;
 717              		.loc 1 155 0
 718 0062 2368     		ldr	r3, [r4]
 719 0064 DB7C     		ldrb	r3, [r3, #19]
 720              	.L18:
 721 0066 A377     		strb	r3, [r4, #30]
 722 0068 0DE0     		b	.L16
 723              	.LVL13:
 724              	.L8:
 156:..\..\u8g2\csrc/u8x8_d_uc1701_dogs102.c ****       }	
 157:..\..\u8g2\csrc/u8x8_d_uc1701_dogs102.c ****       break;
ARM GAS  C:\Users\gjl\AppData\Local\Temp\ccWPnPAS.s 			page 50


 158:..\..\u8g2\csrc/u8x8_d_uc1701_dogs102.c **** #ifdef U8X8_WITH_SET_CONTRAST
 159:..\..\u8g2\csrc/u8x8_d_uc1701_dogs102.c ****     case U8X8_MSG_DISPLAY_SET_CONTRAST:
 160:..\..\u8g2\csrc/u8x8_d_uc1701_dogs102.c ****       u8x8_cad_StartTransfer(u8x8);
 725              		.loc 1 160 0
 726 006a 2000     		movs	r0, r4
 727 006c FFF7FEFF 		bl	u8x8_cad_StartTransfer
 728              	.LVL14:
 161:..\..\u8g2\csrc/u8x8_d_uc1701_dogs102.c ****       u8x8_cad_SendCmd(u8x8, 0x081 );
 729              		.loc 1 161 0
 730 0070 8121     		movs	r1, #129
 731 0072 2000     		movs	r0, r4
 732 0074 FFF7FEFF 		bl	u8x8_cad_SendCmd
 733              	.LVL15:
 162:..\..\u8g2\csrc/u8x8_d_uc1701_dogs102.c ****       u8x8_cad_SendArg(u8x8, arg_int >> 2 );	/* uc1701 has range from 0 to 63 */
 734              		.loc 1 162 0
 735 0078 A908     		lsrs	r1, r5, #2
 736 007a 2000     		movs	r0, r4
 737 007c FFF7FEFF 		bl	u8x8_cad_SendArg
 738              	.LVL16:
 739              	.L17:
 163:..\..\u8g2\csrc/u8x8_d_uc1701_dogs102.c ****       u8x8_cad_EndTransfer(u8x8);
 740              		.loc 1 163 0
 741 0080 2000     		movs	r0, r4
 742 0082 FFF7FEFF 		bl	u8x8_cad_EndTransfer
 743              	.LVL17:
 744              	.L16:
 164:..\..\u8g2\csrc/u8x8_d_uc1701_dogs102.c ****       break;
 165:..\..\u8g2\csrc/u8x8_d_uc1701_dogs102.c **** #endif
 166:..\..\u8g2\csrc/u8x8_d_uc1701_dogs102.c ****     case U8X8_MSG_DISPLAY_DRAW_TILE:
 167:..\..\u8g2\csrc/u8x8_d_uc1701_dogs102.c ****       u8x8_cad_StartTransfer(u8x8);
 168:..\..\u8g2\csrc/u8x8_d_uc1701_dogs102.c ****     
 169:..\..\u8g2\csrc/u8x8_d_uc1701_dogs102.c ****       x = ((u8x8_tile_t *)arg_ptr)->x_pos;
 170:..\..\u8g2\csrc/u8x8_d_uc1701_dogs102.c ****       x *= 8;
 171:..\..\u8g2\csrc/u8x8_d_uc1701_dogs102.c ****       x += u8x8->x_offset;
 172:..\..\u8g2\csrc/u8x8_d_uc1701_dogs102.c ****       u8x8_cad_SendCmd(u8x8, 0x010 | (x>>4) );
 173:..\..\u8g2\csrc/u8x8_d_uc1701_dogs102.c ****       u8x8_cad_SendCmd(u8x8, 0x000 | ((x&15)));
 174:..\..\u8g2\csrc/u8x8_d_uc1701_dogs102.c ****       u8x8_cad_SendCmd(u8x8, 0x0b0 | (((u8x8_tile_t *)arg_ptr)->y_pos));
 175:..\..\u8g2\csrc/u8x8_d_uc1701_dogs102.c ****     
 176:..\..\u8g2\csrc/u8x8_d_uc1701_dogs102.c ****       c = ((u8x8_tile_t *)arg_ptr)->cnt;
 177:..\..\u8g2\csrc/u8x8_d_uc1701_dogs102.c ****       c *= 8;
 178:..\..\u8g2\csrc/u8x8_d_uc1701_dogs102.c ****       ptr = ((u8x8_tile_t *)arg_ptr)->tile_ptr;
 179:..\..\u8g2\csrc/u8x8_d_uc1701_dogs102.c ****       /* 
 180:..\..\u8g2\csrc/u8x8_d_uc1701_dogs102.c **** 	The following if condition checks the hardware limits of the uc1701 
 181:..\..\u8g2\csrc/u8x8_d_uc1701_dogs102.c **** 	controller: It is not allowed to write beyond the display limits.
 182:..\..\u8g2\csrc/u8x8_d_uc1701_dogs102.c **** 	This is in fact an issue within flip mode.
 183:..\..\u8g2\csrc/u8x8_d_uc1701_dogs102.c ****       */
 184:..\..\u8g2\csrc/u8x8_d_uc1701_dogs102.c ****       if ( c + x > 132u )
 185:..\..\u8g2\csrc/u8x8_d_uc1701_dogs102.c ****       {
 186:..\..\u8g2\csrc/u8x8_d_uc1701_dogs102.c **** 	c = 132u;
 187:..\..\u8g2\csrc/u8x8_d_uc1701_dogs102.c **** 	c -= x;
 188:..\..\u8g2\csrc/u8x8_d_uc1701_dogs102.c ****       }
 189:..\..\u8g2\csrc/u8x8_d_uc1701_dogs102.c ****       do
 190:..\..\u8g2\csrc/u8x8_d_uc1701_dogs102.c ****       {
 191:..\..\u8g2\csrc/u8x8_d_uc1701_dogs102.c **** 	u8x8_cad_SendData(u8x8, c, ptr);	/* note: SendData can not handle more than 255 bytes */
 192:..\..\u8g2\csrc/u8x8_d_uc1701_dogs102.c **** 	arg_int--;
 193:..\..\u8g2\csrc/u8x8_d_uc1701_dogs102.c ****       } while( arg_int > 0 );
 194:..\..\u8g2\csrc/u8x8_d_uc1701_dogs102.c ****       
ARM GAS  C:\Users\gjl\AppData\Local\Temp\ccWPnPAS.s 			page 51


 195:..\..\u8g2\csrc/u8x8_d_uc1701_dogs102.c ****       u8x8_cad_EndTransfer(u8x8);
 196:..\..\u8g2\csrc/u8x8_d_uc1701_dogs102.c ****       break;
 197:..\..\u8g2\csrc/u8x8_d_uc1701_dogs102.c ****     default:
 198:..\..\u8g2\csrc/u8x8_d_uc1701_dogs102.c ****       return 0;
 199:..\..\u8g2\csrc/u8x8_d_uc1701_dogs102.c ****   }
 200:..\..\u8g2\csrc/u8x8_d_uc1701_dogs102.c ****   return 1;
 745              		.loc 1 200 0
 746 0086 0120     		movs	r0, #1
 164:..\..\u8g2\csrc/u8x8_d_uc1701_dogs102.c ****       break;
 747              		.loc 1 164 0
 748 0088 30E0     		b	.L2
 749              	.LVL18:
 750              	.L9:
 167:..\..\u8g2\csrc/u8x8_d_uc1701_dogs102.c ****     
 751              		.loc 1 167 0
 752 008a 2000     		movs	r0, r4
 753 008c FFF7FEFF 		bl	u8x8_cad_StartTransfer
 754              	.LVL19:
 172:..\..\u8g2\csrc/u8x8_d_uc1701_dogs102.c ****       u8x8_cad_SendCmd(u8x8, 0x000 | ((x&15)));
 755              		.loc 1 172 0
 756 0090 1021     		movs	r1, #16
 169:..\..\u8g2\csrc/u8x8_d_uc1701_dogs102.c ****       x *= 8;
 757              		.loc 1 169 0
 758 0092 7E79     		ldrb	r6, [r7, #5]
 759              	.LVL20:
 171:..\..\u8g2\csrc/u8x8_d_uc1701_dogs102.c ****       u8x8_cad_SendCmd(u8x8, 0x010 | (x>>4) );
 760              		.loc 1 171 0
 761 0094 A37F     		ldrb	r3, [r4, #30]
 170:..\..\u8g2\csrc/u8x8_d_uc1701_dogs102.c ****       x += u8x8->x_offset;
 762              		.loc 1 170 0
 763 0096 F600     		lsls	r6, r6, #3
 764              	.LVL21:
 171:..\..\u8g2\csrc/u8x8_d_uc1701_dogs102.c ****       u8x8_cad_SendCmd(u8x8, 0x010 | (x>>4) );
 765              		.loc 1 171 0
 766 0098 F618     		adds	r6, r6, r3
 767              	.LVL22:
 768 009a F6B2     		uxtb	r6, r6
 769              	.LVL23:
 172:..\..\u8g2\csrc/u8x8_d_uc1701_dogs102.c ****       u8x8_cad_SendCmd(u8x8, 0x000 | ((x&15)));
 770              		.loc 1 172 0
 771 009c 3309     		lsrs	r3, r6, #4
 772 009e 1943     		orrs	r1, r3
 773 00a0 2000     		movs	r0, r4
 774 00a2 FFF7FEFF 		bl	u8x8_cad_SendCmd
 775              	.LVL24:
 173:..\..\u8g2\csrc/u8x8_d_uc1701_dogs102.c ****       u8x8_cad_SendCmd(u8x8, 0x0b0 | (((u8x8_tile_t *)arg_ptr)->y_pos));
 776              		.loc 1 173 0
 777 00a6 0F21     		movs	r1, #15
 778 00a8 2000     		movs	r0, r4
 779 00aa 3140     		ands	r1, r6
 780 00ac FFF7FEFF 		bl	u8x8_cad_SendCmd
 781              	.LVL25:
 174:..\..\u8g2\csrc/u8x8_d_uc1701_dogs102.c ****     
 782              		.loc 1 174 0
 783 00b0 B023     		movs	r3, #176
 784 00b2 B979     		ldrb	r1, [r7, #6]
 785 00b4 2000     		movs	r0, r4
ARM GAS  C:\Users\gjl\AppData\Local\Temp\ccWPnPAS.s 			page 52


 786 00b6 1943     		orrs	r1, r3
 787 00b8 FFF7FEFF 		bl	u8x8_cad_SendCmd
 788              	.LVL26:
 176:..\..\u8g2\csrc/u8x8_d_uc1701_dogs102.c ****       c *= 8;
 789              		.loc 1 176 0
 790 00bc 3B79     		ldrb	r3, [r7, #4]
 791              	.LVL27:
 178:..\..\u8g2\csrc/u8x8_d_uc1701_dogs102.c ****       /* 
 792              		.loc 1 178 0
 793 00be 3F68     		ldr	r7, [r7]
 794              	.LVL28:
 177:..\..\u8g2\csrc/u8x8_d_uc1701_dogs102.c ****       ptr = ((u8x8_tile_t *)arg_ptr)->tile_ptr;
 795              		.loc 1 177 0
 796 00c0 DB00     		lsls	r3, r3, #3
 797              	.LVL29:
 798 00c2 DBB2     		uxtb	r3, r3
 799 00c4 0193     		str	r3, [sp, #4]
 800              	.LVL30:
 184:..\..\u8g2\csrc/u8x8_d_uc1701_dogs102.c ****       {
 801              		.loc 1 184 0
 802 00c6 9B19     		adds	r3, r3, r6
 803 00c8 842B     		cmp	r3, #132
 804 00ca 04DD     		ble	.L13
 805              	.LVL31:
 187:..\..\u8g2\csrc/u8x8_d_uc1701_dogs102.c ****       }
 806              		.loc 1 187 0
 807 00cc 7C23     		movs	r3, #124
 808 00ce 5B42     		rsbs	r3, r3, #0
 809 00d0 9E1B     		subs	r6, r3, r6
 810              	.LVL32:
 811 00d2 F3B2     		uxtb	r3, r6
 812 00d4 0193     		str	r3, [sp, #4]
 813              	.LVL33:
 814              	.L13:
 192:..\..\u8g2\csrc/u8x8_d_uc1701_dogs102.c ****       } while( arg_int > 0 );
 815              		.loc 1 192 0 discriminator 1
 816 00d6 013D     		subs	r5, r5, #1
 817              	.LVL34:
 191:..\..\u8g2\csrc/u8x8_d_uc1701_dogs102.c **** 	arg_int--;
 818              		.loc 1 191 0 discriminator 1
 819 00d8 3A00     		movs	r2, r7
 820 00da 0199     		ldr	r1, [sp, #4]
 821 00dc 2000     		movs	r0, r4
 192:..\..\u8g2\csrc/u8x8_d_uc1701_dogs102.c ****       } while( arg_int > 0 );
 822              		.loc 1 192 0 discriminator 1
 823 00de EDB2     		uxtb	r5, r5
 191:..\..\u8g2\csrc/u8x8_d_uc1701_dogs102.c **** 	arg_int--;
 824              		.loc 1 191 0 discriminator 1
 825 00e0 FFF7FEFF 		bl	u8x8_cad_SendData
 826              	.LVL35:
 193:..\..\u8g2\csrc/u8x8_d_uc1701_dogs102.c ****       
 827              		.loc 1 193 0 discriminator 1
 828 00e4 002D     		cmp	r5, #0
 829 00e6 F6D1     		bne	.L13
 830 00e8 CAE7     		b	.L17
 831              	.LVL36:
 832              	.L14:
ARM GAS  C:\Users\gjl\AppData\Local\Temp\ccWPnPAS.s 			page 53


 198:..\..\u8g2\csrc/u8x8_d_uc1701_dogs102.c ****   }
 833              		.loc 1 198 0
 834 00ea 0020     		movs	r0, #0
 835              	.LVL37:
 836              	.L2:
 201:..\..\u8g2\csrc/u8x8_d_uc1701_dogs102.c **** }
 837              		.loc 1 201 0
 838              		@ sp needed
 839              	.LVL38:
 840 00ec FEBD     		pop	{r1, r2, r3, r4, r5, r6, r7, pc}
 841              	.L22:
 842 00ee C046     		.align	2
 843              	.L21:
 844 00f0 00000000 		.word	.LANCHOR0
 845              		.cfi_endproc
 846              	.LFE0:
 847              		.size	u8x8_d_uc1701_ea_dogs102, .-u8x8_d_uc1701_ea_dogs102
 848              		.section	.rodata
 849              		.align	2
 850              		.set	.LANCHOR0,. + 0
 851              		.type	u8x8_uc1701_display_info, %object
 852              		.size	u8x8_uc1701_display_info, 24
 853              	u8x8_uc1701_display_info:
 854 0000 00       		.byte	0
 855 0001 01       		.byte	1
 856 0002 05       		.byte	5
 857 0003 05       		.byte	5
 858 0004 01       		.byte	1
 859 0005 06       		.byte	6
 860 0006 0C       		.byte	12
 861 0007 4B       		.byte	75
 862 0008 00093D00 		.word	4000000
 863 000c 00       		.byte	0
 864 000d 04       		.byte	4
 865 000e 1E       		.byte	30
 866 000f 28       		.byte	40
 867 0010 0D       		.byte	13
 868 0011 08       		.byte	8
 869 0012 00       		.byte	0
 870 0013 1E       		.byte	30
 871 0014 6600     		.short	102
 872 0016 4000     		.short	64
 873              		.type	u8x8_d_uc1701_dogs102_init_seq, %object
 874              		.size	u8x8_d_uc1701_dogs102_init_seq, 33
 875              	u8x8_d_uc1701_dogs102_init_seq:
 876 0018 18       		.byte	24
 877 0019 15       		.byte	21
 878 001a E2       		.byte	-30
 879 001b 15       		.byte	21
 880 001c AE       		.byte	-82
 881 001d 15       		.byte	21
 882 001e 40       		.byte	64
 883 001f 15       		.byte	21
 884 0020 A1       		.byte	-95
 885 0021 15       		.byte	21
 886 0022 C0       		.byte	-64
 887 0023 15       		.byte	21
ARM GAS  C:\Users\gjl\AppData\Local\Temp\ccWPnPAS.s 			page 54


 888 0024 A6       		.byte	-90
 889 0025 15       		.byte	21
 890 0026 A2       		.byte	-94
 891 0027 15       		.byte	21
 892 0028 2F       		.byte	47
 893 0029 15       		.byte	21
 894 002a 27       		.byte	39
 895 002b 15       		.byte	21
 896 002c 81       		.byte	-127
 897 002d 16       		.byte	22
 898 002e 0E       		.byte	14
 899 002f 15       		.byte	21
 900 0030 FA       		.byte	-6
 901 0031 15       		.byte	21
 902 0032 90       		.byte	-112
 903 0033 15       		.byte	21
 904 0034 AE       		.byte	-82
 905 0035 15       		.byte	21
 906 0036 A5       		.byte	-91
 907 0037 19       		.byte	25
 908 0038 FF       		.byte	-1
 909              		.type	u8x8_d_uc1701_dogs102_powersave0_seq, %object
 910              		.size	u8x8_d_uc1701_dogs102_powersave0_seq, 7
 911              	u8x8_d_uc1701_dogs102_powersave0_seq:
 912 0039 18       		.byte	24
 913 003a 15       		.byte	21
 914 003b A4       		.byte	-92
 915 003c 15       		.byte	21
 916 003d AF       		.byte	-81
 917 003e 19       		.byte	25
 918 003f FF       		.byte	-1
 919              		.type	u8x8_d_uc1701_dogs102_powersave1_seq, %object
 920              		.size	u8x8_d_uc1701_dogs102_powersave1_seq, 7
 921              	u8x8_d_uc1701_dogs102_powersave1_seq:
 922 0040 18       		.byte	24
 923 0041 15       		.byte	21
 924 0042 AE       		.byte	-82
 925 0043 15       		.byte	21
 926 0044 A5       		.byte	-91
 927 0045 19       		.byte	25
 928 0046 FF       		.byte	-1
 929              		.type	u8x8_d_uc1701_dogs102_flip0_seq, %object
 930              		.size	u8x8_d_uc1701_dogs102_flip0_seq, 7
 931              	u8x8_d_uc1701_dogs102_flip0_seq:
 932 0047 18       		.byte	24
 933 0048 15       		.byte	21
 934 0049 A1       		.byte	-95
 935 004a 15       		.byte	21
 936 004b C0       		.byte	-64
 937 004c 19       		.byte	25
 938 004d FF       		.byte	-1
 939              		.type	u8x8_d_uc1701_dogs102_flip1_seq, %object
 940              		.size	u8x8_d_uc1701_dogs102_flip1_seq, 7
 941              	u8x8_d_uc1701_dogs102_flip1_seq:
 942 004e 18       		.byte	24
 943 004f 15       		.byte	21
 944 0050 A0       		.byte	-96
ARM GAS  C:\Users\gjl\AppData\Local\Temp\ccWPnPAS.s 			page 55


 945 0051 15       		.byte	21
 946 0052 C8       		.byte	-56
 947 0053 19       		.byte	25
 948 0054 FF       		.byte	-1
 949              		.text
 950              	.Letext0:
 951              		.file 2 "c:\\program files (x86)\\cypress\\psoc creator\\4.1\\psoc creator\\import\\gnu\\arm\\5.4.
 952              		.file 3 "c:\\program files (x86)\\cypress\\psoc creator\\4.1\\psoc creator\\import\\gnu\\arm\\5.4.
 953              		.file 4 "..\\..\\u8g2\\csrc\\u8x8.h"